GAS LISTING /cygdrive/c/Users/THESCI~1/AppData/Local/Temp/ccH1olGy.s 			page 1


   1              		.file	"CS229Image.c"
   2              		.section	.debug_abbrev,"dr"
   3              	Ldebug_abbrev0:
   4              		.section	.debug_info,"dr"
   5              	Ldebug_info0:
   6              		.section	.debug_line,"dr"
   7              	Ldebug_line0:
   8 0000 4D080000 		.text
   8      0200F700 
   8      00000101 
   8      FB0E0D00 
   8      01010101 
   9              	Ltext0:
  10              		.p2align 4,,15
  11              	.globl _determine_multiplier
  13              	_determine_multiplier:
  14              	LFB8:
  15              		.file 1 "./Source/CS229Image.c"
   1:./Source/CS229Image.c **** /*
   2:./Source/CS229Image.c **** ///////////////////////////////////////////////////////////////////////////////////
   3:./Source/CS229Image.c **** /////////////////////////////////// CS229Image.c //////////////////////////////////
   4:./Source/CS229Image.c **** ///////////////////////////////////////////////////////////////////////////////////
   5:./Source/CS229Image.c **** /// Provides functionality to interface with cs229 image files including:       ///
   6:./Source/CS229Image.c **** /// image operations, initialization, read in, write out and conversion.        ///
   7:./Source/CS229Image.c **** ///////////////////////////////////////////////////////////////////////////////////
   8:./Source/CS229Image.c **** ///////////////////////////////////////////////////////////////////////////////////
   9:./Source/CS229Image.c **** */
  10:./Source/CS229Image.c **** #ifndef _CS229IMAGE_C
  11:./Source/CS229Image.c **** #define _CS229IMAGE_C
  12:./Source/CS229Image.c **** 
  13:./Source/CS229Image.c **** #include "../Headers/CS229Image.h"
  14:./Source/CS229Image.c **** 
  15:./Source/CS229Image.c **** /* Returns a value that represents twice the size of a single pixel in
  16:./Source/CS229Image.c ****  * the image file supplied in bytes based on color mode and channel size.
  17:./Source/CS229Image.c ****  */
  18:./Source/CS229Image.c **** uint32_t determine_multiplier(PCSPIC);
  19:./Source/CS229Image.c **** 
  20:./Source/CS229Image.c **** /* Reads an image file into the first parameter from the supplied file pointer.
  21:./Source/CS229Image.c ****  * It is the user's responsibility to both open and close the file stream in it
  22:./Source/CS229Image.c ****  * is required. Any data already in the supplied in the image structure will
  23:./Source/CS229Image.c ****  * be overwritten without warning. If an error is returned then the supplied
  24:./Source/CS229Image.c ****  * file will be in an undefined location in the file.
  25:./Source/CS229Image.c ****  */
  26:./Source/CS229Image.c **** uint32_t read_cs229picture(PCSPIC dest, PFILE source)
  27:./Source/CS229Image.c **** {
  28:./Source/CS229Image.c ****     /* Create usefull local variables */
  29:./Source/CS229Image.c ****     uint8_t* pdata;
  30:./Source/CS229Image.c ****     uint8_t* final;
  31:./Source/CS229Image.c ****     uint32_t mul;
  32:./Source/CS229Image.c **** 
  33:./Source/CS229Image.c ****     /* If we don't have a destination then we have failed */
  34:./Source/CS229Image.c ****     if(!dest)
  35:./Source/CS229Image.c ****         return NULL_POINTER;
  36:./Source/CS229Image.c ****     
  37:./Source/CS229Image.c ****     /* If we don't have a source then we have failed */
  38:./Source/CS229Image.c ****     if(!source)
  39:./Source/CS229Image.c ****         return FILE_NOT_FOUND;
GAS LISTING /cygdrive/c/Users/THESCI~1/AppData/Local/Temp/ccH1olGy.s 			page 2


  40:./Source/CS229Image.c **** 
  41:./Source/CS229Image.c ****     /* Read in the magic number of this image */
  42:./Source/CS229Image.c ****     if(fscanf(source,"%c",&dest->magic_number) != 1)
  43:./Source/CS229Image.c ****         return UNEXPECTED_END_OF_FILE;
  44:./Source/CS229Image.c **** 
  45:./Source/CS229Image.c ****     /* If we didn't get a good magic number don't do anything else */
  46:./Source/CS229Image.c ****     if(dest->magic_number != CS229_MAGIC_NUMBER)
  47:./Source/CS229Image.c ****         return INVALID_IMAGE_FORMAT;
  48:./Source/CS229Image.c **** 
  49:./Source/CS229Image.c ****     /* Read in our first channel size */
  50:./Source/CS229Image.c ****     if(fscanf(source,"%c",&dest->first_channel.red_channel_size) != 1)
  51:./Source/CS229Image.c ****         return UNEXPECTED_END_OF_FILE;
  52:./Source/CS229Image.c **** 
  53:./Source/CS229Image.c ****     /* Read in our second channel size */
  54:./Source/CS229Image.c ****     if(fscanf(source,"%c",&dest->green_channel_size) != 1)
  55:./Source/CS229Image.c ****         return UNEXPECTED_END_OF_FILE;
  56:./Source/CS229Image.c **** 
  57:./Source/CS229Image.c ****     /* Read in our third channel size */
  58:./Source/CS229Image.c ****     if(fscanf(source,"%c",&dest->blue_channel_size) != 1)
  59:./Source/CS229Image.c ****         return UNEXPECTED_END_OF_FILE;
  60:./Source/CS229Image.c **** 
  61:./Source/CS229Image.c ****     /* Read in the color mode of this image */
  62:./Source/CS229Image.c ****     if(fscanf(source,"%c",&dest->color_mode) != 1)
  63:./Source/CS229Image.c ****         return UNEXPECTED_END_OF_FILE;
  64:./Source/CS229Image.c **** 
  65:./Source/CS229Image.c ****     /* Check that we have a valid color format */
  66:./Source/CS229Image.c ****     if(dest->color_mode != MODE_COLOR && dest->color_mode != MODE_BLACKWHITE)
  67:./Source/CS229Image.c ****         return INVALID_IMAGE_COLOR_FORMAT;
  68:./Source/CS229Image.c **** 
  69:./Source/CS229Image.c ****     /* Read in the image width */
  70:./Source/CS229Image.c ****     if(fscanf(source,"%c%c%c%c",&dest->width.bytes.byte1,&dest->width.bytes.byte2,&dest->width.byte
  71:./Source/CS229Image.c ****         return UNEXPECTED_END_OF_FILE;
  72:./Source/CS229Image.c **** 
  73:./Source/CS229Image.c ****     /* Read in the image height */
  74:./Source/CS229Image.c ****     if(fscanf(source,"%c%c%c%c",&dest->height.bytes.byte1,&dest->height.bytes.byte2,&dest->height.b
  75:./Source/CS229Image.c ****         return UNEXPECTED_END_OF_FILE;
  76:./Source/CS229Image.c **** 
  77:./Source/CS229Image.c ****     /* Determine how much space a single pixel takes up */
  78:./Source/CS229Image.c ****     mul = determine_multiplier(dest);
  79:./Source/CS229Image.c **** 
  80:./Source/CS229Image.c ****     /* Check if we have valid channel sizes */
  81:./Source/CS229Image.c ****     if(mul == 0x0)
  82:./Source/CS229Image.c ****         return INVALID_CHANNEL_SIZE;
  83:./Source/CS229Image.c **** 
  84:./Source/CS229Image.c ****     /* Allocate space for the image */
  85:./Source/CS229Image.c ****     dest->data = (uint8_t*)malloc((size_t)(dest->height.value * dest->width.value * mul / 2 + (mul 
  86:./Source/CS229Image.c **** 
  87:./Source/CS229Image.c ****     /* Do some math to determine when data ends */
  88:./Source/CS229Image.c ****     pdata = dest->data;
  89:./Source/CS229Image.c ****     final = pdata + dest->height.value * dest->width.value * mul / 2 + (mul % 2 ? 1 : 0);
  90:./Source/CS229Image.c **** 
  91:./Source/CS229Image.c ****     /* Read in our image data */
  92:./Source/CS229Image.c ****     while(pdata < final && fscanf(source,"%c",pdata++) != EOF);
  93:./Source/CS229Image.c **** 
  94:./Source/CS229Image.c ****     /* If we didn't read in all of the data we need then don't expect the image to be correct */
  95:./Source/CS229Image.c ****     if(pdata != final)
  96:./Source/CS229Image.c ****         return UNEXPECTED_END_OF_FILE;
GAS LISTING /cygdrive/c/Users/THESCI~1/AppData/Local/Temp/ccH1olGy.s 			page 3


  97:./Source/CS229Image.c **** 
  98:./Source/CS229Image.c ****     /* Successfully loaded image */
  99:./Source/CS229Image.c ****     return SUCCESS;
 100:./Source/CS229Image.c **** }
 101:./Source/CS229Image.c **** 
 102:./Source/CS229Image.c **** /* Writes an image to the file provided. It is the user's responsibility to both
 103:./Source/CS229Image.c ****  * open and close the file used. */
 104:./Source/CS229Image.c **** uint32_t write_cs229_image(PCSPIC pic, PFILE dest)
 105:./Source/CS229Image.c **** {
 106:./Source/CS229Image.c ****     /* Loop math answers */
 107:./Source/CS229Image.c ****     uint32_t i;
 108:./Source/CS229Image.c ****     uint32_t len;
 109:./Source/CS229Image.c ****     uint32_t mul;
 110:./Source/CS229Image.c **** 
 111:./Source/CS229Image.c ****     /* If we don't have a destination then we have failed */
 112:./Source/CS229Image.c ****     if(!dest)
 113:./Source/CS229Image.c ****         return NULL_POINTER;
 114:./Source/CS229Image.c **** 
 115:./Source/CS229Image.c ****     /* If we don't have a source then we have failed */
 116:./Source/CS229Image.c ****     if(!dest)
 117:./Source/CS229Image.c ****         return FILE_NOT_FOUND;
 118:./Source/CS229Image.c **** 
 119:./Source/CS229Image.c ****     /* Write the image header */
 120:./Source/CS229Image.c ****     fprintf(dest,"%c%c%c%c%c%c%c%c%c%c%c%c%c",pic->magic_number,pic->first_channel.red_channel_size
 121:./Source/CS229Image.c ****             pic->green_channel_size,pic->blue_channel_size,pic->color_mode,
 122:./Source/CS229Image.c ****             pic->width.bytes.byte1,pic->width.bytes.byte2,pic->width.bytes.byte3,pic->width.bytes.b
 123:./Source/CS229Image.c ****             pic->height.bytes.byte1,pic->height.bytes.byte2,pic->height.bytes.byte3,pic->height.byt
 124:./Source/CS229Image.c **** 
 125:./Source/CS229Image.c ****     /* Determine the length of the image to avoid extra multiplication */
 126:./Source/CS229Image.c ****     len = pic->height.value * pic->width.value;
 127:./Source/CS229Image.c **** 
 128:./Source/CS229Image.c ****     /* Determine how much data a single pixle takes up */
 129:./Source/CS229Image.c ****     mul = determine_multiplier(pic);
 130:./Source/CS229Image.c **** 
 131:./Source/CS229Image.c ****     /* Check if we have valid channel sizes */
 132:./Source/CS229Image.c ****     if(mul == 0x0)
 133:./Source/CS229Image.c ****         return INVALID_CHANNEL_SIZE;
 134:./Source/CS229Image.c **** 
 135:./Source/CS229Image.c ****     /* Determine how much data we need to write */
 136:./Source/CS229Image.c ****     len *= mul / 2 + (mul % 2 ? 1 : 0);
 137:./Source/CS229Image.c **** 
 138:./Source/CS229Image.c ****     /* Write image data */
 139:./Source/CS229Image.c ****     for(i = 0;i < len;i++)
 140:./Source/CS229Image.c ****         fputc(pic->data[i],dest);
 141:./Source/CS229Image.c **** 
 142:./Source/CS229Image.c ****     /* Image successfully written */
 143:./Source/CS229Image.c ****     return SUCCESS;
 144:./Source/CS229Image.c **** }
 145:./Source/CS229Image.c **** 
 146:./Source/CS229Image.c **** /* Returns a value that represents twice the size of a single pixel in
 147:./Source/CS229Image.c ****  * the image file supplied in bytes based on color mode and channel size.
 148:./Source/CS229Image.c ****  */
 149:./Source/CS229Image.c **** uint32_t determine_multiplier(PCSPIC dest)
 150:./Source/CS229Image.c **** {
  16              		.loc 1 150 0
  17              	LVL0:
  18 0000 55       		pushl	%ebp
GAS LISTING /cygdrive/c/Users/THESCI~1/AppData/Local/Temp/ccH1olGy.s 			page 4


  19              	LCFI0:
 151:./Source/CS229Image.c ****     /* We will return this value */
 152:./Source/CS229Image.c ****     uint32_t mul;
 153:./Source/CS229Image.c **** 
 154:./Source/CS229Image.c ****     /* Check for NULL */
 155:./Source/CS229Image.c ****     if(!dest)
  20              		.loc 1 155 0
  21 0001 B80C0000 		movl	$12, %eax
  21      00
  22              	LVL1:
 150:./Source/CS229Image.c **** {
  23              		.loc 1 150 0
  24 0006 89E5     		movl	%esp, %ebp
  25              	LCFI1:
  26 0008 83EC20   		subl	$32, %esp
  27              	LCFI2:
  28 000b 8B4D08   		movl	8(%ebp), %ecx
  29 000e 895DF4   		movl	%ebx, -12(%ebp)
  30              	LCFI3:
  31 0011 8975F8   		movl	%esi, -8(%ebp)
  32              	LCFI4:
  33 0014 897DFC   		movl	%edi, -4(%ebp)
  34              	LCFI5:
  35              		.loc 1 155 0
  36 0017 85C9     		testl	%ecx, %ecx
  37 0019 7426     		je	L3
  38              	LVL2:
 156:./Source/CS229Image.c ****         return NULL_POINTER;
 157:./Source/CS229Image.c **** 
 158:./Source/CS229Image.c ****     if(dest->color_mode == MODE_BLACKWHITE)
  39              		.loc 1 158 0
  40 001b 0FB64101 		movzbl	1(%ecx), %eax
  41              	LVL3:
  42 001f 84C0     		testb	%al, %al
  43 0021 752D     		jne	L4
 159:./Source/CS229Image.c ****     {
 160:./Source/CS229Image.c ****         /* Black and white images have only one channel */
 161:./Source/CS229Image.c ****         switch(dest->first_channel.blackwhite_channel_size)
  44              		.loc 1 161 0
  45 0023 0FB65102 		movzbl	2(%ecx), %edx
  46 0027 B8020000 		movl	$2, %eax
  46      00
  47              	LVL4:
  48 002c 80FA02   		cmpb	$2, %dl
  49 002f 7410     		je	L3
  50 0031 80FA04   		cmpb	$4, %dl
  51 0034 B004     		movb	$4, %al
  52              	LVL5:
  53 0036 7409     		je	L3
  54 0038 80EA01   		subb	$1, %dl
 162:./Source/CS229Image.c ****         {
 163:./Source/CS229Image.c ****             case FOUR_BIT_CHANNEL:
 164:./Source/CS229Image.c ****                 mul = 0x1;
 165:./Source/CS229Image.c ****                 break;
 166:./Source/CS229Image.c ****             case EIGHT_BIT_CHANNEL:
 167:./Source/CS229Image.c ****                 mul = 0x2;
 168:./Source/CS229Image.c ****                 break;
GAS LISTING /cygdrive/c/Users/THESCI~1/AppData/Local/Temp/ccH1olGy.s 			page 5


 169:./Source/CS229Image.c ****             case SIXTEEN_BIT_CHANNEL:
 170:./Source/CS229Image.c ****                 mul = 0x4;
 171:./Source/CS229Image.c ****                 break;
 172:./Source/CS229Image.c ****             default:
 173:./Source/CS229Image.c ****                 return 0x0;
 174:./Source/CS229Image.c ****                 break;
 175:./Source/CS229Image.c ****         }
 176:./Source/CS229Image.c ****     }
 177:./Source/CS229Image.c ****     else if(dest->color_mode == MODE_COLOR)
 178:./Source/CS229Image.c ****     {
 179:./Source/CS229Image.c ****         /* Color images have three channels */
 180:./Source/CS229Image.c ****         switch(dest->first_channel.red_channel_size)
 181:./Source/CS229Image.c ****         {
 182:./Source/CS229Image.c ****             case FOUR_BIT_CHANNEL:
 183:./Source/CS229Image.c ****                 mul = 0x1;
 184:./Source/CS229Image.c ****                 break;
 185:./Source/CS229Image.c ****             case EIGHT_BIT_CHANNEL:
 186:./Source/CS229Image.c ****                 mul = 0x2;
 187:./Source/CS229Image.c ****                 break;
 188:./Source/CS229Image.c ****             case SIXTEEN_BIT_CHANNEL:
 189:./Source/CS229Image.c ****                 mul = 0x4;
 190:./Source/CS229Image.c ****                 break;
 191:./Source/CS229Image.c ****             default:
 192:./Source/CS229Image.c ****                 return 0x0;
 193:./Source/CS229Image.c ****                 break;
 194:./Source/CS229Image.c ****         }
 195:./Source/CS229Image.c **** 
 196:./Source/CS229Image.c ****         switch(dest->green_channel_size)
 197:./Source/CS229Image.c ****         {
 198:./Source/CS229Image.c ****             case FOUR_BIT_CHANNEL:
 199:./Source/CS229Image.c ****                 mul += 0x1;
 200:./Source/CS229Image.c ****                 break;
 201:./Source/CS229Image.c ****             case EIGHT_BIT_CHANNEL:
 202:./Source/CS229Image.c ****                 mul += 0x2;
 203:./Source/CS229Image.c ****                 break;
 204:./Source/CS229Image.c ****             case SIXTEEN_BIT_CHANNEL:
 205:./Source/CS229Image.c ****                 mul += 0x4;
 206:./Source/CS229Image.c ****                 break;
 207:./Source/CS229Image.c ****             default:
 208:./Source/CS229Image.c ****                 return 0x0;
 209:./Source/CS229Image.c ****                 break;
 210:./Source/CS229Image.c ****         }
 211:./Source/CS229Image.c **** 
 212:./Source/CS229Image.c ****         switch(dest->blue_channel_size)
 213:./Source/CS229Image.c ****         {
 214:./Source/CS229Image.c ****             case FOUR_BIT_CHANNEL:
 215:./Source/CS229Image.c ****                 mul += 0x1;
 216:./Source/CS229Image.c ****                 break;
 217:./Source/CS229Image.c ****             case EIGHT_BIT_CHANNEL:
 218:./Source/CS229Image.c ****                 mul += 0x2;
 219:./Source/CS229Image.c ****                 break;
 220:./Source/CS229Image.c ****             case SIXTEEN_BIT_CHANNEL:
 221:./Source/CS229Image.c ****                 mul += 0x4;
 222:./Source/CS229Image.c ****                 break;
  55              		.loc 1 222 0
  56 003b B001     		movb	$1, %al
 161:./Source/CS229Image.c ****         switch(dest->first_channel.blackwhite_channel_size)
GAS LISTING /cygdrive/c/Users/THESCI~1/AppData/Local/Temp/ccH1olGy.s 			page 6


  57              		.loc 1 161 0
  58 003d 7402     		je	L3
  59              	LVL6:
  60              	L5:
  61              		.loc 1 222 0
  62 003f 31C0     		xorl	%eax, %eax
  63              	LVL7:
  64              	L3:
 223:./Source/CS229Image.c ****             default:
 224:./Source/CS229Image.c ****                 return 0x0;
 225:./Source/CS229Image.c ****                 break;
 226:./Source/CS229Image.c ****         }
 227:./Source/CS229Image.c ****     }
 228:./Source/CS229Image.c ****     else
 229:./Source/CS229Image.c ****         return 0x0;
 230:./Source/CS229Image.c **** 
 231:./Source/CS229Image.c ****     /* Return twice the size of a single pixel */
 232:./Source/CS229Image.c ****     return mul;
 233:./Source/CS229Image.c **** }
  65              		.loc 1 233 0
  66 0041 8B5DF4   		movl	-12(%ebp), %ebx
  67              	LVL8:
  68 0044 8B75F8   		movl	-8(%ebp), %esi
  69 0047 8B7DFC   		movl	-4(%ebp), %edi
  70 004a 89EC     		movl	%ebp, %esp
  71 004c 5D       		popl	%ebp
  72 004d C3       		ret
  73              	LVL9:
  74 004e 6690     		.p2align 4,,7
  75              	L4:
 177:./Source/CS229Image.c ****     else if(dest->color_mode == MODE_COLOR)
  76              		.loc 1 177 0
  77 0050 0401     		addb	$1, %al
  78 0052 75EB     		jne	L5
 180:./Source/CS229Image.c ****         switch(dest->first_channel.red_channel_size)
  79              		.loc 1 180 0
  80 0054 0FB64102 		movzbl	2(%ecx), %eax
  81 0058 3C02     		cmpb	$2, %al
  82 005a 0F84D000 		je	L10
  82      0000
  83 0060 3C04     		cmpb	$4, %al
  84              		.p2align 4,,3
  85 0062 0F848800 		je	L11
  85      0000
  86 0068 2C01     		subb	$1, %al
  87              		.p2align 4,,3
  88 006a 75D3     		jne	L5
  89 006c C745E003 		movl	$3, -32(%ebp)
  89      000000
  90              	LVL10:
  91 0073 B8040000 		movl	$4, %eax
  91      00
  92              	LVL11:
  93 0078 BF060000 		movl	$6, %edi
  93      00
  94              	LVL12:
  95 007d C745E404 		movl	$4, -28(%ebp)
GAS LISTING /cygdrive/c/Users/THESCI~1/AppData/Local/Temp/ccH1olGy.s 			page 7


  95      000000
  96              	LVL13:
  97 0084 BE070000 		movl	$7, %esi
  97      00
  98              	LVL14:
  99 0089 BB090000 		movl	$9, %ebx
  99      00
 100              	LVL15:
 101 008e C745E806 		movl	$6, -24(%ebp)
 101      000000
 102              	LVL16:
 103 0095 C745EC05 		movl	$5, -20(%ebp)
 103      000000
 104              	LVL17:
 105 009c C745F007 		movl	$7, -16(%ebp)
 105      000000
 106              	LVL18:
 107              	L12:
 196:./Source/CS229Image.c ****         switch(dest->green_channel_size)
 108              		.loc 1 196 0
 109 00a3 0FB65103 		movzbl	3(%ecx), %edx
 110 00a7 80FA02   		cmpb	$2, %dl
 111 00aa 741D     		je	L14
 112 00ac 80FA04   		cmpb	$4, %dl
 113 00af 0F84BB00 		je	L15
 113      0000
 114 00b5 80EA01   		subb	$1, %dl
 115 00b8 7585     		jne	L5
 116 00ba 8B55E4   		movl	-28(%ebp), %edx
 117 00bd 8B45E0   		movl	-32(%ebp), %eax
 118 00c0 8955EC   		movl	%edx, -20(%ebp)
 119              	LVL19:
 120 00c3 8B55E8   		movl	-24(%ebp), %edx
 121 00c6 8955F0   		movl	%edx, -16(%ebp)
 122              	LVL20:
 123              	L14:
 212:./Source/CS229Image.c ****         switch(dest->blue_channel_size)
 124              		.loc 1 212 0
 125 00c9 0FB65104 		movzbl	4(%ecx), %edx
 126 00cd 80FA02   		cmpb	$2, %dl
 127 00d0 0F84B200 		je	L16
 127      0000
 128 00d6 80FA04   		cmpb	$4, %dl
 129 00d9 0F84A100 		je	L17
 129      0000
 130 00df 80EA01   		subb	$1, %dl
 131 00e2 0F8459FF 		je	L3
 131      FFFF
 222:./Source/CS229Image.c ****                 break;
 132              		.loc 1 222 0
 133 00e8 31C0     		xorl	%eax, %eax
 134              	LVL21:
 135              		.p2align 4,,5
 136 00ea E952FFFF 		jmp	L3
 136      FF
 137              	LVL22:
 138 00ef 90       		.p2align 4,,7
GAS LISTING /cygdrive/c/Users/THESCI~1/AppData/Local/Temp/ccH1olGy.s 			page 8


 139              	L11:
 180:./Source/CS229Image.c ****         switch(dest->first_channel.red_channel_size)
 140              		.loc 1 180 0
 141 00f0 C745E006 		movl	$6, -32(%ebp)
 141      000000
 142              	LVL23:
 143 00f7 B8070000 		movl	$7, %eax
 143      00
 144              	LVL24:
 145 00fc BF090000 		movl	$9, %edi
 145      00
 146              	LVL25:
 147 0101 C745E407 		movl	$7, -28(%ebp)
 147      000000
 148              	LVL26:
 149 0108 BE0A0000 		movl	$10, %esi
 149      00
 150              	LVL27:
 151 010d BB0C0000 		movl	$12, %ebx
 151      00
 152              	LVL28:
 153 0112 C745E809 		movl	$9, -24(%ebp)
 153      000000
 154              	LVL29:
 155 0119 C745EC08 		movl	$8, -20(%ebp)
 155      000000
 156              	LVL30:
 157 0120 C745F00A 		movl	$10, -16(%ebp)
 157      000000
 158              	LVL31:
 159 0127 E977FFFF 		jmp	L12
 159      FF
 160              	LVL32:
 161 012c 8D742600 		.p2align 4,,7
 162              	L10:
 163 0130 C745E004 		movl	$4, -32(%ebp)
 163      000000
 164              	LVL33:
 165 0137 B8050000 		movl	$5, %eax
 165      00
 166              	LVL34:
 167 013c BF070000 		movl	$7, %edi
 167      00
 168              	LVL35:
 169 0141 C745E405 		movl	$5, -28(%ebp)
 169      000000
 170              	LVL36:
 171 0148 BE080000 		movl	$8, %esi
 171      00
 172              	LVL37:
 173 014d BB0A0000 		movl	$10, %ebx
 173      00
 174              	LVL38:
 175 0152 C745E807 		movl	$7, -24(%ebp)
 175      000000
 176              	LVL39:
 177 0159 C745EC06 		movl	$6, -20(%ebp)
GAS LISTING /cygdrive/c/Users/THESCI~1/AppData/Local/Temp/ccH1olGy.s 			page 9


 177      000000
 178              	LVL40:
 179 0160 C745F008 		movl	$8, -16(%ebp)
 179      000000
 180              	LVL41:
 181 0167 E937FFFF 		jmp	L12
 181      FF
 182 016c 8D742600 		.p2align 4,,7
 183              	L15:
 196:./Source/CS229Image.c ****         switch(dest->green_channel_size)
 184              		.loc 1 196 0
 185 0170 89F8     		movl	%edi, %eax
 186 0172 8975EC   		movl	%esi, -20(%ebp)
 187 0175 895DF0   		movl	%ebx, -16(%ebp)
 188 0178 E94CFFFF 		jmp	L14
 188      FF
 189 017d 8D7600   		.p2align 4,,7
 190              	L17:
 219:./Source/CS229Image.c ****                 break;
 191              		.loc 1 219 0
 192 0180 8B45F0   		movl	-16(%ebp), %eax
 193 0183 E9B9FEFF 		jmp	L3
 193      FF
 194              		.p2align 4,,7
 195              	L16:
 212:./Source/CS229Image.c ****         switch(dest->blue_channel_size)
 196              		.loc 1 212 0
 197 0188 8B45EC   		movl	-20(%ebp), %eax
 198 018b E9B1FEFF 		jmp	L3
 198      FF
 199              	LFE8:
 200              		.p2align 4,,15
 201              	.globl _coordinate_to_linear_address
 203              	_coordinate_to_linear_address:
 204              	LFB9:
 234:./Source/CS229Image.c **** 
 235:./Source/CS229Image.c **** /* Returns the pixel number or the coordinates given. Returns -1 if out of bounds.
 236:./Source/CS229Image.c ****  * Picture coordinates start at (0,0) at the top left of the picture.
 237:./Source/CS229Image.c ****  */
 238:./Source/CS229Image.c **** uint32_t coordinate_to_linear_address(PCSPIC pic, uint32_t x, uint32_t y)
 239:./Source/CS229Image.c **** {
 205              		.loc 1 239 0
 206              	LVL42:
 207 0190 55       		pushl	%ebp
 208              	LCFI6:
 209 0191 89E5     		movl	%esp, %ebp
 210              	LCFI7:
 211 0193 53       		pushl	%ebx
 212              	LCFI8:
 213              		.loc 1 239 0
 214 0194 8B4D08   		movl	8(%ebp), %ecx
 215 0197 8B5D0C   		movl	12(%ebp), %ebx
 216 019a 8B4510   		movl	16(%ebp), %eax
 240:./Source/CS229Image.c ****     /* Bounds check */
 241:./Source/CS229Image.c ****     if(x < 0 || y < 0 || x >= pic->width.value || y >= pic->height.value)
 217              		.loc 1 241 0
 218 019d 8B510C   		movl	12(%ecx), %edx
GAS LISTING /cygdrive/c/Users/THESCI~1/AppData/Local/Temp/ccH1olGy.s 			page 10


 219 01a0 39DA     		cmpl	%ebx, %edx
 220 01a2 760D     		jbe	L22
 221              	LVL43:
 222 01a4 394108   		cmpl	%eax, 8(%ecx)
 223 01a7 7608     		jbe	L22
 242:./Source/CS229Image.c ****         return -1;
 243:./Source/CS229Image.c **** 
 244:./Source/CS229Image.c ****     /* Determine the pixel number */
 245:./Source/CS229Image.c ****     return x + y * pic->width.value;
 224              		.loc 1 245 0
 225 01a9 0FAFC2   		imull	%edx, %eax
 226 01ac 01D8     		addl	%ebx, %eax
 227              	LVL44:
 246:./Source/CS229Image.c **** }
 228              		.loc 1 246 0
 229 01ae 5B       		popl	%ebx
 230              	LVL45:
 231 01af 5D       		popl	%ebp
 232 01b0 C3       		ret
 233              	LVL46:
 234              		.p2align 4,,7
 235              	L22:
 245:./Source/CS229Image.c ****     return x + y * pic->width.value;
 236              		.loc 1 245 0
 237 01b1 B8FFFFFF 		movl	$-1, %eax
 237      FF
 238              	LVL47:
 239              		.loc 1 246 0
 240 01b6 5B       		popl	%ebx
 241              	LVL48:
 242 01b7 5D       		popl	%ebp
 243 01b8 C3       		ret
 244              	LFE9:
 245 01b9 8DB42600 		.p2align 4,,15
 245      000000
 246              	.globl _linear_to_coordinate_address
 248              	_linear_to_coordinate_address:
 249              	LFB10:
 247:./Source/CS229Image.c **** 
 248:./Source/CS229Image.c **** /* Returns the coordinates of the pixel given. Returns 1 if out of bounds
 249:./Source/CS229Image.c ****  * and 0 otherwise.
 250:./Source/CS229Image.c ****  */
 251:./Source/CS229Image.c **** uint32_t linear_to_coordinate_address(PCSPIC pic, uint32_t pixel, uint32_t* dest)
 252:./Source/CS229Image.c **** {
 250              		.loc 1 252 0
 251              	LVL49:
 252 01c0 55       		pushl	%ebp
 253              	LCFI9:
 254 01c1 89E5     		movl	%esp, %ebp
 255              	LCFI10:
 256 01c3 83EC08   		subl	$8, %esp
 257              	LCFI11:
 258 01c6 891C24   		movl	%ebx, (%esp)
 259              	LCFI12:
 260 01c9 89742404 		movl	%esi, 4(%esp)
 261              	LCFI13:
 262              		.loc 1 252 0
GAS LISTING /cygdrive/c/Users/THESCI~1/AppData/Local/Temp/ccH1olGy.s 			page 11


 263 01cd 8B5D08   		movl	8(%ebp), %ebx
 264 01d0 8B7510   		movl	16(%ebp), %esi
 253:./Source/CS229Image.c ****     /* Null check */
 254:./Source/CS229Image.c ****     if(pic == NULL || dest == NULL)
 265              		.loc 1 254 0
 266 01d3 85DB     		testl	%ebx, %ebx
 267 01d5 7439     		je	L26
 268              	LVL50:
 269 01d7 85F6     		testl	%esi, %esi
 270 01d9 7435     		je	L26
 255:./Source/CS229Image.c ****         return FAIL;
 256:./Source/CS229Image.c **** 
 257:./Source/CS229Image.c ****     /* Sanity check */
 258:./Source/CS229Image.c ****     if(pixel < 0 || pixel >= pic->width.value * pic->height.value)
 271              		.loc 1 258 0
 272 01db 8B4B0C   		movl	12(%ebx), %ecx
 273 01de 89C8     		movl	%ecx, %eax
 274 01e0 0FAF4308 		imull	8(%ebx), %eax
 275 01e4 3B450C   		cmpl	12(%ebp), %eax
 276 01e7 7627     		jbe	L26
 277              	LVL51:
 259:./Source/CS229Image.c ****         return FAIL;
 260:./Source/CS229Image.c **** 
 261:./Source/CS229Image.c ****     /* Calculate the pixel coordinates */
 262:./Source/CS229Image.c ****     dest[0] = pixel % pic->width.value;
 278              		.loc 1 262 0
 279 01e9 8B450C   		movl	12(%ebp), %eax
 280 01ec 31D2     		xorl	%edx, %edx
 281 01ee F7F1     		divl	%ecx
 282 01f0 8916     		movl	%edx, (%esi)
 263:./Source/CS229Image.c ****     dest[1] = pixel / pic->width.value;
 283              		.loc 1 263 0
 284 01f2 8B450C   		movl	12(%ebp), %eax
 285 01f5 31D2     		xorl	%edx, %edx
 286 01f7 F7730C   		divl	12(%ebx)
 287 01fa 894604   		movl	%eax, 4(%esi)
 288 01fd 31C0     		xorl	%eax, %eax
 264:./Source/CS229Image.c **** 
 265:./Source/CS229Image.c ****     /* We found the pixel */
 266:./Source/CS229Image.c ****     return SUCCESS;
 267:./Source/CS229Image.c **** }
 289              		.loc 1 267 0
 290 01ff 8B1C24   		movl	(%esp), %ebx
 291              	LVL52:
 292 0202 8B742404 		movl	4(%esp), %esi
 293              	LVL53:
 294 0206 89EC     		movl	%ebp, %esp
 295 0208 5D       		popl	%ebp
 296 0209 C3       		ret
 297              	LVL54:
 298 020a 8DB60000 		.p2align 4,,7
 298      0000
 299              	L26:
 266:./Source/CS229Image.c ****     return SUCCESS;
 300              		.loc 1 266 0
 301 0210 B8010000 		movl	$1, %eax
 301      00
GAS LISTING /cygdrive/c/Users/THESCI~1/AppData/Local/Temp/ccH1olGy.s 			page 12


 302              		.loc 1 267 0
 303 0215 8B1C24   		movl	(%esp), %ebx
 304              	LVL55:
 305 0218 8B742404 		movl	4(%esp), %esi
 306              	LVL56:
 307 021c 89EC     		movl	%ebp, %esp
 308 021e 5D       		popl	%ebp
 309 021f C3       		ret
 310              	LFE10:
 311              		.p2align 4,,15
 312              	.globl _convert_ppm_to_cs229
 314              	_convert_ppm_to_cs229:
 315              	LFB20:
 268:./Source/CS229Image.c **** 
 269:./Source/CS229Image.c **** /* Returns the next pixel in the supplied picture [pixel] pixels
 270:./Source/CS229Image.c ****  * into the picture in dest.
 271:./Source/CS229Image.c ****  */
 272:./Source/CS229Image.c **** uint32_t get_pixel(PCSPIC picture, uint32_t pixel_number, uint32_t* dest)
 273:./Source/CS229Image.c **** {
 274:./Source/CS229Image.c ****     /* Create some local variables */
 275:./Source/CS229Image.c ****     uint32_t mul;
 276:./Source/CS229Image.c ****     uint32_t offset;
 277:./Source/CS229Image.c ****     uint32_t half_in;
 278:./Source/CS229Image.c ****     uint32_t len;
 279:./Source/CS229Image.c ****     uint8_t* pixel;
 280:./Source/CS229Image.c **** 
 281:./Source/CS229Image.c ****     /* Check for NULL */
 282:./Source/CS229Image.c ****     if(!picture || !dest)
 283:./Source/CS229Image.c ****         return NULL_POINTER;
 284:./Source/CS229Image.c **** 
 285:./Source/CS229Image.c ****     /* Further sanity checks */
 286:./Source/CS229Image.c ****     if(picture->magic_number != CS229_MAGIC_NUMBER)
 287:./Source/CS229Image.c ****         return INVALID_IMAGE_FORMAT;
 288:./Source/CS229Image.c **** 
 289:./Source/CS229Image.c ****     /* Check our bounds */
 290:./Source/CS229Image.c ****     if(pixel_number < 0 || pixel_number > picture->width.value * picture->height.value)
 291:./Source/CS229Image.c ****         return ARGUMENT_OUT_OF_RANGE;
 292:./Source/CS229Image.c **** 
 293:./Source/CS229Image.c ****     /* Create the aray we will be returning */
 294:./Source/CS229Image.c ****     if(picture->color_mode == MODE_COLOR)
 295:./Source/CS229Image.c ****         len = 3;
 296:./Source/CS229Image.c ****     else if(picture->color_mode == MODE_BLACKWHITE)
 297:./Source/CS229Image.c ****         len = 1;
 298:./Source/CS229Image.c ****     else
 299:./Source/CS229Image.c ****         return INVALID_IMAGE_COLOR_FORMAT;
 300:./Source/CS229Image.c **** 
 301:./Source/CS229Image.c ****     /* Determine twice the space a single pixel takes up */
 302:./Source/CS229Image.c ****     mul = determine_multiplier(picture);
 303:./Source/CS229Image.c **** 
 304:./Source/CS229Image.c ****     /* Check for image corruption */
 305:./Source/CS229Image.c ****     if(mul == 0)
 306:./Source/CS229Image.c ****         return INVALID_CHANNEL_SIZE;
 307:./Source/CS229Image.c **** 
 308:./Source/CS229Image.c ****     /* If mul is odd and we are looking for an even pixel then we have a pixel cluster
 309:./Source/CS229Image.c ****        that starts half way into a byte */
 310:./Source/CS229Image.c ****     if((mul & 0x1) && !(pixel_number & 0x1))
 311:./Source/CS229Image.c ****         half_in = TRUE;
GAS LISTING /cygdrive/c/Users/THESCI~1/AppData/Local/Temp/ccH1olGy.s 			page 13


 312:./Source/CS229Image.c ****     else
 313:./Source/CS229Image.c ****         half_in = FALSE;
 314:./Source/CS229Image.c **** 
 315:./Source/CS229Image.c ****     /* Calculate the offset of the pixel we are seeking */
 316:./Source/CS229Image.c ****     offset = mul * pixel_number / 2;
 317:./Source/CS229Image.c **** 
 318:./Source/CS229Image.c ****     /* Find the start of the pixel to collect */
 319:./Source/CS229Image.c ****     pixel = (uint8_t*)((uint32_t)picture->data + offset);
 320:./Source/CS229Image.c **** 
 321:./Source/CS229Image.c ****     /* If pixel is even and half_in is TRUE then we need to read starting from the
 322:./Source/CS229Image.c ****        second half of our first byte. If pixel is odd and half_in is TRUE then we need
 323:./Source/CS229Image.c ****        to read starting from the beginning of our first byte. Otherwise we can just read
 324:./Source/CS229Image.c ****        the appropriate number of bytes. */
 325:./Source/CS229Image.c ****     if(len == 1)
 326:./Source/CS229Image.c ****     {
 327:./Source/CS229Image.c ****         if(half_in)
 328:./Source/CS229Image.c ****         {
 329:./Source/CS229Image.c ****             if(picture->first_channel.blackwhite_channel_size == FOUR_BIT_CHANNEL)
 330:./Source/CS229Image.c ****                 dest[0] = (uint32_t)*pixel & 0xF;
 331:./Source/CS229Image.c ****             else if(picture->first_channel.blackwhite_channel_size == EIGHT_BIT_CHANNEL)
 332:./Source/CS229Image.c ****                 dest[0] = (uint32_t)(*(uint16_t*)pixel & 0x0FF0) >> 4;
 333:./Source/CS229Image.c ****             else
 334:./Source/CS229Image.c ****                 dest[0] = (uint32_t)(*(uint16_t*)pixel & 0x0FFFF000) >> 12;
 335:./Source/CS229Image.c ****         }
 336:./Source/CS229Image.c ****         else
 337:./Source/CS229Image.c ****         {
 338:./Source/CS229Image.c ****             if(picture->first_channel.blackwhite_channel_size == FOUR_BIT_CHANNEL)
 339:./Source/CS229Image.c ****                 dest[0] = (uint32_t)*pixel >> 4;
 340:./Source/CS229Image.c ****             else if(picture->first_channel.blackwhite_channel_size == EIGHT_BIT_CHANNEL)
 341:./Source/CS229Image.c ****                 dest[0] = (uint32_t)*pixel;
 342:./Source/CS229Image.c ****             else
 343:./Source/CS229Image.c ****                 dest[0] = (uint32_t)*(uint16_t*)pixel;
 344:./Source/CS229Image.c ****         }
 345:./Source/CS229Image.c ****     }
 346:./Source/CS229Image.c ****     else
 347:./Source/CS229Image.c ****     {
 348:./Source/CS229Image.c ****         if(picture->first_channel.red_channel_size == FOUR_BIT_CHANNEL)
 349:./Source/CS229Image.c ****         {
 350:./Source/CS229Image.c ****             if(half_in)
 351:./Source/CS229Image.c ****             {
 352:./Source/CS229Image.c ****                 dest[0] = (uint32_t)*pixel & 0xF;
 353:./Source/CS229Image.c ****                 half_in = FALSE;
 354:./Source/CS229Image.c ****                 pixel++;
 355:./Source/CS229Image.c ****             }
 356:./Source/CS229Image.c ****             else
 357:./Source/CS229Image.c ****             {
 358:./Source/CS229Image.c ****                 dest[0] = (uint32_t)(*pixel >> 4);
 359:./Source/CS229Image.c ****                 half_in = TRUE;
 360:./Source/CS229Image.c ****             }
 361:./Source/CS229Image.c ****         }
 362:./Source/CS229Image.c ****         else if(picture->first_channel.red_channel_size == EIGHT_BIT_CHANNEL)
 363:./Source/CS229Image.c ****         {
 364:./Source/CS229Image.c ****             if(half_in)
 365:./Source/CS229Image.c ****             {
 366:./Source/CS229Image.c ****                 dest[0] = (uint32_t)((*(uint16_t*)pixel & 0x0FF0) >> 4);
 367:./Source/CS229Image.c ****                 pixel++;
 368:./Source/CS229Image.c ****             }
GAS LISTING /cygdrive/c/Users/THESCI~1/AppData/Local/Temp/ccH1olGy.s 			page 14


 369:./Source/CS229Image.c ****             else
 370:./Source/CS229Image.c ****             {
 371:./Source/CS229Image.c ****                 dest[0] = (uint32_t)*pixel;
 372:./Source/CS229Image.c ****                 pixel++;
 373:./Source/CS229Image.c ****             }
 374:./Source/CS229Image.c ****         }
 375:./Source/CS229Image.c ****         else
 376:./Source/CS229Image.c ****         {
 377:./Source/CS229Image.c ****             if(half_in)
 378:./Source/CS229Image.c ****             {
 379:./Source/CS229Image.c ****                 dest[0] = (uint32_t)((*(uint32_t*)pixel & 0x0FFFF000) >> 12);
 380:./Source/CS229Image.c ****                 pixel += 2;
 381:./Source/CS229Image.c ****             }
 382:./Source/CS229Image.c ****             else
 383:./Source/CS229Image.c ****             {
 384:./Source/CS229Image.c ****                 dest[0] = (uint32_t)*(uint16_t*)pixel;
 385:./Source/CS229Image.c ****                 pixel += 2;
 386:./Source/CS229Image.c ****             }
 387:./Source/CS229Image.c ****         }
 388:./Source/CS229Image.c **** 
 389:./Source/CS229Image.c ****         if(picture->green_channel_size == FOUR_BIT_CHANNEL)
 390:./Source/CS229Image.c ****         {
 391:./Source/CS229Image.c ****             if(half_in)
 392:./Source/CS229Image.c ****             {
 393:./Source/CS229Image.c ****                 dest[1] = (uint32_t)(*pixel & 0xF);
 394:./Source/CS229Image.c ****                 half_in = FALSE;
 395:./Source/CS229Image.c ****                 pixel++;
 396:./Source/CS229Image.c ****             }
 397:./Source/CS229Image.c ****             else
 398:./Source/CS229Image.c ****             {
 399:./Source/CS229Image.c ****                 dest[1] = (uint32_t)(*pixel >> 4);
 400:./Source/CS229Image.c ****                 half_in = TRUE;
 401:./Source/CS229Image.c ****             }
 402:./Source/CS229Image.c ****         }
 403:./Source/CS229Image.c ****         else if(picture->green_channel_size == EIGHT_BIT_CHANNEL)
 404:./Source/CS229Image.c ****         {
 405:./Source/CS229Image.c ****             if(half_in)
 406:./Source/CS229Image.c ****             {
 407:./Source/CS229Image.c ****                 dest[1] = (uint32_t)((*(uint16_t*)pixel & 0x0FF0) >> 4);
 408:./Source/CS229Image.c ****                 pixel++;
 409:./Source/CS229Image.c ****             }
 410:./Source/CS229Image.c ****             else
 411:./Source/CS229Image.c ****             {
 412:./Source/CS229Image.c ****                 dest[1] = (uint32_t)*pixel;
 413:./Source/CS229Image.c ****                 pixel++;
 414:./Source/CS229Image.c ****             }
 415:./Source/CS229Image.c ****         }
 416:./Source/CS229Image.c ****         else
 417:./Source/CS229Image.c ****         {
 418:./Source/CS229Image.c ****             if(half_in)
 419:./Source/CS229Image.c ****             {
 420:./Source/CS229Image.c ****                 dest[1] = (uint32_t)((*(uint32_t*)pixel & 0x0FFFF000) >> 12);
 421:./Source/CS229Image.c ****                 pixel += 2;
 422:./Source/CS229Image.c ****             }
 423:./Source/CS229Image.c ****             else
 424:./Source/CS229Image.c ****             {
 425:./Source/CS229Image.c ****                 dest[1] = (uint32_t)*(uint16_t*)pixel;
GAS LISTING /cygdrive/c/Users/THESCI~1/AppData/Local/Temp/ccH1olGy.s 			page 15


 426:./Source/CS229Image.c ****                 pixel += 2;
 427:./Source/CS229Image.c ****             }
 428:./Source/CS229Image.c ****         }
 429:./Source/CS229Image.c **** 
 430:./Source/CS229Image.c ****         if(picture->blue_channel_size == FOUR_BIT_CHANNEL)
 431:./Source/CS229Image.c ****         {
 432:./Source/CS229Image.c ****             if(half_in)
 433:./Source/CS229Image.c ****             {
 434:./Source/CS229Image.c ****                 dest[2] = (uint32_t)(*pixel & 0xF);
 435:./Source/CS229Image.c ****                 half_in = FALSE;
 436:./Source/CS229Image.c ****                 pixel++;
 437:./Source/CS229Image.c ****             }
 438:./Source/CS229Image.c ****             else
 439:./Source/CS229Image.c ****             {
 440:./Source/CS229Image.c ****                 dest[2] = (uint32_t)(*pixel >> 4);
 441:./Source/CS229Image.c ****                 half_in = TRUE;
 442:./Source/CS229Image.c ****             }
 443:./Source/CS229Image.c ****         }
 444:./Source/CS229Image.c ****         else if(picture->blue_channel_size == EIGHT_BIT_CHANNEL)
 445:./Source/CS229Image.c ****         {
 446:./Source/CS229Image.c ****             if(half_in)
 447:./Source/CS229Image.c ****             {
 448:./Source/CS229Image.c ****                 dest[2] = (uint32_t)((*(uint16_t*)pixel & 0x0FF0) >> 4);
 449:./Source/CS229Image.c ****                 pixel++;
 450:./Source/CS229Image.c ****             }
 451:./Source/CS229Image.c ****             else
 452:./Source/CS229Image.c ****             {
 453:./Source/CS229Image.c ****                 dest[2] = (uint32_t)*pixel;
 454:./Source/CS229Image.c ****                 pixel++;
 455:./Source/CS229Image.c ****             }
 456:./Source/CS229Image.c ****         }
 457:./Source/CS229Image.c ****         else
 458:./Source/CS229Image.c ****         {
 459:./Source/CS229Image.c ****             if(half_in)
 460:./Source/CS229Image.c ****             {
 461:./Source/CS229Image.c ****                 dest[2] = (uint32_t)((*(uint32_t*)pixel & 0x0FFFF000) >> 12);
 462:./Source/CS229Image.c ****                 pixel += 2;
 463:./Source/CS229Image.c ****             }
 464:./Source/CS229Image.c ****             else
 465:./Source/CS229Image.c ****             {
 466:./Source/CS229Image.c ****                 dest[2] = (uint32_t)*(uint16_t*)pixel;
 467:./Source/CS229Image.c ****                 pixel += 2;
 468:./Source/CS229Image.c ****             }
 469:./Source/CS229Image.c ****         }
 470:./Source/CS229Image.c ****     }
 471:./Source/CS229Image.c **** 
 472:./Source/CS229Image.c ****     /* Return */
 473:./Source/CS229Image.c ****     return SUCCESS;
 474:./Source/CS229Image.c **** }
 475:./Source/CS229Image.c **** 
 476:./Source/CS229Image.c **** /* Sets the pixel_numberth pixel to the value provided in color.
 477:./Source/CS229Image.c ****  */
 478:./Source/CS229Image.c **** uint32_t set_pixel(PCSPIC picture, uint32_t pixel_number, uint32_t* color)
 479:./Source/CS229Image.c **** {
 480:./Source/CS229Image.c ****     /* Create some local variables */
 481:./Source/CS229Image.c ****     uint32_t mul;
 482:./Source/CS229Image.c ****     uint32_t offset;
GAS LISTING /cygdrive/c/Users/THESCI~1/AppData/Local/Temp/ccH1olGy.s 			page 16


 483:./Source/CS229Image.c ****     uint32_t half_in;
 484:./Source/CS229Image.c ****     uint32_t len;
 485:./Source/CS229Image.c ****     uint8_t* pixel;
 486:./Source/CS229Image.c **** 
 487:./Source/CS229Image.c ****     /* Check for NULL */
 488:./Source/CS229Image.c ****     if(!picture || !color)
 489:./Source/CS229Image.c ****         return NULL_POINTER;
 490:./Source/CS229Image.c **** 
 491:./Source/CS229Image.c ****     /* Further sanity checks */
 492:./Source/CS229Image.c ****     if(picture->magic_number != CS229_MAGIC_NUMBER)
 493:./Source/CS229Image.c ****         return INVALID_IMAGE_FORMAT;
 494:./Source/CS229Image.c **** 
 495:./Source/CS229Image.c ****     /* Check our bounds */
 496:./Source/CS229Image.c ****     if(pixel_number < 0 || pixel_number > picture->width.value * picture->height.value)
 497:./Source/CS229Image.c ****         return ARGUMENT_OUT_OF_RANGE;
 498:./Source/CS229Image.c **** 
 499:./Source/CS229Image.c ****     /* Create the aray we will be returning */
 500:./Source/CS229Image.c ****     if(picture->color_mode == MODE_COLOR)
 501:./Source/CS229Image.c ****         len = 3;
 502:./Source/CS229Image.c ****     else if(picture->color_mode == MODE_BLACKWHITE)
 503:./Source/CS229Image.c ****         len = 1;
 504:./Source/CS229Image.c ****     else
 505:./Source/CS229Image.c ****         return INVALID_IMAGE_COLOR_FORMAT;
 506:./Source/CS229Image.c **** 
 507:./Source/CS229Image.c ****     /* Determine twice the space a single pixel takes up */
 508:./Source/CS229Image.c ****     mul = determine_multiplier(picture);
 509:./Source/CS229Image.c **** 
 510:./Source/CS229Image.c ****     /* Check for image corruption */
 511:./Source/CS229Image.c ****     if(mul == 0)
 512:./Source/CS229Image.c ****         return INVALID_CHANNEL_SIZE;
 513:./Source/CS229Image.c **** 
 514:./Source/CS229Image.c ****     /* If mul is odd and we are looking for an even pixel then we have a pixel cluster
 515:./Source/CS229Image.c ****        that starts half way into a byte */
 516:./Source/CS229Image.c ****     if((mul & 0x1) && !(pixel_number & 0x1))
 517:./Source/CS229Image.c ****         half_in = TRUE;
 518:./Source/CS229Image.c ****     else
 519:./Source/CS229Image.c ****         half_in = FALSE;
 520:./Source/CS229Image.c **** 
 521:./Source/CS229Image.c ****     /* Calculate the offset of the pixel we are seeking */
 522:./Source/CS229Image.c ****     offset = mul * pixel_number / 2;
 523:./Source/CS229Image.c **** 
 524:./Source/CS229Image.c ****     /* Find the start of the pixel to collect */
 525:./Source/CS229Image.c ****     pixel = (uint8_t*)((uint32_t)picture->data + offset);
 526:./Source/CS229Image.c **** 
 527:./Source/CS229Image.c ****     /* If pixel is even and half_in is TRUE then we need to read starting from the
 528:./Source/CS229Image.c ****        second half of our first byte. If pixel is odd and half_in is TRUE then we need
 529:./Source/CS229Image.c ****        to read starting from the beginning of our first byte. Otherwise we can just read
 530:./Source/CS229Image.c ****        the appropriate number of bytes. */
 531:./Source/CS229Image.c ****     if(len == 1)
 532:./Source/CS229Image.c ****     {
 533:./Source/CS229Image.c ****         if(half_in)
 534:./Source/CS229Image.c ****         {
 535:./Source/CS229Image.c ****             if(picture->first_channel.blackwhite_channel_size == FOUR_BIT_CHANNEL)
 536:./Source/CS229Image.c ****             {
 537:./Source/CS229Image.c ****                 /* Clean the part we want to write to */
 538:./Source/CS229Image.c ****                 *pixel &= 0xF0;
 539:./Source/CS229Image.c **** 
GAS LISTING /cygdrive/c/Users/THESCI~1/AppData/Local/Temp/ccH1olGy.s 			page 17


 540:./Source/CS229Image.c ****                 /* Set the pixel value */
 541:./Source/CS229Image.c ****                 *pixel |= color[0] & 0x0F;
 542:./Source/CS229Image.c ****             }
 543:./Source/CS229Image.c ****             else if(picture->first_channel.blackwhite_channel_size == EIGHT_BIT_CHANNEL)
 544:./Source/CS229Image.c ****             {
 545:./Source/CS229Image.c ****                 /* Clean the part we want to write to */
 546:./Source/CS229Image.c ****                 *(uint16_t*)pixel &= 0xF00F;
 547:./Source/CS229Image.c **** 
 548:./Source/CS229Image.c ****                 /* Set the pixel value */
 549:./Source/CS229Image.c ****                 *pixel |= (color[0] & 0xFF) << 4;
 550:./Source/CS229Image.c ****             }
 551:./Source/CS229Image.c ****             else
 552:./Source/CS229Image.c ****             {
 553:./Source/CS229Image.c ****                 /* Clean the part we want to write to */
 554:./Source/CS229Image.c ****                 *(uint32_t*)pixel &= 0xF0000FFF;
 555:./Source/CS229Image.c **** 
 556:./Source/CS229Image.c ****                 /* Set the pixel value */
 557:./Source/CS229Image.c ****                 *pixel |= (color[0] & 0xFFFF) << 12;
 558:./Source/CS229Image.c ****             }
 559:./Source/CS229Image.c ****         }
 560:./Source/CS229Image.c ****         else
 561:./Source/CS229Image.c ****         {
 562:./Source/CS229Image.c ****             if(picture->first_channel.blackwhite_channel_size == FOUR_BIT_CHANNEL)
 563:./Source/CS229Image.c ****             {
 564:./Source/CS229Image.c ****                 /* Clean the part we want to write to */
 565:./Source/CS229Image.c ****                 *pixel &= 0x0F;
 566:./Source/CS229Image.c **** 
 567:./Source/CS229Image.c ****                 /* Set the pixel value */
 568:./Source/CS229Image.c ****                 *pixel |= (color[0] << 4) & 0xF0;
 569:./Source/CS229Image.c ****             }
 570:./Source/CS229Image.c ****             else if(picture->first_channel.blackwhite_channel_size == EIGHT_BIT_CHANNEL)
 571:./Source/CS229Image.c ****                 *pixel = color[0] & 0xFF;
 572:./Source/CS229Image.c ****             else
 573:./Source/CS229Image.c ****                 *(uint16_t*)pixel = color[0] & 0xFFFF;
 574:./Source/CS229Image.c ****         }
 575:./Source/CS229Image.c ****     }
 576:./Source/CS229Image.c ****     else
 577:./Source/CS229Image.c ****     {
 578:./Source/CS229Image.c ****         if(picture->first_channel.red_channel_size == FOUR_BIT_CHANNEL)
 579:./Source/CS229Image.c ****         {
 580:./Source/CS229Image.c ****             if(half_in)
 581:./Source/CS229Image.c ****             {
 582:./Source/CS229Image.c ****                 /* Clean the part we want to write to */
 583:./Source/CS229Image.c ****                 *pixel &= 0xF0;
 584:./Source/CS229Image.c **** 
 585:./Source/CS229Image.c ****                 /* Set the pixel value */
 586:./Source/CS229Image.c ****                 *pixel |= color[0] & 0x0F;
 587:./Source/CS229Image.c **** 
 588:./Source/CS229Image.c ****                 /* We are finished with this byte */
 589:./Source/CS229Image.c ****                 half_in = FALSE;
 590:./Source/CS229Image.c ****                 pixel++;
 591:./Source/CS229Image.c ****             }
 592:./Source/CS229Image.c ****             else
 593:./Source/CS229Image.c ****             {
 594:./Source/CS229Image.c ****                 /* Clean the part we want to write to */
 595:./Source/CS229Image.c ****                 *pixel &= 0x0F;
 596:./Source/CS229Image.c **** 
GAS LISTING /cygdrive/c/Users/THESCI~1/AppData/Local/Temp/ccH1olGy.s 			page 18


 597:./Source/CS229Image.c ****                 /* Set the pixel value */
 598:./Source/CS229Image.c ****                 *pixel |= (color[0] << 4) & 0xF0;
 599:./Source/CS229Image.c **** 
 600:./Source/CS229Image.c ****                 /* We are now half way into a byte */
 601:./Source/CS229Image.c ****                 half_in = TRUE;
 602:./Source/CS229Image.c ****             }
 603:./Source/CS229Image.c ****         }
 604:./Source/CS229Image.c ****         else if(picture->first_channel.red_channel_size == EIGHT_BIT_CHANNEL)
 605:./Source/CS229Image.c ****         {
 606:./Source/CS229Image.c ****             if(half_in)
 607:./Source/CS229Image.c ****             {
 608:./Source/CS229Image.c ****                 /* Clean the part we want to write to */
 609:./Source/CS229Image.c ****                 *(uint16_t*)pixel &= 0xF00F;
 610:./Source/CS229Image.c **** 
 611:./Source/CS229Image.c ****                 /* Set the pixel value */
 612:./Source/CS229Image.c ****                 *pixel |= (color[0] & 0xFF) << 4;
 613:./Source/CS229Image.c **** 
 614:./Source/CS229Image.c ****                 /* We are done with this byte and the first half of the next */
 615:./Source/CS229Image.c ****                 pixel++;
 616:./Source/CS229Image.c ****             }
 617:./Source/CS229Image.c ****             else
 618:./Source/CS229Image.c ****             {
 619:./Source/CS229Image.c ****                 /* Set the pixel value and go to the next byte */
 620:./Source/CS229Image.c ****                 *pixel = color[0] & 0xFF;
 621:./Source/CS229Image.c ****                 pixel++;
 622:./Source/CS229Image.c ****             }
 623:./Source/CS229Image.c ****         }
 624:./Source/CS229Image.c ****         else
 625:./Source/CS229Image.c ****         {
 626:./Source/CS229Image.c ****             if(half_in)
 627:./Source/CS229Image.c ****             {
 628:./Source/CS229Image.c ****                 /* Clean the part we want to write to */
 629:./Source/CS229Image.c ****                 *(uint32_t*)pixel &= 0xF0000FFF;
 630:./Source/CS229Image.c **** 
 631:./Source/CS229Image.c ****                 /* Set the pixel value */
 632:./Source/CS229Image.c ****                 *pixel |= (color[0] & 0xFFFF) << 12;
 633:./Source/CS229Image.c **** 
 634:./Source/CS229Image.c ****                 /* We are done with the next "two bytes" */
 635:./Source/CS229Image.c ****                 pixel += 2;
 636:./Source/CS229Image.c ****             }
 637:./Source/CS229Image.c ****             else
 638:./Source/CS229Image.c ****             {
 639:./Source/CS229Image.c ****                 /* Set the pixel value */
 640:./Source/CS229Image.c ****                 *(uint16_t*)pixel = color[0] & 0xFFFF;
 641:./Source/CS229Image.c **** 
 642:./Source/CS229Image.c ****                 /* We are done with the next two byes */
 643:./Source/CS229Image.c ****                 pixel += 2;
 644:./Source/CS229Image.c ****             }
 645:./Source/CS229Image.c ****         }
 646:./Source/CS229Image.c **** 
 647:./Source/CS229Image.c ****         if(picture->green_channel_size == FOUR_BIT_CHANNEL)
 648:./Source/CS229Image.c ****         {
 649:./Source/CS229Image.c ****             if(half_in)
 650:./Source/CS229Image.c ****             {
 651:./Source/CS229Image.c ****                 /* Clean the part we want to write to */
 652:./Source/CS229Image.c ****                 *pixel &= 0xF0;
 653:./Source/CS229Image.c **** 
GAS LISTING /cygdrive/c/Users/THESCI~1/AppData/Local/Temp/ccH1olGy.s 			page 19


 654:./Source/CS229Image.c ****                 /* Set the pixel value */
 655:./Source/CS229Image.c ****                 *pixel |= color[1] & 0x0F;
 656:./Source/CS229Image.c **** 
 657:./Source/CS229Image.c ****                 /* We are finished with this byte */
 658:./Source/CS229Image.c ****                 half_in = FALSE;
 659:./Source/CS229Image.c ****                 pixel++;
 660:./Source/CS229Image.c ****             }
 661:./Source/CS229Image.c ****             else
 662:./Source/CS229Image.c ****             {
 663:./Source/CS229Image.c ****                 /* Clean the part we want to write to */
 664:./Source/CS229Image.c ****                 *pixel &= 0x0F;
 665:./Source/CS229Image.c **** 
 666:./Source/CS229Image.c ****                 /* Set the pixel value */
 667:./Source/CS229Image.c ****                 *pixel |= (color[1] << 4) & 0xF0;
 668:./Source/CS229Image.c **** 
 669:./Source/CS229Image.c ****                 /* We are now half way into a byte */
 670:./Source/CS229Image.c ****                 half_in = TRUE;
 671:./Source/CS229Image.c ****             }
 672:./Source/CS229Image.c ****         }
 673:./Source/CS229Image.c ****         else if(picture->green_channel_size == EIGHT_BIT_CHANNEL)
 674:./Source/CS229Image.c ****         {
 675:./Source/CS229Image.c ****             if(half_in)
 676:./Source/CS229Image.c ****             {
 677:./Source/CS229Image.c ****                 /* Clean the part we want to write to */
 678:./Source/CS229Image.c ****                 *(uint16_t*)pixel &= 0xF00F;
 679:./Source/CS229Image.c **** 
 680:./Source/CS229Image.c ****                 /* Set the pixel value */
 681:./Source/CS229Image.c ****                 *pixel |= (color[1] & 0xFF) << 4;
 682:./Source/CS229Image.c **** 
 683:./Source/CS229Image.c ****                 /* We are done with this byte and the first half of the next */
 684:./Source/CS229Image.c ****                 pixel++;
 685:./Source/CS229Image.c ****             }
 686:./Source/CS229Image.c ****             else
 687:./Source/CS229Image.c ****             {
 688:./Source/CS229Image.c ****                 /* Set the pixel value and go to the next byte */
 689:./Source/CS229Image.c ****                 *pixel = color[1] & 0xFF;
 690:./Source/CS229Image.c ****                 pixel++;
 691:./Source/CS229Image.c ****             }
 692:./Source/CS229Image.c ****         }
 693:./Source/CS229Image.c ****         else
 694:./Source/CS229Image.c ****         {
 695:./Source/CS229Image.c ****             if(half_in)
 696:./Source/CS229Image.c ****             {
 697:./Source/CS229Image.c ****                 /* Clean the part we want to write to */
 698:./Source/CS229Image.c ****                 *(uint32_t*)pixel &= 0xF0000FFF;
 699:./Source/CS229Image.c **** 
 700:./Source/CS229Image.c ****                 /* Set the pixel value */
 701:./Source/CS229Image.c ****                 *pixel |= (color[1] & 0xFFFF) << 12;
 702:./Source/CS229Image.c **** 
 703:./Source/CS229Image.c ****                 /* We are done with the next "two bytes" */
 704:./Source/CS229Image.c ****                 pixel += 2;
 705:./Source/CS229Image.c ****             }
 706:./Source/CS229Image.c ****             else
 707:./Source/CS229Image.c ****             {
 708:./Source/CS229Image.c ****                 /* Set the pixel value */
 709:./Source/CS229Image.c ****                 *(uint16_t*)pixel = color[1] & 0xFFFF;
 710:./Source/CS229Image.c **** 
GAS LISTING /cygdrive/c/Users/THESCI~1/AppData/Local/Temp/ccH1olGy.s 			page 20


 711:./Source/CS229Image.c ****                 /* We are done with the next two byes */
 712:./Source/CS229Image.c ****                 pixel += 2;
 713:./Source/CS229Image.c ****             }
 714:./Source/CS229Image.c ****         }
 715:./Source/CS229Image.c **** 
 716:./Source/CS229Image.c ****         if(picture->blue_channel_size == FOUR_BIT_CHANNEL)
 717:./Source/CS229Image.c ****         {
 718:./Source/CS229Image.c ****             if(half_in)
 719:./Source/CS229Image.c ****             {
 720:./Source/CS229Image.c ****                 /* Clean the part we want to write to */
 721:./Source/CS229Image.c ****                 *pixel &= 0xF0;
 722:./Source/CS229Image.c **** 
 723:./Source/CS229Image.c ****                 /* Set the pixel value */
 724:./Source/CS229Image.c ****                 *pixel |= color[2] & 0x0F;
 725:./Source/CS229Image.c **** 
 726:./Source/CS229Image.c ****                 /* We are finished with this byte */
 727:./Source/CS229Image.c ****                 half_in = FALSE;
 728:./Source/CS229Image.c ****                 pixel++;
 729:./Source/CS229Image.c ****             }
 730:./Source/CS229Image.c ****             else
 731:./Source/CS229Image.c ****             {
 732:./Source/CS229Image.c ****                 /* Clean the part we want to write to */
 733:./Source/CS229Image.c ****                 *pixel &= 0x0F;
 734:./Source/CS229Image.c **** 
 735:./Source/CS229Image.c ****                 /* Set the pixel value */
 736:./Source/CS229Image.c ****                 *pixel |= (color[2] << 4) & 0xF0;
 737:./Source/CS229Image.c **** 
 738:./Source/CS229Image.c ****                 /* We are now half way into a byte */
 739:./Source/CS229Image.c ****                 half_in = TRUE;
 740:./Source/CS229Image.c ****             }
 741:./Source/CS229Image.c ****         }
 742:./Source/CS229Image.c ****         else if(picture->blue_channel_size == EIGHT_BIT_CHANNEL)
 743:./Source/CS229Image.c ****         {
 744:./Source/CS229Image.c ****             if(half_in)
 745:./Source/CS229Image.c ****             {
 746:./Source/CS229Image.c ****                 /* Clean the part we want to write to */
 747:./Source/CS229Image.c ****                 *(uint16_t*)pixel &= 0xF00F;
 748:./Source/CS229Image.c **** 
 749:./Source/CS229Image.c ****                 /* Set the pixel value */
 750:./Source/CS229Image.c ****                 *pixel |= (color[2] & 0xFF) << 4;
 751:./Source/CS229Image.c **** 
 752:./Source/CS229Image.c ****                 /* We are done with this byte and the first half of the next */
 753:./Source/CS229Image.c ****                 pixel++;
 754:./Source/CS229Image.c ****             }
 755:./Source/CS229Image.c ****             else
 756:./Source/CS229Image.c ****             {
 757:./Source/CS229Image.c ****                 /* Set the pixel value and go to the next byte */
 758:./Source/CS229Image.c ****                 *pixel = color[2] & 0xFF;
 759:./Source/CS229Image.c ****                 pixel++;
 760:./Source/CS229Image.c ****             }
 761:./Source/CS229Image.c ****         }
 762:./Source/CS229Image.c ****         else
 763:./Source/CS229Image.c ****         {
 764:./Source/CS229Image.c ****             if(half_in)
 765:./Source/CS229Image.c ****             {
 766:./Source/CS229Image.c ****                 /* Clean the part we want to write to */
 767:./Source/CS229Image.c ****                 *(uint32_t*)pixel &= 0xF0000FFF;
GAS LISTING /cygdrive/c/Users/THESCI~1/AppData/Local/Temp/ccH1olGy.s 			page 21


 768:./Source/CS229Image.c **** 
 769:./Source/CS229Image.c ****                 /* Set the pixel value */
 770:./Source/CS229Image.c ****                 *pixel |= (color[2] & 0xFFFF) << 12;
 771:./Source/CS229Image.c **** 
 772:./Source/CS229Image.c ****                 /* We are done with the next "two bytes" */
 773:./Source/CS229Image.c ****                 pixel += 2;
 774:./Source/CS229Image.c ****             }
 775:./Source/CS229Image.c ****             else
 776:./Source/CS229Image.c ****             {
 777:./Source/CS229Image.c ****                 /* Set the pixel value */
 778:./Source/CS229Image.c ****                 *(uint16_t*)pixel = color[2] & 0xFFFF;
 779:./Source/CS229Image.c **** 
 780:./Source/CS229Image.c ****                 /* We are done with the next two byes */
 781:./Source/CS229Image.c ****                 pixel += 2;
 782:./Source/CS229Image.c ****             }
 783:./Source/CS229Image.c ****         }
 784:./Source/CS229Image.c ****     }
 785:./Source/CS229Image.c **** 
 786:./Source/CS229Image.c ****     /* Return */
 787:./Source/CS229Image.c ****     return SUCCESS;
 788:./Source/CS229Image.c **** }
 789:./Source/CS229Image.c **** 
 790:./Source/CS229Image.c **** /* Takes an array of colors of length one for black and white images and of
 791:./Source/CS229Image.c ****  * length three for color images and counts how many times that colored pixel
 792:./Source/CS229Image.c ****  * occurs in the supplied picture. Returns zero if the supplied picture is
 793:./Source/CS229Image.c ****  * invalid, null or otherwise unusable.
 794:./Source/CS229Image.c ****  */
 795:./Source/CS229Image.c **** uint32_t count_pixels_of_color(PCSPIC picture, uint32_t color[])
 796:./Source/CS229Image.c **** {
 797:./Source/CS229Image.c ****     /* Create some local variables */
 798:./Source/CS229Image.c ****     uint32_t i;
 799:./Source/CS229Image.c ****     uint32_t len;
 800:./Source/CS229Image.c ****     uint32_t count;
 801:./Source/CS229Image.c ****     uint32_t err;
 802:./Source/CS229Image.c **** 
 803:./Source/CS229Image.c ****     /* Check for NULL */
 804:./Source/CS229Image.c ****     if(!picture || !color)
 805:./Source/CS229Image.c ****         return NULL_POINTER;
 806:./Source/CS229Image.c **** 
 807:./Source/CS229Image.c ****     /* Further sanity checks */
 808:./Source/CS229Image.c ****     if(picture->magic_number != CS229_MAGIC_NUMBER)
 809:./Source/CS229Image.c ****         return INVALID_IMAGE_FORMAT;
 810:./Source/CS229Image.c **** 
 811:./Source/CS229Image.c ****     /* Error check */
 812:./Source/CS229Image.c ****     if(picture->color_mode != MODE_BLACKWHITE && picture->color_mode != MODE_COLOR)
 813:./Source/CS229Image.c ****         return 0;
 814:./Source/CS229Image.c **** 
 815:./Source/CS229Image.c ****     /* Initaialize variables */
 816:./Source/CS229Image.c ****     count = 0;
 817:./Source/CS229Image.c ****     len = picture->height.value * picture->width.value;
 818:./Source/CS229Image.c **** 
 819:./Source/CS229Image.c ****     /* Check if we were given a valid picture */
 820:./Source/CS229Image.c ****     if(!picture)
 821:./Source/CS229Image.c ****         return 0x0;
 822:./Source/CS229Image.c **** 
 823:./Source/CS229Image.c ****     /* Look through every pixel for the color desired */
 824:./Source/CS229Image.c ****     for(i = 0;i < len;i++)
GAS LISTING /cygdrive/c/Users/THESCI~1/AppData/Local/Temp/ccH1olGy.s 			page 22


 825:./Source/CS229Image.c ****     {
 826:./Source/CS229Image.c ****         /* Store our colors here */
 827:./Source/CS229Image.c ****         uint32_t colors[3];
 828:./Source/CS229Image.c **** 
 829:./Source/CS229Image.c ****         /* Get the color of the ith pixel */
 830:./Source/CS229Image.c ****         err = get_pixel(picture,i,colors);
 831:./Source/CS229Image.c **** 
 832:./Source/CS229Image.c ****         /* Error check */
 833:./Source/CS229Image.c ****         if(err)
 834:./Source/CS229Image.c ****             return err;
 835:./Source/CS229Image.c **** 
 836:./Source/CS229Image.c ****         /* Check how many number we need to match */
 837:./Source/CS229Image.c ****         if(picture->color_mode == MODE_BLACKWHITE)
 838:./Source/CS229Image.c ****         {
 839:./Source/CS229Image.c ****             /* Check if we have the same black and white color */
 840:./Source/CS229Image.c ****             if(colors[0] == color[0])
 841:./Source/CS229Image.c ****                 count++;
 842:./Source/CS229Image.c ****         }
 843:./Source/CS229Image.c ****         else
 844:./Source/CS229Image.c ****         {
 845:./Source/CS229Image.c ****             /* Check if we have the same rbg color */
 846:./Source/CS229Image.c ****             if(colors[0] == color[0] && colors[1] == color[1] && colors[2] == color[2])
 847:./Source/CS229Image.c ****                 count++;
 848:./Source/CS229Image.c ****         }
 849:./Source/CS229Image.c ****     }
 850:./Source/CS229Image.c **** 
 851:./Source/CS229Image.c ****     /* Return how many times the requested pixel was found */
 852:./Source/CS229Image.c ****     return count;
 853:./Source/CS229Image.c **** }
 854:./Source/CS229Image.c **** 
 855:./Source/CS229Image.c **** /* Darkens the image provided by the given percentage (decimal value times 100).
 856:./Source/CS229Image.c ****  * If a negative percentage is given it will istead lighten the image.
 857:./Source/CS229Image.c ****  */
 858:./Source/CS229Image.c **** uint32_t darken_cs229_image(PCSPIC picture, int32_t percent)
 859:./Source/CS229Image.c **** {
 860:./Source/CS229Image.c ****     /* Create some local variables */
 861:./Source/CS229Image.c ****     uint32_t color[3];
 862:./Source/CS229Image.c ****     uint32_t i;
 863:./Source/CS229Image.c ****     uint32_t len;
 864:./Source/CS229Image.c ****     uint32_t err;
 865:./Source/CS229Image.c **** 
 866:./Source/CS229Image.c ****     /* If we have a negative percentage lighten instead */
 867:./Source/CS229Image.c ****     if(percent < 0)
 868:./Source/CS229Image.c ****         return lighten_cs229_image(picture,-percent);
 869:./Source/CS229Image.c **** 
 870:./Source/CS229Image.c ****     /* Check for NULL */
 871:./Source/CS229Image.c ****     if(picture == NULL)
 872:./Source/CS229Image.c ****         return NULL_POINTER;
 873:./Source/CS229Image.c **** 
 874:./Source/CS229Image.c ****     /* Further sanity checks */
 875:./Source/CS229Image.c ****     if(picture->magic_number != CS229_MAGIC_NUMBER)
 876:./Source/CS229Image.c ****         return INVALID_IMAGE_FORMAT;
 877:./Source/CS229Image.c **** 
 878:./Source/CS229Image.c ****     /* Error check */
 879:./Source/CS229Image.c ****     if(picture->color_mode != MODE_BLACKWHITE && picture->color_mode != MODE_COLOR)
 880:./Source/CS229Image.c ****         return INVALID_IMAGE_COLOR_FORMAT;
 881:./Source/CS229Image.c **** 
GAS LISTING /cygdrive/c/Users/THESCI~1/AppData/Local/Temp/ccH1olGy.s 			page 23


 882:./Source/CS229Image.c ****     /* Just so we don't waste time */
 883:./Source/CS229Image.c ****     if(percent == 0)
 884:./Source/CS229Image.c ****         return SUCCESS;
 885:./Source/CS229Image.c **** 
 886:./Source/CS229Image.c ****     /* Calculate how many pixels exist in this image */
 887:./Source/CS229Image.c ****     len = picture->height.value * picture->width.value;
 888:./Source/CS229Image.c **** 
 889:./Source/CS229Image.c ****     /* Darken every pixel */
 890:./Source/CS229Image.c ****     for(i = 0;i < len;i++)
 891:./Source/CS229Image.c ****     {
 892:./Source/CS229Image.c ****         /* Get our ith pixel */
 893:./Source/CS229Image.c ****         err = get_pixel(picture,i,color);
 894:./Source/CS229Image.c **** 
 895:./Source/CS229Image.c ****         /* If we go an error then abandon the program */
 896:./Source/CS229Image.c ****         if(err)
 897:./Source/CS229Image.c ****             return err;
 898:./Source/CS229Image.c **** 
 899:./Source/CS229Image.c ****         /* To speed up function execution by almost three times we will
 900:./Source/CS229Image.c ****            divide the job based on color mode instead of bashing forward */
 901:./Source/CS229Image.c ****         if(picture->color_mode == MODE_BLACKWHITE)
 902:./Source/CS229Image.c ****         {
 903:./Source/CS229Image.c ****             /* Black has a convientent value of zero */
 904:./Source/CS229Image.c ****             color[0] -= color[0] * percent / 100;
 905:./Source/CS229Image.c ****         }
 906:./Source/CS229Image.c ****         else
 907:./Source/CS229Image.c ****         {
 908:./Source/CS229Image.c ****             /* Black has a convientent value of zero */
 909:./Source/CS229Image.c ****             color[0] -= color[0] * percent / 100;
 910:./Source/CS229Image.c ****             color[1] -= color[1] * percent / 100;
 911:./Source/CS229Image.c ****             color[2] -= color[2] * percent / 100;
 912:./Source/CS229Image.c ****         }
 913:./Source/CS229Image.c **** 
 914:./Source/CS229Image.c ****         /* Set the ith pixel */
 915:./Source/CS229Image.c ****         err = set_pixel(picture,i,color);
 916:./Source/CS229Image.c **** 
 917:./Source/CS229Image.c ****         /* If we go an error then abandon the program */
 918:./Source/CS229Image.c ****         if(err)
 919:./Source/CS229Image.c ****             return err;
 920:./Source/CS229Image.c ****     }
 921:./Source/CS229Image.c **** 
 922:./Source/CS229Image.c ****     /* Image successfully darkened */
 923:./Source/CS229Image.c ****     return SUCCESS;
 924:./Source/CS229Image.c **** }
 925:./Source/CS229Image.c **** 
 926:./Source/CS229Image.c **** /* Lights the image provided by the given percentage (decimal value times 100).
 927:./Source/CS229Image.c ****  * If a negative percentage is given it will istead darken the image.
 928:./Source/CS229Image.c ****  */
 929:./Source/CS229Image.c **** uint32_t lighten_cs229_image(PCSPIC picture, int32_t percent)
 930:./Source/CS229Image.c **** {
 931:./Source/CS229Image.c ****     /* Create some local variables */
 932:./Source/CS229Image.c ****     uint32_t color[3];
 933:./Source/CS229Image.c ****     uint32_t i;
 934:./Source/CS229Image.c ****     uint32_t len;
 935:./Source/CS229Image.c ****     uint32_t err;
 936:./Source/CS229Image.c **** 
 937:./Source/CS229Image.c ****     /* The maximum value of our channels */
 938:./Source/CS229Image.c ****     uint32_t max_val[3];
GAS LISTING /cygdrive/c/Users/THESCI~1/AppData/Local/Temp/ccH1olGy.s 			page 24


 939:./Source/CS229Image.c **** 
 940:./Source/CS229Image.c ****     /* Make sure warnings don't become errors upon submission */
 941:./Source/CS229Image.c ****     max_val[0] = 0;
 942:./Source/CS229Image.c ****     max_val[1] = 0;
 943:./Source/CS229Image.c ****     max_val[2] = 0;
 944:./Source/CS229Image.c **** 
 945:./Source/CS229Image.c ****     /* If we have a negative percentage darken instead */
 946:./Source/CS229Image.c ****     if(percent < 0)
 947:./Source/CS229Image.c ****         return darken_cs229_image(picture,-percent);
 948:./Source/CS229Image.c **** 
 949:./Source/CS229Image.c ****     /* Check for NULL */
 950:./Source/CS229Image.c ****     if(picture == NULL)
 951:./Source/CS229Image.c ****         return NULL_POINTER;
 952:./Source/CS229Image.c **** 
 953:./Source/CS229Image.c ****     /* Further sanity checks */
 954:./Source/CS229Image.c ****     if(picture->magic_number != CS229_MAGIC_NUMBER)
 955:./Source/CS229Image.c ****         return INVALID_IMAGE_FORMAT;
 956:./Source/CS229Image.c **** 
 957:./Source/CS229Image.c ****     /* Error check */
 958:./Source/CS229Image.c ****     if(picture->color_mode != MODE_BLACKWHITE && picture->color_mode != MODE_COLOR)
 959:./Source/CS229Image.c ****         return INVALID_IMAGE_COLOR_FORMAT;
 960:./Source/CS229Image.c **** 
 961:./Source/CS229Image.c ****     /* Just so we don't waste time */
 962:./Source/CS229Image.c ****     if(percent == 0)
 963:./Source/CS229Image.c ****         return SUCCESS;
 964:./Source/CS229Image.c **** 
 965:./Source/CS229Image.c ****     /* Determine what is white, set_pixel clamps our data automatically but our
 966:./Source/CS229Image.c ****        math requires the acutal maximum value to function unfotunately. */
 967:./Source/CS229Image.c ****     if(picture->color_mode == MODE_BLACKWHITE)
 968:./Source/CS229Image.c ****     {
 969:./Source/CS229Image.c ****         /* Determine the maximum value of our black channel */
 970:./Source/CS229Image.c ****         switch(picture->first_channel.blackwhite_channel_size)
 971:./Source/CS229Image.c ****         {
 972:./Source/CS229Image.c ****             case FOUR_BIT_CHANNEL:
 973:./Source/CS229Image.c ****                 max_val[0] = 0xF;
 974:./Source/CS229Image.c ****                 break;
 975:./Source/CS229Image.c ****             case EIGHT_BIT_CHANNEL:
 976:./Source/CS229Image.c ****                 max_val[0] = 0xFF;
 977:./Source/CS229Image.c ****                 break;
 978:./Source/CS229Image.c ****             case SIXTEEN_BIT_CHANNEL:
 979:./Source/CS229Image.c ****                 max_val[0] = 0xFFFF;
 980:./Source/CS229Image.c ****                 break;
 981:./Source/CS229Image.c ****             default:
 982:./Source/CS229Image.c ****                 return INVALID_CHANNEL_SIZE;
 983:./Source/CS229Image.c ****         }
 984:./Source/CS229Image.c ****     }
 985:./Source/CS229Image.c ****     else
 986:./Source/CS229Image.c ****     {
 987:./Source/CS229Image.c ****         /* Determine the maximum value of our red channel */
 988:./Source/CS229Image.c ****         switch(picture->first_channel.red_channel_size)
 989:./Source/CS229Image.c ****         {
 990:./Source/CS229Image.c ****             case FOUR_BIT_CHANNEL:
 991:./Source/CS229Image.c ****                 max_val[0] = 0xF;
 992:./Source/CS229Image.c ****                 break;
 993:./Source/CS229Image.c ****             case EIGHT_BIT_CHANNEL:
 994:./Source/CS229Image.c ****                 max_val[0] = 0xFF;
 995:./Source/CS229Image.c ****                 break;
GAS LISTING /cygdrive/c/Users/THESCI~1/AppData/Local/Temp/ccH1olGy.s 			page 25


 996:./Source/CS229Image.c ****             case SIXTEEN_BIT_CHANNEL:
 997:./Source/CS229Image.c ****                 max_val[0] = 0xFFFF;
 998:./Source/CS229Image.c ****                 break;
 999:./Source/CS229Image.c ****             default:
1000:./Source/CS229Image.c ****                 return INVALID_CHANNEL_SIZE;
1001:./Source/CS229Image.c ****         }
1002:./Source/CS229Image.c **** 
1003:./Source/CS229Image.c ****         /* Determine the maximum value of our green channel */
1004:./Source/CS229Image.c ****         switch(picture->green_channel_size)
1005:./Source/CS229Image.c ****         {
1006:./Source/CS229Image.c ****             case FOUR_BIT_CHANNEL:
1007:./Source/CS229Image.c ****                 max_val[1] = 0xF;
1008:./Source/CS229Image.c ****                 break;
1009:./Source/CS229Image.c ****             case EIGHT_BIT_CHANNEL:
1010:./Source/CS229Image.c ****                 max_val[1] = 0xFF;
1011:./Source/CS229Image.c ****                 break;
1012:./Source/CS229Image.c ****             case SIXTEEN_BIT_CHANNEL:
1013:./Source/CS229Image.c ****                 max_val[1] = 0xFFFF;
1014:./Source/CS229Image.c ****                 break;
1015:./Source/CS229Image.c ****             default:
1016:./Source/CS229Image.c ****                 return INVALID_CHANNEL_SIZE;
1017:./Source/CS229Image.c ****         }
1018:./Source/CS229Image.c **** 
1019:./Source/CS229Image.c ****         /* Determine the maximum value of our blue channel */
1020:./Source/CS229Image.c ****         switch(picture->blue_channel_size)
1021:./Source/CS229Image.c ****         {
1022:./Source/CS229Image.c ****             case FOUR_BIT_CHANNEL:
1023:./Source/CS229Image.c ****                 max_val[2] = 0xF;
1024:./Source/CS229Image.c ****                 break;
1025:./Source/CS229Image.c ****             case EIGHT_BIT_CHANNEL:
1026:./Source/CS229Image.c ****                 max_val[2] = 0xFF;
1027:./Source/CS229Image.c ****                 break;
1028:./Source/CS229Image.c ****             case SIXTEEN_BIT_CHANNEL:
1029:./Source/CS229Image.c ****                 max_val[2] = 0xFFFF;
1030:./Source/CS229Image.c ****                 break;
1031:./Source/CS229Image.c ****             default:
1032:./Source/CS229Image.c ****                 return INVALID_CHANNEL_SIZE;
1033:./Source/CS229Image.c ****         }
1034:./Source/CS229Image.c ****     }
1035:./Source/CS229Image.c **** 
1036:./Source/CS229Image.c ****     /* Calculate how many pixels exist in this image */
1037:./Source/CS229Image.c ****     len = picture->height.value * picture->width.value;
1038:./Source/CS229Image.c **** 
1039:./Source/CS229Image.c ****     /* Darken every pixel */
1040:./Source/CS229Image.c ****     for(i = 0;i < len;i++)
1041:./Source/CS229Image.c ****     {
1042:./Source/CS229Image.c ****         /* Get our ith pixel */
1043:./Source/CS229Image.c ****         err = get_pixel(picture,i,color);
1044:./Source/CS229Image.c **** 
1045:./Source/CS229Image.c ****         /* If we go an error then abandon the program */
1046:./Source/CS229Image.c ****         if(err)
1047:./Source/CS229Image.c ****             return err;
1048:./Source/CS229Image.c **** 
1049:./Source/CS229Image.c ****         /* Different channels may have different white values */
1050:./Source/CS229Image.c ****         if(picture->color_mode == MODE_BLACKWHITE)
1051:./Source/CS229Image.c ****         {
1052:./Source/CS229Image.c ****             color[0] += (max_val[0] - color[0]) * percent / 100;
GAS LISTING /cygdrive/c/Users/THESCI~1/AppData/Local/Temp/ccH1olGy.s 			page 26


1053:./Source/CS229Image.c ****         }
1054:./Source/CS229Image.c ****         else
1055:./Source/CS229Image.c ****         {
1056:./Source/CS229Image.c ****             color[0] += (max_val[0] - color[0]) * percent / 100;
1057:./Source/CS229Image.c ****             color[1] += (max_val[1] - color[1]) * percent / 100;
1058:./Source/CS229Image.c ****             color[2] += (max_val[2] - color[2]) * percent / 100;
1059:./Source/CS229Image.c ****         }
1060:./Source/CS229Image.c **** 
1061:./Source/CS229Image.c ****         /* Set the ith pixel */
1062:./Source/CS229Image.c ****         err = set_pixel(picture,i,color);
1063:./Source/CS229Image.c **** 
1064:./Source/CS229Image.c ****         /* If we go an error then abandon the program */
1065:./Source/CS229Image.c ****         if(err)
1066:./Source/CS229Image.c ****             return err;
1067:./Source/CS229Image.c ****     }
1068:./Source/CS229Image.c **** 
1069:./Source/CS229Image.c ****     /* Image successfully lightened */
1070:./Source/CS229Image.c ****     return SUCCESS;
1071:./Source/CS229Image.c **** }
1072:./Source/CS229Image.c **** 
1073:./Source/CS229Image.c **** /* Rotates the image by the value given. The only acceptable values are
1074:./Source/CS229Image.c ****  * multiples of ninety (degrees). Radians will not produce expected results.
1075:./Source/CS229Image.c ****  */
1076:./Source/CS229Image.c **** uint32_t rotate_cs229_image(PCSPIC pic, int32_t angle)
1077:./Source/CS229Image.c **** {
1078:./Source/CS229Image.c ****     /* Create some local variables */
1079:./Source/CS229Image.c ****     CSPIC newpic;
1080:./Source/CS229Image.c ****     uint32_t err;
1081:./Source/CS229Image.c **** 
1082:./Source/CS229Image.c ****     /* Image successfully rotated */
1083:./Source/CS229Image.c ****     if(!angle)
1084:./Source/CS229Image.c ****         return SUCCESS;
1085:./Source/CS229Image.c **** 
1086:./Source/CS229Image.c ****     /* Check that we have a valid rotation angle */
1087:./Source/CS229Image.c ****     if(angle % 90)
1088:./Source/CS229Image.c ****         return INVALID_ARGUMENT;
1089:./Source/CS229Image.c **** 
1090:./Source/CS229Image.c ****     /* Check for a null pointer */
1091:./Source/CS229Image.c ****     if(pic == NULL)
1092:./Source/CS229Image.c ****         return NULL_POINTER;
1093:./Source/CS229Image.c **** 
1094:./Source/CS229Image.c ****     /* Further sanity checks */
1095:./Source/CS229Image.c ****     if(pic->magic_number != CS229_MAGIC_NUMBER)
1096:./Source/CS229Image.c ****         return INVALID_IMAGE_FORMAT;
1097:./Source/CS229Image.c **** 
1098:./Source/CS229Image.c ****     /* Make the angle sane */
1099:./Source/CS229Image.c ****     while(angle < 0)
1100:./Source/CS229Image.c ****         angle += 360;
1101:./Source/CS229Image.c **** 
1102:./Source/CS229Image.c ****     /* Make the angle sane */
1103:./Source/CS229Image.c ****     while(angle >= 360)
1104:./Source/CS229Image.c ****         angle -= 360;
1105:./Source/CS229Image.c **** 
1106:./Source/CS229Image.c ****     /* Set values for our new picture */
1107:./Source/CS229Image.c ****     newpic.first_channel.red_channel_size = pic->first_channel.red_channel_size;
1108:./Source/CS229Image.c ****     newpic.green_channel_size = pic->green_channel_size;
1109:./Source/CS229Image.c ****     newpic.blue_channel_size = pic->blue_channel_size;
GAS LISTING /cygdrive/c/Users/THESCI~1/AppData/Local/Temp/ccH1olGy.s 			page 27


1110:./Source/CS229Image.c ****     newpic.color_mode = pic->color_mode;
1111:./Source/CS229Image.c ****     newpic.height.value = pic->width.value;
1112:./Source/CS229Image.c ****     newpic.width.value = pic->height.value;
1113:./Source/CS229Image.c ****     newpic.magic_number = pic->magic_number;
1114:./Source/CS229Image.c **** 
1115:./Source/CS229Image.c ****     /* Determine the color format multipler */
1116:./Source/CS229Image.c ****     err = determine_multiplier(&newpic);
1117:./Source/CS229Image.c **** 
1118:./Source/CS229Image.c ****     /* Allocate data space for our new image */
1119:./Source/CS229Image.c ****     if(err)
1120:./Source/CS229Image.c ****         newpic.data = (uint8_t*)malloc((size_t)(newpic.width.value * newpic.height.value * err / 2 
1121:./Source/CS229Image.c ****     else
1122:./Source/CS229Image.c ****         return INVALID_CHANNEL_SIZE;
1123:./Source/CS229Image.c **** 
1124:./Source/CS229Image.c ****     /* Do the rotation */
1125:./Source/CS229Image.c ****     {
1126:./Source/CS229Image.c ****         /* Create a place to store our pixel values */
1127:./Source/CS229Image.c ****         uint32_t color[3];
1128:./Source/CS229Image.c ****         uint32_t len;
1129:./Source/CS229Image.c ****         uint32_t i;
1130:./Source/CS229Image.c ****         uint32_t pos;
1131:./Source/CS229Image.c **** 
1132:./Source/CS229Image.c ****         /* Determine the length of our image */
1133:./Source/CS229Image.c ****         len = newpic.width.value * newpic.height.value;
1134:./Source/CS229Image.c **** 
1135:./Source/CS229Image.c ****         /* For each pixel move it to its new location */
1136:./Source/CS229Image.c ****         for(i = 1;i <= len;i++)
1137:./Source/CS229Image.c ****         {
1138:./Source/CS229Image.c ****             /* Figure out where we are getting our pixel from */
1139:./Source/CS229Image.c ****             if(i % pic->height.value)
1140:./Source/CS229Image.c ****                 pos = pic->width.value * (pic->height.value - (i % pic->height.value)) + (i / pic->
1141:./Source/CS229Image.c ****             else
1142:./Source/CS229Image.c ****                 pos = i / pic->height.value - 1;
1143:./Source/CS229Image.c **** 
1144:./Source/CS229Image.c ****             /* Get the next pixel */
1145:./Source/CS229Image.c ****             err = get_pixel(pic,pos,color);
1146:./Source/CS229Image.c ****             
1147:./Source/CS229Image.c ****             /* Check that we successfully got the pixel value */
1148:./Source/CS229Image.c ****             if(err)
1149:./Source/CS229Image.c ****             {
1150:./Source/CS229Image.c ****                 free((void*)newpic.data);
1151:./Source/CS229Image.c ****                 return err;
1152:./Source/CS229Image.c ****             }
1153:./Source/CS229Image.c **** 
1154:./Source/CS229Image.c ****             /* Set the next pixel in our image, zero based index so subtract one */
1155:./Source/CS229Image.c ****             err = set_pixel(&newpic,i - 1,color);
1156:./Source/CS229Image.c ****             
1157:./Source/CS229Image.c ****             /* Check that we successfully set the pixel value */
1158:./Source/CS229Image.c ****             if(err)
1159:./Source/CS229Image.c ****             {
1160:./Source/CS229Image.c ****                 free((void*)newpic.data);
1161:./Source/CS229Image.c ****                 return err;
1162:./Source/CS229Image.c ****             }
1163:./Source/CS229Image.c ****         }
1164:./Source/CS229Image.c ****     }
1165:./Source/CS229Image.c **** 
1166:./Source/CS229Image.c ****     /* Rotate the image more */
GAS LISTING /cygdrive/c/Users/THESCI~1/AppData/Local/Temp/ccH1olGy.s 			page 28


1167:./Source/CS229Image.c ****     err = rotate_cs229_image(&newpic,angle - 90);
1168:./Source/CS229Image.c **** 
1169:./Source/CS229Image.c ****     /* If we didn't get an error we should change our image data */
1170:./Source/CS229Image.c ****     if(err)
1171:./Source/CS229Image.c ****         free((void*)newpic.data);
1172:./Source/CS229Image.c ****     else
1173:./Source/CS229Image.c ****     {
1174:./Source/CS229Image.c ****         /* Change the image specs */
1175:./Source/CS229Image.c ****         pic->width.value = newpic.width.value;
1176:./Source/CS229Image.c ****         pic->height.value = newpic.height.value;
1177:./Source/CS229Image.c **** 
1178:./Source/CS229Image.c ****         /* Free our old data space */
1179:./Source/CS229Image.c ****         free((void*)pic->data);
1180:./Source/CS229Image.c **** 
1181:./Source/CS229Image.c ****         /* Change our picture data location */
1182:./Source/CS229Image.c ****         pic->data = newpic.data;
1183:./Source/CS229Image.c ****     }
1184:./Source/CS229Image.c **** 
1185:./Source/CS229Image.c ****     /* Image sucessfully rotated */
1186:./Source/CS229Image.c ****     return err;
1187:./Source/CS229Image.c **** }
1188:./Source/CS229Image.c **** 
1189:./Source/CS229Image.c **** /* Flips the provided image either horizontally or vertically based on
1190:./Source/CS229Image.c ****  * the char passed to this function. h for a horizontal flip and v
1191:./Source/CS229Image.c ****  * for a vertical flip.
1192:./Source/CS229Image.c ****  */
1193:./Source/CS229Image.c **** uint32_t flip_cs229_image(PCSPIC pic, int8_t axis)
1194:./Source/CS229Image.c **** {
1195:./Source/CS229Image.c ****     /* Create some local variables */
1196:./Source/CS229Image.c ****     uint32_t err;
1197:./Source/CS229Image.c ****     uint32_t i;
1198:./Source/CS229Image.c ****     uint32_t len;
1199:./Source/CS229Image.c ****     uint32_t colorA[3];
1200:./Source/CS229Image.c ****     uint32_t colorB[3];
1201:./Source/CS229Image.c ****     uint32_t mod;
1202:./Source/CS229Image.c **** 
1203:./Source/CS229Image.c ****     /* Check that axis is valid */
1204:./Source/CS229Image.c ****     if(!(axis == 'h'  || axis == 'v'))
1205:./Source/CS229Image.c ****         return INVALID_ARGUMENT;
1206:./Source/CS229Image.c **** 
1207:./Source/CS229Image.c ****     /* Sanity check */
1208:./Source/CS229Image.c ****     if(pic == NULL)
1209:./Source/CS229Image.c ****         return NULL_POINTER;
1210:./Source/CS229Image.c **** 
1211:./Source/CS229Image.c ****     /* Further sanity checks */
1212:./Source/CS229Image.c ****     if(pic->magic_number != CS229_MAGIC_NUMBER)
1213:./Source/CS229Image.c ****         return INVALID_IMAGE_FORMAT;
1214:./Source/CS229Image.c **** 
1215:./Source/CS229Image.c ****     /* Determine the length of the image */
1216:./Source/CS229Image.c ****     len = pic->width.value * pic->height.value;
1217:./Source/CS229Image.c ****     
1218:./Source/CS229Image.c ****     /* Do the actual transform */
1219:./Source/CS229Image.c ****     if(axis == 'v')
1220:./Source/CS229Image.c ****         for(i = 0;i < len;i++)
1221:./Source/CS229Image.c ****         {
1222:./Source/CS229Image.c ****             /* Determine where we are in the picture width-wise */
1223:./Source/CS229Image.c ****             mod = i % pic->width.value;
GAS LISTING /cygdrive/c/Users/THESCI~1/AppData/Local/Temp/ccH1olGy.s 			page 29


1224:./Source/CS229Image.c **** 
1225:./Source/CS229Image.c ****             /* Check if we are past or at the halfway point */
1226:./Source/CS229Image.c ****             if(mod >= pic->width.value / 2)
1227:./Source/CS229Image.c ****                 continue;
1228:./Source/CS229Image.c **** 
1229:./Source/CS229Image.c ****             /* Determine the paired pixel */
1230:./Source/CS229Image.c ****             mod = (i - mod) + (pic->width.value - mod - 1);
1231:./Source/CS229Image.c ****             
1232:./Source/CS229Image.c ****             /* Get the left pixel */
1233:./Source/CS229Image.c ****             err = get_pixel(pic,i,colorA);
1234:./Source/CS229Image.c **** 
1235:./Source/CS229Image.c ****             /* Error check */
1236:./Source/CS229Image.c ****             if(err)
1237:./Source/CS229Image.c ****                 return err;
1238:./Source/CS229Image.c **** 
1239:./Source/CS229Image.c ****             /* Get the right pixel */
1240:./Source/CS229Image.c ****             err = get_pixel(pic,mod,colorB);
1241:./Source/CS229Image.c **** 
1242:./Source/CS229Image.c ****             /* Error check */
1243:./Source/CS229Image.c ****             if(err)
1244:./Source/CS229Image.c ****                 return err;
1245:./Source/CS229Image.c **** 
1246:./Source/CS229Image.c ****             /* Set the new left pixel */
1247:./Source/CS229Image.c ****             err = set_pixel(pic,i,colorB);
1248:./Source/CS229Image.c **** 
1249:./Source/CS229Image.c ****             /* Error check */
1250:./Source/CS229Image.c ****             if(err)
1251:./Source/CS229Image.c ****                 return err;
1252:./Source/CS229Image.c **** 
1253:./Source/CS229Image.c ****             /* Set the new right pixel */
1254:./Source/CS229Image.c ****             err = set_pixel(pic,mod,colorA);
1255:./Source/CS229Image.c **** 
1256:./Source/CS229Image.c ****             /* Error check */
1257:./Source/CS229Image.c ****             if(err)
1258:./Source/CS229Image.c ****                 return err;
1259:./Source/CS229Image.c ****         }
1260:./Source/CS229Image.c ****     else
1261:./Source/CS229Image.c ****         for(i = 0;i / pic->width.value < pic->height.value / 2;i++)
1262:./Source/CS229Image.c ****         {
1263:./Source/CS229Image.c ****             /* Determine where we are in the picture hieght-wise */
1264:./Source/CS229Image.c ****             mod = i / pic->width.value + 1;
1265:./Source/CS229Image.c **** 
1266:./Source/CS229Image.c ****             /* Determine where the opposite pixel is */
1267:./Source/CS229Image.c ****             mod = len + (i % pic->width.value) - (mod * pic->width.value);
1268:./Source/CS229Image.c **** 
1269:./Source/CS229Image.c ****             /* Get the left pixel */
1270:./Source/CS229Image.c ****             err = get_pixel(pic,i,colorA);
1271:./Source/CS229Image.c **** 
1272:./Source/CS229Image.c ****             /* Error check */
1273:./Source/CS229Image.c ****             if(err)
1274:./Source/CS229Image.c ****                 return err;
1275:./Source/CS229Image.c **** 
1276:./Source/CS229Image.c ****             /* Get the right pixel */
1277:./Source/CS229Image.c ****             err = get_pixel(pic,mod,colorB);
1278:./Source/CS229Image.c **** 
1279:./Source/CS229Image.c ****             /* Error check */
1280:./Source/CS229Image.c ****             if(err)
GAS LISTING /cygdrive/c/Users/THESCI~1/AppData/Local/Temp/ccH1olGy.s 			page 30


1281:./Source/CS229Image.c ****                 return err;
1282:./Source/CS229Image.c **** 
1283:./Source/CS229Image.c ****             /* Set the new left pixel */
1284:./Source/CS229Image.c ****             err = set_pixel(pic,i,colorB);
1285:./Source/CS229Image.c **** 
1286:./Source/CS229Image.c ****             /* Error check */
1287:./Source/CS229Image.c ****             if(err)
1288:./Source/CS229Image.c ****                 return err;
1289:./Source/CS229Image.c **** 
1290:./Source/CS229Image.c ****             /* Set the new right pixel */
1291:./Source/CS229Image.c ****             err = set_pixel(pic,mod,colorA);
1292:./Source/CS229Image.c **** 
1293:./Source/CS229Image.c ****             /* Error check */
1294:./Source/CS229Image.c ****             if(err)
1295:./Source/CS229Image.c ****                 return err;
1296:./Source/CS229Image.c ****         }
1297:./Source/CS229Image.c ****     
1298:./Source/CS229Image.c ****     /* Image sucessfully flipped */
1299:./Source/CS229Image.c ****     return SUCCESS;
1300:./Source/CS229Image.c **** }
1301:./Source/CS229Image.c **** 
1302:./Source/CS229Image.c **** /* Takes a kernel as an array containing the values to use in the convolution
1303:./Source/CS229Image.c ****  * process and an unsigned integer pointer indicating the width and height of the
1304:./Source/CS229Image.c ****  * array for each kernel. This implies that the kernel must be a square. Odd square sizes
1305:./Source/CS229Image.c ****  * produce the most predictable results though even sizes result in consistent pictures.
1306:./Source/CS229Image.c ****  */
1307:./Source/CS229Image.c **** uint32_t convolute(PCSPIC pic, float** kernel, uint32_t* width)
1308:./Source/CS229Image.c **** {
1309:./Source/CS229Image.c ****     /* Create some local variables */
1310:./Source/CS229Image.c ****     CSPIC newpic;
1311:./Source/CS229Image.c ****     uint32_t err;
1312:./Source/CS229Image.c ****     uint32_t len;
1313:./Source/CS229Image.c ****     uint32_t i;
1314:./Source/CS229Image.c ****     uint32_t j;
1315:./Source/CS229Image.c ****     uint32_t x;
1316:./Source/CS229Image.c ****     uint32_t y;
1317:./Source/CS229Image.c ****     uint32_t cord[2];
1318:./Source/CS229Image.c ****     float pixel;
1319:./Source/CS229Image.c ****     uint32_t int_pixel[3];
1320:./Source/CS229Image.c ****     uint32_t new_i;
1321:./Source/CS229Image.c **** 
1322:./Source/CS229Image.c ****     /* Sanity check */
1323:./Source/CS229Image.c ****     if(pic == NULL || kernel == NULL)
1324:./Source/CS229Image.c ****         return NULL_POINTER;
1325:./Source/CS229Image.c **** 
1326:./Source/CS229Image.c ****     /* Further sanity checks */
1327:./Source/CS229Image.c ****     if(pic->magic_number != CS229_MAGIC_NUMBER)
1328:./Source/CS229Image.c ****         return INVALID_IMAGE_FORMAT;
1329:./Source/CS229Image.c **** 
1330:./Source/CS229Image.c ****     /* If our kernel is of size zero then we don't need to do anything. */
1331:./Source/CS229Image.c ****     if(!width)
1332:./Source/CS229Image.c ****         return SUCCESS;
1333:./Source/CS229Image.c **** 
1334:./Source/CS229Image.c ****     /* Set values for our new picture */
1335:./Source/CS229Image.c ****     newpic.first_channel.red_channel_size = pic->first_channel.red_channel_size;
1336:./Source/CS229Image.c ****     newpic.green_channel_size = pic->green_channel_size;
1337:./Source/CS229Image.c ****     newpic.blue_channel_size = pic->blue_channel_size;
GAS LISTING /cygdrive/c/Users/THESCI~1/AppData/Local/Temp/ccH1olGy.s 			page 31


1338:./Source/CS229Image.c ****     newpic.color_mode = pic->color_mode;
1339:./Source/CS229Image.c ****     newpic.width.value = pic->width.value;
1340:./Source/CS229Image.c ****     newpic.height.value = pic->height.value;
1341:./Source/CS229Image.c ****     newpic.magic_number = pic->magic_number;
1342:./Source/CS229Image.c **** 
1343:./Source/CS229Image.c ****     /* Determine the color format multipler */
1344:./Source/CS229Image.c ****     err = determine_multiplier(&newpic);
1345:./Source/CS229Image.c **** 
1346:./Source/CS229Image.c ****     /* Allocate data space for our new image */
1347:./Source/CS229Image.c ****     if(err)
1348:./Source/CS229Image.c ****         newpic.data = (uint8_t*)malloc((size_t)(newpic.width.value * newpic.height.value * err / 2 
1349:./Source/CS229Image.c ****     else
1350:./Source/CS229Image.c ****         return INVALID_CHANNEL_SIZE;
1351:./Source/CS229Image.c **** 
1352:./Source/CS229Image.c ****     /* Determine the length of the picture */
1353:./Source/CS229Image.c ****     len = newpic.width.value * newpic.height.value;
1354:./Source/CS229Image.c **** 
1355:./Source/CS229Image.c ****     /* Loop through each pixel to create the new data */
1356:./Source/CS229Image.c ****     for(i = 0;i < len;i++)
1357:./Source/CS229Image.c ****     {
1358:./Source/CS229Image.c ****         /* Get the newest pixel in the old picture */
1359:./Source/CS229Image.c ****         err = get_pixel(pic,i,int_pixel);
1360:./Source/CS229Image.c **** 
1361:./Source/CS229Image.c ****         /* Error check */
1362:./Source/CS229Image.c ****         if(err)
1363:./Source/CS229Image.c ****         {
1364:./Source/CS229Image.c ****             free((void*)newpic.data);
1365:./Source/CS229Image.c ****             return err;
1366:./Source/CS229Image.c ****         }
1367:./Source/CS229Image.c **** 
1368:./Source/CS229Image.c ****         /* Set the newest pixel in the new picture */
1369:./Source/CS229Image.c ****         err = set_pixel(&newpic,i,int_pixel);
1370:./Source/CS229Image.c **** 
1371:./Source/CS229Image.c ****         /* Error check */
1372:./Source/CS229Image.c ****         if(err)
1373:./Source/CS229Image.c ****         {
1374:./Source/CS229Image.c ****             free((void*)newpic.data);
1375:./Source/CS229Image.c ****             return err;
1376:./Source/CS229Image.c ****         }
1377:./Source/CS229Image.c **** 
1378:./Source/CS229Image.c ****         /* Loop through each kernel */
1379:./Source/CS229Image.c ****         for(j = 0;j < (pic->color_mode == MODE_COLOR ? 3 : 1);j++)
1380:./Source/CS229Image.c ****         {
1381:./Source/CS229Image.c ****             /* Empty the data out of our floating pixel */
1382:./Source/CS229Image.c ****             pixel = 0.0f;
1383:./Source/CS229Image.c **** 
1384:./Source/CS229Image.c ****             for(x = - (width[j] / 2);x < (width[j] + 1) / 2;x++)
1385:./Source/CS229Image.c ****                 for(y = - (width[j] / 2);y < (width[j] + 1) / 2;y++)
1386:./Source/CS229Image.c ****                 {
1387:./Source/CS229Image.c ****                     /* Get the coordinates of the current pixel */
1388:./Source/CS229Image.c ****                     if(linear_to_coordinate_address(pic,i,cord))
1389:./Source/CS229Image.c ****                     {
1390:./Source/CS229Image.c ****                         free((void*)newpic.data);
1391:./Source/CS229Image.c ****                         return GENERAL_ERROR;
1392:./Source/CS229Image.c ****                     }
1393:./Source/CS229Image.c **** 
1394:./Source/CS229Image.c ****                     /* Get the linear address of the new pixel */
GAS LISTING /cygdrive/c/Users/THESCI~1/AppData/Local/Temp/ccH1olGy.s 			page 32


1395:./Source/CS229Image.c ****                     new_i = coordinate_to_linear_address(pic,cord[0] + x,cord[1] + y);
1396:./Source/CS229Image.c **** 
1397:./Source/CS229Image.c ****                     /* If we are out of bounds then no matter what we do we get zero */
1398:./Source/CS229Image.c ****                     if(new_i == -1)
1399:./Source/CS229Image.c ****                         continue;
1400:./Source/CS229Image.c **** 
1401:./Source/CS229Image.c ****                     /* Get the next pixel to add */
1402:./Source/CS229Image.c ****                     err = get_pixel(&newpic,new_i,int_pixel);
1403:./Source/CS229Image.c **** 
1404:./Source/CS229Image.c ****                     /* Error check */
1405:./Source/CS229Image.c ****                     if(err)
1406:./Source/CS229Image.c ****                     {
1407:./Source/CS229Image.c ****                         free((void*)newpic.data);
1408:./Source/CS229Image.c ****                         return err;
1409:./Source/CS229Image.c ****                     }
1410:./Source/CS229Image.c **** 
1411:./Source/CS229Image.c ****                     /* Convolute the pixel data with the appropriate value */
1412:./Source/CS229Image.c ****                     pixel += ((float)int_pixel[j]) * kernel[j][(x + width[j] / 2) + (y + width[j] /
1413:./Source/CS229Image.c ****                 }
1414:./Source/CS229Image.c **** 
1415:./Source/CS229Image.c ****             /* Get the final value of the pixel */
1416:./Source/CS229Image.c ****             int_pixel[j] = (uint32_t)roundf(pixel);
1417:./Source/CS229Image.c **** 
1418:./Source/CS229Image.c ****             /* Set the new value of the pixel */
1419:./Source/CS229Image.c ****             err = set_pixel(&newpic,i,int_pixel);
1420:./Source/CS229Image.c **** 
1421:./Source/CS229Image.c ****             /* Error check */
1422:./Source/CS229Image.c ****             if(err)
1423:./Source/CS229Image.c ****             {
1424:./Source/CS229Image.c ****                 free((void*)newpic.data);
1425:./Source/CS229Image.c ****                 return err;
1426:./Source/CS229Image.c ****             }
1427:./Source/CS229Image.c ****         }
1428:./Source/CS229Image.c ****     }
1429:./Source/CS229Image.c **** 
1430:./Source/CS229Image.c ****     /* Free our old data */
1431:./Source/CS229Image.c ****     free((void*)pic->data);
1432:./Source/CS229Image.c **** 
1433:./Source/CS229Image.c ****     /* Change our image data pointer */
1434:./Source/CS229Image.c ****     pic->data = newpic.data;
1435:./Source/CS229Image.c **** 
1436:./Source/CS229Image.c ****     /* Image successfully convoluted */
1437:./Source/CS229Image.c ****     return SUCCESS;
1438:./Source/CS229Image.c **** }
1439:./Source/CS229Image.c **** 
1440:./Source/CS229Image.c **** /* Converts a cs229 image to a ppm image and stores it in the PPMING provided.
1441:./Source/CS229Image.c ****  */
1442:./Source/CS229Image.c **** uint32_t convert_cs229_to_ppm(PCSPIC source, PPPMIMG dest)
1443:./Source/CS229Image.c **** {
1444:./Source/CS229Image.c ****     /* Check if we have null pointers */
1445:./Source/CS229Image.c ****     if(!source || !dest)
1446:./Source/CS229Image.c ****         return NULL_POINTER;
1447:./Source/CS229Image.c ****     
1448:./Source/CS229Image.c ****     /* We only convert color images */
1449:./Source/CS229Image.c ****     if(source->color_mode != MODE_COLOR)
1450:./Source/CS229Image.c ****         return INVALID_IMAGE_COLOR_FORMAT;
1451:./Source/CS229Image.c **** 
GAS LISTING /cygdrive/c/Users/THESCI~1/AppData/Local/Temp/ccH1olGy.s 			page 33


1452:./Source/CS229Image.c ****     /* We only convert images with eight and sixteen bit channels */
1453:./Source/CS229Image.c ****     if(source->first_channel.red_channel_size == FOUR_BIT_CHANNEL)
1454:./Source/CS229Image.c ****         return INVALID_CHANNEL_SIZE;
1455:./Source/CS229Image.c **** 
1456:./Source/CS229Image.c ****     /* We only convert images with eight and sixteen bit channels */
1457:./Source/CS229Image.c ****     if(source->green_channel_size == FOUR_BIT_CHANNEL)
1458:./Source/CS229Image.c ****         return INVALID_CHANNEL_SIZE;
1459:./Source/CS229Image.c **** 
1460:./Source/CS229Image.c ****     /* We only convert images with eight and sixteen bit channels */
1461:./Source/CS229Image.c ****     if(source->blue_channel_size == FOUR_BIT_CHANNEL)
1462:./Source/CS229Image.c ****         return INVALID_CHANNEL_SIZE;
1463:./Source/CS229Image.c **** 
1464:./Source/CS229Image.c ****     /* We only convert images with equal channel sizes */
1465:./Source/CS229Image.c ****     if(source->first_channel.red_channel_size != source->green_channel_size)
1466:./Source/CS229Image.c ****         return INVALID_CHANNEL_SIZE;
1467:./Source/CS229Image.c **** 
1468:./Source/CS229Image.c ****     /* We only convert images with equal channel sizes */
1469:./Source/CS229Image.c ****     if(source->blue_channel_size != source->green_channel_size)
1470:./Source/CS229Image.c ****         return INVALID_CHANNEL_SIZE;
1471:./Source/CS229Image.c **** 
1472:./Source/CS229Image.c ****     /* Set our magic number */
1473:./Source/CS229Image.c ****     dest->magic_number = PPM_MAGIC_NUMBER;
1474:./Source/CS229Image.c **** 
1475:./Source/CS229Image.c ****     /* The width of a pixel is three times the number of bytes a single channel uses */
1476:./Source/CS229Image.c ****     dest->pixel_width = source->blue_channel_size / 2 * 3;
1477:./Source/CS229Image.c **** 
1478:./Source/CS229Image.c ****     /* Define our maximum color value */
1479:./Source/CS229Image.c ****     dest->max_color_value = dest->pixel_width == 3 ? 0xFF : 0xFFFF;
1480:./Source/CS229Image.c **** 
1481:./Source/CS229Image.c ****     /* Define our dimensions */
1482:./Source/CS229Image.c ****     dest->height = source->height.value;
1483:./Source/CS229Image.c ****     dest->width = source->width.value;
1484:./Source/CS229Image.c **** 
1485:./Source/CS229Image.c ****     /* Allocate data for our new image format */
1486:./Source/CS229Image.c ****     dest->data.byte_ptr = (uint8_t*)malloc((size_t)(dest->height * dest->width * dest->pixel_width)
1487:./Source/CS229Image.c **** 
1488:./Source/CS229Image.c ****     /* Since data is stored indentically in both image formats just copy it directly. */
1489:./Source/CS229Image.c ****     memcpy((void*)dest->data.byte_ptr,(const void*)source->data,(size_t)(dest->height * dest->width
1490:./Source/CS229Image.c **** 
1491:./Source/CS229Image.c ****     /* We successfully converted the image */
1492:./Source/CS229Image.c ****     return SUCCESS;
1493:./Source/CS229Image.c **** }
1494:./Source/CS229Image.c **** 
1495:./Source/CS229Image.c **** /* Converts a ppm image to a cs229 image and stores it in the PCSPIC provided.
1496:./Source/CS229Image.c ****  */
1497:./Source/CS229Image.c **** extern uint32_t convert_ppm_to_cs229(PPPMIMG source, PCSPIC dest)
1498:./Source/CS229Image.c **** {
 316              		.loc 1 1498 0
 317              	LVL57:
 318 0220 55       		pushl	%ebp
 319              	LCFI14:
 320 0221 89E5     		movl	%esp, %ebp
 321              	LCFI15:
 322 0223 56       		pushl	%esi
 323              	LCFI16:
 324 0224 53       		pushl	%ebx
 325              	LCFI17:
GAS LISTING /cygdrive/c/Users/THESCI~1/AppData/Local/Temp/ccH1olGy.s 			page 34


 326 0225 83EC10   		subl	$16, %esp
 327              	LCFI18:
 328              		.loc 1 1498 0
 329 0228 8B7508   		movl	8(%ebp), %esi
 330 022b 8B5D0C   		movl	12(%ebp), %ebx
1499:./Source/CS229Image.c ****     /* Check if we have null pointers */
1500:./Source/CS229Image.c ****     if(!source || !dest)
 331              		.loc 1 1500 0
 332 022e 85F6     		testl	%esi, %esi
 333 0230 7463     		je	L36
 334              	LVL58:
 335 0232 85DB     		testl	%ebx, %ebx
 336 0234 745F     		je	L36
1501:./Source/CS229Image.c ****         return NULL_POINTER;
1502:./Source/CS229Image.c **** 
1503:./Source/CS229Image.c ****     /* Write our magic number */
1504:./Source/CS229Image.c ****     dest->magic_number = CS229_MAGIC_NUMBER;
 337              		.loc 1 1504 0
 338 0236 C60342   		movb	$66, (%ebx)
1505:./Source/CS229Image.c **** 
1506:./Source/CS229Image.c ****     /* We only write color images */
1507:./Source/CS229Image.c ****     dest->color_mode = MODE_COLOR;
 339              		.loc 1 1507 0
 340 0239 C64301FF 		movb	$-1, 1(%ebx)
1508:./Source/CS229Image.c **** 
1509:./Source/CS229Image.c ****     /* If pixels are three bytes long we have eight byte channels */
1510:./Source/CS229Image.c ****     if(source->pixel_width == 3)
 341              		.loc 1 1510 0
 342 023d 837E1003 		cmpl	$3, 16(%esi)
 343 0241 745E     		je	L37
1511:./Source/CS229Image.c ****     {
1512:./Source/CS229Image.c ****         dest->first_channel.red_channel_size = EIGHT_BIT_CHANNEL;
1513:./Source/CS229Image.c ****         dest->green_channel_size = EIGHT_BIT_CHANNEL;
1514:./Source/CS229Image.c ****         dest->blue_channel_size = EIGHT_BIT_CHANNEL;
1515:./Source/CS229Image.c ****     }
1516:./Source/CS229Image.c ****     else /* We must have sixteen byte channels */
1517:./Source/CS229Image.c ****     {
1518:./Source/CS229Image.c ****         dest->first_channel.red_channel_size = SIXTEEN_BIT_CHANNEL;
 344              		.loc 1 1518 0
 345 0243 C6430204 		movb	$4, 2(%ebx)
1519:./Source/CS229Image.c ****         dest->green_channel_size = SIXTEEN_BIT_CHANNEL;
 346              		.loc 1 1519 0
 347 0247 C6430304 		movb	$4, 3(%ebx)
1520:./Source/CS229Image.c ****         dest->blue_channel_size = SIXTEEN_BIT_CHANNEL;
 348              		.loc 1 1520 0
 349 024b C6430404 		movb	$4, 4(%ebx)
 350              	L34:
1521:./Source/CS229Image.c ****     }
1522:./Source/CS229Image.c **** 
1523:./Source/CS229Image.c ****     /* Define our image dimensions */
1524:./Source/CS229Image.c ****     dest->height.value = source->height;
 351              		.loc 1 1524 0
 352 024f 8B4604   		movl	4(%esi), %eax
 353 0252 894308   		movl	%eax, 8(%ebx)
1525:./Source/CS229Image.c ****     dest->width.value = source->width;
 354              		.loc 1 1525 0
 355 0255 8B4608   		movl	8(%esi), %eax
GAS LISTING /cygdrive/c/Users/THESCI~1/AppData/Local/Temp/ccH1olGy.s 			page 35


 356 0258 89430C   		movl	%eax, 12(%ebx)
1526:./Source/CS229Image.c **** 
1527:./Source/CS229Image.c ****     /* Allocate data for our new image format */
1528:./Source/CS229Image.c ****     dest->data = (uint8_t*)malloc((size_t)(dest->height.value * dest->width.value * source->pixel_w
 357              		.loc 1 1528 0
 358 025b 0FAF4308 		imull	8(%ebx), %eax
 359 025f 0FAF4610 		imull	16(%esi), %eax
 360 0263 890424   		movl	%eax, (%esp)
 361 0266 E8000000 		call	_malloc
 361      00
1529:./Source/CS229Image.c **** 
1530:./Source/CS229Image.c ****     /* Since data is stored indentically in both image formats just copy it directly. */
1531:./Source/CS229Image.c ****     memcpy((void*)dest->data,(const void*)source->data.byte_ptr,(size_t)(dest->height.value * dest-
 362              		.loc 1 1531 0
 363 026b 8B530C   		movl	12(%ebx), %edx
 364 026e 0FAF5308 		imull	8(%ebx), %edx
 365 0272 0FAF5610 		imull	16(%esi), %edx
1528:./Source/CS229Image.c ****     dest->data = (uint8_t*)malloc((size_t)(dest->height.value * dest->width.value * source->pixel_w
 366              		.loc 1 1528 0
 367 0276 894310   		movl	%eax, 16(%ebx)
 368              		.loc 1 1531 0
 369 0279 8B4E14   		movl	20(%esi), %ecx
 370 027c 89542408 		movl	%edx, 8(%esp)
 371 0280 890424   		movl	%eax, (%esp)
 372 0283 894C2404 		movl	%ecx, 4(%esp)
 373 0287 E8000000 		call	_memcpy
 373      00
1532:./Source/CS229Image.c **** 
1533:./Source/CS229Image.c ****     /* We successfully converted the image */
1534:./Source/CS229Image.c ****     return SUCCESS;
1535:./Source/CS229Image.c **** }
 374              		.loc 1 1535 0
 375 028c 83C410   		addl	$16, %esp
1531:./Source/CS229Image.c ****     memcpy((void*)dest->data,(const void*)source->data.byte_ptr,(size_t)(dest->height.value * dest-
 376              		.loc 1 1531 0
 377 028f 31C0     		xorl	%eax, %eax
 378              		.loc 1 1535 0
 379 0291 5B       		popl	%ebx
 380              	LVL59:
 381 0292 5E       		popl	%esi
 382              	LVL60:
 383 0293 5D       		popl	%ebp
 384 0294 C3       		ret
 385              	LVL61:
 386              		.p2align 4,,7
 387              	L36:
 388 0295 83C410   		addl	$16, %esp
1500:./Source/CS229Image.c ****     if(!source || !dest)
 389              		.loc 1 1500 0
 390 0298 B80C0000 		movl	$12, %eax
 390      00
 391              		.loc 1 1535 0
 392 029d 5B       		popl	%ebx
 393              	LVL62:
 394 029e 5E       		popl	%esi
 395              	LVL63:
 396 029f 5D       		popl	%ebp
GAS LISTING /cygdrive/c/Users/THESCI~1/AppData/Local/Temp/ccH1olGy.s 			page 36


 397 02a0 C3       		ret
 398              	LVL64:
 399              		.p2align 4,,7
 400              	L37:
1512:./Source/CS229Image.c ****         dest->first_channel.red_channel_size = EIGHT_BIT_CHANNEL;
 401              		.loc 1 1512 0
 402 02a1 C6430202 		movb	$2, 2(%ebx)
1513:./Source/CS229Image.c ****         dest->green_channel_size = EIGHT_BIT_CHANNEL;
 403              		.loc 1 1513 0
 404 02a5 C6430302 		movb	$2, 3(%ebx)
1514:./Source/CS229Image.c ****         dest->blue_channel_size = EIGHT_BIT_CHANNEL;
 405              		.loc 1 1514 0
 406 02a9 C6430402 		movb	$2, 4(%ebx)
 407 02ad EBA0     		jmp	L34
 408              	LFE20:
 409 02af 90       		.p2align 4,,15
 410              	.globl _convert_cs229_to_ppm
 412              	_convert_cs229_to_ppm:
 413              	LFB19:
1443:./Source/CS229Image.c **** {
 414              		.loc 1 1443 0
 415              	LVL65:
 416 02b0 55       		pushl	%ebp
 417              	LCFI19:
 418 02b1 89E5     		movl	%esp, %ebp
 419              	LCFI20:
 420 02b3 83EC18   		subl	$24, %esp
 421              	LCFI21:
 422 02b6 895DF8   		movl	%ebx, -8(%ebp)
 423              	LCFI22:
 424 02b9 8B5D08   		movl	8(%ebp), %ebx
 425 02bc 8975FC   		movl	%esi, -4(%ebp)
 426              	LCFI23:
1443:./Source/CS229Image.c **** {
 427              		.loc 1 1443 0
 428 02bf 8B750C   		movl	12(%ebp), %esi
1445:./Source/CS229Image.c ****     if(!source || !dest)
 429              		.loc 1 1445 0
 430 02c2 85DB     		testl	%ebx, %ebx
 431 02c4 744B     		je	L47
 432              	LVL66:
 433 02c6 85F6     		testl	%esi, %esi
 434 02c8 7447     		je	L47
1449:./Source/CS229Image.c ****     if(source->color_mode != MODE_COLOR)
 435              		.loc 1 1449 0
 436 02ca 807B01FF 		cmpb	$-1, 1(%ebx)
 437 02ce B8040000 		movl	$4, %eax
 437      00
 438 02d3 740B     		je	L48
 439              	L41:
1493:./Source/CS229Image.c **** }
 440              		.loc 1 1493 0
 441 02d5 8B5DF8   		movl	-8(%ebp), %ebx
 442              	LVL67:
 443 02d8 8B75FC   		movl	-4(%ebp), %esi
 444              	LVL68:
 445 02db 89EC     		movl	%ebp, %esp
GAS LISTING /cygdrive/c/Users/THESCI~1/AppData/Local/Temp/ccH1olGy.s 			page 37


 446 02dd 5D       		popl	%ebp
 447 02de C3       		ret
 448              	LVL69:
 449 02df 90       		.p2align 4,,7
 450              	L48:
1453:./Source/CS229Image.c ****     if(source->first_channel.red_channel_size == FOUR_BIT_CHANNEL)
 451              		.loc 1 1453 0
 452 02e0 0FB64302 		movzbl	2(%ebx), %eax
 453 02e4 3C01     		cmpb	$1, %al
 454 02e6 741A     		je	L43
1457:./Source/CS229Image.c ****     if(source->green_channel_size == FOUR_BIT_CHANNEL)
 455              		.loc 1 1457 0
 456 02e8 0FB65303 		movzbl	3(%ebx), %edx
 457 02ec 80FA01   		cmpb	$1, %dl
 458 02ef 7411     		je	L43
1461:./Source/CS229Image.c ****     if(source->blue_channel_size == FOUR_BIT_CHANNEL)
 459              		.loc 1 1461 0
 460 02f1 0FB64B04 		movzbl	4(%ebx), %ecx
 461 02f5 80F901   		cmpb	$1, %cl
 462 02f8 7408     		je	L43
1465:./Source/CS229Image.c ****     if(source->first_channel.red_channel_size != source->green_channel_size)
 463              		.loc 1 1465 0
 464 02fa 38D0     		cmpb	%dl, %al
 465 02fc 7504     		jne	L43
1469:./Source/CS229Image.c ****     if(source->blue_channel_size != source->green_channel_size)
 466              		.loc 1 1469 0
 467 02fe 38C8     		cmpb	%cl, %al
 468              		.p2align 4,,3
 469 0300 741E     		je	L49
 470              		.p2align 4,,7
 471              	L43:
1493:./Source/CS229Image.c **** }
 472              		.loc 1 1493 0
 473 0302 8B5DF8   		movl	-8(%ebp), %ebx
 474              	LVL70:
1492:./Source/CS229Image.c ****     return SUCCESS;
 475              		.loc 1 1492 0
 476 0305 B80A0000 		movl	$10, %eax
 476      00
1493:./Source/CS229Image.c **** }
 477              		.loc 1 1493 0
 478 030a 8B75FC   		movl	-4(%ebp), %esi
 479              	LVL71:
 480 030d 89EC     		movl	%ebp, %esp
 481 030f 5D       		popl	%ebp
 482 0310 C3       		ret
 483              	LVL72:
 484              		.p2align 4,,7
 485              	L47:
 486 0311 8B5DF8   		movl	-8(%ebp), %ebx
 487              	LVL73:
1445:./Source/CS229Image.c ****     if(!source || !dest)
 488              		.loc 1 1445 0
 489 0314 B80C0000 		movl	$12, %eax
 489      00
1493:./Source/CS229Image.c **** }
 490              		.loc 1 1493 0
GAS LISTING /cygdrive/c/Users/THESCI~1/AppData/Local/Temp/ccH1olGy.s 			page 38


 491 0319 8B75FC   		movl	-4(%ebp), %esi
 492              	LVL74:
 493 031c 89EC     		movl	%ebp, %esp
 494 031e 5D       		popl	%ebp
 495 031f C3       		ret
 496              	LVL75:
 497              		.p2align 4,,7
 498              	L49:
1473:./Source/CS229Image.c ****     dest->magic_number = PPM_MAGIC_NUMBER;
 499              		.loc 1 1473 0
 500 0320 66C70636 		movw	$20534, (%esi)
 500      50
1476:./Source/CS229Image.c ****     dest->pixel_width = source->blue_channel_size / 2 * 3;
 501              		.loc 1 1476 0
 502 0325 0FB64304 		movzbl	4(%ebx), %eax
1479:./Source/CS229Image.c ****     dest->max_color_value = dest->pixel_width == 3 ? 0xFF : 0xFFFF;
 503              		.loc 1 1479 0
 504 0329 BAFFFFFF 		movl	$-1, %edx
 504      FF
1476:./Source/CS229Image.c ****     dest->pixel_width = source->blue_channel_size / 2 * 3;
 505              		.loc 1 1476 0
 506 032e D0E8     		shrb	%al
 507 0330 0FB6C0   		movzbl	%al, %eax
 508 0333 8D0440   		leal	(%eax,%eax,2), %eax
1479:./Source/CS229Image.c ****     dest->max_color_value = dest->pixel_width == 3 ? 0xFF : 0xFFFF;
 509              		.loc 1 1479 0
 510 0336 83F803   		cmpl	$3, %eax
1476:./Source/CS229Image.c ****     dest->pixel_width = source->blue_channel_size / 2 * 3;
 511              		.loc 1 1476 0
 512 0339 894610   		movl	%eax, 16(%esi)
1479:./Source/CS229Image.c ****     dest->max_color_value = dest->pixel_width == 3 ? 0xFF : 0xFFFF;
 513              		.loc 1 1479 0
 514 033c B8FF0000 		movl	$255, %eax
 514      00
 515 0341 0F44D0   		cmove	%eax, %edx
 516 0344 6689560C 		movw	%dx, 12(%esi)
1482:./Source/CS229Image.c ****     dest->height = source->height.value;
 517              		.loc 1 1482 0
 518 0348 8B4308   		movl	8(%ebx), %eax
 519 034b 894604   		movl	%eax, 4(%esi)
1483:./Source/CS229Image.c ****     dest->width = source->width.value;
 520              		.loc 1 1483 0
 521 034e 8B430C   		movl	12(%ebx), %eax
 522 0351 894608   		movl	%eax, 8(%esi)
1486:./Source/CS229Image.c ****     dest->data.byte_ptr = (uint8_t*)malloc((size_t)(dest->height * dest->width * dest->pixel_width)
 523              		.loc 1 1486 0
 524 0354 0FAF4604 		imull	4(%esi), %eax
 525 0358 0FAF4610 		imull	16(%esi), %eax
 526 035c 890424   		movl	%eax, (%esp)
 527 035f E8000000 		call	_malloc
 527      00
1489:./Source/CS229Image.c ****     memcpy((void*)dest->data.byte_ptr,(const void*)source->data,(size_t)(dest->height * dest->width
 528              		.loc 1 1489 0
 529 0364 8B5608   		movl	8(%esi), %edx
 530 0367 0FAF5604 		imull	4(%esi), %edx
 531 036b 0FAF5610 		imull	16(%esi), %edx
1486:./Source/CS229Image.c ****     dest->data.byte_ptr = (uint8_t*)malloc((size_t)(dest->height * dest->width * dest->pixel_width)
GAS LISTING /cygdrive/c/Users/THESCI~1/AppData/Local/Temp/ccH1olGy.s 			page 39


 532              		.loc 1 1486 0
 533 036f 894614   		movl	%eax, 20(%esi)
1489:./Source/CS229Image.c ****     memcpy((void*)dest->data.byte_ptr,(const void*)source->data,(size_t)(dest->height * dest->width
 534              		.loc 1 1489 0
 535 0372 8B4B10   		movl	16(%ebx), %ecx
 536 0375 89542408 		movl	%edx, 8(%esp)
 537 0379 890424   		movl	%eax, (%esp)
 538 037c 894C2404 		movl	%ecx, 4(%esp)
 539 0380 E8000000 		call	_memcpy
 539      00
 540 0385 31C0     		xorl	%eax, %eax
 541 0387 E949FFFF 		jmp	L41
 541      FF
 542              	LFE19:
 543              		.section .rdata,"dr"
 544              	LC0:
 545 0000 256300   		.ascii "%c\0"
 546              	LC1:
 547 0003 25632563 		.ascii "%c%c%c%c\0"
 547      25632563 
 547      00
 548              		.text
 549 038c 8D742600 		.p2align 4,,15
 550              	.globl _read_cs229picture
 552              	_read_cs229picture:
 553              	LFB6:
  27:./Source/CS229Image.c **** {
 554              		.loc 1 27 0
 555              	LVL76:
 556 0390 55       		pushl	%ebp
 557              	LCFI24:
  34:./Source/CS229Image.c ****     if(!dest)
 558              		.loc 1 34 0
 559 0391 BA0C0000 		movl	$12, %edx
 559      00
  27:./Source/CS229Image.c **** {
 560              		.loc 1 27 0
 561 0396 89E5     		movl	%esp, %ebp
 562              	LCFI25:
 563 0398 83EC28   		subl	$40, %esp
 564              	LCFI26:
 565 039b 8975F8   		movl	%esi, -8(%ebp)
 566              	LCFI27:
 567 039e 8B7508   		movl	8(%ebp), %esi
 568 03a1 897DFC   		movl	%edi, -4(%ebp)
 569              	LCFI28:
 570 03a4 8B7D0C   		movl	12(%ebp), %edi
 571 03a7 895DF4   		movl	%ebx, -12(%ebp)
 572              	LCFI29:
  34:./Source/CS229Image.c ****     if(!dest)
 573              		.loc 1 34 0
 574 03aa 85F6     		testl	%esi, %esi
 575 03ac 7427     		je	L52
 576              	LVL77:
  38:./Source/CS229Image.c ****     if(!source)
 577              		.loc 1 38 0
 578 03ae 85FF     		testl	%edi, %edi
GAS LISTING /cygdrive/c/Users/THESCI~1/AppData/Local/Temp/ccH1olGy.s 			page 40


 579 03b0 BA0D0000 		movl	$13, %edx
 579      00
 580 03b5 741E     		je	L52
  42:./Source/CS229Image.c ****     if(fscanf(source,"%c",&dest->magic_number) != 1)
 581              		.loc 1 42 0
 582 03b7 89742408 		movl	%esi, 8(%esp)
 583 03bb C7442404 		movl	$LC0, 4(%esp)
 583      00000000 
 584 03c3 893C24   		movl	%edi, (%esp)
 585 03c6 E8000000 		call	_fscanf
 585      00
 586 03cb 83E801   		subl	$1, %eax
 587 03ce 7414     		je	L64
 588              	LVL78:
 589              	L54:
  95:./Source/CS229Image.c ****     if(pdata != final)
 590              		.loc 1 95 0
 591 03d0 BA080000 		movl	$8, %edx
 591      00
 592              	LVL79:
 593              	L52:
 100:./Source/CS229Image.c **** }
 594              		.loc 1 100 0
 595 03d5 8B5DF4   		movl	-12(%ebp), %ebx
 596              	LVL80:
 597 03d8 89D0     		movl	%edx, %eax
 598              	LVL81:
 599 03da 8B75F8   		movl	-8(%ebp), %esi
 600              	LVL82:
 601 03dd 8B7DFC   		movl	-4(%ebp), %edi
 602              	LVL83:
 603 03e0 89EC     		movl	%ebp, %esp
 604 03e2 5D       		popl	%ebp
 605 03e3 C3       		ret
 606              	LVL84:
 607              		.p2align 4,,7
 608              	L64:
  46:./Source/CS229Image.c ****     if(dest->magic_number != CS229_MAGIC_NUMBER)
 609              		.loc 1 46 0
 610 03e4 803E42   		cmpb	$66, (%esi)
 611 03e7 BA0B0000 		movl	$11, %edx
 611      00
 612 03ec 75E7     		jne	L52
  50:./Source/CS229Image.c ****     if(fscanf(source,"%c",&dest->first_channel.red_channel_size) != 1)
 613              		.loc 1 50 0
 614 03ee 8D4602   		leal	2(%esi), %eax
 615 03f1 89442408 		movl	%eax, 8(%esp)
 616 03f5 C7442404 		movl	$LC0, 4(%esp)
 616      00000000 
 617 03fd 893C24   		movl	%edi, (%esp)
 618 0400 E8000000 		call	_fscanf
 618      00
 619 0405 83E801   		subl	$1, %eax
 620 0408 75C6     		jne	L54
  54:./Source/CS229Image.c ****     if(fscanf(source,"%c",&dest->green_channel_size) != 1)
 621              		.loc 1 54 0
 622 040a 8D4603   		leal	3(%esi), %eax
GAS LISTING /cygdrive/c/Users/THESCI~1/AppData/Local/Temp/ccH1olGy.s 			page 41


 623 040d 89442408 		movl	%eax, 8(%esp)
 624 0411 C7442404 		movl	$LC0, 4(%esp)
 624      00000000 
 625 0419 893C24   		movl	%edi, (%esp)
 626 041c E8000000 		call	_fscanf
 626      00
 627 0421 83E801   		subl	$1, %eax
 628 0424 75AA     		jne	L54
  58:./Source/CS229Image.c ****     if(fscanf(source,"%c",&dest->blue_channel_size) != 1)
 629              		.loc 1 58 0
 630 0426 8D4604   		leal	4(%esi), %eax
 631 0429 89442408 		movl	%eax, 8(%esp)
 632 042d C7442404 		movl	$LC0, 4(%esp)
 632      00000000 
 633 0435 893C24   		movl	%edi, (%esp)
 634 0438 E8000000 		call	_fscanf
 634      00
 635 043d 83E801   		subl	$1, %eax
 636 0440 758E     		jne	L54
  62:./Source/CS229Image.c ****     if(fscanf(source,"%c",&dest->color_mode) != 1)
 637              		.loc 1 62 0
 638 0442 8D4601   		leal	1(%esi), %eax
 639 0445 89442408 		movl	%eax, 8(%esp)
 640 0449 C7442404 		movl	$LC0, 4(%esp)
 640      00000000 
 641 0451 893C24   		movl	%edi, (%esp)
 642 0454 E8000000 		call	_fscanf
 642      00
 643 0459 83E801   		subl	$1, %eax
 644 045c 0F856EFF 		jne	L54
 644      FFFF
  66:./Source/CS229Image.c ****     if(dest->color_mode != MODE_COLOR && dest->color_mode != MODE_BLACKWHITE)
 645              		.loc 1 66 0
 646 0462 0FB64601 		movzbl	1(%esi), %eax
 647 0466 BA040000 		movl	$4, %edx
 647      00
 648 046b 83E801   		subl	$1, %eax
 649 046e 3CFD     		cmpb	$-3, %al
 650 0470 0F865FFF 		jbe	L52
 650      FFFF
  70:./Source/CS229Image.c ****     if(fscanf(source,"%c%c%c%c",&dest->width.bytes.byte1,&dest->width.bytes.byte2,&dest->width.byte
 651              		.loc 1 70 0
 652 0476 8D460F   		leal	15(%esi), %eax
 653 0479 89442414 		movl	%eax, 20(%esp)
 654 047d 8D460E   		leal	14(%esi), %eax
 655 0480 89442410 		movl	%eax, 16(%esp)
 656 0484 8D460D   		leal	13(%esi), %eax
 657 0487 8944240C 		movl	%eax, 12(%esp)
 658 048b 8D460C   		leal	12(%esi), %eax
 659 048e 89442408 		movl	%eax, 8(%esp)
 660 0492 C7442404 		movl	$LC1, 4(%esp)
 660      03000000 
 661 049a 893C24   		movl	%edi, (%esp)
 662 049d E8000000 		call	_fscanf
 662      00
 663 04a2 83F804   		cmpl	$4, %eax
 664 04a5 0F8525FF 		jne	L54
GAS LISTING /cygdrive/c/Users/THESCI~1/AppData/Local/Temp/ccH1olGy.s 			page 42


 664      FFFF
  74:./Source/CS229Image.c ****     if(fscanf(source,"%c%c%c%c",&dest->height.bytes.byte1,&dest->height.bytes.byte2,&dest->height.b
 665              		.loc 1 74 0
 666 04ab 8D460B   		leal	11(%esi), %eax
 667 04ae 89442414 		movl	%eax, 20(%esp)
 668 04b2 8D460A   		leal	10(%esi), %eax
 669 04b5 89442410 		movl	%eax, 16(%esp)
 670 04b9 8D4609   		leal	9(%esi), %eax
 671 04bc 8944240C 		movl	%eax, 12(%esp)
 672 04c0 8D4608   		leal	8(%esi), %eax
 673 04c3 89442408 		movl	%eax, 8(%esp)
 674 04c7 C7442404 		movl	$LC1, 4(%esp)
 674      03000000 
 675 04cf 893C24   		movl	%edi, (%esp)
 676 04d2 E8000000 		call	_fscanf
 676      00
 677 04d7 83F804   		cmpl	$4, %eax
 678 04da 0F85F0FE 		jne	L54
 678      FFFF
  78:./Source/CS229Image.c ****     mul = determine_multiplier(dest);
 679              		.loc 1 78 0
 680 04e0 893424   		movl	%esi, (%esp)
 681 04e3 E818FBFF 		call	_determine_multiplier
 681      FF
  81:./Source/CS229Image.c ****     if(mul == 0x0)
 682              		.loc 1 81 0
 683 04e8 BA0A0000 		movl	$10, %edx
 683      00
 684 04ed 85C0     		testl	%eax, %eax
 685              	LVL85:
  78:./Source/CS229Image.c ****     mul = determine_multiplier(dest);
 686              		.loc 1 78 0
 687 04ef 89C3     		movl	%eax, %ebx
 688              	LVL86:
  81:./Source/CS229Image.c ****     if(mul == 0x0)
 689              		.loc 1 81 0
 690 04f1 0F84DEFE 		je	L52
 690      FFFF
  85:./Source/CS229Image.c ****     dest->data = (uint8_t*)malloc((size_t)(dest->height.value * dest->width.value * mul / 2 + (mul 
 691              		.loc 1 85 0
 692 04f7 83E001   		andl	$1, %eax
 693 04fa 8945F0   		movl	%eax, -16(%ebp)
 694 04fd 89D8     		movl	%ebx, %eax
 695 04ff 0FAF4608 		imull	8(%esi), %eax
 696 0503 0FAF460C 		imull	12(%esi), %eax
 697 0507 D1E8     		shrl	%eax
 698 0509 0345F0   		addl	-16(%ebp), %eax
 699 050c 890424   		movl	%eax, (%esp)
 700 050f E8000000 		call	_malloc
 700      00
  89:./Source/CS229Image.c ****     final = pdata + dest->height.value * dest->width.value * mul / 2 + (mul % 2 ? 1 : 0);
 701              		.loc 1 89 0
 702 0514 8B4DF0   		movl	-16(%ebp), %ecx
 703 0517 0FAF5E08 		imull	8(%esi), %ebx
 704 051b 0FAF5E0C 		imull	12(%esi), %ebx
 705 051f D1EB     		shrl	%ebx
 706 0521 8D140B   		leal	(%ebx,%ecx), %edx
GAS LISTING /cygdrive/c/Users/THESCI~1/AppData/Local/Temp/ccH1olGy.s 			page 43


 707 0524 8D1C10   		leal	(%eax,%edx), %ebx
 708              	LVL87:
  92:./Source/CS229Image.c ****     while(pdata < final && fscanf(source,"%c",pdata++) != EOF);
 709              		.loc 1 92 0
 710 0527 39D8     		cmpl	%ebx, %eax
  85:./Source/CS229Image.c ****     dest->data = (uint8_t*)malloc((size_t)(dest->height.value * dest->width.value * mul / 2 + (mul 
 711              		.loc 1 85 0
 712 0529 894610   		movl	%eax, 16(%esi)
  92:./Source/CS229Image.c ****     while(pdata < final && fscanf(source,"%c",pdata++) != EOF);
 713              		.loc 1 92 0
 714 052c 7208     		jb	L63
 715 052e EB24     		jmp	L58
 716              	LVL88:
 717              		.p2align 4,,7
 718              	L61:
 719 0530 39F3     		cmpl	%esi, %ebx
 720 0532 761E     		jbe	L60
 721 0534 89F0     		movl	%esi, %eax
 722              	LVL89:
 723              	L63:
 724 0536 8D7001   		leal	1(%eax), %esi
 725              	LVL90:
 726 0539 89442408 		movl	%eax, 8(%esp)
 727 053d C7442404 		movl	$LC0, 4(%esp)
 727      00000000 
 728 0545 893C24   		movl	%edi, (%esp)
 729 0548 E8000000 		call	_fscanf
 729      00
 730 054d 83C001   		addl	$1, %eax
 731 0550 75DE     		jne	L61
 732              	L60:
 733 0552 89F0     		movl	%esi, %eax
 734              	LVL91:
 735              	L58:
  95:./Source/CS229Image.c ****     if(pdata != final)
 736              		.loc 1 95 0
 737 0554 31D2     		xorl	%edx, %edx
 738 0556 39D8     		cmpl	%ebx, %eax
 739 0558 0F8572FE 		jne	L54
 739      FFFF
 740 055e 6690     		.p2align 4,,3
 741 0560 E970FEFF 		jmp	L52
 741      FF
 742              	LFE6:
 743              		.section .rdata,"dr"
 744              	LC2:
 745 000c 25632563 		.ascii "%c%c%c%c%c%c%c%c%c%c%c%c%c\0"
 745      25632563 
 745      25632563 
 745      25632563 
 745      25632563 
 746              		.text
 747 0565 8D742600 		.p2align 4,,15
 747      8DBC2700 
 747      000000
 748              	.globl _write_cs229_image
 750              	_write_cs229_image:
GAS LISTING /cygdrive/c/Users/THESCI~1/AppData/Local/Temp/ccH1olGy.s 			page 44


 751              	LFB7:
 105:./Source/CS229Image.c **** {
 752              		.loc 1 105 0
 753              	LVL92:
 754 0570 55       		pushl	%ebp
 755              	LCFI30:
 112:./Source/CS229Image.c ****     if(!dest)
 756              		.loc 1 112 0
 757 0571 B80C0000 		movl	$12, %eax
 757      00
 105:./Source/CS229Image.c **** {
 758              		.loc 1 105 0
 759 0576 89E5     		movl	%esp, %ebp
 760              	LCFI31:
 761 0578 57       		pushl	%edi
 762              	LCFI32:
 763 0579 56       		pushl	%esi
 764              	LCFI33:
 765 057a 53       		pushl	%ebx
 766              	LCFI34:
 767 057b 83EC5C   		subl	$92, %esp
 768              	LCFI35:
 112:./Source/CS229Image.c ****     if(!dest)
 769              		.loc 1 112 0
 770 057e 8B550C   		movl	12(%ebp), %edx
 105:./Source/CS229Image.c **** {
 771              		.loc 1 105 0
 772 0581 8B7D08   		movl	8(%ebp), %edi
 112:./Source/CS229Image.c ****     if(!dest)
 773              		.loc 1 112 0
 774 0584 85D2     		testl	%edx, %edx
 775 0586 0F849100 		je	L67
 775      0000
 776              	LVL93:
 120:./Source/CS229Image.c ****     fprintf(dest,"%c%c%c%c%c%c%c%c%c%c%c%c%c",pic->magic_number,pic->first_channel.red_channel_size
 777              		.loc 1 120 0
 778 058c 0FB6470B 		movzbl	11(%edi), %eax
 779 0590 89442438 		movl	%eax, 56(%esp)
 780 0594 0FB6470A 		movzbl	10(%edi), %eax
 781 0598 89442434 		movl	%eax, 52(%esp)
 782 059c 0FB64709 		movzbl	9(%edi), %eax
 783 05a0 89442430 		movl	%eax, 48(%esp)
 784 05a4 0FB64708 		movzbl	8(%edi), %eax
 785 05a8 8944242C 		movl	%eax, 44(%esp)
 786 05ac 0FB6470F 		movzbl	15(%edi), %eax
 787 05b0 89442428 		movl	%eax, 40(%esp)
 788 05b4 0FB6470E 		movzbl	14(%edi), %eax
 789 05b8 89442424 		movl	%eax, 36(%esp)
 790 05bc 0FB6470D 		movzbl	13(%edi), %eax
 791 05c0 89442420 		movl	%eax, 32(%esp)
 792 05c4 0FB6470C 		movzbl	12(%edi), %eax
 793 05c8 8944241C 		movl	%eax, 28(%esp)
 794 05cc 0FB64701 		movzbl	1(%edi), %eax
 795 05d0 89442418 		movl	%eax, 24(%esp)
 796 05d4 0FB64704 		movzbl	4(%edi), %eax
 797 05d8 89442414 		movl	%eax, 20(%esp)
 798 05dc 0FB64703 		movzbl	3(%edi), %eax
GAS LISTING /cygdrive/c/Users/THESCI~1/AppData/Local/Temp/ccH1olGy.s 			page 45


 799 05e0 89442410 		movl	%eax, 16(%esp)
 800 05e4 0FB64702 		movzbl	2(%edi), %eax
 801 05e8 8944240C 		movl	%eax, 12(%esp)
 802 05ec 0FB607   		movzbl	(%edi), %eax
 803 05ef C7442404 		movl	$LC2, 4(%esp)
 803      0C000000 
 804 05f7 89442408 		movl	%eax, 8(%esp)
 805 05fb 8B450C   		movl	12(%ebp), %eax
 806 05fe 890424   		movl	%eax, (%esp)
 807 0601 E8000000 		call	_fprintf
 807      00
 808              	LBB6:
 809              	LBB9:
 158:./Source/CS229Image.c ****     if(dest->color_mode == MODE_BLACKWHITE)
 810              		.loc 1 158 0
 811 0606 0FB64701 		movzbl	1(%edi), %eax
 812              	LBE9:
 813              	LBE6:
 126:./Source/CS229Image.c ****     len = pic->height.value * pic->width.value;
 814              		.loc 1 126 0
 815 060a 8B7708   		movl	8(%edi), %esi
 816 060d 8B5F0C   		movl	12(%edi), %ebx
 817              	LBB12:
 818              	LBB8:
 158:./Source/CS229Image.c ****     if(dest->color_mode == MODE_BLACKWHITE)
 819              		.loc 1 158 0
 820 0610 84C0     		testb	%al, %al
 821 0612 7411     		je	L87
 177:./Source/CS229Image.c ****     else if(dest->color_mode == MODE_COLOR)
 822              		.loc 1 177 0
 823 0614 0401     		addb	$1, %al
 824 0616 745F     		je	L88
 825              	LVL94:
 826              	L69:
 827              	LBE8:
 828              	LBE12:
 139:./Source/CS229Image.c ****     for(i = 0;i < len;i++)
 829              		.loc 1 139 0
 830 0618 B80A0000 		movl	$10, %eax
 830      00
 831              	L67:
 144:./Source/CS229Image.c **** }
 832              		.loc 1 144 0
 833 061d 83C45C   		addl	$92, %esp
 834 0620 5B       		popl	%ebx
 835 0621 5E       		popl	%esi
 836 0622 5F       		popl	%edi
 837              	LVL95:
 838 0623 5D       		popl	%ebp
 839 0624 C3       		ret
 840              	LVL96:
 841              		.p2align 4,,7
 842              	L87:
 843              	LBB13:
 844              	LBB10:
 161:./Source/CS229Image.c ****         switch(dest->first_channel.blackwhite_channel_size)
 845              		.loc 1 161 0
GAS LISTING /cygdrive/c/Users/THESCI~1/AppData/Local/Temp/ccH1olGy.s 			page 46


 846 0625 0FB65702 		movzbl	2(%edi), %edx
 847 0629 80FA01   		cmpb	$1, %dl
 848 062c 72EA     		jb	L69
 849 062e 80FA02   		cmpb	$2, %dl
 850              	LBE10:
 851              	LBE13:
 139:./Source/CS229Image.c ****     for(i = 0;i < len;i++)
 852              		.loc 1 139 0
 853 0631 B8010000 		movl	$1, %eax
 853      00
 854              	LBB14:
 855              	LBB7:
 161:./Source/CS229Image.c ****         switch(dest->first_channel.blackwhite_channel_size)
 856              		.loc 1 161 0
 857 0636 7608     		jbe	L72
 858 0638 80FA04   		cmpb	$4, %dl
 859 063b B002     		movb	$2, %al
 860 063d 75D9     		jne	L69
 861              	LVL97:
 862 063f 90       		.p2align 4,,7
 863              	L72:
 864              	LBE7:
 865              	LBE14:
 126:./Source/CS229Image.c ****     len = pic->height.value * pic->width.value;
 866              		.loc 1 126 0
 867 0640 0FAFF3   		imull	%ebx, %esi
 868              	LVL98:
 136:./Source/CS229Image.c ****     len *= mul / 2 + (mul % 2 ? 1 : 0);
 869              		.loc 1 136 0
 870 0643 0FAFF0   		imull	%eax, %esi
 139:./Source/CS229Image.c ****     for(i = 0;i < len;i++)
 871              		.loc 1 139 0
 872 0646 85F6     		testl	%esi, %esi
 873 0648 7423     		je	L83
 874 064a 31DB     		xorl	%ebx, %ebx
 875              	LVL99:
 876 064c 8D742600 		.p2align 4,,7
 877              	L84:
 140:./Source/CS229Image.c ****         fputc(pic->data[i],dest);
 878              		.loc 1 140 0
 879 0650 8B450C   		movl	12(%ebp), %eax
 880 0653 89442404 		movl	%eax, 4(%esp)
 881 0657 8B4710   		movl	16(%edi), %eax
 882 065a 0FB60418 		movzbl	(%eax,%ebx), %eax
 139:./Source/CS229Image.c ****     for(i = 0;i < len;i++)
 883              		.loc 1 139 0
 884 065e 83C301   		addl	$1, %ebx
 140:./Source/CS229Image.c ****         fputc(pic->data[i],dest);
 885              		.loc 1 140 0
 886 0661 890424   		movl	%eax, (%esp)
 887 0664 E8000000 		call	_fputc
 887      00
 888              	LVL100:
 139:./Source/CS229Image.c ****     for(i = 0;i < len;i++)
 889              		.loc 1 139 0
 890 0669 39DE     		cmpl	%ebx, %esi
 891 066b 77E3     		ja	L84
GAS LISTING /cygdrive/c/Users/THESCI~1/AppData/Local/Temp/ccH1olGy.s 			page 47


 892              	LVL101:
 893              	L83:
 144:./Source/CS229Image.c **** }
 894              		.loc 1 144 0
 895 066d 83C45C   		addl	$92, %esp
 139:./Source/CS229Image.c ****     for(i = 0;i < len;i++)
 896              		.loc 1 139 0
 897 0670 31C0     		xorl	%eax, %eax
 144:./Source/CS229Image.c **** }
 898              		.loc 1 144 0
 899 0672 5B       		popl	%ebx
 900              	LVL102:
 901 0673 5E       		popl	%esi
 902              	LVL103:
 903 0674 5F       		popl	%edi
 904              	LVL104:
 905 0675 5D       		popl	%ebp
 906 0676 C3       		ret
 907              	LVL105:
 908              		.p2align 4,,7
 909              	L88:
 910              	LBB15:
 911              	LBB11:
 180:./Source/CS229Image.c ****         switch(dest->first_channel.red_channel_size)
 912              		.loc 1 180 0
 913 0677 0FB64702 		movzbl	2(%edi), %eax
 914 067b 3C02     		cmpb	$2, %al
 915 067d 0F84DA00 		je	L74
 915      0000
 916 0683 3C04     		cmpb	$4, %al
 917 0685 0F849200 		je	L75
 917      0000
 918 068b 2C01     		subb	$1, %al
 919 068d 8D7600   		.p2align 4,,3
 920 0690 7586     		jne	L69
 921 0692 C745DC03 		movl	$3, -36(%ebp)
 921      000000
 922              	LVL106:
 923 0699 BA050000 		movl	$5, %edx
 923      00
 924              	LVL107:
 925 069e B9090000 		movl	$9, %ecx
 925      00
 926              	LVL108:
 927 06a3 C745D804 		movl	$4, -40(%ebp)
 927      000000
 928              	LVL109:
 929 06aa C745E006 		movl	$6, -32(%ebp)
 929      000000
 930              	LVL110:
 931 06b1 C745E404 		movl	$4, -28(%ebp)
 931      000000
 932              	LVL111:
 933 06b8 C745E807 		movl	$7, -24(%ebp)
 933      000000
 934              	LVL112:
 935 06bf C745EC06 		movl	$6, -20(%ebp)
GAS LISTING /cygdrive/c/Users/THESCI~1/AppData/Local/Temp/ccH1olGy.s 			page 48


 935      000000
 936              	LVL113:
 937 06c6 C745F007 		movl	$7, -16(%ebp)
 937      000000
 938              	LVL114:
 939              	L76:
 196:./Source/CS229Image.c ****         switch(dest->green_channel_size)
 940              		.loc 1 196 0
 941 06cd 0FB64703 		movzbl	3(%edi), %eax
 942 06d1 3C02     		cmpb	$2, %al
 943 06d3 741F     		je	L78
 944 06d5 3C04     		cmpb	$4, %al
 945 06d7 0F84C000 		je	L79
 945      0000
 946 06dd 2C01     		subb	$1, %al
 947 06df 0F8533FF 		jne	L69
 947      FFFF
 948 06e5 8B45DC   		movl	-36(%ebp), %eax
 949 06e8 8B55D8   		movl	-40(%ebp), %edx
 950 06eb 8945E4   		movl	%eax, -28(%ebp)
 951              	LVL115:
 952 06ee 8B45E0   		movl	-32(%ebp), %eax
 953 06f1 8945E8   		movl	%eax, -24(%ebp)
 954              	LVL116:
 955              	L78:
 212:./Source/CS229Image.c ****         switch(dest->blue_channel_size)
 956              		.loc 1 212 0
 957 06f4 0FB64704 		movzbl	4(%edi), %eax
 958 06f8 3C02     		cmpb	$2, %al
 959 06fa 7413     		je	L81
 960 06fc 3C04     		cmpb	$4, %al
 961 06fe 0F84AA00 		je	L82
 961      0000
 962 0704 2C01     		subb	$1, %al
 963 0706 8B55E4   		movl	-28(%ebp), %edx
 964 0709 0F8509FF 		jne	L69
 964      FFFF
 965              	LVL117:
 966              	L81:
 967 070f 89D0     		movl	%edx, %eax
 968 0711 83E001   		andl	$1, %eax
 969 0714 D1EA     		shrl	%edx
 970              	LVL118:
 971 0716 01D0     		addl	%edx, %eax
 972 0718 E923FFFF 		jmp	L72
 972      FF
 973              	LVL119:
 974              	L75:
 180:./Source/CS229Image.c ****         switch(dest->first_channel.red_channel_size)
 975              		.loc 1 180 0
 976 071d C745DC06 		movl	$6, -36(%ebp)
 976      000000
 977              	LVL120:
 978 0724 BA080000 		movl	$8, %edx
 978      00
 979              	LVL121:
 980 0729 B90C0000 		movl	$12, %ecx
GAS LISTING /cygdrive/c/Users/THESCI~1/AppData/Local/Temp/ccH1olGy.s 			page 49


 980      00
 981              	LVL122:
 982 072e C745D807 		movl	$7, -40(%ebp)
 982      000000
 983              	LVL123:
 984 0735 C745E009 		movl	$9, -32(%ebp)
 984      000000
 985              	LVL124:
 986 073c C745E407 		movl	$7, -28(%ebp)
 986      000000
 987              	LVL125:
 988 0743 C745E80A 		movl	$10, -24(%ebp)
 988      000000
 989              	LVL126:
 990 074a C745EC09 		movl	$9, -20(%ebp)
 990      000000
 991              	LVL127:
 992 0751 C745F00A 		movl	$10, -16(%ebp)
 992      000000
 993              	LVL128:
 994 0758 E970FFFF 		jmp	L76
 994      FF
 995              	LVL129:
 996              	L74:
 997 075d C745DC04 		movl	$4, -36(%ebp)
 997      000000
 998              	LVL130:
 999 0764 BA060000 		movl	$6, %edx
 999      00
 1000              	LVL131:
 1001 0769 B90A0000 		movl	$10, %ecx
 1001      00
 1002              	LVL132:
 1003 076e C745D805 		movl	$5, -40(%ebp)
 1003      000000
 1004              	LVL133:
 1005 0775 C745E007 		movl	$7, -32(%ebp)
 1005      000000
 1006              	LVL134:
 1007 077c C745E405 		movl	$5, -28(%ebp)
 1007      000000
 1008              	LVL135:
 1009 0783 C745E808 		movl	$8, -24(%ebp)
 1009      000000
 1010              	LVL136:
 1011 078a C745EC07 		movl	$7, -20(%ebp)
 1011      000000
 1012              	LVL137:
 1013 0791 C745F008 		movl	$8, -16(%ebp)
 1013      000000
 1014              	LVL138:
 1015 0798 E930FFFF 		jmp	L76
 1015      FF
 1016              	L79:
 196:./Source/CS229Image.c ****         switch(dest->green_channel_size)
 1017              		.loc 1 196 0
 1018 079d 8B45EC   		movl	-20(%ebp), %eax
GAS LISTING /cygdrive/c/Users/THESCI~1/AppData/Local/Temp/ccH1olGy.s 			page 50


 1019 07a0 8B55F0   		movl	-16(%ebp), %edx
 1020 07a3 894DE8   		movl	%ecx, -24(%ebp)
 1021 07a6 8945E4   		movl	%eax, -28(%ebp)
 1022              	LVL139:
 1023 07a9 E946FFFF 		jmp	L78
 1023      FF
 1024              	LVL140:
 1025              	L82:
 212:./Source/CS229Image.c ****         switch(dest->blue_channel_size)
 1026              		.loc 1 212 0
 1027 07ae 8B55E8   		movl	-24(%ebp), %edx
 1028 07b1 E959FFFF 		jmp	L81
 1028      FF
 1029              	LBE11:
 1030              	LBE15:
 1031              	LFE7:
 1032 07b6 8D76008D 		.p2align 4,,15
 1032      BC270000 
 1032      0000
 1033              	.globl _get_pixel
 1035              	_get_pixel:
 1036              	LFB11:
 273:./Source/CS229Image.c **** {
 1037              		.loc 1 273 0
 1038              	LVL141:
 1039 07c0 55       		pushl	%ebp
 1040              	LCFI36:
 1041 07c1 89E5     		movl	%esp, %ebp
 1042              	LCFI37:
 1043 07c3 83EC24   		subl	$36, %esp
 1044              	LCFI38:
 1045 07c6 8B4D08   		movl	8(%ebp), %ecx
 1046 07c9 895DF4   		movl	%ebx, -12(%ebp)
 1047              	LCFI39:
 1048 07cc 8975F8   		movl	%esi, -8(%ebp)
 1049              	LCFI40:
 1050 07cf 897DFC   		movl	%edi, -4(%ebp)
 1051              	LCFI41:
 282:./Source/CS229Image.c ****     if(!picture || !dest)
 1052              		.loc 1 282 0
 1053 07d2 85C9     		testl	%ecx, %ecx
 1054 07d4 746E     		je	L140
 1055              	LVL142:
 1056 07d6 8B5D10   		movl	16(%ebp), %ebx
 1057 07d9 85DB     		testl	%ebx, %ebx
 1058 07db 7467     		je	L140
 1059              	LVL143:
 286:./Source/CS229Image.c ****     if(picture->magic_number != CS229_MAGIC_NUMBER)
 1060              		.loc 1 286 0
 1061 07dd 803942   		cmpb	$66, (%ecx)
 1062 07e0 BA0B0000 		movl	$11, %edx
 1062      00
 1063 07e5 740F     		je	L144
 1064              	LVL144:
 1065              	L92:
 474:./Source/CS229Image.c **** }
 1066              		.loc 1 474 0
GAS LISTING /cygdrive/c/Users/THESCI~1/AppData/Local/Temp/ccH1olGy.s 			page 51


 1067 07e7 8B5DF4   		movl	-12(%ebp), %ebx
 1068              	LVL145:
 1069 07ea 89D0     		movl	%edx, %eax
 1070              	LVL146:
 1071 07ec 8B75F8   		movl	-8(%ebp), %esi
 1072              	LVL147:
 1073 07ef 8B7DFC   		movl	-4(%ebp), %edi
 1074 07f2 89EC     		movl	%ebp, %esp
 1075 07f4 5D       		popl	%ebp
 1076 07f5 C3       		ret
 1077              	LVL148:
 1078              		.p2align 4,,7
 1079              	L144:
 290:./Source/CS229Image.c ****     if(pixel_number < 0 || pixel_number > picture->width.value * picture->height.value)
 1080              		.loc 1 290 0
 1081 07f6 8B4108   		movl	8(%ecx), %eax
 1082 07f9 BA090000 		movl	$9, %edx
 1082      00
 1083 07fe 0FAF410C 		imull	12(%ecx), %eax
 1084 0802 3B450C   		cmpl	12(%ebp), %eax
 1085 0805 72E0     		jb	L92
 1086              	LVL149:
 294:./Source/CS229Image.c ****     if(picture->color_mode == MODE_COLOR)
 1087              		.loc 1 294 0
 1088 0807 0FB64101 		movzbl	1(%ecx), %eax
 1089 080b 3CFF     		cmpb	$-1, %al
 1090 080d 0F841D01 		je	L95
 1090      0000
 296:./Source/CS229Image.c ****     else if(picture->color_mode == MODE_BLACKWHITE)
 1091              		.loc 1 296 0
 1092 0813 84C0     		testb	%al, %al
 1093 0815 BA040000 		movl	$4, %edx
 1093      00
 1094 081a 75CB     		jne	L92
 1095              	LBB18:
 1096              	LBB20:
 161:./Source/CS229Image.c ****         switch(dest->first_channel.blackwhite_channel_size)
 1097              		.loc 1 161 0
 1098 081c 0FB65102 		movzbl	2(%ecx), %edx
 1099 0820 80FA02   		cmpb	$2, %dl
 1100 0823 0F84EA00 		je	L135
 1100      0000
 1101 0829 80FA04   		cmpb	$4, %dl
 1102 082c 7422     		je	L136
 1103 082e 80EA01   		subb	$1, %dl
 1104 0831 B8010000 		movl	$1, %eax
 1104      00
 1105              	LVL150:
 1106 0836 BB010000 		movl	$1, %ebx
 1106      00
 1107              	LVL151:
 1108 083b 7433     		je	L137
 1109              	LVL152:
 1110              	L97:
 1111              	LBE20:
 1112              	LBE18:
 466:./Source/CS229Image.c ****                 dest[2] = (uint32_t)*(uint16_t*)pixel;
GAS LISTING /cygdrive/c/Users/THESCI~1/AppData/Local/Temp/ccH1olGy.s 			page 52


 1113              		.loc 1 466 0
 1114 083d BA0A0000 		movl	$10, %edx
 1114      00
 1115 0842 EBA3     		jmp	L92
 1116              	LVL153:
 1117              		.p2align 4,,7
 1118              	L140:
 282:./Source/CS229Image.c ****     if(!picture || !dest)
 1119              		.loc 1 282 0
 1120 0844 BA0C0000 		movl	$12, %edx
 1120      00
 1121 0849 EB9C     		jmp	L92
 1122              	LVL154:
 1123 084b 908D7426 		.p2align 4,,7
 1123      00
 1124              	L136:
 319:./Source/CS229Image.c ****     pixel = (uint8_t*)((uint32_t)picture->data + offset);
 1125              		.loc 1 319 0
 1126 0850 8B5D0C   		movl	12(%ebp), %ebx
 1127              	LVL155:
 1128 0853 C1E302   		sall	$2, %ebx
 1129 0856 D1EB     		shrl	%ebx
 1130 0858 035910   		addl	16(%ecx), %ebx
 1131              	LVL156:
 1132              	L116:
 343:./Source/CS229Image.c ****                 dest[0] = (uint32_t)*(uint16_t*)pixel;
 1133              		.loc 1 343 0
 1134 085b 8B5510   		movl	16(%ebp), %edx
 1135 085e 0FB703   		movzwl	(%ebx), %eax
 1136 0861 8902     		movl	%eax, (%edx)
 1137 0863 31D2     		xorl	%edx, %edx
 1138 0865 EB80     		jmp	L92
 1139              	LVL157:
 1140              	L152:
 310:./Source/CS229Image.c ****     if((mul & 0x1) && !(pixel_number & 0x1))
 1141              		.loc 1 310 0
 1142 0867 B8030000 		movl	$3, %eax
 1142      00
 1143              	LVL158:
 1144 086c 8D742600 		.p2align 4,,7
 1145              	L137:
 1146 0870 8B750C   		movl	12(%ebp), %esi
 1147              	LVL159:
 319:./Source/CS229Image.c ****     pixel = (uint8_t*)((uint32_t)picture->data + offset);
 1148              		.loc 1 319 0
 1149 0873 0FAF5D0C 		imull	12(%ebp), %ebx
 1150              	LVL160:
 310:./Source/CS229Image.c ****     if((mul & 0x1) && !(pixel_number & 0x1))
 1151              		.loc 1 310 0
 1152 0877 F7D6     		notl	%esi
 319:./Source/CS229Image.c ****     pixel = (uint8_t*)((uint32_t)picture->data + offset);
 1153              		.loc 1 319 0
 1154 0879 D1EB     		shrl	%ebx
 310:./Source/CS229Image.c ****     if((mul & 0x1) && !(pixel_number & 0x1))
 1155              		.loc 1 310 0
 1156 087b 83E601   		andl	$1, %esi
 319:./Source/CS229Image.c ****     pixel = (uint8_t*)((uint32_t)picture->data + offset);
GAS LISTING /cygdrive/c/Users/THESCI~1/AppData/Local/Temp/ccH1olGy.s 			page 53


 1157              		.loc 1 319 0
 1158 087e 035910   		addl	16(%ecx), %ebx
 325:./Source/CS229Image.c ****     if(len == 1)
 1159              		.loc 1 325 0
 1160 0881 83E801   		subl	$1, %eax
 1161              	LVL161:
 1162 0884 0F847E03 		je	L142
 1162      0000
 1163 088a 0FB64102 		movzbl	2(%ecx), %eax
 1164              	L111:
 348:./Source/CS229Image.c ****         if(picture->first_channel.red_channel_size == FOUR_BIT_CHANNEL)
 1165              		.loc 1 348 0
 1166 088e 3C01     		cmpb	$1, %al
 1167 0890 0F849A01 		je	L145
 1167      0000
 362:./Source/CS229Image.c ****         else if(picture->first_channel.red_channel_size == EIGHT_BIT_CHANNEL)
 1168              		.loc 1 362 0
 1169 0896 3C02     		cmpb	$2, %al
 1170 0898 0F84E701 		je	L146
 1170      0000
 377:./Source/CS229Image.c ****             if(half_in)
 1171              		.loc 1 377 0
 1172 089e 85F6     		testl	%esi, %esi
 1173              		.p2align 4,,3
 1174 08a0 0F84B801 		je	L122
 1174      0000
 379:./Source/CS229Image.c ****                 dest[0] = (uint32_t)((*(uint32_t*)pixel & 0x0FFFF000) >> 12);
 1175              		.loc 1 379 0
 1176 08a6 8B03     		movl	(%ebx), %eax
 380:./Source/CS229Image.c ****                 pixel += 2;
 1177              		.loc 1 380 0
 1178 08a8 83C302   		addl	$2, %ebx
 379:./Source/CS229Image.c ****                 dest[0] = (uint32_t)((*(uint32_t*)pixel & 0x0FFFF000) >> 12);
 1179              		.loc 1 379 0
 1180 08ab 8B5510   		movl	16(%ebp), %edx
 1181 08ae 2500F0FF 		andl	$268431360, %eax
 1181      0F
 1182 08b3 C1E80C   		shrl	$12, %eax
 1183 08b6 8902     		movl	%eax, (%edx)
 1184              	L119:
 389:./Source/CS229Image.c ****         if(picture->green_channel_size == FOUR_BIT_CHANNEL)
 1185              		.loc 1 389 0
 1186 08b8 0FB64103 		movzbl	3(%ecx), %eax
 1187 08bc 3C01     		cmpb	$1, %al
 1188 08be 0F844C01 		je	L147
 1188      0000
 403:./Source/CS229Image.c ****         else if(picture->green_channel_size == EIGHT_BIT_CHANNEL)
 1189              		.loc 1 403 0
 1190 08c4 3C02     		cmpb	$2, %al
 1191 08c6 0F84F901 		je	L148
 1191      0000
 418:./Source/CS229Image.c ****             if(half_in)
 1192              		.loc 1 418 0
 1193 08cc 85F6     		testl	%esi, %esi
 1194 08ce 0F847901 		je	L128
 1194      0000
 420:./Source/CS229Image.c ****                 dest[1] = (uint32_t)((*(uint32_t*)pixel & 0x0FFFF000) >> 12);
GAS LISTING /cygdrive/c/Users/THESCI~1/AppData/Local/Temp/ccH1olGy.s 			page 54


 1195              		.loc 1 420 0
 1196 08d4 8B03     		movl	(%ebx), %eax
 421:./Source/CS229Image.c ****                 pixel += 2;
 1197              		.loc 1 421 0
 1198 08d6 83C302   		addl	$2, %ebx
 420:./Source/CS229Image.c ****                 dest[1] = (uint32_t)((*(uint32_t*)pixel & 0x0FFFF000) >> 12);
 1199              		.loc 1 420 0
 1200 08d9 8B5510   		movl	16(%ebp), %edx
 1201 08dc 2500F0FF 		andl	$268431360, %eax
 1201      0F
 1202 08e1 C1E80C   		shrl	$12, %eax
 1203 08e4 894204   		movl	%eax, 4(%edx)
 1204              	L125:
 430:./Source/CS229Image.c ****         if(picture->blue_channel_size == FOUR_BIT_CHANNEL)
 1205              		.loc 1 430 0
 1206 08e7 0FB64104 		movzbl	4(%ecx), %eax
 1207 08eb 3C01     		cmpb	$1, %al
 1208 08ed 0F84FD00 		je	L149
 1208      0000
 444:./Source/CS229Image.c ****         else if(picture->blue_channel_size == EIGHT_BIT_CHANNEL)
 1209              		.loc 1 444 0
 1210 08f3 3C02     		cmpb	$2, %al
 1211 08f5 0F84AA01 		je	L150
 1211      0000
 459:./Source/CS229Image.c ****             if(half_in)
 1212              		.loc 1 459 0
 1213 08fb 85F6     		testl	%esi, %esi
 1214 08fd 0F856B01 		jne	L151
 1214      0000
 466:./Source/CS229Image.c ****                 dest[2] = (uint32_t)*(uint16_t*)pixel;
 1215              		.loc 1 466 0
 1216 0903 8B5510   		movl	16(%ebp), %edx
 1217 0906 0FB703   		movzwl	(%ebx), %eax
 1218 0909 894208   		movl	%eax, 8(%edx)
 1219 090c 31D2     		xorl	%edx, %edx
 1220 090e E9D4FEFF 		jmp	L92
 1220      FF
 1221              	LVL162:
 1222              		.p2align 4,,7
 1223              	L135:
 319:./Source/CS229Image.c ****     pixel = (uint8_t*)((uint32_t)picture->data + offset);
 1224              		.loc 1 319 0
 1225 0913 8B5D0C   		movl	12(%ebp), %ebx
 1226              	LVL163:
 1227 0916 81E3FFFF 		andl	$2147483647, %ebx
 1227      FF7F
 1228 091c 035910   		addl	16(%ecx), %ebx
 1229              	LVL164:
 1230              	L143:
 341:./Source/CS229Image.c ****                 dest[0] = (uint32_t)*pixel;
 1231              		.loc 1 341 0
 1232 091f 8B5510   		movl	16(%ebp), %edx
 1233 0922 0FB603   		movzbl	(%ebx), %eax
 1234 0925 8902     		movl	%eax, (%edx)
 1235 0927 31D2     		xorl	%edx, %edx
 1236 0929 E9B9FEFF 		jmp	L92
 1236      FF
GAS LISTING /cygdrive/c/Users/THESCI~1/AppData/Local/Temp/ccH1olGy.s 			page 55


 1237              	LVL165:
 1238 092e 6690     		.p2align 4,,7
 1239              	L95:
 1240              	LBB22:
 1241              	LBB19:
 180:./Source/CS229Image.c ****         switch(dest->first_channel.red_channel_size)
 1242              		.loc 1 180 0
 1243 0930 0FB64102 		movzbl	2(%ecx), %eax
 1244 0934 3C02     		cmpb	$2, %al
 1245 0936 0F846002 		je	L99
 1245      0000
 1246 093c 3C04     		cmpb	$4, %al
 1247 093e 0F841A02 		je	L100
 1247      0000
 1248 0944 3C01     		cmpb	$1, %al
 1249              		.p2align 4,,3
 1250 0946 0F85F1FE 		jne	L97
 1250      FFFF
 1251 094c C745EC03 		movl	$3, -20(%ebp)
 1251      000000
 1252              	LVL166:
 1253 0953 BB060000 		movl	$6, %ebx
 1253      00
 1254              	LVL167:
 1255 0958 BE070000 		movl	$7, %esi
 1255      00
 1256              	LVL168:
 1257 095d C745F004 		movl	$4, -16(%ebp)
 1257      000000
 1258              	LVL169:
 1259 0964 BF090000 		movl	$9, %edi
 1259      00
 1260              	LVL170:
 1261 0969 C745E006 		movl	$6, -32(%ebp)
 1261      000000
 1262              	LVL171:
 1263 0970 C745E804 		movl	$4, -24(%ebp)
 1263      000000
 1264              	LVL172:
 1265 0977 C745DC05 		movl	$5, -36(%ebp)
 1265      000000
 1266              	LVL173:
 1267 097e C745E407 		movl	$7, -28(%ebp)
 1267      000000
 1268              	LVL174:
 1269              	L101:
 196:./Source/CS229Image.c ****         switch(dest->green_channel_size)
 1270              		.loc 1 196 0
 1271 0985 0FB65103 		movzbl	3(%ecx), %edx
 1272 0989 80FA02   		cmpb	$2, %dl
 1273 098c 0F845002 		je	L103
 1273      0000
 1274 0992 80FA04   		cmpb	$4, %dl
 1275 0995 0F843F02 		je	L104
 1275      0000
 1276 099b 80EA01   		subb	$1, %dl
 1277 099e 0F8599FE 		jne	L97
GAS LISTING /cygdrive/c/Users/THESCI~1/AppData/Local/Temp/ccH1olGy.s 			page 56


 1277      FFFF
 1278 09a4 8B55F0   		movl	-16(%ebp), %edx
 1279 09a7 8B5DEC   		movl	-20(%ebp), %ebx
 1280 09aa 8B7DE0   		movl	-32(%ebp), %edi
 1281 09ad 8955DC   		movl	%edx, -36(%ebp)
 1282              	LVL175:
 1283              	L105:
 212:./Source/CS229Image.c ****         switch(dest->blue_channel_size)
 1284              		.loc 1 212 0
 1285 09b0 0FB65104 		movzbl	4(%ecx), %edx
 1286 09b4 80FA02   		cmpb	$2, %dl
 1287 09b7 0F843C02 		je	L107
 1287      0000
 1288 09bd 80FA04   		cmpb	$4, %dl
 1289 09c0 0F842702 		je	L108
 1289      0000
 1290 09c6 80EA01   		subb	$1, %dl
 1291 09c9 0F856EFE 		jne	L97
 1291      FFFF
 1292 09cf 89DA     		movl	%ebx, %edx
 1293 09d1 83E201   		andl	$1, %edx
 1294              	LVL176:
 1295              	L109:
 1296              	LBE19:
 1297              	LBE22:
 310:./Source/CS229Image.c ****     if((mul & 0x1) && !(pixel_number & 0x1))
 1298              		.loc 1 310 0
 1299 09d4 84D2     		testb	%dl, %dl
 1300 09d6 0F858BFE 		jne	L152
 1300      FFFF
 319:./Source/CS229Image.c ****     pixel = (uint8_t*)((uint32_t)picture->data + offset);
 1301              		.loc 1 319 0
 1302 09dc 0FAF5D0C 		imull	12(%ebp), %ebx
 1303              	LVL177:
 1304 09e0 31F6     		xorl	%esi, %esi
 1305              	LVL178:
 1306 09e2 D1EB     		shrl	%ebx
 1307 09e4 035910   		addl	16(%ecx), %ebx
 1308 09e7 E9A2FEFF 		jmp	L111
 1308      FF
 1309 09ec 8D742600 		.p2align 4,,7
 1310              	L149:
 432:./Source/CS229Image.c ****             if(half_in)
 1311              		.loc 1 432 0
 1312 09f0 85F6     		testl	%esi, %esi
 1313 09f2 0F840701 		je	L130
 1313      0000
 434:./Source/CS229Image.c ****                 dest[2] = (uint32_t)(*pixel & 0xF);
 1314              		.loc 1 434 0
 1315 09f8 0FB603   		movzbl	(%ebx), %eax
 1316 09fb 8B5510   		movl	16(%ebp), %edx
 1317 09fe 83E00F   		andl	$15, %eax
 1318 0a01 894208   		movl	%eax, 8(%edx)
 1319 0a04 31D2     		xorl	%edx, %edx
 1320 0a06 E9DCFDFF 		jmp	L92
 1320      FF
 1321 0a0b 908D7426 		.p2align 4,,7
GAS LISTING /cygdrive/c/Users/THESCI~1/AppData/Local/Temp/ccH1olGy.s 			page 57


 1321      00
 1322              	L147:
 391:./Source/CS229Image.c ****             if(half_in)
 1323              		.loc 1 391 0
 1324 0a10 85F6     		testl	%esi, %esi
 1325 0a12 0F84CE00 		je	L124
 1325      0000
 393:./Source/CS229Image.c ****                 dest[1] = (uint32_t)(*pixel & 0xF);
 1326              		.loc 1 393 0
 1327 0a18 0FB603   		movzbl	(%ebx), %eax
 395:./Source/CS229Image.c ****                 pixel++;
 1328              		.loc 1 395 0
 1329 0a1b 31F6     		xorl	%esi, %esi
 1330 0a1d 83C301   		addl	$1, %ebx
 393:./Source/CS229Image.c ****                 dest[1] = (uint32_t)(*pixel & 0xF);
 1331              		.loc 1 393 0
 1332 0a20 8B5510   		movl	16(%ebp), %edx
 1333 0a23 83E00F   		andl	$15, %eax
 1334 0a26 894204   		movl	%eax, 4(%edx)
 1335 0a29 E9B9FEFF 		jmp	L125
 1335      FF
 1336 0a2e 6690     		.p2align 4,,7
 1337              	L145:
 350:./Source/CS229Image.c ****             if(half_in)
 1338              		.loc 1 350 0
 1339 0a30 85F6     		testl	%esi, %esi
 1340 0a32 0F84DD00 		je	L118
 1340      0000
 352:./Source/CS229Image.c ****                 dest[0] = (uint32_t)*pixel & 0xF;
 1341              		.loc 1 352 0
 1342 0a38 0FB603   		movzbl	(%ebx), %eax
 354:./Source/CS229Image.c ****                 pixel++;
 1343              		.loc 1 354 0
 1344 0a3b 31F6     		xorl	%esi, %esi
 1345 0a3d 83C301   		addl	$1, %ebx
 352:./Source/CS229Image.c ****                 dest[0] = (uint32_t)*pixel & 0xF;
 1346              		.loc 1 352 0
 1347 0a40 8B5510   		movl	16(%ebp), %edx
 1348 0a43 83E00F   		andl	$15, %eax
 1349 0a46 8902     		movl	%eax, (%edx)
 1350 0a48 E96BFEFF 		jmp	L119
 1350      FF
 1351              	L128:
 425:./Source/CS229Image.c ****                 dest[1] = (uint32_t)*(uint16_t*)pixel;
 1352              		.loc 1 425 0
 1353 0a4d 0FB703   		movzwl	(%ebx), %eax
 426:./Source/CS229Image.c ****                 pixel += 2;
 1354              		.loc 1 426 0
 1355 0a50 83C302   		addl	$2, %ebx
 425:./Source/CS229Image.c ****                 dest[1] = (uint32_t)*(uint16_t*)pixel;
 1356              		.loc 1 425 0
 1357 0a53 8B5510   		movl	16(%ebp), %edx
 1358 0a56 894204   		movl	%eax, 4(%edx)
 1359 0a59 E989FEFF 		jmp	L125
 1359      FF
 1360              	L122:
 384:./Source/CS229Image.c ****                 dest[0] = (uint32_t)*(uint16_t*)pixel;
GAS LISTING /cygdrive/c/Users/THESCI~1/AppData/Local/Temp/ccH1olGy.s 			page 58


 1361              		.loc 1 384 0
 1362 0a5e 0FB703   		movzwl	(%ebx), %eax
 385:./Source/CS229Image.c ****                 pixel += 2;
 1363              		.loc 1 385 0
 1364 0a61 83C302   		addl	$2, %ebx
 384:./Source/CS229Image.c ****                 dest[0] = (uint32_t)*(uint16_t*)pixel;
 1365              		.loc 1 384 0
 1366 0a64 8B5510   		movl	16(%ebp), %edx
 1367 0a67 8902     		movl	%eax, (%edx)
 1368 0a69 E94AFEFF 		jmp	L119
 1368      FF
 1369              	L151:
 461:./Source/CS229Image.c ****                 dest[2] = (uint32_t)((*(uint32_t*)pixel & 0x0FFFF000) >> 12);
 1370              		.loc 1 461 0
 1371 0a6e 8B03     		movl	(%ebx), %eax
 1372 0a70 8B5510   		movl	16(%ebp), %edx
 1373 0a73 2500F0FF 		andl	$268431360, %eax
 1373      0F
 1374 0a78 C1E80C   		shrl	$12, %eax
 1375 0a7b 894208   		movl	%eax, 8(%edx)
 1376 0a7e 31D2     		xorl	%edx, %edx
 1377 0a80 E962FDFF 		jmp	L92
 1377      FF
 1378              	L146:
 364:./Source/CS229Image.c ****             if(half_in)
 1379              		.loc 1 364 0
 1380 0a85 85F6     		testl	%esi, %esi
 1381 0a87 0F84A000 		je	L121
 1381      0000
 366:./Source/CS229Image.c ****                 dest[0] = (uint32_t)((*(uint16_t*)pixel & 0x0FF0) >> 4);
 1382              		.loc 1 366 0
 1383 0a8d 0FB703   		movzwl	(%ebx), %eax
 367:./Source/CS229Image.c ****                 pixel++;
 1384              		.loc 1 367 0
 1385 0a90 83C301   		addl	$1, %ebx
 366:./Source/CS229Image.c ****                 dest[0] = (uint32_t)((*(uint16_t*)pixel & 0x0FF0) >> 4);
 1386              		.loc 1 366 0
 1387 0a93 8B5510   		movl	16(%ebp), %edx
 1388 0a96 25F00F00 		andl	$4080, %eax
 1388      00
 1389 0a9b C1F804   		sarl	$4, %eax
 1390 0a9e 8902     		movl	%eax, (%edx)
 1391 0aa0 E913FEFF 		jmp	L119
 1391      FF
 1392              	L150:
 446:./Source/CS229Image.c ****             if(half_in)
 1393              		.loc 1 446 0
 1394 0aa5 85F6     		testl	%esi, %esi
 1395 0aa7 0F849000 		je	L132
 1395      0000
 448:./Source/CS229Image.c ****                 dest[2] = (uint32_t)((*(uint16_t*)pixel & 0x0FF0) >> 4);
 1396              		.loc 1 448 0
 1397 0aad 0FB703   		movzwl	(%ebx), %eax
 1398 0ab0 8B5510   		movl	16(%ebp), %edx
 1399 0ab3 25F00F00 		andl	$4080, %eax
 1399      00
 1400 0ab8 C1F804   		sarl	$4, %eax
GAS LISTING /cygdrive/c/Users/THESCI~1/AppData/Local/Temp/ccH1olGy.s 			page 59


 1401 0abb 894208   		movl	%eax, 8(%edx)
 1402 0abe 31D2     		xorl	%edx, %edx
 1403 0ac0 E922FDFF 		jmp	L92
 1403      FF
 1404              	L148:
 405:./Source/CS229Image.c ****             if(half_in)
 1405              		.loc 1 405 0
 1406 0ac5 85F6     		testl	%esi, %esi
 1407 0ac7 0F848000 		je	L127
 1407      0000
 407:./Source/CS229Image.c ****                 dest[1] = (uint32_t)((*(uint16_t*)pixel & 0x0FF0) >> 4);
 1408              		.loc 1 407 0
 1409 0acd 0FB703   		movzwl	(%ebx), %eax
 408:./Source/CS229Image.c ****                 pixel++;
 1410              		.loc 1 408 0
 1411 0ad0 83C301   		addl	$1, %ebx
 407:./Source/CS229Image.c ****                 dest[1] = (uint32_t)((*(uint16_t*)pixel & 0x0FF0) >> 4);
 1412              		.loc 1 407 0
 1413 0ad3 8B5510   		movl	16(%ebp), %edx
 1414 0ad6 25F00F00 		andl	$4080, %eax
 1414      00
 1415 0adb C1F804   		sarl	$4, %eax
 1416 0ade 894204   		movl	%eax, 4(%edx)
 1417 0ae1 E901FEFF 		jmp	L125
 1417      FF
 1418              	L124:
 399:./Source/CS229Image.c ****                 dest[1] = (uint32_t)(*pixel >> 4);
 1419              		.loc 1 399 0
 1420 0ae6 0FB603   		movzbl	(%ebx), %eax
 1421 0ae9 BE010000 		movl	$1, %esi
 1421      00
 1422 0aee 8B5510   		movl	16(%ebp), %edx
 1423 0af1 C0E804   		shrb	$4, %al
 1424 0af4 0FB6C0   		movzbl	%al, %eax
 1425 0af7 894204   		movl	%eax, 4(%edx)
 1426 0afa E9E8FDFF 		jmp	L125
 1426      FF
 1427              	L130:
 440:./Source/CS229Image.c ****                 dest[2] = (uint32_t)(*pixel >> 4);
 1428              		.loc 1 440 0
 1429 0aff 0FB603   		movzbl	(%ebx), %eax
 1430 0b02 8B5510   		movl	16(%ebp), %edx
 1431 0b05 C0E804   		shrb	$4, %al
 1432 0b08 0FB6C0   		movzbl	%al, %eax
 1433 0b0b 894208   		movl	%eax, 8(%edx)
 1434 0b0e 31D2     		xorl	%edx, %edx
 1435 0b10 E9D2FCFF 		jmp	L92
 1435      FF
 1436              	L118:
 358:./Source/CS229Image.c ****                 dest[0] = (uint32_t)(*pixel >> 4);
 1437              		.loc 1 358 0
 1438 0b15 0FB603   		movzbl	(%ebx), %eax
 1439 0b18 BE010000 		movl	$1, %esi
 1439      00
 1440 0b1d 8B5510   		movl	16(%ebp), %edx
 1441 0b20 C0E804   		shrb	$4, %al
 1442 0b23 0FB6C0   		movzbl	%al, %eax
GAS LISTING /cygdrive/c/Users/THESCI~1/AppData/Local/Temp/ccH1olGy.s 			page 60


 1443 0b26 8902     		movl	%eax, (%edx)
 1444 0b28 E98BFDFF 		jmp	L119
 1444      FF
 1445              	L121:
 371:./Source/CS229Image.c ****                 dest[0] = (uint32_t)*pixel;
 1446              		.loc 1 371 0
 1447 0b2d 0FB603   		movzbl	(%ebx), %eax
 372:./Source/CS229Image.c ****                 pixel++;
 1448              		.loc 1 372 0
 1449 0b30 83C301   		addl	$1, %ebx
 371:./Source/CS229Image.c ****                 dest[0] = (uint32_t)*pixel;
 1450              		.loc 1 371 0
 1451 0b33 8B5510   		movl	16(%ebp), %edx
 1452 0b36 8902     		movl	%eax, (%edx)
 1453 0b38 E97BFDFF 		jmp	L119
 1453      FF
 1454              	L132:
 453:./Source/CS229Image.c ****                 dest[2] = (uint32_t)*pixel;
 1455              		.loc 1 453 0
 1456 0b3d 8B5510   		movl	16(%ebp), %edx
 1457 0b40 0FB603   		movzbl	(%ebx), %eax
 1458 0b43 894208   		movl	%eax, 8(%edx)
 1459 0b46 31D2     		xorl	%edx, %edx
 1460 0b48 E99AFCFF 		jmp	L92
 1460      FF
 1461              	L127:
 412:./Source/CS229Image.c ****                 dest[1] = (uint32_t)*pixel;
 1462              		.loc 1 412 0
 1463 0b4d 0FB603   		movzbl	(%ebx), %eax
 413:./Source/CS229Image.c ****                 pixel++;
 1464              		.loc 1 413 0
 1465 0b50 83C301   		addl	$1, %ebx
 412:./Source/CS229Image.c ****                 dest[1] = (uint32_t)*pixel;
 1466              		.loc 1 412 0
 1467 0b53 8B5510   		movl	16(%ebp), %edx
 1468 0b56 894204   		movl	%eax, 4(%edx)
 1469 0b59 E989FDFF 		jmp	L125
 1469      FF
 1470              	LVL179:
 1471              	L100:
 1472              	LBB23:
 1473              	LBB21:
 180:./Source/CS229Image.c ****         switch(dest->first_channel.red_channel_size)
 1474              		.loc 1 180 0
 1475 0b5e C745EC06 		movl	$6, -20(%ebp)
 1475      000000
 1476              	LVL180:
 1477 0b65 BB090000 		movl	$9, %ebx
 1477      00
 1478              	LVL181:
 1479 0b6a BE0A0000 		movl	$10, %esi
 1479      00
 1480              	LVL182:
 1481 0b6f C745F007 		movl	$7, -16(%ebp)
 1481      000000
 1482              	LVL183:
 1483 0b76 BF0C0000 		movl	$12, %edi
GAS LISTING /cygdrive/c/Users/THESCI~1/AppData/Local/Temp/ccH1olGy.s 			page 61


 1483      00
 1484              	LVL184:
 1485 0b7b C745E009 		movl	$9, -32(%ebp)
 1485      000000
 1486              	LVL185:
 1487 0b82 C745E807 		movl	$7, -24(%ebp)
 1487      000000
 1488              	LVL186:
 1489 0b89 C745DC08 		movl	$8, -36(%ebp)
 1489      000000
 1490              	LVL187:
 1491 0b90 C745E40A 		movl	$10, -28(%ebp)
 1491      000000
 1492              	LVL188:
 1493 0b97 E9E9FDFF 		jmp	L101
 1493      FF
 1494              	LVL189:
 1495              	L99:
 1496 0b9c C745EC04 		movl	$4, -20(%ebp)
 1496      000000
 1497              	LVL190:
 1498 0ba3 BB070000 		movl	$7, %ebx
 1498      00
 1499              	LVL191:
 1500 0ba8 BE080000 		movl	$8, %esi
 1500      00
 1501              	LVL192:
 1502 0bad C745F005 		movl	$5, -16(%ebp)
 1502      000000
 1503              	LVL193:
 1504 0bb4 BF0A0000 		movl	$10, %edi
 1504      00
 1505              	LVL194:
 1506 0bb9 C745E007 		movl	$7, -32(%ebp)
 1506      000000
 1507              	LVL195:
 1508 0bc0 C745E805 		movl	$5, -24(%ebp)
 1508      000000
 1509              	LVL196:
 1510 0bc7 C745DC06 		movl	$6, -36(%ebp)
 1510      000000
 1511              	LVL197:
 1512 0bce C745E408 		movl	$8, -28(%ebp)
 1512      000000
 1513              	LVL198:
 1514 0bd5 E9ABFDFF 		jmp	L101
 1514      FF
 1515              	L104:
 196:./Source/CS229Image.c ****         switch(dest->green_channel_size)
 1516              		.loc 1 196 0
 1517 0bda 8975DC   		movl	%esi, -36(%ebp)
 1518 0bdd E9CEFDFF 		jmp	L105
 1518      FF
 1519              	LVL199:
 1520              	L103:
 1521 0be2 8B5DE8   		movl	-24(%ebp), %ebx
 1522 0be5 8B7DE4   		movl	-28(%ebp), %edi
GAS LISTING /cygdrive/c/Users/THESCI~1/AppData/Local/Temp/ccH1olGy.s 			page 62


 1523 0be8 E9C3FDFF 		jmp	L105
 1523      FF
 1524              	LVL200:
 1525              	L108:
 212:./Source/CS229Image.c ****         switch(dest->blue_channel_size)
 1526              		.loc 1 212 0
 1527 0bed 89FA     		movl	%edi, %edx
 1528 0bef 89FB     		movl	%edi, %ebx
 1529 0bf1 83E201   		andl	$1, %edx
 1530 0bf4 E9DBFDFF 		jmp	L109
 1530      FF
 1531              	L107:
 1532 0bf9 0FB655DC 		movzbl	-36(%ebp), %edx
 1533 0bfd 8B5DDC   		movl	-36(%ebp), %ebx
 1534 0c00 83E201   		andl	$1, %edx
 1535 0c03 E9CCFDFF 		jmp	L109
 1535      FF
 1536              	LVL201:
 1537              	L142:
 1538              	LBE21:
 1539              	LBE23:
 327:./Source/CS229Image.c ****         if(half_in)
 1540              		.loc 1 327 0
 1541 0c08 85F6     		testl	%esi, %esi
 1542 0c0a 0FB65102 		movzbl	2(%ecx), %edx
 1543 0c0e 741C     		je	L112
 329:./Source/CS229Image.c ****             if(picture->first_channel.blackwhite_channel_size == FOUR_BIT_CHANNEL)
 1544              		.loc 1 329 0
 1545 0c10 80FA01   		cmpb	$1, %dl
 1546 0c13 7430     		je	L153
 331:./Source/CS229Image.c ****             else if(picture->first_channel.blackwhite_channel_size == EIGHT_BIT_CHANNEL)
 1547              		.loc 1 331 0
 1548 0c15 80FA02   		cmpb	$2, %dl
 1549              		.p2align 4,,3
 1550 0c18 7452     		je	L154
 334:./Source/CS229Image.c ****                 dest[0] = (uint32_t)(*(uint16_t*)pixel & 0x0FFFF000) >> 12;
 1551              		.loc 1 334 0
 1552 0c1a 0FB703   		movzwl	(%ebx), %eax
 1553 0c1d 8B5510   		movl	16(%ebp), %edx
 1554 0c20 C1E80C   		shrl	$12, %eax
 1555 0c23 8902     		movl	%eax, (%edx)
 1556 0c25 31D2     		xorl	%edx, %edx
 1557 0c27 E9BBFBFF 		jmp	L92
 1557      FF
 1558              	L112:
 338:./Source/CS229Image.c ****             if(picture->first_channel.blackwhite_channel_size == FOUR_BIT_CHANNEL)
 1559              		.loc 1 338 0
 1560 0c2c 80FA01   		cmpb	$1, %dl
 1561 0c2f 7426     		je	L155
 340:./Source/CS229Image.c ****             else if(picture->first_channel.blackwhite_channel_size == EIGHT_BIT_CHANNEL)
 1562              		.loc 1 340 0
 1563 0c31 80FA02   		cmpb	$2, %dl
 1564 0c34 0F8521FC 		jne	L116
 1564      FFFF
 1565 0c3a 8DB60000 		.p2align 4,,7
 1565      0000
 1566 0c40 E9DAFCFF 		jmp	L143
GAS LISTING /cygdrive/c/Users/THESCI~1/AppData/Local/Temp/ccH1olGy.s 			page 63


 1566      FF
 1567              	L153:
 330:./Source/CS229Image.c ****                 dest[0] = (uint32_t)*pixel & 0xF;
 1568              		.loc 1 330 0
 1569 0c45 0FB603   		movzbl	(%ebx), %eax
 1570 0c48 8B5510   		movl	16(%ebp), %edx
 1571 0c4b 83E00F   		andl	$15, %eax
 1572 0c4e 8902     		movl	%eax, (%edx)
 1573 0c50 31D2     		xorl	%edx, %edx
 1574 0c52 E990FBFF 		jmp	L92
 1574      FF
 1575              	L155:
 339:./Source/CS229Image.c ****                 dest[0] = (uint32_t)*pixel >> 4;
 1576              		.loc 1 339 0
 1577 0c57 0FB603   		movzbl	(%ebx), %eax
 1578 0c5a 8B5510   		movl	16(%ebp), %edx
 1579 0c5d C0E804   		shrb	$4, %al
 1580 0c60 0FB6C0   		movzbl	%al, %eax
 1581 0c63 8902     		movl	%eax, (%edx)
 1582 0c65 31D2     		xorl	%edx, %edx
 1583 0c67 E97BFBFF 		jmp	L92
 1583      FF
 1584              	L154:
 332:./Source/CS229Image.c ****                 dest[0] = (uint32_t)(*(uint16_t*)pixel & 0x0FF0) >> 4;
 1585              		.loc 1 332 0
 1586 0c6c 0FB703   		movzwl	(%ebx), %eax
 1587 0c6f 8B5510   		movl	16(%ebp), %edx
 1588 0c72 25F00F00 		andl	$4080, %eax
 1588      00
 1589 0c77 C1E804   		shrl	$4, %eax
 1590 0c7a 8902     		movl	%eax, (%edx)
 1591 0c7c 31D2     		xorl	%edx, %edx
 1592 0c7e E964FBFF 		jmp	L92
 1592      FF
 1593              	LFE11:
 1594 0c83 8DB60000 		.p2align 4,,15
 1594      00008DBC 
 1594      27000000 
 1594      00
 1595              	.globl _count_pixels_of_color
 1597              	_count_pixels_of_color:
 1598              	LFB13:
 796:./Source/CS229Image.c **** {
 1599              		.loc 1 796 0
 1600              	LVL202:
 1601 0c90 55       		pushl	%ebp
 1602              	LCFI42:
 1603 0c91 89E5     		movl	%esp, %ebp
 1604              	LCFI43:
 1605 0c93 83EC2C   		subl	$44, %esp
 1606              	LCFI44:
 1607 0c96 8975F8   		movl	%esi, -8(%ebp)
 1608              	LCFI45:
 1609 0c99 8B7508   		movl	8(%ebp), %esi
 1610 0c9c 895DF4   		movl	%ebx, -12(%ebp)
 1611              	LCFI46:
 1612 0c9f 897DFC   		movl	%edi, -4(%ebp)
GAS LISTING /cygdrive/c/Users/THESCI~1/AppData/Local/Temp/ccH1olGy.s 			page 64


 1613              	LCFI47:
 804:./Source/CS229Image.c ****     if(!picture || !color)
 1614              		.loc 1 804 0
 1615 0ca2 85F6     		testl	%esi, %esi
 1616 0ca4 0F84A600 		je	L166
 1616      0000
 1617              	LVL203:
 1618 0caa 8B7D0C   		movl	12(%ebp), %edi
 1619 0cad 85FF     		testl	%edi, %edi
 1620 0caf 0F849B00 		je	L166
 1620      0000
 1621              	LVL204:
 808:./Source/CS229Image.c ****     if(picture->magic_number != CS229_MAGIC_NUMBER)
 1622              		.loc 1 808 0
 1623 0cb5 803E42   		cmpb	$66, (%esi)
 1624 0cb8 B80B0000 		movl	$11, %eax
 1624      00
 1625              	LVL205:
 1626 0cbd 7411     		je	L168
 1627              	LVL206:
 1628              	L159:
 853:./Source/CS229Image.c **** }
 1629              		.loc 1 853 0
 1630 0cbf 8B5DF4   		movl	-12(%ebp), %ebx
 1631              	LVL207:
 1632              	LVL208:
 1633 0cc2 8B75F8   		movl	-8(%ebp), %esi
 1634              	LVL209:
 1635 0cc5 8B7DFC   		movl	-4(%ebp), %edi
 1636              	LVL210:
 1637 0cc8 89EC     		movl	%ebp, %esp
 1638 0cca 5D       		popl	%ebp
 1639 0ccb C3       		ret
 1640              	LVL211:
 1641 0ccc 8D742600 		.p2align 4,,7
 1642              	L168:
 812:./Source/CS229Image.c ****     if(picture->color_mode != MODE_BLACKWHITE && picture->color_mode != MODE_COLOR)
 1643              		.loc 1 812 0
 1644 0cd0 0FB64601 		movzbl	1(%esi), %eax
 1645              	LVL212:
 1646 0cd4 83E801   		subl	$1, %eax
 1647 0cd7 3CFD     		cmpb	$-3, %al
 1648 0cd9 0F868100 		jbe	L161
 1648      0000
 817:./Source/CS229Image.c ****     len = picture->height.value * picture->width.value;
 1649              		.loc 1 817 0
 1650 0cdf 8B7E0C   		movl	12(%esi), %edi
 1651              	LVL213:
 1652 0ce2 0FAF7E08 		imull	8(%esi), %edi
 824:./Source/CS229Image.c ****     for(i = 0;i < len;i++)
 1653              		.loc 1 824 0
 1654 0ce6 85FF     		testl	%edi, %edi
 1655 0ce8 7476     		je	L161
 1656 0cea 31DB     		xorl	%ebx, %ebx
 1657              	LVL214:
 1658 0cec C745E000 		movl	$0, -32(%ebp)
 1658      000000
GAS LISTING /cygdrive/c/Users/THESCI~1/AppData/Local/Temp/ccH1olGy.s 			page 65


 1659              	LVL215:
 1660 0cf3 EB18     		jmp	L164
 1661              	LVL216:
 1662              		.p2align 4,,7
 1663              	L170:
 1664              	LBB24:
 841:./Source/CS229Image.c ****                 count++;
 1665              		.loc 1 841 0
 1666 0cf5 8B550C   		movl	12(%ebp), %edx
 840:./Source/CS229Image.c ****             if(colors[0] == color[0])
 1667              		.loc 1 840 0
 1668 0cf8 8B45E8   		movl	-24(%ebp), %eax
 1669              	LVL217:
 841:./Source/CS229Image.c ****                 count++;
 1670              		.loc 1 841 0
 1671 0cfb 3B02     		cmpl	(%edx), %eax
 1672 0cfd 0F94C0   		sete	%al
 1673 0d00 0FB6C0   		movzbl	%al, %eax
 1674 0d03 0145E0   		addl	%eax, -32(%ebp)
 1675              	LVL218:
 1676              	L163:
 1677              	LBE24:
 824:./Source/CS229Image.c ****     for(i = 0;i < len;i++)
 1678              		.loc 1 824 0
 1679 0d06 83C301   		addl	$1, %ebx
 1680 0d09 39DF     		cmpl	%ebx, %edi
 1681 0d0b 765A     		jbe	L169
 1682              	L164:
 1683              	LBB25:
 830:./Source/CS229Image.c ****         err = get_pixel(picture,i,colors);
 1684              		.loc 1 830 0
 1685 0d0d 8D45E8   		leal	-24(%ebp), %eax
 1686 0d10 89442408 		movl	%eax, 8(%esp)
 1687 0d14 895C2404 		movl	%ebx, 4(%esp)
 1688 0d18 893424   		movl	%esi, (%esp)
 1689 0d1b E8A0FAFF 		call	_get_pixel
 1689      FF
 833:./Source/CS229Image.c ****         if(err)
 1690              		.loc 1 833 0
 1691 0d20 85C0     		testl	%eax, %eax
 1692              	LVL219:
 1693 0d22 759B     		jne	L159
 837:./Source/CS229Image.c ****         if(picture->color_mode == MODE_BLACKWHITE)
 1694              		.loc 1 837 0
 1695 0d24 807E0100 		cmpb	$0, 1(%esi)
 1696 0d28 74CB     		je	L170
 846:./Source/CS229Image.c ****             if(colors[0] == color[0] && colors[1] == color[1] && colors[2] == color[2])
 1697              		.loc 1 846 0
 1698 0d2a 8B550C   		movl	12(%ebp), %edx
 1699 0d2d 8B45E8   		movl	-24(%ebp), %eax
 1700              	LVL220:
 1701 0d30 3B02     		cmpl	(%edx), %eax
 1702 0d32 75D2     		jne	L163
 1703 0d34 8B45EC   		movl	-20(%ebp), %eax
 1704 0d37 3B4204   		cmpl	4(%edx), %eax
 1705 0d3a 75CA     		jne	L163
 1706 0d3c 8B45F0   		movl	-16(%ebp), %eax
GAS LISTING /cygdrive/c/Users/THESCI~1/AppData/Local/Temp/ccH1olGy.s 			page 66


 847:./Source/CS229Image.c ****                 count++;
 1707              		.loc 1 847 0
 1708 0d3f 3B4208   		cmpl	8(%edx), %eax
 1709 0d42 0F94C0   		sete	%al
 1710 0d45 0FB6C0   		movzbl	%al, %eax
 1711 0d48 0145E0   		addl	%eax, -32(%ebp)
 1712              	LVL221:
 1713 0d4b EBB9     		jmp	L163
 1714              	LVL222:
 1715 0d4d 8D7600   		.p2align 4,,7
 1716              	L166:
 1717              	LBE25:
 804:./Source/CS229Image.c ****     if(!picture || !color)
 1718              		.loc 1 804 0
 1719 0d50 B80C0000 		movl	$12, %eax
 1719      00
 1720              	LVL223:
 1721 0d55 E965FFFF 		jmp	L159
 1721      FF
 1722              	LVL224:
 1723 0d5a 8DB60000 		.p2align 4,,7
 1723      0000
 1724              	L161:
 824:./Source/CS229Image.c ****     for(i = 0;i < len;i++)
 1725              		.loc 1 824 0
 1726 0d60 31C0     		xorl	%eax, %eax
 1727              	LVL225:
 1728 0d62 E958FFFF 		jmp	L159
 1728      FF
 1729              	LVL226:
 1730              		.p2align 4,,7
 1731              	L169:
 1732 0d67 8B45E0   		movl	-32(%ebp), %eax
 1733              	LVL227:
 1734              		.p2align 4,,5
 1735 0d6a E950FFFF 		jmp	L159
 1735      FF
 1736              	LFE13:
 1737 0d6f 90       		.p2align 4,,15
 1738              	.globl _check_average_error
 1740              	_check_average_error:
 1741              	LFB21:
1536:./Source/CS229Image.c **** 
1537:./Source/CS229Image.c **** /* Computes the error of pic1 and pic2 at (x,y) as specified by the stitch_image
1538:./Source/CS229Image.c ****  * algorithm. If x or y is out of range then -1.0f is returned. (1,1) is the
1539:./Source/CS229Image.c ****  * first pixel. (0,0) is out of range. No error checking is performed on
1540:./Source/CS229Image.c ****  * pic1 or pic2. They are assumed to be of the same color format and channel
1541:./Source/CS229Image.c ****  * sizes in order to function correctly. Also returns -1.0f if there is not
1542:./Source/CS229Image.c ****  * at least ten percent of the smaller picture in the overlap. o_w and o_w
1543:./Source/CS229Image.c ****  * will store the value of the overlap size if null pointers aren't pasted as
1544:./Source/CS229Image.c ****  * thier value. If they recieve null pointers they are not used.
1545:./Source/CS229Image.c ****  */
1546:./Source/CS229Image.c **** float check_average_error(PCSPIC pic1, PCSPIC pic2, uint32_t x, uint32_t y, uint32_t* o_w, uint32_t
1547:./Source/CS229Image.c **** {
 1742              		.loc 1 1547 0
 1743              	LVL228:
 1744 0d70 55       		pushl	%ebp
GAS LISTING /cygdrive/c/Users/THESCI~1/AppData/Local/Temp/ccH1olGy.s 			page 67


 1745              	LCFI48:
 1746 0d71 89E5     		movl	%esp, %ebp
 1747              	LCFI49:
 1748 0d73 57       		pushl	%edi
 1749              	LCFI50:
 1750 0d74 56       		pushl	%esi
 1751              	LCFI51:
 1752 0d75 53       		pushl	%ebx
 1753              	LCFI52:
 1754 0d76 83EC78   		subl	$120, %esp
 1755              	LCFI53:
1548:./Source/CS229Image.c ****     /* Create some local variables */
1549:./Source/CS229Image.c ****     uint32_t size;
1550:./Source/CS229Image.c ****     uint32_t pic;
1551:./Source/CS229Image.c ****     uint32_t over_left;
1552:./Source/CS229Image.c ****     uint32_t over_top;
1553:./Source/CS229Image.c ****     int32_t overlap_width;
1554:./Source/CS229Image.c ****     int32_t overlap_height;
1555:./Source/CS229Image.c ****     uint32_t overlap;
1556:./Source/CS229Image.c ****     uint32_t xi;
1557:./Source/CS229Image.c ****     uint32_t yi;
1558:./Source/CS229Image.c ****     long double error;
1559:./Source/CS229Image.c **** 
1560:./Source/CS229Image.c ****     /* Check which image is smaller */
1561:./Source/CS229Image.c ****     if(pic1->width.value * pic1->height.value < pic2->width.value * pic2->height.value)
 1756              		.loc 1 1561 0
 1757 0d79 8B4508   		movl	8(%ebp), %eax
 1758 0d7c 8B550C   		movl	12(%ebp), %edx
 1759 0d7f 8B780C   		movl	12(%eax), %edi
 1760 0d82 8B5A0C   		movl	12(%edx), %ebx
 1761 0d85 8B7008   		movl	8(%eax), %esi
 1762 0d88 8B4A08   		movl	8(%edx), %ecx
1562:./Source/CS229Image.c ****         size = pic2->width.value * pic2->height.value;
1563:./Source/CS229Image.c ****     else
1564:./Source/CS229Image.c ****         size = pic1->width.value * pic1->height.value;
1565:./Source/CS229Image.c **** 
1566:./Source/CS229Image.c ****     /* Check if picture two is wider than picutre one */
1567:./Source/CS229Image.c ****     if(pic1->width.value < pic2->width.value)
 1763              		.loc 1 1567 0
 1764 0d8b 39DF     		cmpl	%ebx, %edi
 1765 0d8d 0F83C101 		jae	L172
 1765      0000
 1766              	LVL229:
1568:./Source/CS229Image.c ****         pic = 0;
1569:./Source/CS229Image.c ****     else
1570:./Source/CS229Image.c ****         pic = 1;
1571:./Source/CS229Image.c **** 
1572:./Source/CS229Image.c ****     /* Determine our overlap width */
1573:./Source/CS229Image.c ****     if(pic)
1574:./Source/CS229Image.c ****     {
1575:./Source/CS229Image.c ****         if(x > pic2->width.value)
1576:./Source/CS229Image.c ****         {
1577:./Source/CS229Image.c ****             if(x > pic1->width.value)
1578:./Source/CS229Image.c ****                 overlap_width = pic2->width.value + pic1->width.value - x;
1579:./Source/CS229Image.c ****             else
1580:./Source/CS229Image.c ****                 overlap_width = pic2->width.value;
1581:./Source/CS229Image.c **** 
GAS LISTING /cygdrive/c/Users/THESCI~1/AppData/Local/Temp/ccH1olGy.s 			page 68


1582:./Source/CS229Image.c ****             over_left = FALSE;
1583:./Source/CS229Image.c ****         }
1584:./Source/CS229Image.c ****         else
1585:./Source/CS229Image.c ****         {
1586:./Source/CS229Image.c ****             overlap_width = x;
1587:./Source/CS229Image.c ****             over_left = TRUE;
1588:./Source/CS229Image.c ****         }
1589:./Source/CS229Image.c ****     }
1590:./Source/CS229Image.c ****     else
1591:./Source/CS229Image.c ****     {
1592:./Source/CS229Image.c ****         if(x > pic1->width.value)
 1767              		.loc 1 1592 0
 1768 0d93 3B7D10   		cmpl	16(%ebp), %edi
 1769 0d96 0F833402 		jae	L233
 1769      0000
 1770              	LVL230:
1593:./Source/CS229Image.c ****         {
1594:./Source/CS229Image.c ****             if(x > pic2->width.value)
 1771              		.loc 1 1594 0
 1772 0d9c 3B5D10   		cmpl	16(%ebp), %ebx
1595:./Source/CS229Image.c ****                 overlap_width = pic1->width.value + pic2->width.value - x;
1596:./Source/CS229Image.c ****             else
1597:./Source/CS229Image.c ****                 overlap_width = pic1->width.value;
 1773              		.loc 1 1597 0
 1774 0d9f 897D9C   		movl	%edi, -100(%ebp)
 1775              	LVL231:
 1776 0da2 C7459400 		movl	$0, -108(%ebp)
 1776      000000
 1777              	LVL232:
1594:./Source/CS229Image.c ****             if(x > pic2->width.value)
 1778              		.loc 1 1594 0
 1779 0da9 0F83B701 		jae	L176
 1779      0000
1595:./Source/CS229Image.c ****                 overlap_width = pic1->width.value + pic2->width.value - x;
 1780              		.loc 1 1595 0
 1781 0daf 8B4510   		movl	16(%ebp), %eax
 1782 0db2 8D143B   		leal	(%ebx,%edi), %edx
 1783 0db5 29C2     		subl	%eax, %edx
1598:./Source/CS229Image.c **** 
1599:./Source/CS229Image.c ****             over_left = FALSE;
1600:./Source/CS229Image.c ****         }
1601:./Source/CS229Image.c ****         else
1602:./Source/CS229Image.c ****         {
1603:./Source/CS229Image.c ****             overlap_width = x;
1604:./Source/CS229Image.c ****             over_left = TRUE;
1605:./Source/CS229Image.c ****         }
1606:./Source/CS229Image.c ****     }
1607:./Source/CS229Image.c **** 
1608:./Source/CS229Image.c ****     /* Check if picture two is taller than picutre one */
1609:./Source/CS229Image.c ****     if(pic1->height.value < pic2->height.value)
 1784              		.loc 1 1609 0
 1785 0db7 39CE     		cmpl	%ecx, %esi
1595:./Source/CS229Image.c ****                 overlap_width = pic1->width.value + pic2->width.value - x;
 1786              		.loc 1 1595 0
 1787 0db9 89559C   		movl	%edx, -100(%ebp)
 1788              	LVL233:
 1789              		.loc 1 1609 0
GAS LISTING /cygdrive/c/Users/THESCI~1/AppData/Local/Temp/ccH1olGy.s 			page 69


 1790 0dbc 0F82AC01 		jb	L234
 1790      0000
 1791              		.p2align 4,,7
 1792              	L178:
1610:./Source/CS229Image.c ****         pic = 0;
1611:./Source/CS229Image.c ****     else
1612:./Source/CS229Image.c ****         pic = 1;
1613:./Source/CS229Image.c **** 
1614:./Source/CS229Image.c ****     /* Determine our overlap height */
1615:./Source/CS229Image.c ****     if(pic)
1616:./Source/CS229Image.c ****     {
1617:./Source/CS229Image.c ****         if(y > pic2->height.value)
 1793              		.loc 1 1617 0
 1794 0dc2 3B4D14   		cmpl	20(%ebp), %ecx
 1795 0dc5 0F834704 		jae	L235
 1795      0000
 1796              	LVL234:
1618:./Source/CS229Image.c ****         {
1619:./Source/CS229Image.c ****             if(y > pic1->height.value)
 1797              		.loc 1 1619 0
 1798 0dcb 3B7514   		cmpl	20(%ebp), %esi
1620:./Source/CS229Image.c ****                 overlap_height = pic2->height.value + pic1->height.value - y;
1621:./Source/CS229Image.c ****             else
1622:./Source/CS229Image.c ****                 overlap_height = pic2->height.value;
 1799              		.loc 1 1622 0
 1800 0dce 894DA0   		movl	%ecx, -96(%ebp)
 1801              	LVL235:
 1802 0dd1 C7459800 		movl	$0, -104(%ebp)
 1802      000000
 1803              	LVL236:
1619:./Source/CS229Image.c ****             if(y > pic1->height.value)
 1804              		.loc 1 1619 0
 1805 0dd8 0F824604 		jb	L236
 1805      0000
 1806 0dde 6690     		.p2align 4,,7
 1807              	L182:
1623:./Source/CS229Image.c **** 
1624:./Source/CS229Image.c ****             over_top = FALSE;
1625:./Source/CS229Image.c ****         }
1626:./Source/CS229Image.c ****         else
1627:./Source/CS229Image.c ****         {
1628:./Source/CS229Image.c ****             overlap_height = y;
1629:./Source/CS229Image.c ****             over_top = TRUE;
1630:./Source/CS229Image.c ****         }
1631:./Source/CS229Image.c ****     }
1632:./Source/CS229Image.c ****     else
1633:./Source/CS229Image.c ****     {
1634:./Source/CS229Image.c ****         if(y > pic1->height.value)
1635:./Source/CS229Image.c ****         {
1636:./Source/CS229Image.c ****             if(y > pic2->height.value)
1637:./Source/CS229Image.c ****                 overlap_height = pic1->height.value + pic2->height.value - y;
1638:./Source/CS229Image.c ****             else
1639:./Source/CS229Image.c ****                 overlap_height = pic1->height.value;
1640:./Source/CS229Image.c **** 
1641:./Source/CS229Image.c ****             over_top = FALSE;
1642:./Source/CS229Image.c ****         }
1643:./Source/CS229Image.c ****         else
GAS LISTING /cygdrive/c/Users/THESCI~1/AppData/Local/Temp/ccH1olGy.s 			page 70


1644:./Source/CS229Image.c ****         {
1645:./Source/CS229Image.c ****             overlap_height = y;
1646:./Source/CS229Image.c ****             over_top = TRUE;
1647:./Source/CS229Image.c ****         }
1648:./Source/CS229Image.c ****     }
1649:./Source/CS229Image.c **** 
1650:./Source/CS229Image.c ****     /* Check if we are in range */
1651:./Source/CS229Image.c ****     if(overlap_width <= 0 || overlap_height <= 0)
 1808              		.loc 1 1651 0
 1809 0de0 8B459C   		movl	-100(%ebp), %eax
 1810 0de3 85C0     		testl	%eax, %eax
 1811 0de5 0F8EB501 		jle	L232
 1811      0000
 1812              	L240:
 1813 0deb 8B45A0   		movl	-96(%ebp), %eax
 1814 0dee 85C0     		testl	%eax, %eax
 1815 0df0 0F8EAA01 		jle	L232
 1815      0000
1652:./Source/CS229Image.c ****         return -1.0f;
1653:./Source/CS229Image.c **** 
1654:./Source/CS229Image.c ****     /* Determine how big our overlap is */
1655:./Source/CS229Image.c ****     overlap = overlap_height * overlap_width;
 1816              		.loc 1 1655 0
 1817 0df6 8B45A0   		movl	-96(%ebp), %eax
 1818 0df9 0FAF459C 		imull	-100(%ebp), %eax
 1819 0dfd 8945A4   		movl	%eax, -92(%ebp)
 1820              	LVL237:
1656:./Source/CS229Image.c **** 
1657:./Source/CS229Image.c ****     /* Save some data if we don't have null pointers */
1658:./Source/CS229Image.c ****     if(o_w && o_h)
 1821              		.loc 1 1658 0
 1822 0e00 8B4518   		movl	24(%ebp), %eax
 1823 0e03 85C0     		testl	%eax, %eax
 1824 0e05 7417     		je	L187
 1825              	LVL238:
 1826 0e07 8B451C   		movl	28(%ebp), %eax
 1827 0e0a 85C0     		testl	%eax, %eax
 1828 0e0c 7410     		je	L187
 1829              	LVL239:
1659:./Source/CS229Image.c ****     {
1660:./Source/CS229Image.c ****         *o_w = overlap_width;
 1830              		.loc 1 1660 0
 1831 0e0e 8B459C   		movl	-100(%ebp), %eax
 1832 0e11 8B5518   		movl	24(%ebp), %edx
 1833 0e14 8902     		movl	%eax, (%edx)
1661:./Source/CS229Image.c ****         *o_h = overlap_height;
 1834              		.loc 1 1661 0
 1835 0e16 8B55A0   		movl	-96(%ebp), %edx
 1836 0e19 8B451C   		movl	28(%ebp), %eax
 1837 0e1c 8910     		movl	%edx, (%eax)
 1838              	LVL240:
 1839              	L187:
1662:./Source/CS229Image.c ****     }
1663:./Source/CS229Image.c **** 
1664:./Source/CS229Image.c ****     /* Check if we are overlapping at least ten percent of the smaller image */
1665:./Source/CS229Image.c ****     if(((float)overlap)/((float)size) < 0.1f)
 1840              		.loc 1 1665 0
GAS LISTING /cygdrive/c/Users/THESCI~1/AppData/Local/Temp/ccH1olGy.s 			page 71


 1841 0e1e 8B45A4   		movl	-92(%ebp), %eax
 1842 0e21 31D2     		xorl	%edx, %edx
 1843              	LVL241:
 1844 0e23 52       		pushl	%edx
 1845 0e24 89F2     		movl	%esi, %edx
 1846              	LVL242:
 1847 0e26 0FAFD7   		imull	%edi, %edx
 1848 0e29 50       		pushl	%eax
 1849 0e2a 89C8     		movl	%ecx, %eax
 1850 0e2c 0FAFC3   		imull	%ebx, %eax
 1851 0e2f DF2C24   		fildq	(%esp)
 1852 0e32 83C408   		addl	$8, %esp
 1853 0e35 39D0     		cmpl	%edx, %eax
 1854 0e37 0F42C2   		cmovb	%edx, %eax
 1855 0e3a 31D2     		xorl	%edx, %edx
 1856 0e3c 52       		pushl	%edx
 1857 0e3d 50       		pushl	%eax
 1858 0e3e DF2C24   		fildq	(%esp)
 1859 0e41 83C408   		addl	$8, %esp
 1860 0e44 DEF9     		fdivrp	%st, %st(1)
 1861 0e46 D9052800 		flds	LC4
 1861      0000
 1862 0e4c DFE9     		fucomip	%st(1), %st
 1863 0e4e DDD8     		fstp	%st(0)
 1864 0e50 0F874A01 		ja	L232
 1864      0000
1666:./Source/CS229Image.c ****         return -1.0f;
1667:./Source/CS229Image.c **** 
1668:./Source/CS229Image.c ****     /* Initialize error */
1669:./Source/CS229Image.c ****     error = 0.0;
1670:./Source/CS229Image.c **** 
1671:./Source/CS229Image.c ****     /* Get the error at each overlap position */
1672:./Source/CS229Image.c ****     for(xi = (over_left ? 0 : x - 1);xi < (over_left ? overlap_width : x + overlap_width);xi++)
 1865              		.loc 1 1672 0
 1866 0e56 8B4510   		movl	16(%ebp), %eax
 1867 0e59 31FF     		xorl	%edi, %edi
 1868              	LVL243:
 1869 0e5b 8B7594   		movl	-108(%ebp), %esi
 1870 0e5e D9EE     		fldz
 1871 0e60 DB7DA8   		fstpt	-88(%ebp)
 1872              	LVL244:
 1873 0e63 83E801   		subl	$1, %eax
 1874 0e66 85F6     		testl	%esi, %esi
 1875 0e68 0F44F8   		cmove	%eax, %edi
 1876 0e6b 89F8     		movl	%edi, %eax
 1877 0e6d 2B4510   		subl	16(%ebp), %eax
 1878 0e70 83C001   		addl	$1, %eax
 1879 0e73 8945C0   		movl	%eax, -64(%ebp)
 1880              	LVL245:
 1881              		.p2align 4,,7
 1882              	L192:
 1883 0e76 8B5594   		movl	-108(%ebp), %edx
 1884 0e79 8B459C   		movl	-100(%ebp), %eax
 1885 0e7c 034510   		addl	16(%ebp), %eax
 1886 0e7f 85D2     		testl	%edx, %edx
 1887 0e81 0F45459C 		cmovne	-100(%ebp), %eax
 1888 0e85 39F8     		cmpl	%edi, %eax
GAS LISTING /cygdrive/c/Users/THESCI~1/AppData/Local/Temp/ccH1olGy.s 			page 72


 1889 0e87 0F865303 		jbe	L237
 1889      0000
1673:./Source/CS229Image.c ****         for(yi = (over_top ? 0 : y - 1);yi < (over_top ? overlap_height : y + overlap_height);yi++)
 1890              		.loc 1 1673 0
 1891 0e8d 8B5D98   		movl	-104(%ebp), %ebx
 1892              	LVL246:
 1893 0e90 85DB     		testl	%ebx, %ebx
 1894 0e92 0F855801 		jne	L193
 1894      0000
 1895 0e98 8B5D14   		movl	20(%ebp), %ebx
 1896              	LVL247:
 1897 0e9b 8B4D94   		movl	-108(%ebp), %ecx
 1898 0e9e 83EB01   		subl	$1, %ebx
 1899 0ea1 85C9     		testl	%ecx, %ecx
 1900 0ea3 0F857F02 		jne	L194
 1900      0000
 1901 0ea9 89D8     		movl	%ebx, %eax
 1902 0eab 8B55A0   		movl	-96(%ebp), %edx
 1903 0eae 2B4514   		subl	20(%ebp), %eax
 1904 0eb1 8D7001   		leal	1(%eax), %esi
 1905 0eb4 8B4514   		movl	20(%ebp), %eax
 1906 0eb7 8D0402   		leal	(%edx,%eax), %eax
 1907 0eba 894590   		movl	%eax, -112(%ebp)
 1908 0ebd EB22     		jmp	L202
 1909 0ebf 90       		.p2align 4,,7
 1910              	L238:
 1911              	LBB26:
1674:./Source/CS229Image.c ****         {
1675:./Source/CS229Image.c ****             /* Create some local variables */
1676:./Source/CS229Image.c ****             uint32_t color1[3];
1677:./Source/CS229Image.c ****             uint32_t color2[3];
1678:./Source/CS229Image.c ****             uint32_t x_pos1;
1679:./Source/CS229Image.c ****             uint32_t y_pos1;
1680:./Source/CS229Image.c ****             uint32_t x_pos2;
1681:./Source/CS229Image.c ****             uint32_t y_pos2;
1682:./Source/CS229Image.c **** 
1683:./Source/CS229Image.c ****             /* Determine the (x,y) value of the first picture */
1684:./Source/CS229Image.c ****             x_pos1 = over_left ? pic1->width.value - xi : xi - x + 1;
1685:./Source/CS229Image.c ****             y_pos1 = over_top ? pic1->height.value - yi : yi - y + 1;
1686:./Source/CS229Image.c **** 
1687:./Source/CS229Image.c ****             /* Determine the (x,y) value of the second picture */
1688:./Source/CS229Image.c ****             x_pos2 = xi;
1689:./Source/CS229Image.c ****             y_pos2 = yi;
1690:./Source/CS229Image.c **** 
1691:./Source/CS229Image.c ****             /* Get the color of the current pixels */
1692:./Source/CS229Image.c ****             get_pixel(pic1,x_pos1 + y_pos1 * pic1->width.value,color1);
1693:./Source/CS229Image.c ****             get_pixel(pic2,x_pos2 + y_pos2 * pic2->width.value,color2);
1694:./Source/CS229Image.c **** 
1695:./Source/CS229Image.c ****             /* Compute the additional error */
1696:./Source/CS229Image.c ****             if(pic1->color_mode == MODE_BLACKWHITE)
1697:./Source/CS229Image.c ****                 error += (color1[0] - color2[0]) * (color1[0] - color2[0]);
 1912              		.loc 1 1697 0
 1913 0ec0 8B45DC   		movl	-36(%ebp), %eax
 1914 0ec3 2B45D0   		subl	-48(%ebp), %eax
 1915 0ec6 0FAFC0   		imull	%eax, %eax
 1916              	L229:
1698:./Source/CS229Image.c ****             else
GAS LISTING /cygdrive/c/Users/THESCI~1/AppData/Local/Temp/ccH1olGy.s 			page 73


1699:./Source/CS229Image.c ****                 error += (color1[0] - color2[0]) * (color1[0] - color2[0]) +
 1917              		.loc 1 1699 0
 1918 0ec9 31D2     		xorl	%edx, %edx
 1919              	LBE26:
1673:./Source/CS229Image.c ****         for(yi = (over_top ? 0 : y - 1);yi < (over_top ? overlap_height : y + overlap_height);yi++)
 1920              		.loc 1 1673 0
 1921 0ecb 83C301   		addl	$1, %ebx
 1922              	LBB27:
 1923              		.loc 1 1699 0
 1924 0ece 52       		pushl	%edx
 1925              	LBE27:
1673:./Source/CS229Image.c ****         for(yi = (over_top ? 0 : y - 1);yi < (over_top ? overlap_height : y + overlap_height);yi++)
 1926              		.loc 1 1673 0
 1927 0ecf 83C601   		addl	$1, %esi
 1928              	LBB28:
 1929              		.loc 1 1699 0
 1930 0ed2 50       		pushl	%eax
 1931 0ed3 DF2C24   		fildq	(%esp)
 1932 0ed6 83C408   		addl	$8, %esp
 1933 0ed9 DB6DA8   		fldt	-88(%ebp)
 1934 0edc DEC1     		faddp	%st, %st(1)
 1935 0ede DB7DA8   		fstpt	-88(%ebp)
 1936              	LVL248:
 1937              	L202:
 1938              	LBE28:
1673:./Source/CS229Image.c ****         for(yi = (over_top ? 0 : y - 1);yi < (over_top ? overlap_height : y + overlap_height);yi++)
 1939              		.loc 1 1673 0
 1940 0ee1 3B5D90   		cmpl	-112(%ebp), %ebx
 1941 0ee4 0F83F600 		jae	L196
 1941      0000
 1942              	LBB29:
1692:./Source/CS229Image.c ****             get_pixel(pic1,x_pos1 + y_pos1 * pic1->width.value,color1);
 1943              		.loc 1 1692 0
 1944 0eea 8D55DC   		leal	-36(%ebp), %edx
 1945 0eed 89F0     		movl	%esi, %eax
 1946 0eef 89542408 		movl	%edx, 8(%esp)
 1947 0ef3 8B5508   		movl	8(%ebp), %edx
 1948 0ef6 0FAF420C 		imull	12(%edx), %eax
 1949 0efa 0345C0   		addl	-64(%ebp), %eax
 1950 0efd 891424   		movl	%edx, (%esp)
 1951 0f00 89442404 		movl	%eax, 4(%esp)
 1952 0f04 E8B7F8FF 		call	_get_pixel
 1952      FF
1693:./Source/CS229Image.c ****             get_pixel(pic2,x_pos2 + y_pos2 * pic2->width.value,color2);
 1953              		.loc 1 1693 0
 1954 0f09 8D45D0   		leal	-48(%ebp), %eax
 1955 0f0c 89442408 		movl	%eax, 8(%esp)
 1956 0f10 8B550C   		movl	12(%ebp), %edx
 1957 0f13 89D8     		movl	%ebx, %eax
 1958 0f15 0FAF420C 		imull	12(%edx), %eax
 1959 0f19 891424   		movl	%edx, (%esp)
 1960 0f1c 01F8     		addl	%edi, %eax
 1961 0f1e 89442404 		movl	%eax, 4(%esp)
 1962 0f22 E899F8FF 		call	_get_pixel
 1962      FF
1696:./Source/CS229Image.c ****             if(pic1->color_mode == MODE_BLACKWHITE)
 1963              		.loc 1 1696 0
GAS LISTING /cygdrive/c/Users/THESCI~1/AppData/Local/Temp/ccH1olGy.s 			page 74


 1964 0f27 8B4508   		movl	8(%ebp), %eax
 1965 0f2a 80780100 		cmpb	$0, 1(%eax)
 1966 0f2e 7490     		je	L238
 1967              		.loc 1 1699 0
 1968 0f30 8B4DDC   		movl	-36(%ebp), %ecx
 1969 0f33 8B45E0   		movl	-32(%ebp), %eax
 1970 0f36 2B4DD0   		subl	-48(%ebp), %ecx
 1971 0f39 2B45D4   		subl	-44(%ebp), %eax
 1972 0f3c 8B55E4   		movl	-28(%ebp), %edx
 1973 0f3f 2B55D8   		subl	-40(%ebp), %edx
 1974 0f42 0FAFC0   		imull	%eax, %eax
 1975 0f45 0FAFC9   		imull	%ecx, %ecx
 1976 0f48 0FAFD2   		imull	%edx, %edx
 1977 0f4b 01C8     		addl	%ecx, %eax
 1978 0f4d 01D0     		addl	%edx, %eax
 1979 0f4f E975FFFF 		jmp	L229
 1979      FF
 1980              	LVL249:
 1981              		.p2align 4,,7
 1982              	L172:
 1983              	LBE29:
1575:./Source/CS229Image.c ****         if(x > pic2->width.value)
 1984              		.loc 1 1575 0
 1985 0f54 3B5D10   		cmpl	16(%ebp), %ebx
 1986 0f57 7257     		jb	L212
 1987              	LVL250:
1586:./Source/CS229Image.c ****             overlap_width = x;
 1988              		.loc 1 1586 0
 1989 0f59 8B4510   		movl	16(%ebp), %eax
 1990 0f5c C7459401 		movl	$1, -108(%ebp)
 1990      000000
 1991              	LVL251:
 1992 0f63 89459C   		movl	%eax, -100(%ebp)
 1993              	LVL252:
 1994              	L176:
1609:./Source/CS229Image.c ****     if(pic1->height.value < pic2->height.value)
 1995              		.loc 1 1609 0
 1996 0f66 39CE     		cmpl	%ecx, %esi
 1997 0f68 0F8354FE 		jae	L178
 1997      FFFF
 1998              	L234:
1634:./Source/CS229Image.c ****         if(y > pic1->height.value)
 1999              		.loc 1 1634 0
 2000 0f6e 3B7514   		cmpl	20(%ebp), %esi
 2001 0f71 0F838902 		jae	L239
 2001      0000
 2002              	LVL253:
1636:./Source/CS229Image.c ****             if(y > pic2->height.value)
 2003              		.loc 1 1636 0
 2004 0f77 3B4D14   		cmpl	20(%ebp), %ecx
1639:./Source/CS229Image.c ****                 overlap_height = pic1->height.value;
 2005              		.loc 1 1639 0
 2006 0f7a 8975A0   		movl	%esi, -96(%ebp)
 2007              	LVL254:
 2008 0f7d C7459800 		movl	$0, -104(%ebp)
 2008      000000
 2009              	LVL255:
GAS LISTING /cygdrive/c/Users/THESCI~1/AppData/Local/Temp/ccH1olGy.s 			page 75


1636:./Source/CS229Image.c ****             if(y > pic2->height.value)
 2010              		.loc 1 1636 0
 2011 0f84 0F8356FE 		jae	L182
 2011      FFFF
1637:./Source/CS229Image.c ****                 overlap_height = pic1->height.value + pic2->height.value - y;
 2012              		.loc 1 1637 0
 2013 0f8a 8B4514   		movl	20(%ebp), %eax
 2014 0f8d 8D1431   		leal	(%ecx,%esi), %edx
 2015 0f90 29C2     		subl	%eax, %edx
1651:./Source/CS229Image.c ****     if(overlap_width <= 0 || overlap_height <= 0)
 2016              		.loc 1 1651 0
 2017 0f92 8B459C   		movl	-100(%ebp), %eax
1637:./Source/CS229Image.c ****                 overlap_height = pic1->height.value + pic2->height.value - y;
 2018              		.loc 1 1637 0
 2019 0f95 8955A0   		movl	%edx, -96(%ebp)
 2020              	LVL256:
1651:./Source/CS229Image.c ****     if(overlap_width <= 0 || overlap_height <= 0)
 2021              		.loc 1 1651 0
 2022 0f98 85C0     		testl	%eax, %eax
 2023 0f9a 0F8F4BFE 		jg	L240
 2023      FFFF
 2024              	LVL257:
 2025              		.p2align 4,,7
 2026              	L232:
1665:./Source/CS229Image.c ****     if(((float)overlap)/((float)size) < 0.1f)
 2027              		.loc 1 1665 0
 2028 0fa0 D9E8     		fld1
1700:./Source/CS229Image.c ****                          (color1[1] - color2[1]) * (color1[1] - color2[1]) +
1701:./Source/CS229Image.c ****                          (color1[2] - color2[2]) * (color1[2] - color2[2]);
1702:./Source/CS229Image.c ****         }
1703:./Source/CS229Image.c ****     
1704:./Source/CS229Image.c ****     /* Return the average error of each pixel */
1705:./Source/CS229Image.c ****     return (float)(error / ((long double)overlap));
1706:./Source/CS229Image.c **** }
 2029              		.loc 1 1706 0
 2030 0fa2 83C478   		addl	$120, %esp
1665:./Source/CS229Image.c ****     if(((float)overlap)/((float)size) < 0.1f)
 2031              		.loc 1 1665 0
 2032 0fa5 D9E0     		fchs
 2033              		.loc 1 1706 0
 2034 0fa7 5B       		popl	%ebx
 2035 0fa8 5E       		popl	%esi
 2036 0fa9 5F       		popl	%edi
 2037 0faa 5D       		popl	%ebp
 2038 0fab C3       		ret
 2039              	LVL258:
 2040 0fac 8D742600 		.p2align 4,,7
 2041              	L212:
1577:./Source/CS229Image.c ****             if(x > pic1->width.value)
 2042              		.loc 1 1577 0
 2043 0fb0 3B7D10   		cmpl	16(%ebp), %edi
1580:./Source/CS229Image.c ****                 overlap_width = pic2->width.value;
 2044              		.loc 1 1580 0
 2045 0fb3 895D9C   		movl	%ebx, -100(%ebp)
 2046              	LVL259:
 2047 0fb6 C7459400 		movl	$0, -108(%ebp)
 2047      000000
GAS LISTING /cygdrive/c/Users/THESCI~1/AppData/Local/Temp/ccH1olGy.s 			page 76


 2048              	LVL260:
1577:./Source/CS229Image.c ****             if(x > pic1->width.value)
 2049              		.loc 1 1577 0
 2050 0fbd 73A7     		jae	L176
1578:./Source/CS229Image.c ****                 overlap_width = pic2->width.value + pic1->width.value - x;
 2051              		.loc 1 1578 0
 2052 0fbf 8B5510   		movl	16(%ebp), %edx
 2053 0fc2 8D043B   		leal	(%ebx,%edi), %eax
 2054 0fc5 29D0     		subl	%edx, %eax
 2055 0fc7 89459C   		movl	%eax, -100(%ebp)
 2056              	LVL261:
 2057 0fca EB9A     		jmp	L176
 2058              	LVL262:
 2059 0fcc 8D742600 		.p2align 4,,7
 2060              	L233:
1603:./Source/CS229Image.c ****             overlap_width = x;
 2061              		.loc 1 1603 0
 2062 0fd0 8B5510   		movl	16(%ebp), %edx
 2063 0fd3 C7459401 		movl	$1, -108(%ebp)
 2063      000000
 2064              	LVL263:
 2065 0fda 89559C   		movl	%edx, -100(%ebp)
 2066              	LVL264:
 2067 0fdd EB87     		jmp	L176
 2068              	LVL265:
 2069 0fdf 90       		.p2align 4,,7
 2070              	L196:
1672:./Source/CS229Image.c ****     for(xi = (over_left ? 0 : x - 1);xi < (over_left ? overlap_width : x + overlap_width);xi++)
 2071              		.loc 1 1672 0
 2072 0fe0 83C701   		addl	$1, %edi
 2073 0fe3 8345C001 		addl	$1, -64(%ebp)
 2074 0fe7 E98AFEFF 		jmp	L192
 2074      FF
 2075              	LVL266:
 2076 0fec 8D742600 		.p2align 4,,7
 2077              	L193:
 2078 0ff0 8B4594   		movl	-108(%ebp), %eax
 2079 0ff3 31DB     		xorl	%ebx, %ebx
 2080              	LVL267:
 2081              	LBB30:
1693:./Source/CS229Image.c ****             get_pixel(pic2,x_pos2 + y_pos2 * pic2->width.value,color2);
 2082              		.loc 1 1693 0
 2083 0ff5 8D75D0   		leal	-48(%ebp), %esi
 2084              	LBE30:
 2085 0ff8 85C0     		testl	%eax, %eax
 2086 0ffa 7439     		je	L225
 2087 0ffc E9AD0000 		jmp	L217
 2087      00
 2088              		.p2align 4,,7
 2089              	L241:
 2090              	LBB31:
1699:./Source/CS229Image.c ****                 error += (color1[0] - color2[0]) * (color1[0] - color2[0]) +
 2091              		.loc 1 1699 0
 2092 1001 8B4DDC   		movl	-36(%ebp), %ecx
 2093 1004 8B45E0   		movl	-32(%ebp), %eax
 2094 1007 2B4DD0   		subl	-48(%ebp), %ecx
 2095 100a 2B45D4   		subl	-44(%ebp), %eax
GAS LISTING /cygdrive/c/Users/THESCI~1/AppData/Local/Temp/ccH1olGy.s 			page 77


 2096 100d 8B55E4   		movl	-28(%ebp), %edx
 2097 1010 2B55D8   		subl	-40(%ebp), %edx
 2098 1013 0FAFC0   		imull	%eax, %eax
 2099 1016 0FAFC9   		imull	%ecx, %ecx
 2100 1019 0FAFD2   		imull	%edx, %edx
 2101 101c 01C8     		addl	%ecx, %eax
 2102 101e 01D0     		addl	%edx, %eax
 2103              	L228:
1697:./Source/CS229Image.c ****                 error += (color1[0] - color2[0]) * (color1[0] - color2[0]);
 2104              		.loc 1 1697 0
 2105 1020 31D2     		xorl	%edx, %edx
 2106              	LBE31:
1673:./Source/CS229Image.c ****         for(yi = (over_top ? 0 : y - 1);yi < (over_top ? overlap_height : y + overlap_height);yi++)
 2107              		.loc 1 1673 0
 2108 1022 83C301   		addl	$1, %ebx
 2109              	LBB32:
1697:./Source/CS229Image.c ****                 error += (color1[0] - color2[0]) * (color1[0] - color2[0]);
 2110              		.loc 1 1697 0
 2111 1025 52       		pushl	%edx
 2112 1026 50       		pushl	%eax
 2113 1027 DF2C24   		fildq	(%esp)
 2114 102a 83C408   		addl	$8, %esp
 2115 102d DB6DA8   		fldt	-88(%ebp)
 2116 1030 DEC1     		faddp	%st, %st(1)
 2117 1032 DB7DA8   		fstpt	-88(%ebp)
 2118              	LVL268:
 2119              	L225:
 2120              	LBE32:
1673:./Source/CS229Image.c ****         for(yi = (over_top ? 0 : y - 1);yi < (over_top ? overlap_height : y + overlap_height);yi++)
 2121              		.loc 1 1673 0
 2122 1035 3B5DA0   		cmpl	-96(%ebp), %ebx
 2123 1038 73A6     		jae	L196
 2124              	LBB33:
1692:./Source/CS229Image.c ****             get_pixel(pic1,x_pos1 + y_pos1 * pic1->width.value,color1);
 2125              		.loc 1 1692 0
 2126 103a 8D45DC   		leal	-36(%ebp), %eax
 2127 103d 89442408 		movl	%eax, 8(%esp)
 2128 1041 8B5508   		movl	8(%ebp), %edx
 2129 1044 8B4208   		movl	8(%edx), %eax
 2130 1047 29D8     		subl	%ebx, %eax
 2131 1049 0FAF420C 		imull	12(%edx), %eax
 2132 104d 0345C0   		addl	-64(%ebp), %eax
 2133 1050 891424   		movl	%edx, (%esp)
 2134 1053 89442404 		movl	%eax, 4(%esp)
 2135 1057 E864F7FF 		call	_get_pixel
 2135      FF
1693:./Source/CS229Image.c ****             get_pixel(pic2,x_pos2 + y_pos2 * pic2->width.value,color2);
 2136              		.loc 1 1693 0
 2137 105c 89D8     		movl	%ebx, %eax
 2138 105e 89742408 		movl	%esi, 8(%esp)
 2139 1062 8B550C   		movl	12(%ebp), %edx
 2140 1065 0FAF420C 		imull	12(%edx), %eax
 2141 1069 891424   		movl	%edx, (%esp)
 2142 106c 01F8     		addl	%edi, %eax
 2143 106e 89442404 		movl	%eax, 4(%esp)
 2144 1072 E849F7FF 		call	_get_pixel
 2144      FF
GAS LISTING /cygdrive/c/Users/THESCI~1/AppData/Local/Temp/ccH1olGy.s 			page 78


1696:./Source/CS229Image.c ****             if(pic1->color_mode == MODE_BLACKWHITE)
 2145              		.loc 1 1696 0
 2146 1077 8B4508   		movl	8(%ebp), %eax
 2147 107a 80780100 		cmpb	$0, 1(%eax)
 2148 107e 7581     		jne	L241
1697:./Source/CS229Image.c ****                 error += (color1[0] - color2[0]) * (color1[0] - color2[0]);
 2149              		.loc 1 1697 0
 2150 1080 8B45DC   		movl	-36(%ebp), %eax
 2151 1083 2B45D0   		subl	-48(%ebp), %eax
 2152 1086 0FAFC0   		imull	%eax, %eax
 2153 1089 EB95     		jmp	L228
 2154 108b 908D7426 		.p2align 4,,7
 2154      00
 2155              	L242:
 2156 1090 8B45DC   		movl	-36(%ebp), %eax
 2157 1093 2B45D0   		subl	-48(%ebp), %eax
 2158 1096 0FAFC0   		imull	%eax, %eax
 2159              	L231:
1699:./Source/CS229Image.c ****                 error += (color1[0] - color2[0]) * (color1[0] - color2[0]) +
 2160              		.loc 1 1699 0
 2161 1099 31D2     		xorl	%edx, %edx
 2162              	LBE33:
1673:./Source/CS229Image.c ****         for(yi = (over_top ? 0 : y - 1);yi < (over_top ? overlap_height : y + overlap_height);yi++)
 2163              		.loc 1 1673 0
 2164 109b 83C301   		addl	$1, %ebx
 2165              	LVL269:
 2166              	LBB34:
1699:./Source/CS229Image.c ****                 error += (color1[0] - color2[0]) * (color1[0] - color2[0]) +
 2167              		.loc 1 1699 0
 2168 109e 52       		pushl	%edx
 2169 109f 50       		pushl	%eax
 2170 10a0 DF2C24   		fildq	(%esp)
 2171 10a3 83C408   		addl	$8, %esp
 2172 10a6 DB6DA8   		fldt	-88(%ebp)
 2173 10a9 DEC1     		faddp	%st, %st(1)
 2174 10ab DB7DA8   		fstpt	-88(%ebp)
 2175              	LVL270:
 2176              	L217:
 2177              	LBE34:
1673:./Source/CS229Image.c ****         for(yi = (over_top ? 0 : y - 1);yi < (over_top ? overlap_height : y + overlap_height);yi++)
 2178              		.loc 1 1673 0
 2179 10ae 3B5DA0   		cmpl	-96(%ebp), %ebx
 2180 10b1 0F8329FF 		jae	L196
 2180      FFFF
 2181              	LBB35:
1684:./Source/CS229Image.c ****             x_pos1 = over_left ? pic1->width.value - xi : xi - x + 1;
 2182              		.loc 1 1684 0
 2183 10b7 8B4508   		movl	8(%ebp), %eax
1692:./Source/CS229Image.c ****             get_pixel(pic1,x_pos1 + y_pos1 * pic1->width.value,color1);
 2184              		.loc 1 1692 0
 2185 10ba 8D55DC   		leal	-36(%ebp), %edx
1684:./Source/CS229Image.c ****             x_pos1 = over_left ? pic1->width.value - xi : xi - x + 1;
 2186              		.loc 1 1684 0
 2187 10bd 8B480C   		movl	12(%eax), %ecx
1692:./Source/CS229Image.c ****             get_pixel(pic1,x_pos1 + y_pos1 * pic1->width.value,color1);
 2188              		.loc 1 1692 0
 2189 10c0 89C6     		movl	%eax, %esi
GAS LISTING /cygdrive/c/Users/THESCI~1/AppData/Local/Temp/ccH1olGy.s 			page 79


 2190 10c2 89542408 		movl	%edx, 8(%esp)
 2191 10c6 8B4008   		movl	8(%eax), %eax
 2192 10c9 893424   		movl	%esi, (%esp)
 2193 10cc 89CA     		movl	%ecx, %edx
 2194 10ce 29D8     		subl	%ebx, %eax
 2195 10d0 29FA     		subl	%edi, %edx
 2196 10d2 0FAFC1   		imull	%ecx, %eax
 2197 10d5 01C2     		addl	%eax, %edx
 2198 10d7 89542404 		movl	%edx, 4(%esp)
 2199 10db E8E0F6FF 		call	_get_pixel
 2199      FF
1693:./Source/CS229Image.c ****             get_pixel(pic2,x_pos2 + y_pos2 * pic2->width.value,color2);
 2200              		.loc 1 1693 0
 2201 10e0 8D45D0   		leal	-48(%ebp), %eax
 2202 10e3 89442408 		movl	%eax, 8(%esp)
 2203 10e7 8B550C   		movl	12(%ebp), %edx
 2204 10ea 89D8     		movl	%ebx, %eax
 2205 10ec 0FAF420C 		imull	12(%edx), %eax
 2206 10f0 891424   		movl	%edx, (%esp)
 2207 10f3 01F8     		addl	%edi, %eax
 2208 10f5 89442404 		movl	%eax, 4(%esp)
 2209 10f9 E8C2F6FF 		call	_get_pixel
 2209      FF
1696:./Source/CS229Image.c ****             if(pic1->color_mode == MODE_BLACKWHITE)
 2210              		.loc 1 1696 0
 2211 10fe 807E0100 		cmpb	$0, 1(%esi)
 2212 1102 748C     		je	L242
1699:./Source/CS229Image.c ****                 error += (color1[0] - color2[0]) * (color1[0] - color2[0]) +
 2213              		.loc 1 1699 0
 2214 1104 8B4DDC   		movl	-36(%ebp), %ecx
 2215 1107 8B45E0   		movl	-32(%ebp), %eax
 2216 110a 2B4DD0   		subl	-48(%ebp), %ecx
 2217 110d 2B45D4   		subl	-44(%ebp), %eax
 2218 1110 8B55E4   		movl	-28(%ebp), %edx
 2219 1113 2B55D8   		subl	-40(%ebp), %edx
 2220 1116 0FAFC0   		imull	%eax, %eax
 2221 1119 0FAFC9   		imull	%ecx, %ecx
 2222 111c 0FAFD2   		imull	%edx, %edx
 2223 111f 01C8     		addl	%ecx, %eax
 2224 1121 01D0     		addl	%edx, %eax
 2225 1123 E971FFFF 		jmp	L231
 2225      FF
 2226              		.p2align 4,,7
 2227              	L194:
 2228              	LBE35:
1673:./Source/CS229Image.c ****         for(yi = (over_top ? 0 : y - 1);yi < (over_top ? overlap_height : y + overlap_height);yi++)
 2229              		.loc 1 1673 0
 2230 1128 89D8     		movl	%ebx, %eax
 2231 112a 8B55A0   		movl	-96(%ebp), %edx
 2232 112d 2B4514   		subl	20(%ebp), %eax
 2233 1130 8D7001   		leal	1(%eax), %esi
 2234 1133 8B4514   		movl	20(%ebp), %eax
 2235 1136 8D0402   		leal	(%edx,%eax), %eax
 2236 1139 894590   		movl	%eax, -112(%ebp)
 2237 113c EB39     		jmp	L205
 2238 113e 6690     		.p2align 4,,7
 2239              	L243:
GAS LISTING /cygdrive/c/Users/THESCI~1/AppData/Local/Temp/ccH1olGy.s 			page 80


 2240              	LBB36:
1699:./Source/CS229Image.c ****                 error += (color1[0] - color2[0]) * (color1[0] - color2[0]) +
 2241              		.loc 1 1699 0
 2242 1140 8B45DC   		movl	-36(%ebp), %eax
 2243 1143 8B55E0   		movl	-32(%ebp), %edx
 2244 1146 2B45D0   		subl	-48(%ebp), %eax
 2245 1149 2B55D4   		subl	-44(%ebp), %edx
 2246 114c 8B4DE4   		movl	-28(%ebp), %ecx
 2247 114f 2B4DD8   		subl	-40(%ebp), %ecx
 2248 1152 0FAFC0   		imull	%eax, %eax
 2249 1155 0FAFD2   		imull	%edx, %edx
 2250 1158 0FAFC9   		imull	%ecx, %ecx
 2251 115b 01D0     		addl	%edx, %eax
 2252 115d 01C8     		addl	%ecx, %eax
 2253              	L230:
1697:./Source/CS229Image.c ****                 error += (color1[0] - color2[0]) * (color1[0] - color2[0]);
 2254              		.loc 1 1697 0
 2255 115f 31D2     		xorl	%edx, %edx
 2256              	LBE36:
1673:./Source/CS229Image.c ****         for(yi = (over_top ? 0 : y - 1);yi < (over_top ? overlap_height : y + overlap_height);yi++)
 2257              		.loc 1 1673 0
 2258 1161 83C301   		addl	$1, %ebx
 2259              	LBB37:
1697:./Source/CS229Image.c ****                 error += (color1[0] - color2[0]) * (color1[0] - color2[0]);
 2260              		.loc 1 1697 0
 2261 1164 52       		pushl	%edx
 2262              	LBE37:
1673:./Source/CS229Image.c ****         for(yi = (over_top ? 0 : y - 1);yi < (over_top ? overlap_height : y + overlap_height);yi++)
 2263              		.loc 1 1673 0
 2264 1165 83C601   		addl	$1, %esi
 2265              	LBB38:
1697:./Source/CS229Image.c ****                 error += (color1[0] - color2[0]) * (color1[0] - color2[0]);
 2266              		.loc 1 1697 0
 2267 1168 50       		pushl	%eax
 2268 1169 DF2C24   		fildq	(%esp)
 2269 116c 83C408   		addl	$8, %esp
 2270 116f DB6DA8   		fldt	-88(%ebp)
 2271 1172 DEC1     		faddp	%st, %st(1)
 2272 1174 DB7DA8   		fstpt	-88(%ebp)
 2273              	LVL271:
 2274              	L205:
 2275              	LBE38:
1673:./Source/CS229Image.c ****         for(yi = (over_top ? 0 : y - 1);yi < (over_top ? overlap_height : y + overlap_height);yi++)
 2276              		.loc 1 1673 0
 2277 1177 395D90   		cmpl	%ebx, -112(%ebp)
 2278 117a 0F8660FE 		jbe	L196
 2278      FFFF
 2279              	LBB39:
1684:./Source/CS229Image.c ****             x_pos1 = over_left ? pic1->width.value - xi : xi - x + 1;
 2280              		.loc 1 1684 0
 2281 1180 8B4508   		movl	8(%ebp), %eax
 2282 1183 8B500C   		movl	12(%eax), %edx
1692:./Source/CS229Image.c ****             get_pixel(pic1,x_pos1 + y_pos1 * pic1->width.value,color1);
 2283              		.loc 1 1692 0
 2284 1186 8D45DC   		leal	-36(%ebp), %eax
 2285 1189 89442408 		movl	%eax, 8(%esp)
 2286 118d 89D0     		movl	%edx, %eax
GAS LISTING /cygdrive/c/Users/THESCI~1/AppData/Local/Temp/ccH1olGy.s 			page 81


 2287 118f 0FAFD6   		imull	%esi, %edx
 2288 1192 29F8     		subl	%edi, %eax
 2289 1194 01D0     		addl	%edx, %eax
 2290 1196 89442404 		movl	%eax, 4(%esp)
 2291 119a 8B5508   		movl	8(%ebp), %edx
 2292 119d 891424   		movl	%edx, (%esp)
 2293 11a0 E81BF6FF 		call	_get_pixel
 2293      FF
1693:./Source/CS229Image.c ****             get_pixel(pic2,x_pos2 + y_pos2 * pic2->width.value,color2);
 2294              		.loc 1 1693 0
 2295 11a5 8D45D0   		leal	-48(%ebp), %eax
 2296 11a8 89442408 		movl	%eax, 8(%esp)
 2297 11ac 8B550C   		movl	12(%ebp), %edx
 2298 11af 89D8     		movl	%ebx, %eax
 2299 11b1 0FAF420C 		imull	12(%edx), %eax
 2300 11b5 891424   		movl	%edx, (%esp)
 2301 11b8 01F8     		addl	%edi, %eax
 2302 11ba 89442404 		movl	%eax, 4(%esp)
 2303 11be E8FDF5FF 		call	_get_pixel
 2303      FF
1696:./Source/CS229Image.c ****             if(pic1->color_mode == MODE_BLACKWHITE)
 2304              		.loc 1 1696 0
 2305 11c3 8B4508   		movl	8(%ebp), %eax
 2306 11c6 80780100 		cmpb	$0, 1(%eax)
 2307 11ca 0F8570FF 		jne	L243
 2307      FFFF
1697:./Source/CS229Image.c ****                 error += (color1[0] - color2[0]) * (color1[0] - color2[0]);
 2308              		.loc 1 1697 0
 2309 11d0 8B45DC   		movl	-36(%ebp), %eax
 2310 11d3 2B45D0   		subl	-48(%ebp), %eax
 2311 11d6 0FAFC0   		imull	%eax, %eax
 2312 11d9 EB84     		jmp	L230
 2313 11db 908D7426 		.p2align 4,,7
 2313      00
 2314              	L237:
 2315              	LBE39:
1705:./Source/CS229Image.c ****     return (float)(error / ((long double)overlap));
 2316              		.loc 1 1705 0
 2317 11e0 8B45A4   		movl	-92(%ebp), %eax
 2318 11e3 31D2     		xorl	%edx, %edx
 2319              	LVL272:
 2320 11e5 52       		pushl	%edx
 2321 11e6 50       		pushl	%eax
 2322 11e7 DF2C24   		fildq	(%esp)
 2323 11ea 83C408   		addl	$8, %esp
 2324 11ed DB6DA8   		fldt	-88(%ebp)
 2325 11f0 DEF1     		fdivp	%st, %st(1)
 2326 11f2 D95DC4   		fstps	-60(%ebp)
 2327 11f5 D945C4   		flds	-60(%ebp)
 2328              		.loc 1 1706 0
 2329 11f8 83C478   		addl	$120, %esp
 2330 11fb 5B       		popl	%ebx
 2331              	LVL273:
 2332 11fc 5E       		popl	%esi
 2333 11fd 5F       		popl	%edi
 2334              	LVL274:
 2335 11fe 5D       		popl	%ebp
GAS LISTING /cygdrive/c/Users/THESCI~1/AppData/Local/Temp/ccH1olGy.s 			page 82


 2336 11ff C3       		ret
 2337              	LVL275:
 2338              		.p2align 4,,7
 2339              	L239:
1645:./Source/CS229Image.c ****             overlap_height = y;
 2340              		.loc 1 1645 0
 2341 1200 8B5514   		movl	20(%ebp), %edx
 2342 1203 C7459801 		movl	$1, -104(%ebp)
 2342      000000
 2343              	LVL276:
 2344 120a 8955A0   		movl	%edx, -96(%ebp)
 2345              	LVL277:
 2346 120d E9CEFBFF 		jmp	L182
 2346      FF
 2347              	LVL278:
 2348              		.p2align 4,,7
 2349              	L235:
1628:./Source/CS229Image.c ****             overlap_height = y;
 2350              		.loc 1 1628 0
 2351 1212 8B4514   		movl	20(%ebp), %eax
 2352 1215 C7459801 		movl	$1, -104(%ebp)
 2352      000000
 2353              	LVL279:
 2354 121c 8945A0   		movl	%eax, -96(%ebp)
 2355              	LVL280:
 2356 121f E9BCFBFF 		jmp	L182
 2356      FF
 2357              		.p2align 4,,7
 2358              	L236:
1620:./Source/CS229Image.c ****                 overlap_height = pic2->height.value + pic1->height.value - y;
 2359              		.loc 1 1620 0
 2360 1224 8B5514   		movl	20(%ebp), %edx
 2361 1227 8D0431   		leal	(%ecx,%esi), %eax
 2362 122a 29D0     		subl	%edx, %eax
 2363 122c 8945A0   		movl	%eax, -96(%ebp)
 2364              	LVL281:
 2365 122f E9ACFBFF 		jmp	L182
 2365      FF
 2366              	LFE21:
 2367 1234 8DB60000 		.p2align 4,,15
 2367      00008DBF 
 2367      00000000 
 2368              	.globl _stitch_images
 2370              	_stitch_images:
 2371              	LFB22:
1707:./Source/CS229Image.c **** 
1708:./Source/CS229Image.c **** /* Stitches together two images. Both images must have all channel sizes 8.
1709:./Source/CS229Image.c ****  * If images of zero size are provided then the stitch will simply not be
1710:./Source/CS229Image.c ****  * preformed as it is pointless. If there are equally valid locations for the
1711:./Source/CS229Image.c ****  * two images to be stitched together then the frist one encountered will be
1712:./Source/CS229Image.c ****  * used. Stitching is evaluated from top to bottom, left to right such that the
1713:./Source/CS229Image.c ****  * first overlap has the bottom-right pixel of the first image on top of the
1714:./Source/CS229Image.c ****  * top-left pixel of the second image. Empty pixels will be filled with white.
1715:./Source/CS229Image.c ****  */
1716:./Source/CS229Image.c **** uint32_t stitch_images(PCSPIC pic1, PCSPIC pic2, PCSPIC dest)
1717:./Source/CS229Image.c **** {
 2372              		.loc 1 1717 0
GAS LISTING /cygdrive/c/Users/THESCI~1/AppData/Local/Temp/ccH1olGy.s 			page 83


 2373              	LVL282:
 2374 1240 55       		pushl	%ebp
 2375              	LCFI54:
 2376 1241 89E5     		movl	%esp, %ebp
 2377              	LCFI55:
 2378 1243 83EC68   		subl	$104, %esp
 2379              	LCFI56:
 2380 1246 8975F8   		movl	%esi, -8(%ebp)
 2381              	LCFI57:
 2382 1249 8B7508   		movl	8(%ebp), %esi
 2383 124c 897DFC   		movl	%edi, -4(%ebp)
 2384              	LCFI58:
 2385 124f 8B7D0C   		movl	12(%ebp), %edi
 2386 1252 895DF4   		movl	%ebx, -12(%ebp)
 2387              	LCFI59:
1718:./Source/CS229Image.c ****     /* Create some local variables */
1719:./Source/CS229Image.c ****     uint32_t x;
1720:./Source/CS229Image.c ****     uint32_t y;
1721:./Source/CS229Image.c ****     uint32_t best_x;
1722:./Source/CS229Image.c ****     uint32_t best_y;
1723:./Source/CS229Image.c ****     uint32_t overlap_width;
1724:./Source/CS229Image.c ****     uint32_t overlap_height;
1725:./Source/CS229Image.c ****     float best_error;
1726:./Source/CS229Image.c **** 
1727:./Source/CS229Image.c ****     /* Make sure warnings don't become errors upon submission */
1728:./Source/CS229Image.c ****     overlap_width = 0;
1729:./Source/CS229Image.c ****     overlap_height = 0;
1730:./Source/CS229Image.c ****     best_x = 0;
1731:./Source/CS229Image.c ****     best_y = 0;
1732:./Source/CS229Image.c **** 
1733:./Source/CS229Image.c ****     /* Check for null pointers */
1734:./Source/CS229Image.c ****     if(!pic1 || !pic2 || !dest)
 2388              		.loc 1 1734 0
 2389 1255 85F6     		testl	%esi, %esi
 2390 1257 743C     		je	L245
 2391              	LVL283:
 2392 1259 85FF     		testl	%edi, %edi
 2393 125b 7438     		je	L245
 2394 125d 8B4D10   		movl	16(%ebp), %ecx
 2395 1260 85C9     		testl	%ecx, %ecx
 2396 1262 7431     		je	L245
 2397              	LVL284:
1735:./Source/CS229Image.c ****         return NULL_POINTER;
1736:./Source/CS229Image.c **** 
1737:./Source/CS229Image.c ****     /* Check the magic number */
1738:./Source/CS229Image.c ****     if(pic1->magic_number != CS229_MAGIC_NUMBER || pic2->magic_number != CS229_MAGIC_NUMBER)
 2398              		.loc 1 1738 0
 2399 1264 803E42   		cmpb	$66, (%esi)
 2400              		.p2align 4,,3
 2401 1267 7417     		je	L283
 2402              	L246:
 2403              	LBB40:
1739:./Source/CS229Image.c ****         return INVALID_IMAGE_FORMAT;
1740:./Source/CS229Image.c **** 
1741:./Source/CS229Image.c ****     /* Check that we have the same color mode */
1742:./Source/CS229Image.c ****     if(pic1->color_mode != pic2->color_mode)
1743:./Source/CS229Image.c ****         return INVALID_IMAGE_COLOR_FORMAT;
GAS LISTING /cygdrive/c/Users/THESCI~1/AppData/Local/Temp/ccH1olGy.s 			page 84


1744:./Source/CS229Image.c **** 
1745:./Source/CS229Image.c ****     /* Check that we have non-zero image dimensions */
1746:./Source/CS229Image.c ****     if(!pic1->height.value || !pic1->width.value || !pic2->height.value || !pic2->width.value)
1747:./Source/CS229Image.c ****         return SUCCESS;
1748:./Source/CS229Image.c **** 
1749:./Source/CS229Image.c ****     /* Check the channel sizes of the pictures are all eight bits */
1750:./Source/CS229Image.c ****     if(pic1->color_mode == MODE_BLACKWHITE)
1751:./Source/CS229Image.c ****     {
1752:./Source/CS229Image.c ****         if(pic1->first_channel.blackwhite_channel_size != EIGHT_BIT_CHANNEL)
1753:./Source/CS229Image.c ****             return INVALID_CHANNEL_SIZE;
1754:./Source/CS229Image.c ****     }
1755:./Source/CS229Image.c ****     else if(pic1->color_mode == MODE_COLOR)
1756:./Source/CS229Image.c ****     {
1757:./Source/CS229Image.c ****         if(pic1->first_channel.red_channel_size != EIGHT_BIT_CHANNEL)
1758:./Source/CS229Image.c ****             return INVALID_CHANNEL_SIZE;
1759:./Source/CS229Image.c ****         if(pic1->green_channel_size != EIGHT_BIT_CHANNEL)
1760:./Source/CS229Image.c ****             return INVALID_CHANNEL_SIZE;
1761:./Source/CS229Image.c ****         if(pic1->blue_channel_size != EIGHT_BIT_CHANNEL)
1762:./Source/CS229Image.c ****             return INVALID_CHANNEL_SIZE;
1763:./Source/CS229Image.c ****     }
1764:./Source/CS229Image.c ****     else
1765:./Source/CS229Image.c ****         return INVALID_IMAGE_COLOR_FORMAT;
1766:./Source/CS229Image.c **** 
1767:./Source/CS229Image.c ****     /* Check the channel sizes of the pictures are all eight bits */
1768:./Source/CS229Image.c ****     if(pic2->color_mode == MODE_BLACKWHITE)
1769:./Source/CS229Image.c ****     {
1770:./Source/CS229Image.c ****         if(pic2->first_channel.blackwhite_channel_size != EIGHT_BIT_CHANNEL)
1771:./Source/CS229Image.c ****             return INVALID_CHANNEL_SIZE;
1772:./Source/CS229Image.c ****     }
1773:./Source/CS229Image.c ****     else if(pic2->color_mode == MODE_COLOR)
1774:./Source/CS229Image.c ****     {
1775:./Source/CS229Image.c ****         if(pic2->first_channel.red_channel_size != EIGHT_BIT_CHANNEL)
1776:./Source/CS229Image.c ****             return INVALID_CHANNEL_SIZE;
1777:./Source/CS229Image.c ****         if(pic2->green_channel_size != EIGHT_BIT_CHANNEL)
1778:./Source/CS229Image.c ****             return INVALID_CHANNEL_SIZE;
1779:./Source/CS229Image.c ****         if(pic2->blue_channel_size != EIGHT_BIT_CHANNEL)
1780:./Source/CS229Image.c ****             return INVALID_CHANNEL_SIZE;
1781:./Source/CS229Image.c ****     }
1782:./Source/CS229Image.c ****     else
1783:./Source/CS229Image.c ****         return INVALID_IMAGE_COLOR_FORMAT;
1784:./Source/CS229Image.c **** 
1785:./Source/CS229Image.c ****     /* Initialize the destination picture */
1786:./Source/CS229Image.c ****     dest->magic_number = pic1->magic_number;
1787:./Source/CS229Image.c ****     dest->color_mode = pic1->color_mode;
1788:./Source/CS229Image.c ****     dest->first_channel.blackwhite_channel_size = EIGHT_BIT_CHANNEL;
1789:./Source/CS229Image.c ****     dest->green_channel_size = EIGHT_BIT_CHANNEL;
1790:./Source/CS229Image.c ****     dest->blue_channel_size = EIGHT_BIT_CHANNEL;
1791:./Source/CS229Image.c **** 
1792:./Source/CS229Image.c ****     /* Initialize our stitch best_error value */
1793:./Source/CS229Image.c ****     best_error = -1.0f;
1794:./Source/CS229Image.c **** 
1795:./Source/CS229Image.c ****     /* Check the overlap error of the pictures */
1796:./Source/CS229Image.c ****     for(x = 1;x < 2 * pic2->width.value;x++)
1797:./Source/CS229Image.c ****         for(y = 1;y < 2 * pic2->height.value;y++)
1798:./Source/CS229Image.c ****         {
1799:./Source/CS229Image.c ****             uint32_t o_w[1];
1800:./Source/CS229Image.c ****             uint32_t o_h[1];
GAS LISTING /cygdrive/c/Users/THESCI~1/AppData/Local/Temp/ccH1olGy.s 			page 85


1801:./Source/CS229Image.c **** 
1802:./Source/CS229Image.c ****             /* Determine the error of our current overlap */
1803:./Source/CS229Image.c ****             float err = check_average_error(pic1,pic2,x,y,o_w,o_h);
1804:./Source/CS229Image.c **** 
1805:./Source/CS229Image.c ****             /* Check that we have a valid overlap */
1806:./Source/CS229Image.c ****             if(err < 0.0f)
1807:./Source/CS229Image.c ****                 continue;
1808:./Source/CS229Image.c **** 
1809:./Source/CS229Image.c ****             /* Check if we need to update our statistics */
1810:./Source/CS229Image.c ****             if(err < best_error || best_error < 0.0f)
1811:./Source/CS229Image.c ****             {
1812:./Source/CS229Image.c ****                 /* Update overlap statistics */
1813:./Source/CS229Image.c ****                 best_error = err;
1814:./Source/CS229Image.c ****                 best_x = x;
1815:./Source/CS229Image.c ****                 best_y = y;
1816:./Source/CS229Image.c ****                 overlap_width = o_w[0];
1817:./Source/CS229Image.c ****                 overlap_height = o_h[0];
1818:./Source/CS229Image.c ****             }
1819:./Source/CS229Image.c ****         }
1820:./Source/CS229Image.c **** 
1821:./Source/CS229Image.c ****     /* Check if we don't have a valid overlap */
1822:./Source/CS229Image.c ****     if(best_error < 0.0f)
1823:./Source/CS229Image.c ****         return GENERAL_ERROR;
1824:./Source/CS229Image.c **** 
1825:./Source/CS229Image.c ****     /* Determine our new picture size */
1826:./Source/CS229Image.c ****     dest->width.value = pic1->width.value + pic2->width.value - overlap_width;
1827:./Source/CS229Image.c ****     dest->height.value = pic1->height.value + pic2->height.value - overlap_height;
1828:./Source/CS229Image.c **** 
1829:./Source/CS229Image.c ****     /* Make a new block so we can get some local variables that aren't a mile away */
1830:./Source/CS229Image.c ****     {
1831:./Source/CS229Image.c ****         /* Local variables */
1832:./Source/CS229Image.c ****         uint32_t len;
1833:./Source/CS229Image.c ****         uint32_t i;
1834:./Source/CS229Image.c **** 
1835:./Source/CS229Image.c ****         /* Determine how big our picture is */
1836:./Source/CS229Image.c ****         len = dest->width.value * dest->height.value * (dest->color_mode == MODE_BLACKWHITE ? 1 : 3
1837:./Source/CS229Image.c **** 
1838:./Source/CS229Image.c ****         /* Initialize our new picture data to white */
1839:./Source/CS229Image.c ****         dest->data = (uint8_t*)malloc((size_t)len);
1840:./Source/CS229Image.c **** 
1841:./Source/CS229Image.c ****         /* Set all values to white */
1842:./Source/CS229Image.c ****         for(i = 0;i < len;i++)
1843:./Source/CS229Image.c ****             dest->data[i] = 0xFF;
1844:./Source/CS229Image.c ****     }
1845:./Source/CS229Image.c **** 
1846:./Source/CS229Image.c ****     /* Make a new block so we can get some local variables that aren't a mile away */
1847:./Source/CS229Image.c ****     {
1848:./Source/CS229Image.c ****         /* Local variables */
1849:./Source/CS229Image.c ****         uint32_t i;
1850:./Source/CS229Image.c ****         uint32_t j;
1851:./Source/CS229Image.c **** 
1852:./Source/CS229Image.c ****         /* Copy our first image into the new image */
1853:./Source/CS229Image.c ****         for(i = 0;i < pic1->width.value;i++)
1854:./Source/CS229Image.c ****             for(j = 0;j < pic1->width.value;j++)
1855:./Source/CS229Image.c ****                 dest->data[i + j * dest->width.value] = pic1->data[i + j * pic1->width.value];
1856:./Source/CS229Image.c **** 
1857:./Source/CS229Image.c ****         /* Copy our second image into the new image averaging values if necessary */
GAS LISTING /cygdrive/c/Users/THESCI~1/AppData/Local/Temp/ccH1olGy.s 			page 86


1858:./Source/CS229Image.c ****         for(i = best_x;i < best_x + pic2->width.value;i++)
1859:./Source/CS229Image.c ****             for(j = best_y;j < best_y + pic2->height.value;j++)
 2404              		.loc 1 1859 0
 2405 1269 B80B0000 		movl	$11, %eax
 2405      00
 2406              	LVL285:
 2407              	L276:
 2408              	LBE40:
1860:./Source/CS229Image.c ****                 if(i < pic1->width.value && j < pic1->height.value) /* If we are in our overlap ran
1861:./Source/CS229Image.c ****                     dest->data[i + j * dest->width.value] = (dest->data[i + j * dest->width.value] 
1862:./Source/CS229Image.c ****                 else /* We aren't in the overlap range so just copy the value directly */
1863:./Source/CS229Image.c ****                     dest->data[i + j * dest->width.value] = pic2->data[(i - best_x) + (j - best_y) 
1864:./Source/CS229Image.c ****     }
1865:./Source/CS229Image.c **** 
1866:./Source/CS229Image.c ****     return SUCCESS;
1867:./Source/CS229Image.c **** }
 2409              		.loc 1 1867 0
 2410 126e 8B5DF4   		movl	-12(%ebp), %ebx
 2411              	LVL286:
 2412 1271 8B75F8   		movl	-8(%ebp), %esi
 2413              	LVL287:
 2414 1274 8B7DFC   		movl	-4(%ebp), %edi
 2415              	LVL288:
 2416 1277 89EC     		movl	%ebp, %esp
 2417 1279 5D       		popl	%ebp
 2418 127a C3       		ret
 2419              	LVL289:
 2420 127b 908D7426 		.p2align 4,,7
 2420      00
 2421              	L283:
1738:./Source/CS229Image.c ****     if(pic1->magic_number != CS229_MAGIC_NUMBER || pic2->magic_number != CS229_MAGIC_NUMBER)
 2422              		.loc 1 1738 0
 2423 1280 803F42   		cmpb	$66, (%edi)
 2424 1283 75E4     		jne	L246
1742:./Source/CS229Image.c ****     if(pic1->color_mode != pic2->color_mode)
 2425              		.loc 1 1742 0
 2426 1285 0FB64601 		movzbl	1(%esi), %eax
 2427 1289 3A4701   		cmpb	1(%edi), %al
 2428 128c 7412     		je	L284
 2429              	L247:
 2430              	LBB41:
1859:./Source/CS229Image.c ****             for(j = best_y;j < best_y + pic2->height.value;j++)
 2431              		.loc 1 1859 0
 2432 128e B8040000 		movl	$4, %eax
 2432      00
 2433              		.p2align 4,,3
 2434 1293 EBD9     		jmp	L276
 2435              	LVL290:
 2436              		.p2align 4,,7
 2437              	L245:
 2438 1295 B80C0000 		movl	$12, %eax
 2438      00
 2439              		.p2align 4,,3
 2440 129a EBD2     		jmp	L276
 2441              	LVL291:
 2442 129c 8D742600 		.p2align 4,,7
 2443              	L284:
GAS LISTING /cygdrive/c/Users/THESCI~1/AppData/Local/Temp/ccH1olGy.s 			page 87


 2444              	LBE41:
1746:./Source/CS229Image.c ****     if(!pic1->height.value || !pic1->width.value || !pic2->height.value || !pic2->width.value)
 2445              		.loc 1 1746 0
 2446 12a0 8B5608   		movl	8(%esi), %edx
 2447 12a3 85D2     		testl	%edx, %edx
 2448              		.p2align 4,,3
 2449 12a5 7449     		je	L248
 2450 12a7 8B5E0C   		movl	12(%esi), %ebx
 2451 12aa 85DB     		testl	%ebx, %ebx
 2452 12ac 7442     		je	L248
 2453 12ae 8B4F08   		movl	8(%edi), %ecx
 2454 12b1 85C9     		testl	%ecx, %ecx
 2455 12b3 743B     		je	L248
 2456 12b5 8B570C   		movl	12(%edi), %edx
 2457 12b8 85D2     		testl	%edx, %edx
 2458 12ba 7434     		je	L248
1750:./Source/CS229Image.c ****     if(pic1->color_mode == MODE_BLACKWHITE)
 2459              		.loc 1 1750 0
 2460 12bc 84C0     		testb	%al, %al
 2461 12be 7537     		jne	L249
1752:./Source/CS229Image.c ****         if(pic1->first_channel.blackwhite_channel_size != EIGHT_BIT_CHANNEL)
 2462              		.loc 1 1752 0
 2463 12c0 807E0202 		cmpb	$2, 2(%esi)
 2464              		.p2align 4,,3
 2465 12c4 0F84AC02 		je	L285
 2465      0000
 2466              	L250:
 2467              	LBB42:
1859:./Source/CS229Image.c ****             for(j = best_y;j < best_y + pic2->height.value;j++)
 2468              		.loc 1 1859 0
 2469 12ca B80A0000 		movl	$10, %eax
 2469      00
 2470 12cf 90       		.p2align 4,,5
 2471 12d0 EB9C     		jmp	L276
 2472              	LVL292:
 2473              	L275:
1858:./Source/CS229Image.c ****         for(i = best_x;i < best_x + pic2->width.value;i++)
 2474              		.loc 1 1858 0
 2475 12d2 8345CC01 		addl	$1, -52(%ebp)
 2476              	LVL293:
 2477 12d6 8345D801 		addl	$1, -40(%ebp)
 2478 12da 8B45B8   		movl	-72(%ebp), %eax
 2479 12dd 03470C   		addl	12(%edi), %eax
 2480 12e0 3B45CC   		cmpl	-52(%ebp), %eax
 2481 12e3 0F87F501 		ja	L271
 2481      0000
 2482              	LVL294:
 2483 12e9 8DB42600 		.p2align 4,,7
 2483      000000
 2484              	L248:
1859:./Source/CS229Image.c ****             for(j = best_y;j < best_y + pic2->height.value;j++)
 2485              		.loc 1 1859 0
 2486 12f0 31C0     		xorl	%eax, %eax
 2487 12f2 E977FFFF 		jmp	L276
 2487      FF
 2488              	LVL295:
 2489              	L249:
GAS LISTING /cygdrive/c/Users/THESCI~1/AppData/Local/Temp/ccH1olGy.s 			page 88


 2490              	LBE42:
1755:./Source/CS229Image.c ****     else if(pic1->color_mode == MODE_COLOR)
 2491              		.loc 1 1755 0
 2492 12f7 3CFF     		cmpb	$-1, %al
 2493 12f9 7593     		jne	L247
1757:./Source/CS229Image.c ****         if(pic1->first_channel.red_channel_size != EIGHT_BIT_CHANNEL)
 2494              		.loc 1 1757 0
 2495 12fb 807E0202 		cmpb	$2, 2(%esi)
 2496 12ff 90       		.p2align 4,,5
 2497 1300 75C8     		jne	L250
1759:./Source/CS229Image.c ****         if(pic1->green_channel_size != EIGHT_BIT_CHANNEL)
 2498              		.loc 1 1759 0
 2499 1302 807E0302 		cmpb	$2, 3(%esi)
 2500              		.p2align 4,,5
 2501 1306 75C2     		jne	L250
1761:./Source/CS229Image.c ****         if(pic1->blue_channel_size != EIGHT_BIT_CHANNEL)
 2502              		.loc 1 1761 0
 2503 1308 807E0402 		cmpb	$2, 4(%esi)
 2504 130c 8D742600 		.p2align 4,,5
 2505 1310 75B8     		jne	L250
1775:./Source/CS229Image.c ****         if(pic2->first_channel.red_channel_size != EIGHT_BIT_CHANNEL)
 2506              		.loc 1 1775 0
 2507 1312 807F0202 		cmpb	$2, 2(%edi)
 2508              		.p2align 4,,5
 2509 1316 75B2     		jne	L250
1777:./Source/CS229Image.c ****         if(pic2->green_channel_size != EIGHT_BIT_CHANNEL)
 2510              		.loc 1 1777 0
 2511 1318 807F0302 		cmpb	$2, 3(%edi)
 2512 131c 8D742600 		.p2align 4,,5
 2513 1320 75A8     		jne	L250
1779:./Source/CS229Image.c ****         if(pic2->blue_channel_size != EIGHT_BIT_CHANNEL)
 2514              		.loc 1 1779 0
 2515 1322 807F0402 		cmpb	$2, 4(%edi)
 2516              		.p2align 4,,5
 2517 1326 75A2     		jne	L250
 2518              	L253:
1786:./Source/CS229Image.c ****     dest->magic_number = pic1->magic_number;
 2519              		.loc 1 1786 0
 2520 1328 8B5510   		movl	16(%ebp), %edx
1796:./Source/CS229Image.c ****     for(x = 1;x < 2 * pic2->width.value;x++)
 2521              		.loc 1 1796 0
 2522 132b 8B4F0C   		movl	12(%edi), %ecx
1787:./Source/CS229Image.c ****     dest->color_mode = pic1->color_mode;
 2523              		.loc 1 1787 0
 2524 132e 884201   		movb	%al, 1(%edx)
1796:./Source/CS229Image.c ****     for(x = 1;x < 2 * pic2->width.value;x++)
 2525              		.loc 1 1796 0
 2526 1331 8D0409   		leal	(%ecx,%ecx), %eax
 2527 1334 83F801   		cmpl	$1, %eax
1786:./Source/CS229Image.c ****     dest->magic_number = pic1->magic_number;
 2528              		.loc 1 1786 0
 2529 1337 C60242   		movb	$66, (%edx)
1788:./Source/CS229Image.c ****     dest->first_channel.blackwhite_channel_size = EIGHT_BIT_CHANNEL;
 2530              		.loc 1 1788 0
 2531 133a C6420202 		movb	$2, 2(%edx)
1789:./Source/CS229Image.c ****     dest->green_channel_size = EIGHT_BIT_CHANNEL;
 2532              		.loc 1 1789 0
GAS LISTING /cygdrive/c/Users/THESCI~1/AppData/Local/Temp/ccH1olGy.s 			page 89


 2533 133e C6420302 		movb	$2, 3(%edx)
1790:./Source/CS229Image.c ****     dest->blue_channel_size = EIGHT_BIT_CHANNEL;
 2534              		.loc 1 1790 0
 2535 1342 C6420402 		movb	$2, 4(%edx)
1796:./Source/CS229Image.c ****     for(x = 1;x < 2 * pic2->width.value;x++)
 2536              		.loc 1 1796 0
 2537 1346 0F863902 		jbe	L254
 2537      0000
 2538 134c D9E8     		fld1
 2539 134e D9E0     		fchs
 2540 1350 C745B800 		movl	$0, -72(%ebp)
 2540      000000
 2541              	LVL296:
 2542 1357 D95DC8   		fstps	-56(%ebp)
 2543              	LVL297:
 2544 135a C745BC00 		movl	$0, -68(%ebp)
 2544      000000
 2545              	LVL298:
 2546 1361 C745C000 		movl	$0, -64(%ebp)
 2546      000000
 2547              	LVL299:
 2548 1368 C745C400 		movl	$0, -60(%ebp)
 2548      000000
 2549              	LVL300:
 2550 136f C745B401 		movl	$1, -76(%ebp)
 2550      000000
 2551              	LVL301:
 2552 1376 8B5708   		movl	8(%edi), %edx
 2553              	LVL302:
 2554              	L255:
1797:./Source/CS229Image.c ****         for(y = 1;y < 2 * pic2->height.value;y++)
 2555              		.loc 1 1797 0
 2556 1379 8D0412   		leal	(%edx,%edx), %eax
1796:./Source/CS229Image.c ****     for(x = 1;x < 2 * pic2->width.value;x++)
 2557              		.loc 1 1796 0
 2558 137c BB010000 		movl	$1, %ebx
 2558      00
1797:./Source/CS229Image.c ****         for(y = 1;y < 2 * pic2->height.value;y++)
 2559              		.loc 1 1797 0
 2560 1381 83F801   		cmpl	$1, %eax
 2561 1384 771F     		ja	L259
 2562 1386 EB70     		jmp	L262
 2563              		.p2align 4,,7
 2564              	L287:
 2565 1388 D9C9     		fxch	%st(1)
 2566              	LBB43:
1810:./Source/CS229Image.c ****             if(err < best_error || best_error < 0.0f)
 2567              		.loc 1 1810 0
 2568 138a DFE9     		fucomip	%st(1), %st
 2569 138c DDD8     		fstp	%st(0)
 2570 138e 774B     		ja	L257
 2571 1390 DDD8     		fstp	%st(0)
 2572              		.p2align 4,,5
 2573 1392 EB04     		jmp	L256
 2574              	L289:
 2575 1394 DDD8     		fstp	%st(0)
 2576 1396 DDD8     		fstp	%st(0)
GAS LISTING /cygdrive/c/Users/THESCI~1/AppData/Local/Temp/ccH1olGy.s 			page 90


 2577              	L256:
 2578              	LBE43:
1797:./Source/CS229Image.c ****         for(y = 1;y < 2 * pic2->height.value;y++)
 2579              		.loc 1 1797 0
 2580 1398 8B5708   		movl	8(%edi), %edx
 2581 139b 83C301   		addl	$1, %ebx
 2582 139e 8D0412   		leal	(%edx,%edx), %eax
 2583 13a1 39D8     		cmpl	%ebx, %eax
 2584 13a3 7650     		jbe	L286
 2585              	L259:
 2586              	LBB44:
1803:./Source/CS229Image.c ****             float err = check_average_error(pic1,pic2,x,y,o_w,o_h);
 2587              		.loc 1 1803 0
 2588 13a5 8B4DB4   		movl	-76(%ebp), %ecx
 2589 13a8 8D45EC   		leal	-20(%ebp), %eax
 2590 13ab 8D55F0   		leal	-16(%ebp), %edx
 2591 13ae 89442414 		movl	%eax, 20(%esp)
 2592 13b2 89542410 		movl	%edx, 16(%esp)
 2593 13b6 895C240C 		movl	%ebx, 12(%esp)
 2594 13ba 894C2408 		movl	%ecx, 8(%esp)
 2595 13be 897C2404 		movl	%edi, 4(%esp)
 2596 13c2 893424   		movl	%esi, (%esp)
 2597 13c5 E8A6F9FF 		call	_check_average_error
 2597      FF
1806:./Source/CS229Image.c ****             if(err < 0.0f)
 2598              		.loc 1 1806 0
 2599 13ca D9EE     		fldz
 2600 13cc DBE9     		fucomi	%st(1), %st
 2601 13ce 77C4     		ja	L289
1810:./Source/CS229Image.c ****             if(err < best_error || best_error < 0.0f)
 2602              		.loc 1 1810 0
 2603 13d0 D945C8   		flds	-56(%ebp)
 2604 13d3 DBEA     		fucomi	%st(2), %st
 2605 13d5 76B1     		jbe	L287
 2606 13d7 DDD8     		fstp	%st(0)
 2607 13d9 DDD8     		fstp	%st(0)
 2608              	L257:
1816:./Source/CS229Image.c ****                 overlap_width = o_w[0];
 2609              		.loc 1 1816 0
 2610 13db 8B45F0   		movl	-16(%ebp), %eax
1817:./Source/CS229Image.c ****                 overlap_height = o_h[0];
 2611              		.loc 1 1817 0
 2612 13de D95DC8   		fstps	-56(%ebp)
 2613              	LVL303:
 2614 13e1 8B55EC   		movl	-20(%ebp), %edx
 2615 13e4 8B4DB4   		movl	-76(%ebp), %ecx
 2616 13e7 895DBC   		movl	%ebx, -68(%ebp)
 2617              	LVL304:
1816:./Source/CS229Image.c ****                 overlap_width = o_w[0];
 2618              		.loc 1 1816 0
 2619 13ea 8945C0   		movl	%eax, -64(%ebp)
 2620              	LVL305:
1817:./Source/CS229Image.c ****                 overlap_height = o_h[0];
 2621              		.loc 1 1817 0
 2622 13ed 8955C4   		movl	%edx, -60(%ebp)
 2623              	LVL306:
 2624 13f0 894DB8   		movl	%ecx, -72(%ebp)
GAS LISTING /cygdrive/c/Users/THESCI~1/AppData/Local/Temp/ccH1olGy.s 			page 91


 2625              	LVL307:
 2626 13f3 EBA3     		jmp	L256
 2627              	L286:
 2628 13f5 8B4F0C   		movl	12(%edi), %ecx
 2629              	L262:
 2630              	LBE44:
1796:./Source/CS229Image.c ****     for(x = 1;x < 2 * pic2->width.value;x++)
 2631              		.loc 1 1796 0
 2632 13f8 8345B401 		addl	$1, -76(%ebp)
 2633              	LVL308:
 2634 13fc 8D0409   		leal	(%ecx,%ecx), %eax
 2635 13ff 3B45B4   		cmpl	-76(%ebp), %eax
 2636 1402 0F8771FF 		ja	L255
 2636      FFFF
1822:./Source/CS229Image.c ****     if(best_error < 0.0f)
 2637              		.loc 1 1822 0
 2638 1408 D9EE     		fldz
 2639 140a D945C8   		flds	-56(%ebp)
 2640 140d D9C9     		fxch	%st(1)
 2641 140f DFE9     		fucomip	%st(1), %st
 2642 1411 DDD8     		fstp	%st(0)
 2643 1413 0F876C01 		ja	L254
 2643      0000
1826:./Source/CS229Image.c ****     dest->width.value = pic1->width.value + pic2->width.value - overlap_width;
 2644              		.loc 1 1826 0
 2645 1419 8B4510   		movl	16(%ebp), %eax
 2646 141c 034E0C   		addl	12(%esi), %ecx
 2647 141f 2B4DC0   		subl	-64(%ebp), %ecx
1827:./Source/CS229Image.c ****     dest->height.value = pic1->height.value + pic2->height.value - overlap_height;
 2648              		.loc 1 1827 0
 2649 1422 035608   		addl	8(%esi), %edx
1826:./Source/CS229Image.c ****     dest->width.value = pic1->width.value + pic2->width.value - overlap_width;
 2650              		.loc 1 1826 0
 2651 1425 89480C   		movl	%ecx, 12(%eax)
1827:./Source/CS229Image.c ****     dest->height.value = pic1->height.value + pic2->height.value - overlap_height;
 2652              		.loc 1 1827 0
 2653 1428 2B55C4   		subl	-60(%ebp), %edx
 2654              	LBB45:
1836:./Source/CS229Image.c ****         len = dest->width.value * dest->height.value * (dest->color_mode == MODE_BLACKWHITE ? 1 : 3
 2655              		.loc 1 1836 0
 2656 142b 80780101 		cmpb	$1, 1(%eax)
 2657 142f 89D3     		movl	%edx, %ebx
 2658              	LVL309:
 2659              	LBE45:
1827:./Source/CS229Image.c ****     dest->height.value = pic1->height.value + pic2->height.value - overlap_height;
 2660              		.loc 1 1827 0
 2661 1431 895008   		movl	%edx, 8(%eax)
 2662              	LBB46:
1836:./Source/CS229Image.c ****         len = dest->width.value * dest->height.value * (dest->color_mode == MODE_BLACKWHITE ? 1 : 3
 2663              		.loc 1 1836 0
 2664 1434 19C0     		sbbl	%eax, %eax
 2665 1436 0FAFD9   		imull	%ecx, %ebx
 2666 1439 83E0FE   		andl	$-2, %eax
 2667 143c 83C003   		addl	$3, %eax
 2668 143f 0FAFD8   		imull	%eax, %ebx
1839:./Source/CS229Image.c ****         dest->data = (uint8_t*)malloc((size_t)len);
 2669              		.loc 1 1839 0
GAS LISTING /cygdrive/c/Users/THESCI~1/AppData/Local/Temp/ccH1olGy.s 			page 92


 2670 1442 891C24   		movl	%ebx, (%esp)
 2671 1445 E8000000 		call	_malloc
 2671      00
 2672 144a 8B5510   		movl	16(%ebp), %edx
1842:./Source/CS229Image.c ****         for(i = 0;i < len;i++)
 2673              		.loc 1 1842 0
 2674 144d 85DB     		testl	%ebx, %ebx
1839:./Source/CS229Image.c ****         dest->data = (uint8_t*)malloc((size_t)len);
 2675              		.loc 1 1839 0
 2676 144f 894210   		movl	%eax, 16(%edx)
1842:./Source/CS229Image.c ****         for(i = 0;i < len;i++)
 2677              		.loc 1 1842 0
 2678 1452 7413     		je	L265
 2679 1454 31D2     		xorl	%edx, %edx
 2680              	LVL310:
 2681              	L266:
1843:./Source/CS229Image.c ****             dest->data[i] = 0xFF;
 2682              		.loc 1 1843 0
 2683 1456 8B4D10   		movl	16(%ebp), %ecx
 2684 1459 8B4110   		movl	16(%ecx), %eax
 2685 145c C60410FF 		movb	$-1, (%eax,%edx)
1842:./Source/CS229Image.c ****         for(i = 0;i < len;i++)
 2686              		.loc 1 1842 0
 2687 1460 83C201   		addl	$1, %edx
 2688 1463 39D3     		cmpl	%edx, %ebx
 2689 1465 77EF     		ja	L266
 2690              	L265:
 2691              	LBE46:
 2692              	LBB47:
1853:./Source/CS229Image.c ****         for(i = 0;i < pic1->width.value;i++)
 2693              		.loc 1 1853 0
 2694 1467 8B5E0C   		movl	12(%esi), %ebx
 2695              	LVL311:
 2696 146a C745DC00 		movl	$0, -36(%ebp)
 2696      000000
 2697              	LVL312:
 2698 1471 85DB     		testl	%ebx, %ebx
 2699 1473 744E     		je	L267
 2700              	LVL313:
 2701              	L268:
1854:./Source/CS229Image.c ****             for(j = 0;j < pic1->width.value;j++)
 2702              		.loc 1 1854 0
 2703 1475 8B5510   		movl	16(%ebp), %edx
 2704              	LVL314:
 2705 1478 8B420C   		movl	12(%edx), %eax
 2706 147b C745D000 		movl	$0, -48(%ebp)
 2706      000000
 2707              	LVL315:
 2708 1482 EB06     		jmp	L270
 2709              		.p2align 4,,7
 2710              	L269:
1853:./Source/CS229Image.c ****         for(i = 0;i < pic1->width.value;i++)
 2711              		.loc 1 1853 0
 2712 1484 8B5510   		movl	16(%ebp), %edx
 2713 1487 8B420C   		movl	12(%edx), %eax
 2714              	L270:
1855:./Source/CS229Image.c ****                 dest->data[i + j * dest->width.value] = pic1->data[i + j * pic1->width.value];
GAS LISTING /cygdrive/c/Users/THESCI~1/AppData/Local/Temp/ccH1olGy.s 			page 93


 2715              		.loc 1 1855 0
 2716 148a 8B4DD0   		movl	-48(%ebp), %ecx
 2717 148d 8B55DC   		movl	-36(%ebp), %edx
 2718 1490 0FAF5DD0 		imull	-48(%ebp), %ebx
 2719 1494 0FAFC8   		imull	%eax, %ecx
 2720 1497 8B4510   		movl	16(%ebp), %eax
 2721 149a 035010   		addl	16(%eax), %edx
 2722 149d 8B45DC   		movl	-36(%ebp), %eax
 2723 14a0 034610   		addl	16(%esi), %eax
 2724 14a3 0FB60418 		movzbl	(%eax,%ebx), %eax
 2725 14a7 88040A   		movb	%al, (%edx,%ecx)
1854:./Source/CS229Image.c ****             for(j = 0;j < pic1->width.value;j++)
 2726              		.loc 1 1854 0
 2727 14aa 8345D001 		addl	$1, -48(%ebp)
 2728              	LVL316:
 2729 14ae 8B5E0C   		movl	12(%esi), %ebx
 2730 14b1 3B5DD0   		cmpl	-48(%ebp), %ebx
 2731 14b4 77CE     		ja	L269
1853:./Source/CS229Image.c ****         for(i = 0;i < pic1->width.value;i++)
 2732              		.loc 1 1853 0
 2733 14b6 8345DC01 		addl	$1, -36(%ebp)
 2734              	LVL317:
 2735 14ba 395DDC   		cmpl	%ebx, -36(%ebp)
 2736 14bd 7304     		jae	L267
1854:./Source/CS229Image.c ****             for(j = 0;j < pic1->width.value;j++)
 2737              		.loc 1 1854 0
 2738 14bf 85DB     		testl	%ebx, %ebx
 2739 14c1 75B2     		jne	L268
 2740              	LVL318:
 2741              	L267:
1858:./Source/CS229Image.c ****         for(i = best_x;i < best_x + pic2->width.value;i++)
 2742              		.loc 1 1858 0
 2743 14c3 8B4DB8   		movl	-72(%ebp), %ecx
 2744 14c6 8B45B8   		movl	-72(%ebp), %eax
 2745 14c9 03470C   		addl	12(%edi), %eax
 2746 14cc C745D800 		movl	$0, -40(%ebp)
 2746      000000
 2747 14d3 894DCC   		movl	%ecx, -52(%ebp)
 2748              	LVL319:
 2749 14d6 39C8     		cmpl	%ecx, %eax
 2750 14d8 0F8612FE 		jbe	L248
 2750      FFFF
 2751              	LVL320:
 2752              	L271:
1859:./Source/CS229Image.c ****             for(j = best_y;j < best_y + pic2->height.value;j++)
 2753              		.loc 1 1859 0
 2754 14de 8B4DBC   		movl	-68(%ebp), %ecx
 2755 14e1 8B45BC   		movl	-68(%ebp), %eax
 2756 14e4 034708   		addl	8(%edi), %eax
 2757 14e7 C745D400 		movl	$0, -44(%ebp)
 2757      000000
 2758 14ee 894DE0   		movl	%ecx, -32(%ebp)
 2759              	LVL321:
 2760 14f1 39C8     		cmpl	%ecx, %eax
 2761 14f3 7753     		ja	L274
 2762 14f5 E9D8FDFF 		jmp	L275
 2762      FF
GAS LISTING /cygdrive/c/Users/THESCI~1/AppData/Local/Temp/ccH1olGy.s 			page 94


 2763 14fa 8DB60000 		.p2align 4,,7
 2763      0000
 2764              	L288:
1860:./Source/CS229Image.c ****                 if(i < pic1->width.value && j < pic1->height.value) /* If we are in our overlap ran
 2765              		.loc 1 1860 0
 2766 1500 8B55E0   		movl	-32(%ebp), %edx
 2767              	LVL322:
 2768 1503 395608   		cmpl	%edx, 8(%esi)
 2769 1506 7648     		jbe	L272
1861:./Source/CS229Image.c ****                     dest->data[i + j * dest->width.value] = (dest->data[i + j * dest->width.value] 
 2770              		.loc 1 1861 0
 2771 1508 8B4510   		movl	16(%ebp), %eax
 2772 150b 89D1     		movl	%edx, %ecx
 2773 150d 8B55D4   		movl	-44(%ebp), %edx
 2774 1510 0FAF570C 		imull	12(%edi), %edx
 2775 1514 0FAF480C 		imull	12(%eax), %ecx
 2776 1518 034DCC   		addl	-52(%ebp), %ecx
 2777 151b 034810   		addl	16(%eax), %ecx
 2778 151e 8B45D8   		movl	-40(%ebp), %eax
 2779 1521 034710   		addl	16(%edi), %eax
 2780 1524 0FB60410 		movzbl	(%eax,%edx), %eax
 2781 1528 0FB611   		movzbl	(%ecx), %edx
 2782 152b 01D0     		addl	%edx, %eax
 2783 152d D1F8     		sarl	%eax
 2784 152f 8801     		movb	%al, (%ecx)
 2785              	L273:
1859:./Source/CS229Image.c ****             for(j = best_y;j < best_y + pic2->height.value;j++)
 2786              		.loc 1 1859 0
 2787 1531 8345E001 		addl	$1, -32(%ebp)
 2788              	LVL323:
 2789 1535 8345D401 		addl	$1, -44(%ebp)
 2790 1539 8B45BC   		movl	-68(%ebp), %eax
 2791 153c 034708   		addl	8(%edi), %eax
 2792 153f 3B45E0   		cmpl	-32(%ebp), %eax
 2793 1542 0F868AFD 		jbe	L275
 2793      FFFF
 2794              	LVL324:
 2795              	L274:
1860:./Source/CS229Image.c ****                 if(i < pic1->width.value && j < pic1->height.value) /* If we are in our overlap ran
 2796              		.loc 1 1860 0
 2797 1548 8B45CC   		movl	-52(%ebp), %eax
 2798 154b 3B460C   		cmpl	12(%esi), %eax
 2799 154e 72B0     		jb	L288
 2800              	L272:
1863:./Source/CS229Image.c ****                     dest->data[i + j * dest->width.value] = pic2->data[(i - best_x) + (j - best_y) 
 2801              		.loc 1 1863 0
 2802 1550 8B5510   		movl	16(%ebp), %edx
 2803              	LVL325:
 2804 1553 8B5DE0   		movl	-32(%ebp), %ebx
 2805 1556 8B4DCC   		movl	-52(%ebp), %ecx
 2806 1559 8B45D8   		movl	-40(%ebp), %eax
 2807 155c 0FAF5A0C 		imull	12(%edx), %ebx
 2808 1560 034A10   		addl	16(%edx), %ecx
 2809 1563 8B55D4   		movl	-44(%ebp), %edx
 2810 1566 0FAF570C 		imull	12(%edi), %edx
 2811 156a 034710   		addl	16(%edi), %eax
 2812 156d 0FB60410 		movzbl	(%eax,%edx), %eax
GAS LISTING /cygdrive/c/Users/THESCI~1/AppData/Local/Temp/ccH1olGy.s 			page 95


 2813 1571 880419   		movb	%al, (%ecx,%ebx)
 2814 1574 EBBB     		jmp	L273
 2815              	LVL326:
 2816              	L285:
 2817              	LBE47:
1770:./Source/CS229Image.c ****         if(pic2->first_channel.blackwhite_channel_size != EIGHT_BIT_CHANNEL)
 2818              		.loc 1 1770 0
 2819 1576 807F0202 		cmpb	$2, 2(%edi)
 2820 157a 0F854AFD 		jne	L250
 2820      FFFF
 2821 1580 E9A3FDFF 		jmp	L253
 2821      FF
 2822              	LVL327:
 2823              	L254:
 2824              	LBB48:
1859:./Source/CS229Image.c ****             for(j = best_y;j < best_y + pic2->height.value;j++)
 2825              		.loc 1 1859 0
 2826 1585 B80F0000 		movl	$15, %eax
 2826      00
 2827 158a 8DB60000 		.p2align 4,,7
 2827      0000
 2828 1590 E9D9FCFF 		jmp	L276
 2828      FF
 2829              	LBE48:
 2830              	LFE22:
 2831 1595 8D742600 		.p2align 4,,15
 2831      8DBC2700 
 2831      000000
 2832              	.globl _set_pixel
 2834              	_set_pixel:
 2835              	LFB12:
 479:./Source/CS229Image.c **** {
 2836              		.loc 1 479 0
 2837              	LVL328:
 2838 15a0 55       		pushl	%ebp
 2839              	LCFI60:
 2840 15a1 89E5     		movl	%esp, %ebp
 2841              	LCFI61:
 2842 15a3 83EC24   		subl	$36, %esp
 2843              	LCFI62:
 2844 15a6 8B4D08   		movl	8(%ebp), %ecx
 2845 15a9 895DF4   		movl	%ebx, -12(%ebp)
 2846              	LCFI63:
 2847 15ac 8975F8   		movl	%esi, -8(%ebp)
 2848              	LCFI64:
 2849 15af 897DFC   		movl	%edi, -4(%ebp)
 2850              	LCFI65:
 488:./Source/CS229Image.c ****     if(!picture || !color)
 2851              		.loc 1 488 0
 2852 15b2 85C9     		testl	%ecx, %ecx
 2853 15b4 746B     		je	L341
 2854              	LVL329:
 2855 15b6 8B5D10   		movl	16(%ebp), %ebx
 2856 15b9 85DB     		testl	%ebx, %ebx
 2857 15bb 7464     		je	L341
 2858              	LVL330:
 492:./Source/CS229Image.c ****     if(picture->magic_number != CS229_MAGIC_NUMBER)
GAS LISTING /cygdrive/c/Users/THESCI~1/AppData/Local/Temp/ccH1olGy.s 			page 96


 2859              		.loc 1 492 0
 2860 15bd 803942   		cmpb	$66, (%ecx)
 2861 15c0 BA0B0000 		movl	$11, %edx
 2861      00
 2862 15c5 740F     		je	L346
 2863              	LVL331:
 2864              	L293:
 788:./Source/CS229Image.c **** }
 2865              		.loc 1 788 0
 2866 15c7 8B5DF4   		movl	-12(%ebp), %ebx
 2867              	LVL332:
 2868 15ca 89D0     		movl	%edx, %eax
 2869 15cc 8B75F8   		movl	-8(%ebp), %esi
 2870              	LVL333:
 2871 15cf 8B7DFC   		movl	-4(%ebp), %edi
 2872 15d2 89EC     		movl	%ebp, %esp
 2873 15d4 5D       		popl	%ebp
 2874 15d5 C3       		ret
 2875              	LVL334:
 2876              		.p2align 4,,7
 2877              	L346:
 496:./Source/CS229Image.c ****     if(pixel_number < 0 || pixel_number > picture->width.value * picture->height.value)
 2878              		.loc 1 496 0
 2879 15d6 8B4108   		movl	8(%ecx), %eax
 2880 15d9 BA090000 		movl	$9, %edx
 2880      00
 2881 15de 0FAF410C 		imull	12(%ecx), %eax
 2882 15e2 3B450C   		cmpl	12(%ebp), %eax
 2883 15e5 72E0     		jb	L293
 2884              	LVL335:
 500:./Source/CS229Image.c ****     if(picture->color_mode == MODE_COLOR)
 2885              		.loc 1 500 0
 2886 15e7 0FB64101 		movzbl	1(%ecx), %eax
 2887 15eb 3CFF     		cmpb	$-1, %al
 2888 15ed 0F84FF00 		je	L296
 2888      0000
 502:./Source/CS229Image.c ****     else if(picture->color_mode == MODE_BLACKWHITE)
 2889              		.loc 1 502 0
 2890 15f3 84C0     		testb	%al, %al
 2891 15f5 BA040000 		movl	$4, %edx
 2891      00
 2892 15fa 75CB     		jne	L293
 2893              	LBB51:
 2894              	LBB53:
 161:./Source/CS229Image.c ****         switch(dest->first_channel.blackwhite_channel_size)
 2895              		.loc 1 161 0
 2896 15fc 0FB64102 		movzbl	2(%ecx), %eax
 2897 1600 3C02     		cmpb	$2, %al
 2898 1602 0F84D000 		je	L336
 2898      0000
 2899 1608 3C04     		cmpb	$4, %al
 2900 160a 741C     		je	L337
 2901 160c 2C01     		subb	$1, %al
 2902 160e BE010000 		movl	$1, %esi
 2902      00
 2903              	LVL336:
 2904 1613 BB010000 		movl	$1, %ebx
GAS LISTING /cygdrive/c/Users/THESCI~1/AppData/Local/Temp/ccH1olGy.s 			page 97


 2904      00
 2905              	LVL337:
 2906 1618 742A     		je	L338
 2907              	LVL338:
 2908              	L298:
 2909              	LBE53:
 2910              	LBE51:
 778:./Source/CS229Image.c ****                 *(uint16_t*)pixel = color[2] & 0xFFFF;
 2911              		.loc 1 778 0
 2912 161a BA0A0000 		movl	$10, %edx
 2912      00
 2913 161f EBA6     		jmp	L293
 2914              	LVL339:
 2915              		.p2align 4,,7
 2916              	L341:
 488:./Source/CS229Image.c ****     if(!picture || !color)
 2917              		.loc 1 488 0
 2918 1621 BA0C0000 		movl	$12, %edx
 2918      00
 2919 1626 EB9F     		jmp	L293
 2920              	LVL340:
 2921              		.p2align 4,,7
 2922              	L337:
 525:./Source/CS229Image.c ****     pixel = (uint8_t*)((uint32_t)picture->data + offset);
 2923              		.loc 1 525 0
 2924 1628 8B5D0C   		movl	12(%ebp), %ebx
 2925              	LVL341:
 2926 162b C1E302   		sall	$2, %ebx
 2927 162e D1EB     		shrl	%ebx
 2928 1630 035910   		addl	16(%ecx), %ebx
 2929              	LVL342:
 2930              	L317:
 573:./Source/CS229Image.c ****                 *(uint16_t*)pixel = color[0] & 0xFFFF;
 2931              		.loc 1 573 0
 2932 1633 8B5510   		movl	16(%ebp), %edx
 2933              	LVL343:
 2934 1636 8B02     		movl	(%edx), %eax
 2935 1638 31D2     		xorl	%edx, %edx
 2936 163a 668903   		movw	%ax, (%ebx)
 2937 163d EB88     		jmp	L293
 2938              	LVL344:
 2939              	L353:
 516:./Source/CS229Image.c ****     if((mul & 0x1) && !(pixel_number & 0x1))
 2940              		.loc 1 516 0
 2941 163f BE030000 		movl	$3, %esi
 2941      00
 2942              	LVL345:
 2943              		.p2align 4,,7
 2944              	L338:
 2945 1644 8B550C   		movl	12(%ebp), %edx
 2946              	LVL346:
 525:./Source/CS229Image.c ****     pixel = (uint8_t*)((uint32_t)picture->data + offset);
 2947              		.loc 1 525 0
 2948 1647 0FAF5D0C 		imull	12(%ebp), %ebx
 2949              	LVL347:
 516:./Source/CS229Image.c ****     if((mul & 0x1) && !(pixel_number & 0x1))
 2950              		.loc 1 516 0
GAS LISTING /cygdrive/c/Users/THESCI~1/AppData/Local/Temp/ccH1olGy.s 			page 98


 2951 164b F7D2     		notl	%edx
 525:./Source/CS229Image.c ****     pixel = (uint8_t*)((uint32_t)picture->data + offset);
 2952              		.loc 1 525 0
 2953 164d D1EB     		shrl	%ebx
 516:./Source/CS229Image.c ****     if((mul & 0x1) && !(pixel_number & 0x1))
 2954              		.loc 1 516 0
 2955 164f 83E201   		andl	$1, %edx
 525:./Source/CS229Image.c ****     pixel = (uint8_t*)((uint32_t)picture->data + offset);
 2956              		.loc 1 525 0
 2957 1652 035910   		addl	16(%ecx), %ebx
 531:./Source/CS229Image.c ****     if(len == 1)
 2958              		.loc 1 531 0
 2959 1655 83EE01   		subl	$1, %esi
 2960              	LVL348:
 2961 1658 0F848A03 		je	L343
 2961      0000
 2962 165e 0FB67102 		movzbl	2(%ecx), %esi
 2963              	L312:
 578:./Source/CS229Image.c ****         if(picture->first_channel.red_channel_size == FOUR_BIT_CHANNEL)
 2964              		.loc 1 578 0
 2965 1662 89F0     		movl	%esi, %eax
 2966 1664 2C01     		subb	$1, %al
 2967 1666 0F84A401 		je	L347
 2967      0000
 604:./Source/CS229Image.c ****         else if(picture->first_channel.red_channel_size == EIGHT_BIT_CHANNEL)
 2968              		.loc 1 604 0
 2969 166c 89F0     		movl	%esi, %eax
 2970 166e 3C02     		cmpb	$2, %al
 2971 1670 0F840102 		je	L348
 2971      0000
 626:./Source/CS229Image.c ****             if(half_in)
 2972              		.loc 1 626 0
 2973 1676 85D2     		testl	%edx, %edx
 2974 1678 0F84C901 		je	L323
 2974      0000
 629:./Source/CS229Image.c ****                 *(uint32_t*)pixel &= 0xF0000FFF;
 2975              		.loc 1 629 0
 2976 167e 8123FF0F 		andl	$-268431361, (%ebx)
 2976      00F0
 635:./Source/CS229Image.c ****                 pixel += 2;
 2977              		.loc 1 635 0
 2978 1684 83C302   		addl	$2, %ebx
 2979              	L320:
 647:./Source/CS229Image.c ****         if(picture->green_channel_size == FOUR_BIT_CHANNEL)
 2980              		.loc 1 647 0
 2981 1687 0FB64103 		movzbl	3(%ecx), %eax
 2982 168b 3C01     		cmpb	$1, %al
 2983 168d 0F845101 		je	L349
 2983      0000
 673:./Source/CS229Image.c ****         else if(picture->green_channel_size == EIGHT_BIT_CHANNEL)
 2984              		.loc 1 673 0
 2985 1693 3C02     		cmpb	$2, %al
 2986 1695 0F84BC01 		je	L350
 2986      0000
 695:./Source/CS229Image.c ****             if(half_in)
 2987              		.loc 1 695 0
 2988 169b 85D2     		testl	%edx, %edx
GAS LISTING /cygdrive/c/Users/THESCI~1/AppData/Local/Temp/ccH1olGy.s 			page 99


 2989 169d 0F849301 		je	L329
 2989      0000
 698:./Source/CS229Image.c ****                 *(uint32_t*)pixel &= 0xF0000FFF;
 2990              		.loc 1 698 0
 2991 16a3 8123FF0F 		andl	$-268431361, (%ebx)
 2991      00F0
 704:./Source/CS229Image.c ****                 pixel += 2;
 2992              		.loc 1 704 0
 2993 16a9 83C302   		addl	$2, %ebx
 2994              	L326:
 716:./Source/CS229Image.c ****         if(picture->blue_channel_size == FOUR_BIT_CHANNEL)
 2995              		.loc 1 716 0
 2996 16ac 0FB64104 		movzbl	4(%ecx), %eax
 2997 16b0 3C01     		cmpb	$1, %al
 2998 16b2 0F840801 		je	L351
 2998      0000
 742:./Source/CS229Image.c ****         else if(picture->blue_channel_size == EIGHT_BIT_CHANNEL)
 2999              		.loc 1 742 0
 3000 16b8 3C02     		cmpb	$2, %al
 3001 16ba 0F84D601 		je	L352
 3001      0000
 764:./Source/CS229Image.c ****             if(half_in)
 3002              		.loc 1 764 0
 3003 16c0 85D2     		testl	%edx, %edx
 3004 16c2 0F85E800 		jne	L345
 3004      0000
 778:./Source/CS229Image.c ****                 *(uint16_t*)pixel = color[2] & 0xFFFF;
 3005              		.loc 1 778 0
 3006 16c8 8B7510   		movl	16(%ebp), %esi
 3007 16cb 31D2     		xorl	%edx, %edx
 3008              	LVL349:
 3009 16cd 8B4608   		movl	8(%esi), %eax
 3010 16d0 668903   		movw	%ax, (%ebx)
 3011 16d3 E9EFFEFF 		jmp	L293
 3011      FF
 3012              	LVL350:
 3013              		.p2align 4,,7
 3014              	L336:
 525:./Source/CS229Image.c ****     pixel = (uint8_t*)((uint32_t)picture->data + offset);
 3015              		.loc 1 525 0
 3016 16d8 8B5D0C   		movl	12(%ebp), %ebx
 3017              	LVL351:
 3018 16db 81E3FFFF 		andl	$2147483647, %ebx
 3018      FF7F
 3019 16e1 035910   		addl	16(%ecx), %ebx
 3020              	LVL352:
 3021              	L344:
 571:./Source/CS229Image.c ****                 *pixel = color[0] & 0xFF;
 3022              		.loc 1 571 0
 3023 16e4 8B7510   		movl	16(%ebp), %esi
 3024 16e7 31D2     		xorl	%edx, %edx
 3025              	LVL353:
 3026 16e9 8B06     		movl	(%esi), %eax
 3027 16eb 8803     		movb	%al, (%ebx)
 3028 16ed E9D5FEFF 		jmp	L293
 3028      FF
 3029              	LVL354:
GAS LISTING /cygdrive/c/Users/THESCI~1/AppData/Local/Temp/ccH1olGy.s 			page 100


 3030              		.p2align 4,,7
 3031              	L296:
 3032              	LBB55:
 3033              	LBB52:
 180:./Source/CS229Image.c ****         switch(dest->first_channel.red_channel_size)
 3034              		.loc 1 180 0
 3035 16f2 0FB67102 		movzbl	2(%ecx), %esi
 3036 16f6 89F0     		movl	%esi, %eax
 3037 16f8 3C02     		cmpb	$2, %al
 3038 16fa 0F847A02 		je	L300
 3038      0000
 3039 1700 3C04     		cmpb	$4, %al
 3040 1702 0F843402 		je	L301
 3040      0000
 3041 1708 2C01     		subb	$1, %al
 3042 170a 0F850AFF 		jne	L298
 3042      FFFF
 3043 1710 C745EC03 		movl	$3, -20(%ebp)
 3043      000000
 3044              	LVL355:
 3045 1717 BB040000 		movl	$4, %ebx
 3045      00
 3046              	LVL356:
 3047 171c BF060000 		movl	$6, %edi
 3047      00
 3048              	LVL357:
 3049 1721 C745E004 		movl	$4, -32(%ebp)
 3049      000000
 3050              	LVL358:
 3051 1728 BA090000 		movl	$9, %edx
 3051      00
 3052              	LVL359:
 3053 172d C745E806 		movl	$6, -24(%ebp)
 3053      000000
 3054              	LVL360:
 3055 1734 C745E405 		movl	$5, -28(%ebp)
 3055      000000
 3056              	LVL361:
 3057 173b C745F007 		movl	$7, -16(%ebp)
 3057      000000
 3058              	LVL362:
 3059 1742 C745DC07 		movl	$7, -36(%ebp)
 3059      000000
 3060              	LVL363:
 3061              	L302:
 196:./Source/CS229Image.c ****         switch(dest->green_channel_size)
 3062              		.loc 1 196 0
 3063 1749 0FB64103 		movzbl	3(%ecx), %eax
 3064 174d 3C02     		cmpb	$2, %al
 3065 174f 0F846A02 		je	L304
 3065      0000
 3066 1755 3C04     		cmpb	$4, %al
 3067 1757 0F845B02 		je	L305
 3067      0000
 3068 175d 2C01     		subb	$1, %al
 3069 175f 0F85B5FE 		jne	L298
 3069      FFFF
GAS LISTING /cygdrive/c/Users/THESCI~1/AppData/Local/Temp/ccH1olGy.s 			page 101


 3070 1765 8B55E0   		movl	-32(%ebp), %edx
 3071 1768 8B5DEC   		movl	-20(%ebp), %ebx
 3072 176b 8955DC   		movl	%edx, -36(%ebp)
 3073              	LVL364:
 3074 176e 8B55E8   		movl	-24(%ebp), %edx
 3075              	LVL365:
 3076              	L306:
 212:./Source/CS229Image.c ****         switch(dest->blue_channel_size)
 3077              		.loc 1 212 0
 3078 1771 0FB64104 		movzbl	4(%ecx), %eax
 3079 1775 3C02     		cmpb	$2, %al
 3080 1777 0F845C02 		je	L308
 3080      0000
 3081 177d 3C04     		cmpb	$4, %al
 3082 177f 0F844802 		je	L309
 3082      0000
 3083 1785 2C01     		subb	$1, %al
 3084 1787 0F858DFE 		jne	L298
 3084      FFFF
 3085 178d 89D8     		movl	%ebx, %eax
 3086 178f 83E001   		andl	$1, %eax
 3087              	LVL366:
 3088              	L310:
 3089              	LBE52:
 3090              	LBE55:
 516:./Source/CS229Image.c ****     if((mul & 0x1) && !(pixel_number & 0x1))
 3091              		.loc 1 516 0
 3092 1792 84C0     		testb	%al, %al
 3093 1794 0F85A5FE 		jne	L353
 3093      FFFF
 525:./Source/CS229Image.c ****     pixel = (uint8_t*)((uint32_t)picture->data + offset);
 3094              		.loc 1 525 0
 3095 179a 0FAF5D0C 		imull	12(%ebp), %ebx
 3096              	LVL367:
 3097 179e 31D2     		xorl	%edx, %edx
 3098              	LVL368:
 3099 17a0 D1EB     		shrl	%ebx
 3100 17a2 035910   		addl	16(%ecx), %ebx
 3101 17a5 E9B8FEFF 		jmp	L312
 3101      FF
 3102 17aa 8DB60000 		.p2align 4,,7
 3102      0000
 3103              	L345:
 767:./Source/CS229Image.c ****                 *(uint32_t*)pixel &= 0xF0000FFF;
 3104              		.loc 1 767 0
 3105 17b0 8123FF0F 		andl	$-268431361, (%ebx)
 3105      00F0
 770:./Source/CS229Image.c ****                 *pixel |= (color[2] & 0xFFFF) << 12;
 3106              		.loc 1 770 0
 3107 17b6 31D2     		xorl	%edx, %edx
 3108              	LVL369:
 3109 17b8 E90AFEFF 		jmp	L293
 3109      FF
 3110              	LVL370:
 3111 17bd 8D7600   		.p2align 4,,7
 3112              	L351:
 718:./Source/CS229Image.c ****             if(half_in)
GAS LISTING /cygdrive/c/Users/THESCI~1/AppData/Local/Temp/ccH1olGy.s 			page 102


 3113              		.loc 1 718 0
 3114 17c0 85D2     		testl	%edx, %edx
 3115 17c2 0F84ED00 		je	L331
 3115      0000
 721:./Source/CS229Image.c ****                 *pixel &= 0xF0;
 3116              		.loc 1 721 0
 3117 17c8 0FB613   		movzbl	(%ebx), %edx
 3118              	LVL371:
 3119 17cb 83E2F0   		andl	$-16, %edx
 3120 17ce 8813     		movb	%dl, (%ebx)
 724:./Source/CS229Image.c ****                 *pixel |= color[2] & 0x0F;
 3121              		.loc 1 724 0
 3122 17d0 8B4D10   		movl	16(%ebp), %ecx
 3123              	LVL372:
 3124 17d3 8B4108   		movl	8(%ecx), %eax
 3125 17d6 83E00F   		andl	$15, %eax
 3126 17d9 09C2     		orl	%eax, %edx
 3127 17db 8813     		movb	%dl, (%ebx)
 3128 17dd 31D2     		xorl	%edx, %edx
 3129 17df E9E3FDFF 		jmp	L293
 3129      FF
 3130              	LVL373:
 3131              		.p2align 4,,7
 3132              	L349:
 649:./Source/CS229Image.c ****             if(half_in)
 3133              		.loc 1 649 0
 3134 17e4 85D2     		testl	%edx, %edx
 3135 17e6 0F84E500 		je	L325
 3135      0000
 652:./Source/CS229Image.c ****                 *pixel &= 0xF0;
 3136              		.loc 1 652 0
 3137 17ec 0FB613   		movzbl	(%ebx), %edx
 3138              	LVL374:
 3139 17ef 83E2F0   		andl	$-16, %edx
 3140 17f2 8813     		movb	%dl, (%ebx)
 655:./Source/CS229Image.c ****                 *pixel |= color[1] & 0x0F;
 3141              		.loc 1 655 0
 3142 17f4 8B7510   		movl	16(%ebp), %esi
 3143 17f7 8B4604   		movl	4(%esi), %eax
 3144 17fa 83E00F   		andl	$15, %eax
 3145 17fd 09C2     		orl	%eax, %edx
 3146 17ff 8813     		movb	%dl, (%ebx)
 659:./Source/CS229Image.c ****                 pixel++;
 3147              		.loc 1 659 0
 3148 1801 83C301   		addl	$1, %ebx
 3149 1804 31D2     		xorl	%edx, %edx
 3150              	LVL375:
 3151 1806 E9A1FEFF 		jmp	L326
 3151      FF
 3152 180b 908D7426 		.p2align 4,,7
 3152      00
 3153              	L347:
 580:./Source/CS229Image.c ****             if(half_in)
 3154              		.loc 1 580 0
 3155 1810 85D2     		testl	%edx, %edx
 3156 1812 0F84D800 		je	L319
 3156      0000
GAS LISTING /cygdrive/c/Users/THESCI~1/AppData/Local/Temp/ccH1olGy.s 			page 103


 583:./Source/CS229Image.c ****                 *pixel &= 0xF0;
 3157              		.loc 1 583 0
 3158 1818 0FB613   		movzbl	(%ebx), %edx
 3159              	LVL376:
 3160 181b 83E2F0   		andl	$-16, %edx
 3161 181e 8813     		movb	%dl, (%ebx)
 586:./Source/CS229Image.c ****                 *pixel |= color[0] & 0x0F;
 3162              		.loc 1 586 0
 3163 1820 8B7510   		movl	16(%ebp), %esi
 3164 1823 8B06     		movl	(%esi), %eax
 3165 1825 83E00F   		andl	$15, %eax
 3166 1828 09C2     		orl	%eax, %edx
 3167 182a 8813     		movb	%dl, (%ebx)
 590:./Source/CS229Image.c ****                 pixel++;
 3168              		.loc 1 590 0
 3169 182c 83C301   		addl	$1, %ebx
 3170 182f 31D2     		xorl	%edx, %edx
 3171              	LVL377:
 3172 1831 E951FEFF 		jmp	L320
 3172      FF
 3173              	L329:
 709:./Source/CS229Image.c ****                 *(uint16_t*)pixel = color[1] & 0xFFFF;
 3174              		.loc 1 709 0
 3175 1836 8B7510   		movl	16(%ebp), %esi
 3176 1839 8B4604   		movl	4(%esi), %eax
 3177 183c 668903   		movw	%ax, (%ebx)
 712:./Source/CS229Image.c ****                 pixel += 2;
 3178              		.loc 1 712 0
 3179 183f 83C302   		addl	$2, %ebx
 3180 1842 E965FEFF 		jmp	L326
 3180      FF
 3181              	L323:
 640:./Source/CS229Image.c ****                 *(uint16_t*)pixel = color[0] & 0xFFFF;
 3182              		.loc 1 640 0
 3183 1847 8B7510   		movl	16(%ebp), %esi
 3184 184a 8B06     		movl	(%esi), %eax
 3185 184c 668903   		movw	%ax, (%ebx)
 643:./Source/CS229Image.c ****                 pixel += 2;
 3186              		.loc 1 643 0
 3187 184f 83C302   		addl	$2, %ebx
 3188 1852 E930FEFF 		jmp	L320
 3188      FF
 3189              	L350:
 675:./Source/CS229Image.c ****             if(half_in)
 3190              		.loc 1 675 0
 3191 1857 85D2     		testl	%edx, %edx
 3192 1859 0F84AF00 		je	L328
 3192      0000
 681:./Source/CS229Image.c ****                 *pixel |= (color[1] & 0xFF) << 4;
 3193              		.loc 1 681 0
 3194 185f 8B7510   		movl	16(%ebp), %esi
 678:./Source/CS229Image.c ****                 *(uint16_t*)pixel &= 0xF00F;
 3195              		.loc 1 678 0
 3196 1862 6681230F 		andw	$-4081, (%ebx)
 3196      F0
 681:./Source/CS229Image.c ****                 *pixel |= (color[1] & 0xFF) << 4;
 3197              		.loc 1 681 0
GAS LISTING /cygdrive/c/Users/THESCI~1/AppData/Local/Temp/ccH1olGy.s 			page 104


 3198 1867 8B4604   		movl	4(%esi), %eax
 3199 186a C1E004   		sall	$4, %eax
 3200 186d 0803     		orb	%al, (%ebx)
 684:./Source/CS229Image.c ****                 pixel++;
 3201              		.loc 1 684 0
 3202 186f 83C301   		addl	$1, %ebx
 3203 1872 E935FEFF 		jmp	L326
 3203      FF
 3204              	L348:
 606:./Source/CS229Image.c ****             if(half_in)
 3205              		.loc 1 606 0
 3206 1877 85D2     		testl	%edx, %edx
 3207 1879 0F84AE00 		je	L322
 3207      0000
 612:./Source/CS229Image.c ****                 *pixel |= (color[0] & 0xFF) << 4;
 3208              		.loc 1 612 0
 3209 187f 8B7510   		movl	16(%ebp), %esi
 609:./Source/CS229Image.c ****                 *(uint16_t*)pixel &= 0xF00F;
 3210              		.loc 1 609 0
 3211 1882 6681230F 		andw	$-4081, (%ebx)
 3211      F0
 612:./Source/CS229Image.c ****                 *pixel |= (color[0] & 0xFF) << 4;
 3212              		.loc 1 612 0
 3213 1887 8B06     		movl	(%esi), %eax
 3214 1889 C1E004   		sall	$4, %eax
 3215 188c 0803     		orb	%al, (%ebx)
 615:./Source/CS229Image.c ****                 pixel++;
 3216              		.loc 1 615 0
 3217 188e 83C301   		addl	$1, %ebx
 3218 1891 E9F1FDFF 		jmp	L320
 3218      FF
 3219              	L352:
 744:./Source/CS229Image.c ****             if(half_in)
 3220              		.loc 1 744 0
 3221 1896 85D2     		testl	%edx, %edx
 3222 1898 0F848000 		je	L333
 3222      0000
 750:./Source/CS229Image.c ****                 *pixel |= (color[2] & 0xFF) << 4;
 3223              		.loc 1 750 0
 3224 189e 8B5510   		movl	16(%ebp), %edx
 3225              	LVL378:
 747:./Source/CS229Image.c ****                 *(uint16_t*)pixel &= 0xF00F;
 3226              		.loc 1 747 0
 3227 18a1 6681230F 		andw	$-4081, (%ebx)
 3227      F0
 750:./Source/CS229Image.c ****                 *pixel |= (color[2] & 0xFF) << 4;
 3228              		.loc 1 750 0
 3229 18a6 8B4208   		movl	8(%edx), %eax
 3230 18a9 31D2     		xorl	%edx, %edx
 3231 18ab C1E004   		sall	$4, %eax
 3232 18ae 0803     		orb	%al, (%ebx)
 3233 18b0 E912FDFF 		jmp	L293
 3233      FF
 3234              	LVL379:
 3235              	L331:
 733:./Source/CS229Image.c ****                 *pixel &= 0x0F;
 3236              		.loc 1 733 0
GAS LISTING /cygdrive/c/Users/THESCI~1/AppData/Local/Temp/ccH1olGy.s 			page 105


 3237 18b5 0FB613   		movzbl	(%ebx), %edx
 3238              	LVL380:
 3239 18b8 83E20F   		andl	$15, %edx
 3240 18bb 8813     		movb	%dl, (%ebx)
 736:./Source/CS229Image.c ****                 *pixel |= (color[2] << 4) & 0xF0;
 3241              		.loc 1 736 0
 3242 18bd 8B7510   		movl	16(%ebp), %esi
 3243 18c0 8B4608   		movl	8(%esi), %eax
 3244 18c3 C1E004   		sall	$4, %eax
 3245 18c6 09C2     		orl	%eax, %edx
 3246 18c8 8813     		movb	%dl, (%ebx)
 3247 18ca 31D2     		xorl	%edx, %edx
 3248 18cc E9F6FCFF 		jmp	L293
 3248      FF
 3249              	LVL381:
 3250              	L325:
 664:./Source/CS229Image.c ****                 *pixel &= 0x0F;
 3251              		.loc 1 664 0
 3252 18d1 0FB613   		movzbl	(%ebx), %edx
 3253              	LVL382:
 3254 18d4 83E20F   		andl	$15, %edx
 3255 18d7 8813     		movb	%dl, (%ebx)
 667:./Source/CS229Image.c ****                 *pixel |= (color[1] << 4) & 0xF0;
 3256              		.loc 1 667 0
 3257 18d9 8B7510   		movl	16(%ebp), %esi
 3258 18dc 8B4604   		movl	4(%esi), %eax
 3259 18df C1E004   		sall	$4, %eax
 3260 18e2 09C2     		orl	%eax, %edx
 3261 18e4 8813     		movb	%dl, (%ebx)
 3262 18e6 BA010000 		movl	$1, %edx
 3262      00
 3263              	LVL383:
 3264 18eb E9BCFDFF 		jmp	L326
 3264      FF
 3265              	L319:
 595:./Source/CS229Image.c ****                 *pixel &= 0x0F;
 3266              		.loc 1 595 0
 3267 18f0 0FB613   		movzbl	(%ebx), %edx
 3268              	LVL384:
 3269 18f3 83E20F   		andl	$15, %edx
 3270 18f6 8813     		movb	%dl, (%ebx)
 598:./Source/CS229Image.c ****                 *pixel |= (color[0] << 4) & 0xF0;
 3271              		.loc 1 598 0
 3272 18f8 8B7510   		movl	16(%ebp), %esi
 3273 18fb 8B06     		movl	(%esi), %eax
 3274 18fd C1E004   		sall	$4, %eax
 3275 1900 09C2     		orl	%eax, %edx
 3276 1902 8813     		movb	%dl, (%ebx)
 3277 1904 BA010000 		movl	$1, %edx
 3277      00
 3278              	LVL385:
 3279 1909 E979FDFF 		jmp	L320
 3279      FF
 3280              	L328:
 689:./Source/CS229Image.c ****                 *pixel = color[1] & 0xFF;
 3281              		.loc 1 689 0
 3282 190e 8B7510   		movl	16(%ebp), %esi
GAS LISTING /cygdrive/c/Users/THESCI~1/AppData/Local/Temp/ccH1olGy.s 			page 106


 3283 1911 8B4604   		movl	4(%esi), %eax
 3284 1914 8803     		movb	%al, (%ebx)
 690:./Source/CS229Image.c ****                 pixel++;
 3285              		.loc 1 690 0
 3286 1916 83C301   		addl	$1, %ebx
 3287 1919 E98EFDFF 		jmp	L326
 3287      FF
 3288              	L333:
 758:./Source/CS229Image.c ****                 *pixel = color[2] & 0xFF;
 3289              		.loc 1 758 0
 3290 191e 8B4D10   		movl	16(%ebp), %ecx
 3291              	LVL386:
 3292 1921 31D2     		xorl	%edx, %edx
 3293              	LVL387:
 3294 1923 8B4108   		movl	8(%ecx), %eax
 3295 1926 8803     		movb	%al, (%ebx)
 3296 1928 E99AFCFF 		jmp	L293
 3296      FF
 3297              	LVL388:
 3298              	L322:
 620:./Source/CS229Image.c ****                 *pixel = color[0] & 0xFF;
 3299              		.loc 1 620 0
 3300 192d 8B7510   		movl	16(%ebp), %esi
 3301 1930 8B06     		movl	(%esi), %eax
 3302 1932 8803     		movb	%al, (%ebx)
 621:./Source/CS229Image.c ****                 pixel++;
 3303              		.loc 1 621 0
 3304 1934 83C301   		addl	$1, %ebx
 3305 1937 E94BFDFF 		jmp	L320
 3305      FF
 3306              	LVL389:
 3307              	L301:
 3308              	LBB56:
 3309              	LBB54:
 180:./Source/CS229Image.c ****         switch(dest->first_channel.red_channel_size)
 3310              		.loc 1 180 0
 3311 193c C745EC06 		movl	$6, -20(%ebp)
 3311      000000
 3312              	LVL390:
 3313 1943 BB070000 		movl	$7, %ebx
 3313      00
 3314              	LVL391:
 3315 1948 BF090000 		movl	$9, %edi
 3315      00
 3316              	LVL392:
 3317 194d C745E007 		movl	$7, -32(%ebp)
 3317      000000
 3318              	LVL393:
 3319 1954 BA0C0000 		movl	$12, %edx
 3319      00
 3320              	LVL394:
 3321 1959 C745E809 		movl	$9, -24(%ebp)
 3321      000000
 3322              	LVL395:
 3323 1960 C745E408 		movl	$8, -28(%ebp)
 3323      000000
 3324              	LVL396:
GAS LISTING /cygdrive/c/Users/THESCI~1/AppData/Local/Temp/ccH1olGy.s 			page 107


 3325 1967 C745F00A 		movl	$10, -16(%ebp)
 3325      000000
 3326              	LVL397:
 3327 196e C745DC0A 		movl	$10, -36(%ebp)
 3327      000000
 3328              	LVL398:
 3329 1975 E9CFFDFF 		jmp	L302
 3329      FF
 3330              	LVL399:
 3331              	L300:
 3332 197a C745EC04 		movl	$4, -20(%ebp)
 3332      000000
 3333              	LVL400:
 3334 1981 BB050000 		movl	$5, %ebx
 3334      00
 3335              	LVL401:
 3336 1986 BF070000 		movl	$7, %edi
 3336      00
 3337              	LVL402:
 3338 198b C745E005 		movl	$5, -32(%ebp)
 3338      000000
 3339              	LVL403:
 3340 1992 BA0A0000 		movl	$10, %edx
 3340      00
 3341              	LVL404:
 3342 1997 C745E807 		movl	$7, -24(%ebp)
 3342      000000
 3343              	LVL405:
 3344 199e C745E406 		movl	$6, -28(%ebp)
 3344      000000
 3345              	LVL406:
 3346 19a5 C745F008 		movl	$8, -16(%ebp)
 3346      000000
 3347              	LVL407:
 3348 19ac C745DC08 		movl	$8, -36(%ebp)
 3348      000000
 3349              	LVL408:
 3350 19b3 E991FDFF 		jmp	L302
 3350      FF
 3351              	L305:
 196:./Source/CS229Image.c ****         switch(dest->green_channel_size)
 3352              		.loc 1 196 0
 3353 19b8 89FB     		movl	%edi, %ebx
 3354 19ba E9B2FDFF 		jmp	L306
 3354      FF
 3355              	LVL409:
 3356              	L304:
 3357 19bf 8B45E4   		movl	-28(%ebp), %eax
 3358 19c2 8B55F0   		movl	-16(%ebp), %edx
 3359 19c5 8945DC   		movl	%eax, -36(%ebp)
 3360              	LVL410:
 3361 19c8 E9A4FDFF 		jmp	L306
 3361      FF
 3362              	LVL411:
 3363              	L309:
 212:./Source/CS229Image.c ****         switch(dest->blue_channel_size)
 3364              		.loc 1 212 0
GAS LISTING /cygdrive/c/Users/THESCI~1/AppData/Local/Temp/ccH1olGy.s 			page 108


 3365 19cd 89D0     		movl	%edx, %eax
 3366 19cf 89D3     		movl	%edx, %ebx
 3367 19d1 83E001   		andl	$1, %eax
 3368 19d4 E9B9FDFF 		jmp	L310
 3368      FF
 3369              	L308:
 3370 19d9 0FB645DC 		movzbl	-36(%ebp), %eax
 3371 19dd 8B5DDC   		movl	-36(%ebp), %ebx
 3372 19e0 83E001   		andl	$1, %eax
 3373 19e3 E9AAFDFF 		jmp	L310
 3373      FF
 3374              	LVL412:
 3375              	L343:
 3376              	LBE54:
 3377              	LBE56:
 533:./Source/CS229Image.c ****         if(half_in)
 3378              		.loc 1 533 0
 3379 19e8 85D2     		testl	%edx, %edx
 3380 19ea 0FB64102 		movzbl	2(%ecx), %eax
 3381 19ee 7422     		je	L313
 535:./Source/CS229Image.c ****             if(picture->first_channel.blackwhite_channel_size == FOUR_BIT_CHANNEL)
 3382              		.loc 1 535 0
 3383 19f0 3C01     		cmpb	$1, %al
 3384 19f2 7431     		je	L354
 543:./Source/CS229Image.c ****             else if(picture->first_channel.blackwhite_channel_size == EIGHT_BIT_CHANNEL)
 3385              		.loc 1 543 0
 3386 19f4 3C02     		cmpb	$2, %al
 3387              		.p2align 4,,3
 3388 19f6 0F85B4FD 		jne	L345
 3388      FFFF
 549:./Source/CS229Image.c ****                 *pixel |= (color[0] & 0xFF) << 4;
 3389              		.loc 1 549 0
 3390 19fc 8B7510   		movl	16(%ebp), %esi
 3391 19ff 31D2     		xorl	%edx, %edx
 3392              	LVL413:
 546:./Source/CS229Image.c ****                 *(uint16_t*)pixel &= 0xF00F;
 3393              		.loc 1 546 0
 3394 1a01 6681230F 		andw	$-4081, (%ebx)
 3394      F0
 549:./Source/CS229Image.c ****                 *pixel |= (color[0] & 0xFF) << 4;
 3395              		.loc 1 549 0
 3396 1a06 8B06     		movl	(%esi), %eax
 3397 1a08 C1E004   		sall	$4, %eax
 3398 1a0b 0803     		orb	%al, (%ebx)
 3399 1a0d E9B5FBFF 		jmp	L293
 3399      FF
 3400              	LVL414:
 3401              	L313:
 562:./Source/CS229Image.c ****             if(picture->first_channel.blackwhite_channel_size == FOUR_BIT_CHANNEL)
 3402              		.loc 1 562 0
 3403 1a12 3C01     		cmpb	$1, %al
 3404 1a14 742A     		je	L355
 570:./Source/CS229Image.c ****             else if(picture->first_channel.blackwhite_channel_size == EIGHT_BIT_CHANNEL)
 3405              		.loc 1 570 0
 3406 1a16 3C02     		cmpb	$2, %al
 3407 1a18 0F8515FC 		jne	L317
 3407      FFFF
GAS LISTING /cygdrive/c/Users/THESCI~1/AppData/Local/Temp/ccH1olGy.s 			page 109


 3408 1a1e 6690     		.p2align 4,,7
 3409 1a20 E9BFFCFF 		jmp	L344
 3409      FF
 3410              	L354:
 538:./Source/CS229Image.c ****                 *pixel &= 0xF0;
 3411              		.loc 1 538 0
 3412 1a25 0FB613   		movzbl	(%ebx), %edx
 3413              	LVL415:
 3414 1a28 83E2F0   		andl	$-16, %edx
 3415 1a2b 8813     		movb	%dl, (%ebx)
 541:./Source/CS229Image.c ****                 *pixel |= color[0] & 0x0F;
 3416              		.loc 1 541 0
 3417 1a2d 8B4D10   		movl	16(%ebp), %ecx
 3418              	LVL416:
 3419 1a30 8B01     		movl	(%ecx), %eax
 3420 1a32 83E00F   		andl	$15, %eax
 3421 1a35 09C2     		orl	%eax, %edx
 3422 1a37 8813     		movb	%dl, (%ebx)
 3423 1a39 31D2     		xorl	%edx, %edx
 3424 1a3b E987FBFF 		jmp	L293
 3424      FF
 3425              	LVL417:
 3426              	L355:
 565:./Source/CS229Image.c ****                 *pixel &= 0x0F;
 3427              		.loc 1 565 0
 3428 1a40 0FB613   		movzbl	(%ebx), %edx
 3429              	LVL418:
 3430 1a43 83E20F   		andl	$15, %edx
 3431 1a46 8813     		movb	%dl, (%ebx)
 568:./Source/CS229Image.c ****                 *pixel |= (color[0] << 4) & 0xF0;
 3432              		.loc 1 568 0
 3433 1a48 8B4D10   		movl	16(%ebp), %ecx
 3434              	LVL419:
 3435 1a4b 8B01     		movl	(%ecx), %eax
 3436 1a4d C1E004   		sall	$4, %eax
 3437 1a50 09C2     		orl	%eax, %edx
 3438 1a52 8813     		movb	%dl, (%ebx)
 3439 1a54 31D2     		xorl	%edx, %edx
 3440 1a56 E96CFBFF 		jmp	L293
 3440      FF
 3441              	LFE12:
 3442 1a5b 908D7426 		.p2align 4,,15
 3442      00
 3443              	.globl _darken_cs229_image
 3445              	_darken_cs229_image:
 3446              	LFB14:
 859:./Source/CS229Image.c **** {
 3447              		.loc 1 859 0
 3448              	LVL420:
 3449 1a60 55       		pushl	%ebp
 3450              	LCFI66:
 3451 1a61 89E5     		movl	%esp, %ebp
 3452              	LCFI67:
 3453 1a63 57       		pushl	%edi
 3454              	LCFI68:
 3455 1a64 56       		pushl	%esi
 3456              	LCFI69:
GAS LISTING /cygdrive/c/Users/THESCI~1/AppData/Local/Temp/ccH1olGy.s 			page 110


 3457 1a65 53       		pushl	%ebx
 3458              	LCFI70:
 3459 1a66 83EC2C   		subl	$44, %esp
 3460              	LCFI71:
 859:./Source/CS229Image.c **** {
 3461              		.loc 1 859 0
 3462 1a69 8B750C   		movl	12(%ebp), %esi
 3463 1a6c 8B7D08   		movl	8(%ebp), %edi
 867:./Source/CS229Image.c ****     if(percent < 0)
 3464              		.loc 1 867 0
 3465 1a6f 85F6     		testl	%esi, %esi
 3466 1a71 0F88FC00 		js	L368
 3466      0000
 3467              	LVL421:
 871:./Source/CS229Image.c ****     if(picture == NULL)
 3468              		.loc 1 871 0
 3469 1a77 85FF     		testl	%edi, %edi
 3470 1a79 BA0C0000 		movl	$12, %edx
 3470      00
 3471              	LVL422:
 3472 1a7e 740A     		je	L358
 875:./Source/CS229Image.c ****     if(picture->magic_number != CS229_MAGIC_NUMBER)
 3473              		.loc 1 875 0
 3474 1a80 803F42   		cmpb	$66, (%edi)
 3475 1a83 BA0B0000 		movl	$11, %edx
 3475      00
 3476 1a88 740A     		je	L369
 3477              	LVL423:
 3478              	L358:
 924:./Source/CS229Image.c **** }
 3479              		.loc 1 924 0
 3480 1a8a 83C42C   		addl	$44, %esp
 3481 1a8d 89D0     		movl	%edx, %eax
 3482 1a8f 5B       		popl	%ebx
 3483              	LVL424:
 3484 1a90 5E       		popl	%esi
 3485              	LVL425:
 3486 1a91 5F       		popl	%edi
 3487              	LVL426:
 3488 1a92 5D       		popl	%ebp
 3489 1a93 C3       		ret
 3490              	LVL427:
 3491              		.p2align 4,,7
 3492              	L369:
 879:./Source/CS229Image.c ****     if(picture->color_mode != MODE_BLACKWHITE && picture->color_mode != MODE_COLOR)
 3493              		.loc 1 879 0
 3494 1a94 0FB64701 		movzbl	1(%edi), %eax
 3495 1a98 BA040000 		movl	$4, %edx
 3495      00
 3496 1a9d 83E801   		subl	$1, %eax
 3497 1aa0 3CFD     		cmpb	$-3, %al
 3498 1aa2 76E6     		jbe	L358
 883:./Source/CS229Image.c ****     if(percent == 0)
 3499              		.loc 1 883 0
 3500 1aa4 85F6     		testl	%esi, %esi
 3501 1aa6 0F84BB00 		je	L362
 3501      0000
GAS LISTING /cygdrive/c/Users/THESCI~1/AppData/Local/Temp/ccH1olGy.s 			page 111


 887:./Source/CS229Image.c ****     len = picture->height.value * picture->width.value;
 3502              		.loc 1 887 0
 3503 1aac 8B470C   		movl	12(%edi), %eax
 3504 1aaf 0FAF4708 		imull	8(%edi), %eax
 890:./Source/CS229Image.c ****     for(i = 0;i < len;i++)
 3505              		.loc 1 890 0
 3506 1ab3 85C0     		testl	%eax, %eax
 887:./Source/CS229Image.c ****     len = picture->height.value * picture->width.value;
 3507              		.loc 1 887 0
 3508 1ab5 8945E0   		movl	%eax, -32(%ebp)
 3509              	LVL428:
 890:./Source/CS229Image.c ****     for(i = 0;i < len;i++)
 3510              		.loc 1 890 0
 3511 1ab8 0F84A900 		je	L362
 3511      0000
 3512 1abe 31DB     		xorl	%ebx, %ebx
 3513              	LVL429:
 3514 1ac0 EB38     		jmp	L365
 3515              		.p2align 4,,7
 3516              	L370:
 904:./Source/CS229Image.c ****             color[0] -= color[0] * percent / 100;
 3517              		.loc 1 904 0
 3518 1ac2 8B4DE8   		movl	-24(%ebp), %ecx
 3519 1ac5 89F2     		movl	%esi, %edx
 3520              	LVL430:
 3521 1ac7 B81F85EB 		movl	$1374389535, %eax
 3521      51
 3522 1acc 0FAFD1   		imull	%ecx, %edx
 3523 1acf F7E2     		mull	%edx
 3524 1ad1 C1EA05   		shrl	$5, %edx
 3525 1ad4 29D1     		subl	%edx, %ecx
 3526 1ad6 894DE8   		movl	%ecx, -24(%ebp)
 3527              	L364:
 915:./Source/CS229Image.c ****         err = set_pixel(picture,i,color);
 3528              		.loc 1 915 0
 3529 1ad9 8D45E8   		leal	-24(%ebp), %eax
 3530 1adc 89442408 		movl	%eax, 8(%esp)
 3531 1ae0 895C2404 		movl	%ebx, 4(%esp)
 3532 1ae4 893C24   		movl	%edi, (%esp)
 3533 1ae7 E8B4FAFF 		call	_set_pixel
 3533      FF
 918:./Source/CS229Image.c ****         if(err)
 3534              		.loc 1 918 0
 3535 1aec 85C0     		testl	%eax, %eax
 3536              	LVL431:
 915:./Source/CS229Image.c ****         err = set_pixel(picture,i,color);
 3537              		.loc 1 915 0
 3538 1aee 89C2     		movl	%eax, %edx
 3539              	LVL432:
 918:./Source/CS229Image.c ****         if(err)
 3540              		.loc 1 918 0
 3541 1af0 7598     		jne	L358
 890:./Source/CS229Image.c ****     for(i = 0;i < len;i++)
 3542              		.loc 1 890 0
 3543 1af2 83C301   		addl	$1, %ebx
 3544 1af5 395DE0   		cmpl	%ebx, -32(%ebp)
 3545 1af8 7690     		jbe	L358
GAS LISTING /cygdrive/c/Users/THESCI~1/AppData/Local/Temp/ccH1olGy.s 			page 112


 3546              	L365:
 893:./Source/CS229Image.c ****         err = get_pixel(picture,i,color);
 3547              		.loc 1 893 0
 3548 1afa 8D45E8   		leal	-24(%ebp), %eax
 3549 1afd 89442408 		movl	%eax, 8(%esp)
 3550 1b01 895C2404 		movl	%ebx, 4(%esp)
 3551 1b05 893C24   		movl	%edi, (%esp)
 3552 1b08 E8B3ECFF 		call	_get_pixel
 3552      FF
 3553              	LVL433:
 896:./Source/CS229Image.c ****         if(err)
 3554              		.loc 1 896 0
 3555 1b0d 85C0     		testl	%eax, %eax
 3556              	LVL434:
 893:./Source/CS229Image.c ****         err = get_pixel(picture,i,color);
 3557              		.loc 1 893 0
 3558 1b0f 89C2     		movl	%eax, %edx
 3559              	LVL435:
 896:./Source/CS229Image.c ****         if(err)
 3560              		.loc 1 896 0
 3561 1b11 0F8573FF 		jne	L358
 3561      FFFF
 901:./Source/CS229Image.c ****         if(picture->color_mode == MODE_BLACKWHITE)
 3562              		.loc 1 901 0
 3563 1b17 807F0100 		cmpb	$0, 1(%edi)
 3564 1b1b 74A5     		je	L370
 909:./Source/CS229Image.c ****             color[0] -= color[0] * percent / 100;
 3565              		.loc 1 909 0
 3566 1b1d 8B4DE8   		movl	-24(%ebp), %ecx
 3567 1b20 89F2     		movl	%esi, %edx
 3568              	LVL436:
 3569 1b22 B81F85EB 		movl	$1374389535, %eax
 3569      51
 3570 1b27 0FAFD1   		imull	%ecx, %edx
 3571 1b2a F7E2     		mull	%edx
 910:./Source/CS229Image.c ****             color[1] -= color[1] * percent / 100;
 3572              		.loc 1 910 0
 3573 1b2c B81F85EB 		movl	$1374389535, %eax
 3573      51
 909:./Source/CS229Image.c ****             color[0] -= color[0] * percent / 100;
 3574              		.loc 1 909 0
 3575 1b31 C1EA05   		shrl	$5, %edx
 3576 1b34 29D1     		subl	%edx, %ecx
 910:./Source/CS229Image.c ****             color[1] -= color[1] * percent / 100;
 3577              		.loc 1 910 0
 3578 1b36 89F2     		movl	%esi, %edx
 909:./Source/CS229Image.c ****             color[0] -= color[0] * percent / 100;
 3579              		.loc 1 909 0
 3580 1b38 894DE8   		movl	%ecx, -24(%ebp)
 910:./Source/CS229Image.c ****             color[1] -= color[1] * percent / 100;
 3581              		.loc 1 910 0
 3582 1b3b 8B4DEC   		movl	-20(%ebp), %ecx
 3583 1b3e 0FAFD1   		imull	%ecx, %edx
 3584 1b41 F7E2     		mull	%edx
 911:./Source/CS229Image.c ****             color[2] -= color[2] * percent / 100;
 3585              		.loc 1 911 0
 3586 1b43 B81F85EB 		movl	$1374389535, %eax
GAS LISTING /cygdrive/c/Users/THESCI~1/AppData/Local/Temp/ccH1olGy.s 			page 113


 3586      51
 910:./Source/CS229Image.c ****             color[1] -= color[1] * percent / 100;
 3587              		.loc 1 910 0
 3588 1b48 C1EA05   		shrl	$5, %edx
 3589 1b4b 29D1     		subl	%edx, %ecx
 911:./Source/CS229Image.c ****             color[2] -= color[2] * percent / 100;
 3590              		.loc 1 911 0
 3591 1b4d 89F2     		movl	%esi, %edx
 910:./Source/CS229Image.c ****             color[1] -= color[1] * percent / 100;
 3592              		.loc 1 910 0
 3593 1b4f 894DEC   		movl	%ecx, -20(%ebp)
 911:./Source/CS229Image.c ****             color[2] -= color[2] * percent / 100;
 3594              		.loc 1 911 0
 3595 1b52 8B4DF0   		movl	-16(%ebp), %ecx
 3596 1b55 0FAFD1   		imull	%ecx, %edx
 3597 1b58 F7E2     		mull	%edx
 3598 1b5a C1EA05   		shrl	$5, %edx
 3599 1b5d 29D1     		subl	%edx, %ecx
 3600 1b5f 894DF0   		movl	%ecx, -16(%ebp)
 3601 1b62 E972FFFF 		jmp	L364
 3601      FF
 3602              	LVL437:
 3603              		.p2align 4,,7
 3604              	L362:
 890:./Source/CS229Image.c ****     for(i = 0;i < len;i++)
 3605              		.loc 1 890 0
 3606 1b67 31D2     		xorl	%edx, %edx
 924:./Source/CS229Image.c **** }
 3607              		.loc 1 924 0
 3608 1b69 83C42C   		addl	$44, %esp
 3609 1b6c 89D0     		movl	%edx, %eax
 3610 1b6e 5B       		popl	%ebx
 3611 1b6f 5E       		popl	%esi
 3612              	LVL438:
 3613 1b70 5F       		popl	%edi
 3614              	LVL439:
 3615 1b71 5D       		popl	%ebp
 3616 1b72 C3       		ret
 3617              	LVL440:
 3618              		.p2align 4,,7
 3619              	L368:
 868:./Source/CS229Image.c ****         return lighten_cs229_image(picture,-percent);
 3620              		.loc 1 868 0
 3621 1b73 F7DE     		negl	%esi
 3622 1b75 89742404 		movl	%esi, 4(%esp)
 3623 1b79 893C24   		movl	%edi, (%esp)
 3624 1b7c E80F0000 		call	_lighten_cs229_image
 3624      00
 3625 1b81 89C2     		movl	%eax, %edx
 3626              	LVL441:
 3627 1b83 E902FFFF 		jmp	L358
 3627      FF
 3628              	LFE14:
 3629 1b88 908DB426 		.p2align 4,,15
 3629      00000000 
 3630              	.globl _lighten_cs229_image
 3632              	_lighten_cs229_image:
GAS LISTING /cygdrive/c/Users/THESCI~1/AppData/Local/Temp/ccH1olGy.s 			page 114


 3633              	LFB15:
 930:./Source/CS229Image.c **** {
 3634              		.loc 1 930 0
 3635              	LVL442:
 3636 1b90 55       		pushl	%ebp
 3637              	LCFI72:
 3638 1b91 89E5     		movl	%esp, %ebp
 3639              	LCFI73:
 3640 1b93 57       		pushl	%edi
 3641              	LCFI74:
 3642 1b94 56       		pushl	%esi
 3643              	LCFI75:
 3644 1b95 53       		pushl	%ebx
 3645              	LCFI76:
 3646 1b96 83EC2C   		subl	$44, %esp
 3647              	LCFI77:
 930:./Source/CS229Image.c **** {
 3648              		.loc 1 930 0
 3649 1b99 8B750C   		movl	12(%ebp), %esi
 3650 1b9c 8B7D08   		movl	8(%ebp), %edi
 946:./Source/CS229Image.c ****     if(percent < 0)
 3651              		.loc 1 946 0
 3652 1b9f 85F6     		testl	%esi, %esi
 3653 1ba1 0F885901 		js	L400
 3653      0000
 3654              	LVL443:
 950:./Source/CS229Image.c ****     if(picture == NULL)
 3655              		.loc 1 950 0
 3656 1ba7 85FF     		testl	%edi, %edi
 3657 1ba9 BA0C0000 		movl	$12, %edx
 3657      00
 3658              	LVL444:
 3659 1bae 740A     		je	L373
 954:./Source/CS229Image.c ****     if(picture->magic_number != CS229_MAGIC_NUMBER)
 3660              		.loc 1 954 0
 3661 1bb0 803F42   		cmpb	$66, (%edi)
 3662 1bb3 BA0B0000 		movl	$11, %edx
 3662      00
 3663 1bb8 740A     		je	L401
 3664              	LVL445:
 3665              	L373:
1071:./Source/CS229Image.c **** }
 3666              		.loc 1 1071 0
 3667 1bba 83C42C   		addl	$44, %esp
 3668 1bbd 89D0     		movl	%edx, %eax
 3669 1bbf 5B       		popl	%ebx
 3670              	LVL446:
 3671 1bc0 5E       		popl	%esi
 3672              	LVL447:
 3673 1bc1 5F       		popl	%edi
 3674              	LVL448:
 3675 1bc2 5D       		popl	%ebp
 3676 1bc3 C3       		ret
 3677              	LVL449:
 3678              		.p2align 4,,7
 3679              	L401:
 958:./Source/CS229Image.c ****     if(picture->color_mode != MODE_BLACKWHITE && picture->color_mode != MODE_COLOR)
GAS LISTING /cygdrive/c/Users/THESCI~1/AppData/Local/Temp/ccH1olGy.s 			page 115


 3680              		.loc 1 958 0
 3681 1bc4 0FB64F01 		movzbl	1(%edi), %ecx
 3682 1bc8 BA040000 		movl	$4, %edx
 3682      00
 3683 1bcd 8D41FF   		leal	-1(%ecx), %eax
 3684 1bd0 3CFD     		cmpb	$-3, %al
 3685 1bd2 76E6     		jbe	L373
 962:./Source/CS229Image.c ****     if(percent == 0)
 3686              		.loc 1 962 0
 3687 1bd4 85F6     		testl	%esi, %esi
 3688 1bd6 0F841401 		je	L377
 3688      0000
 967:./Source/CS229Image.c ****     if(picture->color_mode == MODE_BLACKWHITE)
 3689              		.loc 1 967 0
 3690 1bdc 84C9     		testb	%cl, %cl
 3691 1bde 0F853101 		jne	L378
 3691      0000
 970:./Source/CS229Image.c ****         switch(picture->first_channel.blackwhite_channel_size)
 3692              		.loc 1 970 0
 3693 1be4 0FB64702 		movzbl	2(%edi), %eax
 3694 1be8 3C02     		cmpb	$2, %al
 3695              		.p2align 4,,3
 3696 1bea 0F849501 		je	L381
 3696      0000
 3697 1bf0 3C04     		cmpb	$4, %al
 3698              		.p2align 4,,3
 3699 1bf2 0F84A801 		je	L382
 3699      0000
 3700 1bf8 2C01     		subb	$1, %al
 3701              		.p2align 4,,3
 3702 1bfa 0F852E01 		jne	L379
 3702      0000
 3703 1c00 C745D800 		movl	$0, -40(%ebp)
 3703      000000
 3704 1c07 C745DC00 		movl	$0, -36(%ebp)
 3704      000000
 3705 1c0e C745E00F 		movl	$15, -32(%ebp)
 3705      000000
 3706              	L383:
1037:./Source/CS229Image.c ****     len = picture->height.value * picture->width.value;
 3707              		.loc 1 1037 0
 3708 1c15 8B470C   		movl	12(%edi), %eax
 3709 1c18 0FAF4708 		imull	8(%edi), %eax
1040:./Source/CS229Image.c ****     for(i = 0;i < len;i++)
 3710              		.loc 1 1040 0
 3711 1c1c 85C0     		testl	%eax, %eax
1037:./Source/CS229Image.c ****     len = picture->height.value * picture->width.value;
 3712              		.loc 1 1037 0
 3713 1c1e 8945D4   		movl	%eax, -44(%ebp)
 3714              	LVL450:
1040:./Source/CS229Image.c ****     for(i = 0;i < len;i++)
 3715              		.loc 1 1040 0
 3716 1c21 0F84C900 		je	L377
 3716      0000
 3717 1c27 31DB     		xorl	%ebx, %ebx
 3718              	LVL451:
 3719 1c29 EB48     		jmp	L397
GAS LISTING /cygdrive/c/Users/THESCI~1/AppData/Local/Temp/ccH1olGy.s 			page 116


 3720 1c2b 908D7426 		.p2align 4,,7
 3720      00
 3721              	L402:
1052:./Source/CS229Image.c ****             color[0] += (max_val[0] - color[0]) * percent / 100;
 3722              		.loc 1 1052 0
 3723 1c30 8B4DE8   		movl	-24(%ebp), %ecx
 3724 1c33 B81F85EB 		movl	$1374389535, %eax
 3724      51
 3725 1c38 8B55E0   		movl	-32(%ebp), %edx
 3726              	LVL452:
 3727 1c3b 29CA     		subl	%ecx, %edx
 3728 1c3d 0FAFD6   		imull	%esi, %edx
 3729 1c40 F7E2     		mull	%edx
 3730 1c42 C1EA05   		shrl	$5, %edx
 3731 1c45 01CA     		addl	%ecx, %edx
 3732 1c47 8955E8   		movl	%edx, -24(%ebp)
 3733              	L396:
1062:./Source/CS229Image.c ****         err = set_pixel(picture,i,color);
 3734              		.loc 1 1062 0
 3735 1c4a 8D45E8   		leal	-24(%ebp), %eax
 3736 1c4d 89442408 		movl	%eax, 8(%esp)
 3737 1c51 895C2404 		movl	%ebx, 4(%esp)
 3738 1c55 893C24   		movl	%edi, (%esp)
 3739 1c58 E843F9FF 		call	_set_pixel
 3739      FF
1065:./Source/CS229Image.c ****         if(err)
 3740              		.loc 1 1065 0
 3741 1c5d 85C0     		testl	%eax, %eax
 3742              	LVL453:
1062:./Source/CS229Image.c ****         err = set_pixel(picture,i,color);
 3743              		.loc 1 1062 0
 3744 1c5f 89C2     		movl	%eax, %edx
 3745              	LVL454:
1065:./Source/CS229Image.c ****         if(err)
 3746              		.loc 1 1065 0
 3747 1c61 0F8553FF 		jne	L373
 3747      FFFF
1040:./Source/CS229Image.c ****     for(i = 0;i < len;i++)
 3748              		.loc 1 1040 0
 3749 1c67 83C301   		addl	$1, %ebx
 3750 1c6a 395DD4   		cmpl	%ebx, -44(%ebp)
 3751 1c6d 0F8647FF 		jbe	L373
 3751      FFFF
 3752              	L397:
1043:./Source/CS229Image.c ****         err = get_pixel(picture,i,color);
 3753              		.loc 1 1043 0
 3754 1c73 8D45E8   		leal	-24(%ebp), %eax
 3755 1c76 89442408 		movl	%eax, 8(%esp)
 3756 1c7a 895C2404 		movl	%ebx, 4(%esp)
 3757 1c7e 893C24   		movl	%edi, (%esp)
 3758 1c81 E83AEBFF 		call	_get_pixel
 3758      FF
 3759              	LVL455:
1046:./Source/CS229Image.c ****         if(err)
 3760              		.loc 1 1046 0
 3761 1c86 85C0     		testl	%eax, %eax
 3762              	LVL456:
GAS LISTING /cygdrive/c/Users/THESCI~1/AppData/Local/Temp/ccH1olGy.s 			page 117


1043:./Source/CS229Image.c ****         err = get_pixel(picture,i,color);
 3763              		.loc 1 1043 0
 3764 1c88 89C2     		movl	%eax, %edx
 3765              	LVL457:
1046:./Source/CS229Image.c ****         if(err)
 3766              		.loc 1 1046 0
 3767 1c8a 0F852AFF 		jne	L373
 3767      FFFF
1050:./Source/CS229Image.c ****         if(picture->color_mode == MODE_BLACKWHITE)
 3768              		.loc 1 1050 0
 3769 1c90 807F0100 		cmpb	$0, 1(%edi)
 3770 1c94 749A     		je	L402
1056:./Source/CS229Image.c ****             color[0] += (max_val[0] - color[0]) * percent / 100;
 3771              		.loc 1 1056 0
 3772 1c96 8B4DE8   		movl	-24(%ebp), %ecx
 3773 1c99 B81F85EB 		movl	$1374389535, %eax
 3773      51
 3774 1c9e 8B55E0   		movl	-32(%ebp), %edx
 3775              	LVL458:
 3776 1ca1 29CA     		subl	%ecx, %edx
 3777 1ca3 0FAFD6   		imull	%esi, %edx
 3778 1ca6 F7E2     		mull	%edx
1057:./Source/CS229Image.c ****             color[1] += (max_val[1] - color[1]) * percent / 100;
 3779              		.loc 1 1057 0
 3780 1ca8 B81F85EB 		movl	$1374389535, %eax
 3780      51
1056:./Source/CS229Image.c ****             color[0] += (max_val[0] - color[0]) * percent / 100;
 3781              		.loc 1 1056 0
 3782 1cad C1EA05   		shrl	$5, %edx
 3783 1cb0 01CA     		addl	%ecx, %edx
1057:./Source/CS229Image.c ****             color[1] += (max_val[1] - color[1]) * percent / 100;
 3784              		.loc 1 1057 0
 3785 1cb2 8B4DEC   		movl	-20(%ebp), %ecx
1056:./Source/CS229Image.c ****             color[0] += (max_val[0] - color[0]) * percent / 100;
 3786              		.loc 1 1056 0
 3787 1cb5 8955E8   		movl	%edx, -24(%ebp)
1057:./Source/CS229Image.c ****             color[1] += (max_val[1] - color[1]) * percent / 100;
 3788              		.loc 1 1057 0
 3789 1cb8 8B55DC   		movl	-36(%ebp), %edx
 3790 1cbb 29CA     		subl	%ecx, %edx
 3791 1cbd 0FAFD6   		imull	%esi, %edx
 3792 1cc0 F7E2     		mull	%edx
1058:./Source/CS229Image.c ****             color[2] += (max_val[2] - color[2]) * percent / 100;
 3793              		.loc 1 1058 0
 3794 1cc2 B81F85EB 		movl	$1374389535, %eax
 3794      51
1057:./Source/CS229Image.c ****             color[1] += (max_val[1] - color[1]) * percent / 100;
 3795              		.loc 1 1057 0
 3796 1cc7 C1EA05   		shrl	$5, %edx
 3797 1cca 01CA     		addl	%ecx, %edx
1058:./Source/CS229Image.c ****             color[2] += (max_val[2] - color[2]) * percent / 100;
 3798              		.loc 1 1058 0
 3799 1ccc 8B4DF0   		movl	-16(%ebp), %ecx
1057:./Source/CS229Image.c ****             color[1] += (max_val[1] - color[1]) * percent / 100;
 3800              		.loc 1 1057 0
 3801 1ccf 8955EC   		movl	%edx, -20(%ebp)
1058:./Source/CS229Image.c ****             color[2] += (max_val[2] - color[2]) * percent / 100;
GAS LISTING /cygdrive/c/Users/THESCI~1/AppData/Local/Temp/ccH1olGy.s 			page 118


 3802              		.loc 1 1058 0
 3803 1cd2 8B55D8   		movl	-40(%ebp), %edx
 3804 1cd5 29CA     		subl	%ecx, %edx
 3805 1cd7 0FAFD6   		imull	%esi, %edx
 3806 1cda F7E2     		mull	%edx
 3807 1cdc C1EA05   		shrl	$5, %edx
 3808 1cdf 01CA     		addl	%ecx, %edx
 3809 1ce1 8955F0   		movl	%edx, -16(%ebp)
 3810 1ce4 E961FFFF 		jmp	L396
 3810      FF
 3811              	LVL459:
 3812 1ce9 8DB42600 		.p2align 4,,7
 3812      000000
 3813              	L377:
1040:./Source/CS229Image.c ****     for(i = 0;i < len;i++)
 3814              		.loc 1 1040 0
 3815 1cf0 31D2     		xorl	%edx, %edx
1071:./Source/CS229Image.c **** }
 3816              		.loc 1 1071 0
 3817 1cf2 83C42C   		addl	$44, %esp
 3818 1cf5 89D0     		movl	%edx, %eax
 3819 1cf7 5B       		popl	%ebx
 3820 1cf8 5E       		popl	%esi
 3821              	LVL460:
 3822 1cf9 5F       		popl	%edi
 3823              	LVL461:
 3824 1cfa 5D       		popl	%ebp
 3825 1cfb C3       		ret
 3826              	LVL462:
 3827 1cfc 8D742600 		.p2align 4,,7
 3828              	L400:
 947:./Source/CS229Image.c ****         return darken_cs229_image(picture,-percent);
 3829              		.loc 1 947 0
 3830 1d00 F7DE     		negl	%esi
 3831 1d02 89742404 		movl	%esi, 4(%esp)
 3832 1d06 893C24   		movl	%edi, (%esp)
 3833 1d09 E852FDFF 		call	_darken_cs229_image
 3833      FF
 3834 1d0e 89C2     		movl	%eax, %edx
 3835              	LVL463:
 3836 1d10 E9A5FEFF 		jmp	L373
 3836      FF
 3837              	LVL464:
 3838              		.p2align 4,,7
 3839              	L378:
 988:./Source/CS229Image.c ****         switch(picture->first_channel.red_channel_size)
 3840              		.loc 1 988 0
 3841 1d15 0FB64702 		movzbl	2(%edi), %eax
 3842 1d19 3C02     		cmpb	$2, %al
 3843 1d1b 741B     		je	L385
 3844 1d1d 3C04     		cmpb	$4, %al
 3845 1d1f 90       		.p2align 4,,3
 3846 1d20 0F84A000 		je	L386
 3846      0000
 3847 1d26 2C01     		subb	$1, %al
 3848              		.p2align 4,,3
 3849 1d28 0F848C00 		je	L403
GAS LISTING /cygdrive/c/Users/THESCI~1/AppData/Local/Temp/ccH1olGy.s 			page 119


 3849      0000
 3850              	L379:
1040:./Source/CS229Image.c ****     for(i = 0;i < len;i++)
 3851              		.loc 1 1040 0
 3852 1d2e BA0A0000 		movl	$10, %edx
 3852      00
 3853              		.p2align 4,,5
 3854 1d33 E982FEFF 		jmp	L373
 3854      FF
 3855              		.p2align 4,,7
 3856              	L385:
 988:./Source/CS229Image.c ****         switch(picture->first_channel.red_channel_size)
 3857              		.loc 1 988 0
 3858 1d38 C745E0FF 		movl	$255, -32(%ebp)
 3858      000000
 3859              	L387:
1004:./Source/CS229Image.c ****         switch(picture->green_channel_size)
 3860              		.loc 1 1004 0
 3861 1d3f 0FB64703 		movzbl	3(%edi), %eax
 3862 1d43 3C02     		cmpb	$2, %al
 3863 1d45 0F849500 		je	L389
 3863      0000
 3864 1d4b 3C04     		cmpb	$4, %al
 3865 1d4d 0F847F00 		je	L390
 3865      0000
 3866 1d53 2C01     		subb	$1, %al
 3867 1d55 75D7     		jne	L379
 3868 1d57 C745DC0F 		movl	$15, -36(%ebp)
 3868      000000
 3869              	L391:
1020:./Source/CS229Image.c ****         switch(picture->blue_channel_size)
 3870              		.loc 1 1020 0
 3871 1d5e 0FB64704 		movzbl	4(%edi), %eax
 3872 1d62 3C02     		cmpb	$2, %al
 3873 1d64 0F848E00 		je	L393
 3873      0000
 3874 1d6a 3C04     		cmpb	$4, %al
 3875 1d6c 0F847A00 		je	L394
 3875      0000
 3876 1d72 2C01     		subb	$1, %al
 3877 1d74 75B8     		jne	L379
 3878 1d76 C745D80F 		movl	$15, -40(%ebp)
 3878      000000
 3879 1d7d 8D7600   		.p2align 4,,5
 3880 1d80 E990FEFF 		jmp	L383
 3880      FF
 3881              		.p2align 4,,7
 3882              	L381:
 970:./Source/CS229Image.c ****         switch(picture->first_channel.blackwhite_channel_size)
 3883              		.loc 1 970 0
 3884 1d85 C745D800 		movl	$0, -40(%ebp)
 3884      000000
 3885 1d8c C745DC00 		movl	$0, -36(%ebp)
 3885      000000
 3886 1d93 C745E0FF 		movl	$255, -32(%ebp)
 3886      000000
 3887 1d9a E976FEFF 		jmp	L383
GAS LISTING /cygdrive/c/Users/THESCI~1/AppData/Local/Temp/ccH1olGy.s 			page 120


 3887      FF
 3888 1d9f 90       		.p2align 4,,7
 3889              	L382:
 3890 1da0 C745D800 		movl	$0, -40(%ebp)
 3890      000000
 3891 1da7 C745DC00 		movl	$0, -36(%ebp)
 3891      000000
 3892 1dae C745E0FF 		movl	$65535, -32(%ebp)
 3892      FF0000
 3893 1db5 E95BFEFF 		jmp	L383
 3893      FF
 3894              	L403:
 988:./Source/CS229Image.c ****         switch(picture->first_channel.red_channel_size)
 3895              		.loc 1 988 0
 3896 1dba C745E00F 		movl	$15, -32(%ebp)
 3896      000000
 3897 1dc1 E979FFFF 		jmp	L387
 3897      FF
 3898              		.p2align 4,,7
 3899              	L386:
 3900 1dc6 C745E0FF 		movl	$65535, -32(%ebp)
 3900      FF0000
 3901 1dcd E96DFFFF 		jmp	L387
 3901      FF
 3902              	L390:
1004:./Source/CS229Image.c ****         switch(picture->green_channel_size)
 3903              		.loc 1 1004 0
 3904 1dd2 C745DCFF 		movl	$65535, -36(%ebp)
 3904      FF0000
 3905              		.p2align 4,,5
 3906 1dd9 E980FFFF 		jmp	L391
 3906      FF
 3907 1dde 6690     		.p2align 4,,7
 3908              	L389:
 3909 1de0 C745DCFF 		movl	$255, -36(%ebp)
 3909      000000
 3910              		.p2align 4,,5
 3911 1de7 E972FFFF 		jmp	L391
 3911      FF
 3912              	L394:
1020:./Source/CS229Image.c ****         switch(picture->blue_channel_size)
 3913              		.loc 1 1020 0
 3914 1dec C745D8FF 		movl	$65535, -40(%ebp)
 3914      FF0000
 3915              		.p2align 4,,5
 3916 1df3 E91DFEFF 		jmp	L383
 3916      FF
 3917              	L393:
 3918 1df8 C745D8FF 		movl	$255, -40(%ebp)
 3918      000000
 3919 1dff 90       		.p2align 4,,5
 3920 1e00 E910FEFF 		jmp	L383
 3920      FF
 3921              	LFE15:
 3922 1e05 8D742600 		.p2align 4,,15
 3922      8DBC2700 
 3922      000000
GAS LISTING /cygdrive/c/Users/THESCI~1/AppData/Local/Temp/ccH1olGy.s 			page 121


 3923              	.globl _flip_cs229_image
 3925              	_flip_cs229_image:
 3926              	LFB17:
1194:./Source/CS229Image.c **** {
 3927              		.loc 1 1194 0
 3928              	LVL465:
 3929 1e10 55       		pushl	%ebp
 3930              	LCFI78:
 3931 1e11 89E5     		movl	%esp, %ebp
 3932              	LCFI79:
 3933 1e13 57       		pushl	%edi
 3934              	LCFI80:
 3935 1e14 56       		pushl	%esi
 3936              	LCFI81:
 3937 1e15 53       		pushl	%ebx
 3938              	LCFI82:
 3939 1e16 83EC34   		subl	$52, %esp
 3940              	LCFI83:
1194:./Source/CS229Image.c **** {
 3941              		.loc 1 1194 0
 3942 1e19 0FB6450C 		movzbl	12(%ebp), %eax
1204:./Source/CS229Image.c ****     if(!(axis == 'h'  || axis == 'v'))
 3943              		.loc 1 1204 0
 3944 1e1d 3C68     		cmpb	$104, %al
 3945 1e1f 7416     		je	L405
 3946              	LVL466:
 3947 1e21 3C76     		cmpb	$118, %al
 3948 1e23 C745CC05 		movl	$5, -52(%ebp)
 3948      000000
 3949              	LVL467:
 3950 1e2a 740B     		je	L405
 3951              	LVL468:
 3952              	L406:
1300:./Source/CS229Image.c **** }
 3953              		.loc 1 1300 0
 3954 1e2c 8B45CC   		movl	-52(%ebp), %eax
 3955 1e2f 83C434   		addl	$52, %esp
 3956 1e32 5B       		popl	%ebx
 3957              	LVL469:
 3958 1e33 5E       		popl	%esi
 3959              	LVL470:
 3960 1e34 5F       		popl	%edi
 3961 1e35 5D       		popl	%ebp
 3962 1e36 C3       		ret
 3963              	LVL471:
 3964              		.p2align 4,,7
 3965              	L405:
1208:./Source/CS229Image.c ****     if(pic == NULL)
 3966              		.loc 1 1208 0
 3967 1e37 8B7D08   		movl	8(%ebp), %edi
 3968 1e3a C745CC0C 		movl	$12, -52(%ebp)
 3968      000000
 3969              	LVL472:
 3970 1e41 85FF     		testl	%edi, %edi
 3971 1e43 74E7     		je	L406
 3972              	LVL473:
1212:./Source/CS229Image.c ****     if(pic->magic_number != CS229_MAGIC_NUMBER)
GAS LISTING /cygdrive/c/Users/THESCI~1/AppData/Local/Temp/ccH1olGy.s 			page 122


 3973              		.loc 1 1212 0
 3974 1e45 8B5508   		movl	8(%ebp), %edx
 3975 1e48 C745CC0B 		movl	$11, -52(%ebp)
 3975      000000
 3976              	LVL474:
 3977 1e4f 803A42   		cmpb	$66, (%edx)
 3978 1e52 75D8     		jne	L406
1216:./Source/CS229Image.c ****     len = pic->width.value * pic->height.value;
 3979              		.loc 1 1216 0
 3980 1e54 8B5A0C   		movl	12(%edx), %ebx
 3981 1e57 8B5208   		movl	8(%edx), %edx
 3982 1e5a 89D1     		movl	%edx, %ecx
 3983 1e5c 0FAFCB   		imull	%ebx, %ecx
1219:./Source/CS229Image.c ****     if(axis == 'v')
 3984              		.loc 1 1219 0
 3985 1e5f 3C76     		cmpb	$118, %al
1216:./Source/CS229Image.c ****     len = pic->width.value * pic->height.value;
 3986              		.loc 1 1216 0
 3987 1e61 894DD0   		movl	%ecx, -48(%ebp)
 3988              	LVL475:
1219:./Source/CS229Image.c ****     if(axis == 'v')
 3989              		.loc 1 1219 0
 3990 1e64 0F84D600 		je	L409
 3990      0000
1261:./Source/CS229Image.c ****         for(i = 0;i / pic->width.value < pic->height.value / 2;i++)
 3991              		.loc 1 1261 0
 3992 1e6a 31FF     		xorl	%edi, %edi
1220:./Source/CS229Image.c ****         for(i = 0;i < len;i++)
 3993              		.loc 1 1220 0
 3994 1e6c 31F6     		xorl	%esi, %esi
 3995              	LVL476:
1261:./Source/CS229Image.c ****         for(i = 0;i / pic->width.value < pic->height.value / 2;i++)
 3996              		.loc 1 1261 0
 3997 1e6e D1EA     		shrl	%edx
 3998 1e70 0F85A200 		jne	L416
 3998      0000
 3999 1e76 E98A0100 		jmp	L411
 3999      00
 4000              	LVL477:
 4001 1e7b 908D7426 		.p2align 4,,7
 4001      00
 4002              	L418:
1267:./Source/CS229Image.c ****             mod = len + (i % pic->width.value) - (mod * pic->width.value);
 4003              		.loc 1 1267 0
 4004 1e80 31D2     		xorl	%edx, %edx
 4005 1e82 89F0     		movl	%esi, %eax
 4006 1e84 8B4DD0   		movl	-48(%ebp), %ecx
 4007 1e87 F7F3     		divl	%ebx
 4008 1e89 83C701   		addl	$1, %edi
 4009 1e8c 0FAFFB   		imull	%ebx, %edi
1277:./Source/CS229Image.c ****             err = get_pixel(pic,mod,colorB);
 4010              		.loc 1 1277 0
 4011 1e8f 8D45DC   		leal	-36(%ebp), %eax
 4012 1e92 89442408 		movl	%eax, 8(%esp)
1267:./Source/CS229Image.c ****             mod = len + (i % pic->width.value) - (mod * pic->width.value);
 4013              		.loc 1 1267 0
 4014 1e96 8D1C0A   		leal	(%edx,%ecx), %ebx
GAS LISTING /cygdrive/c/Users/THESCI~1/AppData/Local/Temp/ccH1olGy.s 			page 123


 4015              	LVL478:
1277:./Source/CS229Image.c ****             err = get_pixel(pic,mod,colorB);
 4016              		.loc 1 1277 0
 4017 1e99 8B5508   		movl	8(%ebp), %edx
1267:./Source/CS229Image.c ****             mod = len + (i % pic->width.value) - (mod * pic->width.value);
 4018              		.loc 1 1267 0
 4019 1e9c 29FB     		subl	%edi, %ebx
1277:./Source/CS229Image.c ****             err = get_pixel(pic,mod,colorB);
 4020              		.loc 1 1277 0
 4021 1e9e 895C2404 		movl	%ebx, 4(%esp)
 4022 1ea2 891424   		movl	%edx, (%esp)
 4023 1ea5 E816E9FF 		call	_get_pixel
 4023      FF
1280:./Source/CS229Image.c ****             if(err)
 4024              		.loc 1 1280 0
 4025 1eaa 85C0     		testl	%eax, %eax
1277:./Source/CS229Image.c ****             err = get_pixel(pic,mod,colorB);
 4026              		.loc 1 1277 0
 4027 1eac 8945CC   		movl	%eax, -52(%ebp)
 4028              	LVL479:
1280:./Source/CS229Image.c ****             if(err)
 4029              		.loc 1 1280 0
 4030 1eaf 0F8577FF 		jne	L406
 4030      FFFF
1284:./Source/CS229Image.c ****             err = set_pixel(pic,i,colorB);
 4031              		.loc 1 1284 0
 4032 1eb5 8B4508   		movl	8(%ebp), %eax
 4033 1eb8 8D4DDC   		leal	-36(%ebp), %ecx
 4034 1ebb 894C2408 		movl	%ecx, 8(%esp)
 4035 1ebf 89742404 		movl	%esi, 4(%esp)
 4036 1ec3 890424   		movl	%eax, (%esp)
 4037 1ec6 E8D5F6FF 		call	_set_pixel
 4037      FF
1287:./Source/CS229Image.c ****             if(err)
 4038              		.loc 1 1287 0
 4039 1ecb 85C0     		testl	%eax, %eax
1284:./Source/CS229Image.c ****             err = set_pixel(pic,i,colorB);
 4040              		.loc 1 1284 0
 4041 1ecd 8945CC   		movl	%eax, -52(%ebp)
 4042              	LVL480:
1287:./Source/CS229Image.c ****             if(err)
 4043              		.loc 1 1287 0
 4044 1ed0 0F8556FF 		jne	L406
 4044      FFFF
1291:./Source/CS229Image.c ****             err = set_pixel(pic,mod,colorA);
 4045              		.loc 1 1291 0
 4046 1ed6 8B4D08   		movl	8(%ebp), %ecx
 4047 1ed9 8D55E8   		leal	-24(%ebp), %edx
 4048 1edc 89542408 		movl	%edx, 8(%esp)
 4049 1ee0 895C2404 		movl	%ebx, 4(%esp)
 4050 1ee4 890C24   		movl	%ecx, (%esp)
 4051 1ee7 E8B4F6FF 		call	_set_pixel
 4051      FF
1294:./Source/CS229Image.c ****             if(err)
 4052              		.loc 1 1294 0
 4053 1eec 85C0     		testl	%eax, %eax
1291:./Source/CS229Image.c ****             err = set_pixel(pic,mod,colorA);
GAS LISTING /cygdrive/c/Users/THESCI~1/AppData/Local/Temp/ccH1olGy.s 			page 124


 4054              		.loc 1 1291 0
 4055 1eee 8945CC   		movl	%eax, -52(%ebp)
 4056              	LVL481:
1294:./Source/CS229Image.c ****             if(err)
 4057              		.loc 1 1294 0
 4058 1ef1 0F8535FF 		jne	L406
 4058      FFFF
1261:./Source/CS229Image.c ****         for(i = 0;i / pic->width.value < pic->height.value / 2;i++)
 4059              		.loc 1 1261 0
 4060 1ef7 8B4508   		movl	8(%ebp), %eax
 4061 1efa 83C601   		addl	$1, %esi
 4062 1efd 31D2     		xorl	%edx, %edx
 4063 1eff 8B4D08   		movl	8(%ebp), %ecx
 4064 1f02 8B580C   		movl	12(%eax), %ebx
 4065              	LVL482:
 4066 1f05 89F0     		movl	%esi, %eax
 4067 1f07 F7F3     		divl	%ebx
 4068 1f09 89C7     		movl	%eax, %edi
 4069 1f0b 8B4108   		movl	8(%ecx), %eax
 4070 1f0e D1E8     		shrl	%eax
 4071 1f10 39C7     		cmpl	%eax, %edi
 4072 1f12 0F8314FF 		jae	L406
 4072      FFFF
 4073              	LVL483:
 4074              	L416:
1270:./Source/CS229Image.c ****             err = get_pixel(pic,i,colorA);
 4075              		.loc 1 1270 0
 4076 1f18 8B4508   		movl	8(%ebp), %eax
 4077 1f1b 8D4DE8   		leal	-24(%ebp), %ecx
 4078 1f1e 894C2408 		movl	%ecx, 8(%esp)
 4079 1f22 89742404 		movl	%esi, 4(%esp)
 4080 1f26 890424   		movl	%eax, (%esp)
 4081 1f29 E892E8FF 		call	_get_pixel
 4081      FF
1273:./Source/CS229Image.c ****             if(err)
 4082              		.loc 1 1273 0
 4083 1f2e 85C0     		testl	%eax, %eax
1270:./Source/CS229Image.c ****             err = get_pixel(pic,i,colorA);
 4084              		.loc 1 1270 0
 4085 1f30 8945CC   		movl	%eax, -52(%ebp)
 4086              	LVL484:
1273:./Source/CS229Image.c ****             if(err)
 4087              		.loc 1 1273 0
 4088 1f33 0F8447FF 		je	L418
 4088      FFFF
 4089 1f39 E9EEFEFF 		jmp	L406
 4089      FF
 4090              	LVL485:
 4091 1f3e 6690     		.p2align 4,,7
 4092              	L409:
1220:./Source/CS229Image.c ****         for(i = 0;i < len;i++)
 4093              		.loc 1 1220 0
 4094 1f40 8B75D0   		movl	-48(%ebp), %esi
 4095 1f43 85F6     		testl	%esi, %esi
 4096              		.p2align 4,,3
 4097 1f45 0F84BA00 		je	L411
 4097      0000
GAS LISTING /cygdrive/c/Users/THESCI~1/AppData/Local/Temp/ccH1olGy.s 			page 125


 4098 1f4b 31F6     		xorl	%esi, %esi
 4099              	LVL486:
 4100 1f4d 8D7600   		.p2align 4,,5
 4101 1f50 EB12     		jmp	L413
 4102              	LVL487:
 4103              		.p2align 4,,7
 4104              	L412:
 4105 1f52 83C601   		addl	$1, %esi
 4106 1f55 3975D0   		cmpl	%esi, -48(%ebp)
 4107 1f58 0F86A700 		jbe	L411
 4107      0000
 4108 1f5e 8B5508   		movl	8(%ebp), %edx
 4109 1f61 8B5A0C   		movl	12(%edx), %ebx
 4110              	LVL488:
 4111              	L413:
1223:./Source/CS229Image.c ****             mod = i % pic->width.value;
 4112              		.loc 1 1223 0
 4113 1f64 31D2     		xorl	%edx, %edx
 4114 1f66 89F0     		movl	%esi, %eax
 4115 1f68 F7F3     		divl	%ebx
1226:./Source/CS229Image.c ****             if(mod >= pic->width.value / 2)
 4116              		.loc 1 1226 0
 4117 1f6a 89D8     		movl	%ebx, %eax
 4118 1f6c D1E8     		shrl	%eax
 4119 1f6e 39C2     		cmpl	%eax, %edx
1223:./Source/CS229Image.c ****             mod = i % pic->width.value;
 4120              		.loc 1 1223 0
 4121 1f70 89D7     		movl	%edx, %edi
1226:./Source/CS229Image.c ****             if(mod >= pic->width.value / 2)
 4122              		.loc 1 1226 0
 4123 1f72 73DE     		jae	L412
1233:./Source/CS229Image.c ****             err = get_pixel(pic,i,colorA);
 4124              		.loc 1 1233 0
 4125 1f74 8B4508   		movl	8(%ebp), %eax
 4126 1f77 8D4DE8   		leal	-24(%ebp), %ecx
 4127 1f7a 894C2408 		movl	%ecx, 8(%esp)
 4128 1f7e 89742404 		movl	%esi, 4(%esp)
 4129 1f82 890424   		movl	%eax, (%esp)
 4130 1f85 E836E8FF 		call	_get_pixel
 4130      FF
1236:./Source/CS229Image.c ****             if(err)
 4131              		.loc 1 1236 0
 4132 1f8a 85C0     		testl	%eax, %eax
1233:./Source/CS229Image.c ****             err = get_pixel(pic,i,colorA);
 4133              		.loc 1 1233 0
 4134 1f8c 8945CC   		movl	%eax, -52(%ebp)
 4135              	LVL489:
1236:./Source/CS229Image.c ****             if(err)
 4136              		.loc 1 1236 0
 4137 1f8f 0F8597FE 		jne	L406
 4137      FFFF
1240:./Source/CS229Image.c ****             err = get_pixel(pic,mod,colorB);
 4138              		.loc 1 1240 0
 4139 1f95 8B4D08   		movl	8(%ebp), %ecx
1230:./Source/CS229Image.c ****             mod = (i - mod) + (pic->width.value - mod - 1);
 4140              		.loc 1 1230 0
 4141 1f98 8D5C33FF 		leal	-1(%ebx,%esi), %ebx
GAS LISTING /cygdrive/c/Users/THESCI~1/AppData/Local/Temp/ccH1olGy.s 			page 126


 4142              	LVL490:
 4143 1f9c 29FB     		subl	%edi, %ebx
 4144 1f9e 29FB     		subl	%edi, %ebx
1240:./Source/CS229Image.c ****             err = get_pixel(pic,mod,colorB);
 4145              		.loc 1 1240 0
 4146 1fa0 8D55DC   		leal	-36(%ebp), %edx
 4147 1fa3 89542408 		movl	%edx, 8(%esp)
 4148 1fa7 895C2404 		movl	%ebx, 4(%esp)
 4149 1fab 890C24   		movl	%ecx, (%esp)
 4150 1fae E80DE8FF 		call	_get_pixel
 4150      FF
1243:./Source/CS229Image.c ****             if(err)
 4151              		.loc 1 1243 0
 4152 1fb3 85C0     		testl	%eax, %eax
1240:./Source/CS229Image.c ****             err = get_pixel(pic,mod,colorB);
 4153              		.loc 1 1240 0
 4154 1fb5 8945CC   		movl	%eax, -52(%ebp)
 4155              	LVL491:
1243:./Source/CS229Image.c ****             if(err)
 4156              		.loc 1 1243 0
 4157 1fb8 0F856EFE 		jne	L406
 4157      FFFF
1247:./Source/CS229Image.c ****             err = set_pixel(pic,i,colorB);
 4158              		.loc 1 1247 0
 4159 1fbe 8B5508   		movl	8(%ebp), %edx
 4160 1fc1 8D45DC   		leal	-36(%ebp), %eax
 4161 1fc4 89442408 		movl	%eax, 8(%esp)
 4162 1fc8 89742404 		movl	%esi, 4(%esp)
 4163 1fcc 891424   		movl	%edx, (%esp)
 4164 1fcf E8CCF5FF 		call	_set_pixel
 4164      FF
1250:./Source/CS229Image.c ****             if(err)
 4165              		.loc 1 1250 0
 4166 1fd4 85C0     		testl	%eax, %eax
1247:./Source/CS229Image.c ****             err = set_pixel(pic,i,colorB);
 4167              		.loc 1 1247 0
 4168 1fd6 8945CC   		movl	%eax, -52(%ebp)
 4169              	LVL492:
1250:./Source/CS229Image.c ****             if(err)
 4170              		.loc 1 1250 0
 4171 1fd9 0F854DFE 		jne	L406
 4171      FFFF
1254:./Source/CS229Image.c ****             err = set_pixel(pic,mod,colorA);
 4172              		.loc 1 1254 0
 4173 1fdf 8B4508   		movl	8(%ebp), %eax
 4174 1fe2 8D4DE8   		leal	-24(%ebp), %ecx
 4175 1fe5 894C2408 		movl	%ecx, 8(%esp)
 4176 1fe9 895C2404 		movl	%ebx, 4(%esp)
 4177 1fed 890424   		movl	%eax, (%esp)
 4178 1ff0 E8ABF5FF 		call	_set_pixel
 4178      FF
1257:./Source/CS229Image.c ****             if(err)
 4179              		.loc 1 1257 0
 4180 1ff5 85C0     		testl	%eax, %eax
1254:./Source/CS229Image.c ****             err = set_pixel(pic,mod,colorA);
 4181              		.loc 1 1254 0
 4182 1ff7 8945CC   		movl	%eax, -52(%ebp)
GAS LISTING /cygdrive/c/Users/THESCI~1/AppData/Local/Temp/ccH1olGy.s 			page 127


 4183              	LVL493:
1257:./Source/CS229Image.c ****             if(err)
 4184              		.loc 1 1257 0
 4185 1ffa 0F8452FF 		je	L412
 4185      FFFF
 4186 2000 E927FEFF 		jmp	L406
 4186      FF
 4187              	LVL494:
 4188              		.p2align 4,,7
 4189              	L411:
1261:./Source/CS229Image.c ****         for(i = 0;i / pic->width.value < pic->height.value / 2;i++)
 4190              		.loc 1 1261 0
 4191 2005 C745CC00 		movl	$0, -52(%ebp)
 4191      000000
 4192              	LVL495:
 4193 200c 8D742600 		.p2align 4,,5
 4194 2010 E917FEFF 		jmp	L406
 4194      FF
 4195              	LFE17:
 4196 2015 8D742600 		.p2align 4,,15
 4196      8DBC2700 
 4196      000000
 4197              	.globl _rotate_cs229_image
 4199              	_rotate_cs229_image:
 4200              	LFB16:
1077:./Source/CS229Image.c **** {
 4201              		.loc 1 1077 0
 4202              	LVL496:
 4203 2020 55       		pushl	%ebp
 4204              	LCFI84:
 4205 2021 89E5     		movl	%esp, %ebp
 4206              	LCFI85:
 4207 2023 57       		pushl	%edi
 4208              	LCFI86:
 4209 2024 56       		pushl	%esi
 4210              	LCFI87:
 4211 2025 53       		pushl	%ebx
 4212              	LCFI88:
1083:./Source/CS229Image.c ****     if(!angle)
 4213              		.loc 1 1083 0
 4214 2026 31DB     		xorl	%ebx, %ebx
 4215              	LVL497:
1077:./Source/CS229Image.c **** {
 4216              		.loc 1 1077 0
 4217 2028 83EC5C   		subl	$92, %esp
 4218              	LCFI89:
1077:./Source/CS229Image.c **** {
 4219              		.loc 1 1077 0
 4220 202b 8B750C   		movl	12(%ebp), %esi
1083:./Source/CS229Image.c ****     if(!angle)
 4221              		.loc 1 1083 0
 4222 202e 85F6     		testl	%esi, %esi
 4223 2030 743A     		je	L421
 4224              	LVL498:
1087:./Source/CS229Image.c ****     if(angle % 90)
 4225              		.loc 1 1087 0
 4226 2032 89F0     		movl	%esi, %eax
GAS LISTING /cygdrive/c/Users/THESCI~1/AppData/Local/Temp/ccH1olGy.s 			page 128


 4227 2034 BAB7600B 		movl	$-1240768329, %edx
 4227      B6
 4228 2039 F7EA     		imull	%edx
 4229 203b 89F0     		movl	%esi, %eax
 4230 203d C1F81F   		sarl	$31, %eax
 4231 2040 BB050000 		movl	$5, %ebx
 4231      00
 4232 2045 01F2     		addl	%esi, %edx
 4233 2047 C1FA06   		sarl	$6, %edx
 4234 204a 29C2     		subl	%eax, %edx
 4235 204c 6BD25A   		imull	$90, %edx, %edx
 4236 204f 39D6     		cmpl	%edx, %esi
 4237 2051 7519     		jne	L421
1091:./Source/CS229Image.c ****     if(pic == NULL)
 4238              		.loc 1 1091 0
 4239 2053 8B4508   		movl	8(%ebp), %eax
 4240 2056 BB0C0000 		movl	$12, %ebx
 4240      00
 4241 205b 85C0     		testl	%eax, %eax
 4242 205d 740D     		je	L421
 4243              	LVL499:
1095:./Source/CS229Image.c ****     if(pic->magic_number != CS229_MAGIC_NUMBER)
 4244              		.loc 1 1095 0
 4245 205f 8B5508   		movl	8(%ebp), %edx
 4246 2062 BB0B0000 		movl	$11, %ebx
 4246      00
 4247 2067 803A42   		cmpb	$66, (%edx)
 4248 206a 740A     		je	L463
 4249              	LVL500:
 4250              	L421:
1187:./Source/CS229Image.c **** }
 4251              		.loc 1 1187 0
 4252 206c 83C45C   		addl	$92, %esp
 4253 206f 89D8     		movl	%ebx, %eax
 4254 2071 5B       		popl	%ebx
 4255              	LVL501:
 4256 2072 5E       		popl	%esi
 4257              	LVL502:
 4258 2073 5F       		popl	%edi
 4259              	LVL503:
 4260 2074 5D       		popl	%ebp
 4261 2075 C3       		ret
 4262              	LVL504:
 4263              		.p2align 4,,7
 4264              	L463:
1099:./Source/CS229Image.c ****     while(angle < 0)
 4265              		.loc 1 1099 0
 4266 2076 85F6     		testl	%esi, %esi
 4267 2078 791E     		jns	L460
 4268 207a 8DB60000 		.p2align 4,,7
 4268      0000
 4269              	L455:
 4270 2080 81C66801 		addl	$360, %esi
 4270      0000
 4271 2086 78F8     		js	L455
1103:./Source/CS229Image.c ****     while(angle >= 360)
 4272              		.loc 1 1103 0
GAS LISTING /cygdrive/c/Users/THESCI~1/AppData/Local/Temp/ccH1olGy.s 			page 129


 4273 2088 81FE6701 		cmpl	$359, %esi
 4273      0000
 4274 208e 6690     		.p2align 4,,5
 4275 2090 7E10     		jle	L464
 4276              	LVL505:
 4277              		.p2align 4,,7
 4278              	L454:
1104:./Source/CS229Image.c ****         angle -= 360;
 4279              		.loc 1 1104 0
 4280 2092 81EE6801 		subl	$360, %esi
 4280      0000
 4281              	LVL506:
 4282              	L460:
1103:./Source/CS229Image.c ****     while(angle >= 360)
 4283              		.loc 1 1103 0
 4284 2098 81FE6701 		cmpl	$359, %esi
 4284      0000
 4285 209e 6690     		.p2align 4,,3
 4286 20a0 7FF0     		jg	L454
 4287              	L464:
1107:./Source/CS229Image.c ****     newpic.first_channel.red_channel_size = pic->first_channel.red_channel_size;
 4288              		.loc 1 1107 0
 4289 20a2 8B5D08   		movl	8(%ebp), %ebx
 4290              	LVL507:
1112:./Source/CS229Image.c ****     newpic.width.value = pic->height.value;
 4291              		.loc 1 1112 0
 4292 20a5 8B7D08   		movl	8(%ebp), %edi
1108:./Source/CS229Image.c ****     newpic.green_channel_size = pic->green_channel_size;
 4293              		.loc 1 1108 0
 4294 20a8 0FB64303 		movzbl	3(%ebx), %eax
1107:./Source/CS229Image.c ****     newpic.first_channel.red_channel_size = pic->first_channel.red_channel_size;
 4295              		.loc 1 1107 0
 4296 20ac 0FB64B02 		movzbl	2(%ebx), %ecx
1108:./Source/CS229Image.c ****     newpic.green_channel_size = pic->green_channel_size;
 4297              		.loc 1 1108 0
 4298 20b0 8845A7   		movb	%al, -89(%ebp)
1109:./Source/CS229Image.c ****     newpic.blue_channel_size = pic->blue_channel_size;
 4299              		.loc 1 1109 0
 4300 20b3 0FB65304 		movzbl	4(%ebx), %edx
1108:./Source/CS229Image.c ****     newpic.green_channel_size = pic->green_channel_size;
 4301              		.loc 1 1108 0
 4302 20b7 8845D7   		movb	%al, -41(%ebp)
1107:./Source/CS229Image.c ****     newpic.first_channel.red_channel_size = pic->first_channel.red_channel_size;
 4303              		.loc 1 1107 0
 4304 20ba 884DD6   		movb	%cl, -42(%ebp)
1109:./Source/CS229Image.c ****     newpic.blue_channel_size = pic->blue_channel_size;
 4305              		.loc 1 1109 0
 4306 20bd 8855AF   		movb	%dl, -81(%ebp)
 4307 20c0 8855D8   		movb	%dl, -40(%ebp)
1110:./Source/CS229Image.c ****     newpic.color_mode = pic->color_mode;
 4308              		.loc 1 1110 0
 4309 20c3 0FB65301 		movzbl	1(%ebx), %edx
1111:./Source/CS229Image.c ****     newpic.height.value = pic->width.value;
 4310              		.loc 1 1111 0
 4311 20c7 8B5B0C   		movl	12(%ebx), %ebx
 4312              	LBB60:
 4313              	LBB63:
GAS LISTING /cygdrive/c/Users/THESCI~1/AppData/Local/Temp/ccH1olGy.s 			page 130


 158:./Source/CS229Image.c ****     if(dest->color_mode == MODE_BLACKWHITE)
 4314              		.loc 1 158 0
 4315 20ca 84D2     		testb	%dl, %dl
 4316              	LBE63:
 4317              	LBE60:
1111:./Source/CS229Image.c ****     newpic.height.value = pic->width.value;
 4318              		.loc 1 1111 0
 4319 20cc 895DB0   		movl	%ebx, -80(%ebp)
 4320 20cf 895DDC   		movl	%ebx, -36(%ebp)
1113:./Source/CS229Image.c ****     newpic.magic_number = pic->magic_number;
 4321              		.loc 1 1113 0
 4322 20d2 0FB61F   		movzbl	(%edi), %ebx
1112:./Source/CS229Image.c ****     newpic.width.value = pic->height.value;
 4323              		.loc 1 1112 0
 4324 20d5 8B4708   		movl	8(%edi), %eax
1110:./Source/CS229Image.c ****     newpic.color_mode = pic->color_mode;
 4325              		.loc 1 1110 0
 4326 20d8 8855D5   		movb	%dl, -43(%ebp)
1113:./Source/CS229Image.c ****     newpic.magic_number = pic->magic_number;
 4327              		.loc 1 1113 0
 4328 20db 885DBB   		movb	%bl, -69(%ebp)
1112:./Source/CS229Image.c ****     newpic.width.value = pic->height.value;
 4329              		.loc 1 1112 0
 4330 20de 8945E0   		movl	%eax, -32(%ebp)
 4331              	LBB67:
 4332              	LBB64:
 158:./Source/CS229Image.c ****     if(dest->color_mode == MODE_BLACKWHITE)
 4333              		.loc 1 158 0
 4334 20e1 0F85D900 		jne	L429
 4334      0000
 161:./Source/CS229Image.c ****         switch(dest->first_channel.blackwhite_channel_size)
 4335              		.loc 1 161 0
 4336 20e7 80F902   		cmpb	$2, %cl
 4337 20ea 0F84A401 		je	L432
 4337      0000
 4338 20f0 80F904   		cmpb	$4, %cl
 4339 20f3 0F84DB00 		je	L433
 4339      0000
 4340 20f9 80E901   		subb	$1, %cl
 4341 20fc BF010000 		movl	$1, %edi
 4341      00
 4342              	LVL508:
 4343 2101 BA010000 		movl	$1, %edx
 4343      00
 4344 2106 0F85B900 		jne	L430
 4344      0000
 4345              	LVL509:
 4346 210c 8D742600 		.p2align 4,,7
 4347              	L434:
 4348              	LBE64:
 4349              	LBE67:
1120:./Source/CS229Image.c ****         newpic.data = (uint8_t*)malloc((size_t)(newpic.width.value * newpic.height.value * err / 2 
 4350              		.loc 1 1120 0
 4351 2110 0FAF45B0 		imull	-80(%ebp), %eax
1113:./Source/CS229Image.c ****     newpic.magic_number = pic->magic_number;
 4352              		.loc 1 1113 0
 4353 2114 0FB64DBB 		movzbl	-69(%ebp), %ecx
GAS LISTING /cygdrive/c/Users/THESCI~1/AppData/Local/Temp/ccH1olGy.s 			page 131


1120:./Source/CS229Image.c ****         newpic.data = (uint8_t*)malloc((size_t)(newpic.width.value * newpic.height.value * err / 2 
 4354              		.loc 1 1120 0
 4355 2118 0FAFC7   		imull	%edi, %eax
1113:./Source/CS229Image.c ****     newpic.magic_number = pic->magic_number;
 4356              		.loc 1 1113 0
 4357 211b 884DD4   		movb	%cl, -44(%ebp)
 4358 211e 8D7DD4   		leal	-44(%ebp), %edi
 4359              	LVL510:
1120:./Source/CS229Image.c ****         newpic.data = (uint8_t*)malloc((size_t)(newpic.width.value * newpic.height.value * err / 2 
 4360              		.loc 1 1120 0
 4361 2121 D1E8     		shrl	%eax
 4362 2123 01D0     		addl	%edx, %eax
 4363 2125 890424   		movl	%eax, (%esp)
 4364 2128 E8000000 		call	_malloc
 4364      00
 4365              	LBB68:
1133:./Source/CS229Image.c ****         len = newpic.width.value * newpic.height.value;
 4366              		.loc 1 1133 0
 4367 212d 8B5DDC   		movl	-36(%ebp), %ebx
 4368 2130 0FAF5DE0 		imull	-32(%ebp), %ebx
 4369 2134 897DA8   		movl	%edi, -88(%ebp)
1136:./Source/CS229Image.c ****         for(i = 1;i <= len;i++)
 4370              		.loc 1 1136 0
 4371 2137 85DB     		testl	%ebx, %ebx
 4372              	LBE68:
1120:./Source/CS229Image.c ****         newpic.data = (uint8_t*)malloc((size_t)(newpic.width.value * newpic.height.value * err / 2 
 4373              		.loc 1 1120 0
 4374 2139 8945E4   		movl	%eax, -28(%ebp)
 4375              	LBB69:
1133:./Source/CS229Image.c ****         len = newpic.width.value * newpic.height.value;
 4376              		.loc 1 1133 0
 4377 213c 895DB4   		movl	%ebx, -76(%ebp)
 4378              	LVL511:
1136:./Source/CS229Image.c ****         for(i = 1;i <= len;i++)
 4379              		.loc 1 1136 0
 4380 213f 0F845B01 		je	L445
 4380      0000
 4381 2145 BF010000 		movl	$1, %edi
 4381      00
 4382              	LVL512:
 4383 214a EB59     		jmp	L450
 4384 214c 8D742600 		.p2align 4,,7
 4385              	L465:
1140:./Source/CS229Image.c ****                 pos = pic->width.value * (pic->height.value - (i % pic->height.value)) + (i / pic->
 4386              		.loc 1 1140 0
 4387 2150 29D3     		subl	%edx, %ebx
 4388 2152 8B5508   		movl	8(%ebp), %edx
 4389 2155 0FAF5A0C 		imull	12(%edx), %ebx
 4390 2159 8D0403   		leal	(%ebx,%eax), %eax
 4391              	LVL513:
 4392 215c 89D3     		movl	%edx, %ebx
 4393              	L447:
1145:./Source/CS229Image.c ****             err = get_pixel(pic,pos,color);
 4394              		.loc 1 1145 0
 4395 215e 8D4DE8   		leal	-24(%ebp), %ecx
 4396 2161 891C24   		movl	%ebx, (%esp)
 4397 2164 894C2408 		movl	%ecx, 8(%esp)
GAS LISTING /cygdrive/c/Users/THESCI~1/AppData/Local/Temp/ccH1olGy.s 			page 132


 4398 2168 89442404 		movl	%eax, 4(%esp)
 4399 216c E84FE6FF 		call	_get_pixel
 4399      FF
 4400              	LVL514:
1148:./Source/CS229Image.c ****             if(err)
 4401              		.loc 1 1148 0
 4402 2171 85C0     		testl	%eax, %eax
1145:./Source/CS229Image.c ****             err = get_pixel(pic,pos,color);
 4403              		.loc 1 1145 0
 4404 2173 89C3     		movl	%eax, %ebx
 4405              	LVL515:
1148:./Source/CS229Image.c ****             if(err)
 4406              		.loc 1 1148 0
 4407 2175 7569     		jne	L462
1155:./Source/CS229Image.c ****             err = set_pixel(&newpic,i - 1,color);
 4408              		.loc 1 1155 0
 4409 2177 8D45E8   		leal	-24(%ebp), %eax
 4410 217a 89442408 		movl	%eax, 8(%esp)
 4411 217e 8D55D4   		leal	-44(%ebp), %edx
 4412 2181 8D47FF   		leal	-1(%edi), %eax
 4413 2184 89442404 		movl	%eax, 4(%esp)
 4414 2188 8955A8   		movl	%edx, -88(%ebp)
 4415 218b 891424   		movl	%edx, (%esp)
 4416 218e E80DF4FF 		call	_set_pixel
 4416      FF
1158:./Source/CS229Image.c ****             if(err)
 4417              		.loc 1 1158 0
 4418 2193 85C0     		testl	%eax, %eax
1155:./Source/CS229Image.c ****             err = set_pixel(&newpic,i - 1,color);
 4419              		.loc 1 1155 0
 4420 2195 89C3     		movl	%eax, %ebx
1158:./Source/CS229Image.c ****             if(err)
 4421              		.loc 1 1158 0
 4422 2197 7547     		jne	L462
1136:./Source/CS229Image.c ****         for(i = 1;i <= len;i++)
 4423              		.loc 1 1136 0
 4424 2199 83C701   		addl	$1, %edi
 4425 219c 397DB4   		cmpl	%edi, -76(%ebp)
 4426 219f 0F82FB00 		jb	L445
 4426      0000
 4427              	LVL516:
 4428              	L450:
1139:./Source/CS229Image.c ****             if(i % pic->height.value)
 4429              		.loc 1 1139 0
 4430 21a5 8B4508   		movl	8(%ebp), %eax
 4431 21a8 31D2     		xorl	%edx, %edx
 4432 21aa 8B5808   		movl	8(%eax), %ebx
 4433              	LVL517:
 4434 21ad 89F8     		movl	%edi, %eax
 4435 21af F7F3     		divl	%ebx
 4436 21b1 85D2     		testl	%edx, %edx
 4437 21b3 759B     		jne	L465
1142:./Source/CS229Image.c ****                 pos = i / pic->height.value - 1;
 4438              		.loc 1 1142 0
 4439 21b5 8D40FF   		leal	-1(%eax), %eax
 4440              	LVL518:
 4441 21b8 8B5D08   		movl	8(%ebp), %ebx
GAS LISTING /cygdrive/c/Users/THESCI~1/AppData/Local/Temp/ccH1olGy.s 			page 133


 4442 21bb EBA1     		jmp	L447
 4443              	LVL519:
 4444 21bd 8D7600   		.p2align 4,,7
 4445              	L429:
 4446              	LBE69:
 4447              	LBB70:
 4448              	LBB62:
 177:./Source/CS229Image.c ****     else if(dest->color_mode == MODE_COLOR)
 4449              		.loc 1 177 0
 4450 21c0 80C201   		addb	$1, %dl
 4451 21c3 742B     		je	L466
 4452              	LVL520:
 4453              	L430:
 4454              	LBE62:
 4455              	LBE70:
1182:./Source/CS229Image.c ****         pic->data = newpic.data;
 4456              		.loc 1 1182 0
 4457 21c5 BB0A0000 		movl	$10, %ebx
 4457      00
 4458              	LVL521:
1187:./Source/CS229Image.c **** }
 4459              		.loc 1 1187 0
 4460 21ca 83C45C   		addl	$92, %esp
 4461 21cd 89D8     		movl	%ebx, %eax
 4462 21cf 5B       		popl	%ebx
 4463              	LVL522:
 4464 21d0 5E       		popl	%esi
 4465              	LVL523:
 4466 21d1 5F       		popl	%edi
 4467 21d2 5D       		popl	%ebp
 4468 21d3 C3       		ret
 4469              	LVL524:
 4470              		.p2align 4,,7
 4471              	L433:
 4472              	LBB71:
 4473              	LBB65:
 161:./Source/CS229Image.c ****         switch(dest->first_channel.blackwhite_channel_size)
 4474              		.loc 1 161 0
 4475 21d4 BF040000 		movl	$4, %edi
 4475      00
 4476              	LVL525:
 4477 21d9 31D2     		xorl	%edx, %edx
 4478 21db E930FFFF 		jmp	L434
 4478      FF
 4479              	LVL526:
 4480              		.p2align 4,,7
 4481              	L462:
 4482              	LBE65:
 4483              	LBE71:
1171:./Source/CS229Image.c ****         free((void*)newpic.data);
 4484              		.loc 1 1171 0
 4485 21e0 8B45E4   		movl	-28(%ebp), %eax
 4486 21e3 890424   		movl	%eax, (%esp)
 4487 21e6 E8000000 		call	_free
 4487      00
 4488 21eb E97CFEFF 		jmp	L421
 4488      FF
GAS LISTING /cygdrive/c/Users/THESCI~1/AppData/Local/Temp/ccH1olGy.s 			page 134


 4489              	LVL527:
 4490              		.p2align 4,,7
 4491              	L466:
 4492              	LBB72:
 4493              	LBB61:
 180:./Source/CS229Image.c ****         switch(dest->first_channel.red_channel_size)
 4494              		.loc 1 180 0
 4495 21f0 80F902   		cmpb	$2, %cl
 4496              		.p2align 4,,2
 4497 21f3 0F842601 		je	L436
 4497      0000
 4498 21f9 80F904   		cmpb	$4, %cl
 4499 21fc 8D742600 		.p2align 4,,7
 4500 2200 0F84DB00 		je	L437
 4500      0000
 4501 2206 80E901   		subb	$1, %cl
 4502              		.p2align 4,,5
 4503 2209 75BA     		jne	L430
 4504 220b C745C003 		movl	$3, -64(%ebp)
 4504      000000
 4505              	LVL528:
 4506 2212 BF050000 		movl	$5, %edi
 4506      00
 4507              	LVL529:
 4508 2217 B9070000 		movl	$7, %ecx
 4508      00
 4509              	LVL530:
 4510 221c C745C404 		movl	$4, -60(%ebp)
 4510      000000
 4511              	LVL531:
 4512 2223 BA090000 		movl	$9, %edx
 4512      00
 4513              	LVL532:
 4514 2228 C745C806 		movl	$6, -56(%ebp)
 4514      000000
 4515              	LVL533:
 4516 222f C745CC04 		movl	$4, -52(%ebp)
 4516      000000
 4517              	LVL534:
 4518 2236 C745BC07 		movl	$7, -68(%ebp)
 4518      000000
 4519              	LVL535:
 4520 223d C745D006 		movl	$6, -48(%ebp)
 4520      000000
 4521              	LVL536:
 4522              	L438:
 196:./Source/CS229Image.c ****         switch(dest->green_channel_size)
 4523              		.loc 1 196 0
 4524 2244 807DA702 		cmpb	$2, -89(%ebp)
 4525 2248 7423     		je	L440
 4526 224a 807DA704 		cmpb	$4, -89(%ebp)
 4527 224e 0F840901 		je	L441
 4527      0000
 4528 2254 807DA701 		cmpb	$1, -89(%ebp)
 4529 2258 0F8567FF 		jne	L430
 4529      FFFF
 4530 225e 8B7DC0   		movl	-64(%ebp), %edi
GAS LISTING /cygdrive/c/Users/THESCI~1/AppData/Local/Temp/ccH1olGy.s 			page 135


 4531 2261 8B55C8   		movl	-56(%ebp), %edx
 4532 2264 897DCC   		movl	%edi, -52(%ebp)
 4533              	LVL537:
 4534 2267 8B7DC4   		movl	-60(%ebp), %edi
 4535 226a 8955BC   		movl	%edx, -68(%ebp)
 4536              	LVL538:
 4537              	L440:
 212:./Source/CS229Image.c ****         switch(dest->blue_channel_size)
 4538              		.loc 1 212 0
 4539 226d 807DAF02 		cmpb	$2, -81(%ebp)
 4540 2271 7417     		je	L443
 4541 2273 807DAF04 		cmpb	$4, -81(%ebp)
 4542 2277 0F84F000 		je	L444
 4542      0000
 4543 227d 807DAF01 		cmpb	$1, -81(%ebp)
 4544 2281 8B7DCC   		movl	-52(%ebp), %edi
 4545 2284 0F853BFF 		jne	L430
 4545      FFFF
 4546              	LVL539:
 4547              	L443:
 4548 228a 89FA     		movl	%edi, %edx
 4549 228c 83E201   		andl	$1, %edx
 4550 228f E97CFEFF 		jmp	L434
 4550      FF
 4551              	LVL540:
 4552              		.p2align 4,,7
 4553              	L432:
 4554              	LBE61:
 4555              	LBE72:
1182:./Source/CS229Image.c ****         pic->data = newpic.data;
 4556              		.loc 1 1182 0
 4557 2294 BF020000 		movl	$2, %edi
 4557      00
 4558              	LVL541:
 4559 2299 31D2     		xorl	%edx, %edx
 4560 229b E970FEFF 		jmp	L434
 4560      FF
 4561              	LVL542:
 4562              		.p2align 4,,7
 4563              	L445:
1167:./Source/CS229Image.c ****     err = rotate_cs229_image(&newpic,angle - 90);
 4564              		.loc 1 1167 0
 4565 22a0 8D46A6   		leal	-90(%esi), %eax
 4566 22a3 89442404 		movl	%eax, 4(%esp)
 4567 22a7 8B5DA8   		movl	-88(%ebp), %ebx
 4568              	LVL543:
 4569 22aa 891C24   		movl	%ebx, (%esp)
 4570 22ad E86EFDFF 		call	_rotate_cs229_image
 4570      FF
1170:./Source/CS229Image.c ****     if(err)
 4571              		.loc 1 1170 0
 4572 22b2 85C0     		testl	%eax, %eax
1167:./Source/CS229Image.c ****     err = rotate_cs229_image(&newpic,angle - 90);
 4573              		.loc 1 1167 0
 4574 22b4 89C3     		movl	%eax, %ebx
 4575              	LVL544:
1170:./Source/CS229Image.c ****     if(err)
GAS LISTING /cygdrive/c/Users/THESCI~1/AppData/Local/Temp/ccH1olGy.s 			page 136


 4576              		.loc 1 1170 0
 4577 22b6 0F8524FF 		jne	L462
 4577      FFFF
1175:./Source/CS229Image.c ****         pic->width.value = newpic.width.value;
 4578              		.loc 1 1175 0
 4579 22bc 8B7D08   		movl	8(%ebp), %edi
 4580              	LVL545:
 4581 22bf 8B45E0   		movl	-32(%ebp), %eax
 4582 22c2 89470C   		movl	%eax, 12(%edi)
1176:./Source/CS229Image.c ****         pic->height.value = newpic.height.value;
 4583              		.loc 1 1176 0
 4584 22c5 8B45DC   		movl	-36(%ebp), %eax
 4585 22c8 894708   		movl	%eax, 8(%edi)
1179:./Source/CS229Image.c ****         free((void*)pic->data);
 4586              		.loc 1 1179 0
 4587 22cb 8B4710   		movl	16(%edi), %eax
 4588 22ce 890424   		movl	%eax, (%esp)
 4589 22d1 E8000000 		call	_free
 4589      00
1182:./Source/CS229Image.c ****         pic->data = newpic.data;
 4590              		.loc 1 1182 0
 4591 22d6 8B45E4   		movl	-28(%ebp), %eax
 4592 22d9 894710   		movl	%eax, 16(%edi)
 4593 22dc E98BFDFF 		jmp	L421
 4593      FF
 4594              	LVL546:
 4595              	L437:
 4596              	LBB73:
 4597              	LBB66:
 180:./Source/CS229Image.c ****         switch(dest->first_channel.red_channel_size)
 4598              		.loc 1 180 0
 4599 22e1 C745C006 		movl	$6, -64(%ebp)
 4599      000000
 4600              	LVL547:
 4601 22e8 BF080000 		movl	$8, %edi
 4601      00
 4602              	LVL548:
 4603 22ed B90A0000 		movl	$10, %ecx
 4603      00
 4604              	LVL549:
 4605 22f2 C745C407 		movl	$7, -60(%ebp)
 4605      000000
 4606              	LVL550:
 4607 22f9 BA0C0000 		movl	$12, %edx
 4607      00
 4608              	LVL551:
 4609 22fe C745C809 		movl	$9, -56(%ebp)
 4609      000000
 4610              	LVL552:
 4611 2305 C745CC07 		movl	$7, -52(%ebp)
 4611      000000
 4612              	LVL553:
 4613 230c C745BC0A 		movl	$10, -68(%ebp)
 4613      000000
 4614              	LVL554:
 4615 2313 C745D009 		movl	$9, -48(%ebp)
 4615      000000
GAS LISTING /cygdrive/c/Users/THESCI~1/AppData/Local/Temp/ccH1olGy.s 			page 137


 4616              	LVL555:
 4617 231a E925FFFF 		jmp	L438
 4617      FF
 4618              	LVL556:
 4619              	L436:
 4620 231f C745C004 		movl	$4, -64(%ebp)
 4620      000000
 4621              	LVL557:
 4622 2326 BF060000 		movl	$6, %edi
 4622      00
 4623              	LVL558:
 4624 232b B9080000 		movl	$8, %ecx
 4624      00
 4625              	LVL559:
 4626 2330 C745C405 		movl	$5, -60(%ebp)
 4626      000000
 4627              	LVL560:
 4628 2337 BA0A0000 		movl	$10, %edx
 4628      00
 4629              	LVL561:
 4630 233c C745C807 		movl	$7, -56(%ebp)
 4630      000000
 4631              	LVL562:
 4632 2343 C745CC05 		movl	$5, -52(%ebp)
 4632      000000
 4633              	LVL563:
 4634 234a C745BC08 		movl	$8, -68(%ebp)
 4634      000000
 4635              	LVL564:
 4636 2351 C745D007 		movl	$7, -48(%ebp)
 4636      000000
 4637              	LVL565:
 4638 2358 E9E7FEFF 		jmp	L438
 4638      FF
 4639              	L441:
 196:./Source/CS229Image.c ****         switch(dest->green_channel_size)
 4640              		.loc 1 196 0
 4641 235d 8B5DD0   		movl	-48(%ebp), %ebx
 4642 2360 89CF     		movl	%ecx, %edi
 4643 2362 8955BC   		movl	%edx, -68(%ebp)
 4644 2365 895DCC   		movl	%ebx, -52(%ebp)
 4645              	LVL566:
 4646 2368 E900FFFF 		jmp	L440
 4646      FF
 4647              	LVL567:
 4648              	L444:
 212:./Source/CS229Image.c ****         switch(dest->blue_channel_size)
 4649              		.loc 1 212 0
 4650 236d 8B7DBC   		movl	-68(%ebp), %edi
 4651 2370 E915FFFF 		jmp	L443
 4651      FF
 4652              	LBE66:
 4653              	LBE73:
 4654              	LFE16:
 4655 2375 8D742600 		.p2align 4,,15
 4655      8DBC2700 
 4655      000000
GAS LISTING /cygdrive/c/Users/THESCI~1/AppData/Local/Temp/ccH1olGy.s 			page 138


 4656              	.globl _convolute
 4658              	_convolute:
 4659              	LFB18:
1308:./Source/CS229Image.c **** {
 4660              		.loc 1 1308 0
 4661              	LVL568:
 4662 2380 55       		pushl	%ebp
 4663              	LCFI90:
 4664 2381 89E5     		movl	%esp, %ebp
 4665              	LCFI91:
 4666 2383 57       		pushl	%edi
 4667              	LCFI92:
 4668 2384 56       		pushl	%esi
 4669              	LCFI93:
 4670 2385 53       		pushl	%ebx
 4671              	LCFI94:
 4672 2386 83EC7C   		subl	$124, %esp
 4673              	LCFI95:
1323:./Source/CS229Image.c ****     if(pic == NULL || kernel == NULL)
 4674              		.loc 1 1323 0
 4675 2389 8B4508   		movl	8(%ebp), %eax
 4676 238c 85C0     		testl	%eax, %eax
 4677 238e 0F843C02 		je	L514
 4677      0000
 4678              	LVL569:
 4679 2394 8B450C   		movl	12(%ebp), %eax
 4680 2397 85C0     		testl	%eax, %eax
 4681 2399 0F843102 		je	L514
 4681      0000
 4682              	LVL570:
1327:./Source/CS229Image.c ****     if(pic->magic_number != CS229_MAGIC_NUMBER)
 4683              		.loc 1 1327 0
 4684 239f 8B4508   		movl	8(%ebp), %eax
 4685 23a2 BB0B0000 		movl	$11, %ebx
 4685      00
 4686              	LVL571:
 4687 23a7 803842   		cmpb	$66, (%eax)
 4688 23aa 740A     		je	L518
 4689              	LVL572:
 4690              	L470:
1438:./Source/CS229Image.c **** }
 4691              		.loc 1 1438 0
 4692 23ac 83C47C   		addl	$124, %esp
 4693 23af 89D8     		movl	%ebx, %eax
 4694 23b1 5B       		popl	%ebx
 4695              	LVL573:
 4696 23b2 5E       		popl	%esi
 4697              	LVL574:
 4698 23b3 5F       		popl	%edi
 4699 23b4 5D       		popl	%ebp
 4700 23b5 C3       		ret
 4701              	LVL575:
 4702              		.p2align 4,,7
 4703              	L518:
1331:./Source/CS229Image.c ****     if(!width)
 4704              		.loc 1 1331 0
 4705 23b6 8B4510   		movl	16(%ebp), %eax
GAS LISTING /cygdrive/c/Users/THESCI~1/AppData/Local/Temp/ccH1olGy.s 			page 139


 4706 23b9 31DB     		xorl	%ebx, %ebx
 4707 23bb 85C0     		testl	%eax, %eax
 4708 23bd 74ED     		je	L470
 4709              	LVL576:
1335:./Source/CS229Image.c ****     newpic.first_channel.red_channel_size = pic->first_channel.red_channel_size;
 4710              		.loc 1 1335 0
 4711 23bf 8B5508   		movl	8(%ebp), %edx
1337:./Source/CS229Image.c ****     newpic.blue_channel_size = pic->blue_channel_size;
 4712              		.loc 1 1337 0
 4713 23c2 0FB67A04 		movzbl	4(%edx), %edi
1338:./Source/CS229Image.c ****     newpic.color_mode = pic->color_mode;
 4714              		.loc 1 1338 0
 4715 23c6 89D6     		movl	%edx, %esi
1335:./Source/CS229Image.c ****     newpic.first_channel.red_channel_size = pic->first_channel.red_channel_size;
 4716              		.loc 1 1335 0
 4717 23c8 0FB64A02 		movzbl	2(%edx), %ecx
1336:./Source/CS229Image.c ****     newpic.green_channel_size = pic->green_channel_size;
 4718              		.loc 1 1336 0
 4719 23cc 0FB65A03 		movzbl	3(%edx), %ebx
 4720              	LVL577:
1338:./Source/CS229Image.c ****     newpic.color_mode = pic->color_mode;
 4721              		.loc 1 1338 0
 4722 23d0 0FB65201 		movzbl	1(%edx), %edx
1337:./Source/CS229Image.c ****     newpic.blue_channel_size = pic->blue_channel_size;
 4723              		.loc 1 1337 0
 4724 23d4 89F8     		movl	%edi, %eax
 4725 23d6 8845D4   		movb	%al, -44(%ebp)
1339:./Source/CS229Image.c ****     newpic.width.value = pic->width.value;
 4726              		.loc 1 1339 0
 4727 23d9 8B460C   		movl	12(%esi), %eax
1335:./Source/CS229Image.c ****     newpic.first_channel.red_channel_size = pic->first_channel.red_channel_size;
 4728              		.loc 1 1335 0
 4729 23dc 884DD2   		movb	%cl, -46(%ebp)
 4730              	LBB80:
 4731              	LBB83:
 158:./Source/CS229Image.c ****     if(dest->color_mode == MODE_BLACKWHITE)
 4732              		.loc 1 158 0
 4733 23df 84D2     		testb	%dl, %dl
 4734              	LBE83:
 4735              	LBE80:
1336:./Source/CS229Image.c ****     newpic.green_channel_size = pic->green_channel_size;
 4736              		.loc 1 1336 0
 4737 23e1 885DD3   		movb	%bl, -45(%ebp)
1339:./Source/CS229Image.c ****     newpic.width.value = pic->width.value;
 4738              		.loc 1 1339 0
 4739 23e4 89458C   		movl	%eax, -116(%ebp)
 4740 23e7 8945DC   		movl	%eax, -36(%ebp)
1340:./Source/CS229Image.c ****     newpic.height.value = pic->height.value;
 4741              		.loc 1 1340 0
 4742 23ea 8B4608   		movl	8(%esi), %eax
1338:./Source/CS229Image.c ****     newpic.color_mode = pic->color_mode;
 4743              		.loc 1 1338 0
 4744 23ed 8855D1   		movb	%dl, -47(%ebp)
1340:./Source/CS229Image.c ****     newpic.height.value = pic->height.value;
 4745              		.loc 1 1340 0
 4746 23f0 8945D8   		movl	%eax, -40(%ebp)
 4747              	LBB87:
GAS LISTING /cygdrive/c/Users/THESCI~1/AppData/Local/Temp/ccH1olGy.s 			page 140


 4748              	LBB84:
 158:./Source/CS229Image.c ****     if(dest->color_mode == MODE_BLACKWHITE)
 4749              		.loc 1 158 0
 4750 23f3 0F85E701 		jne	L473
 4750      0000
 161:./Source/CS229Image.c ****         switch(dest->first_channel.blackwhite_channel_size)
 4751              		.loc 1 161 0
 4752 23f9 80F902   		cmpb	$2, %cl
 4753 23fc 0F84BE02 		je	L476
 4753      0000
 4754 2402 80F904   		cmpb	$4, %cl
 4755 2405 0F84E501 		je	L477
 4755      0000
 4756 240b 80E901   		subb	$1, %cl
 4757 240e BE010000 		movl	$1, %esi
 4757      00
 4758              	LVL578:
 4759 2413 BA010000 		movl	$1, %edx
 4759      00
 4760 2418 0F85C701 		jne	L474
 4760      0000
 4761              	LVL579:
 4762 241e 6690     		.p2align 4,,7
 4763              	L478:
 4764              	LBE84:
 4765              	LBE87:
1348:./Source/CS229Image.c ****         newpic.data = (uint8_t*)malloc((size_t)(newpic.width.value * newpic.height.value * err / 2 
 4766              		.loc 1 1348 0
 4767 2420 0FAF458C 		imull	-116(%ebp), %eax
1341:./Source/CS229Image.c ****     newpic.magic_number = pic->magic_number;
 4768              		.loc 1 1341 0
 4769 2424 C645D042 		movb	$66, -48(%ebp)
1348:./Source/CS229Image.c ****         newpic.data = (uint8_t*)malloc((size_t)(newpic.width.value * newpic.height.value * err / 2 
 4770              		.loc 1 1348 0
 4771 2428 0FAFC6   		imull	%esi, %eax
 4772 242b D1E8     		shrl	%eax
 4773 242d 01D0     		addl	%edx, %eax
 4774 242f 890424   		movl	%eax, (%esp)
 4775 2432 E8000000 		call	_malloc
 4775      00
1353:./Source/CS229Image.c ****     len = newpic.width.value * newpic.height.value;
 4776              		.loc 1 1353 0
 4777 2437 8B5DD8   		movl	-40(%ebp), %ebx
 4778 243a 0FAF5DDC 		imull	-36(%ebp), %ebx
1356:./Source/CS229Image.c ****     for(i = 0;i < len;i++)
 4779              		.loc 1 1356 0
 4780 243e 85DB     		testl	%ebx, %ebx
1348:./Source/CS229Image.c ****         newpic.data = (uint8_t*)malloc((size_t)(newpic.width.value * newpic.height.value * err / 2 
 4781              		.loc 1 1348 0
 4782 2440 8945E0   		movl	%eax, -32(%ebp)
1353:./Source/CS229Image.c ****     len = newpic.width.value * newpic.height.value;
 4783              		.loc 1 1353 0
 4784 2443 895D90   		movl	%ebx, -112(%ebp)
 4785              	LVL580:
1356:./Source/CS229Image.c ****     for(i = 0;i < len;i++)
 4786              		.loc 1 1356 0
 4787 2446 0F849503 		je	L490
GAS LISTING /cygdrive/c/Users/THESCI~1/AppData/Local/Temp/ccH1olGy.s 			page 141


 4787      0000
 4788 244c C7459400 		movl	$0, -108(%ebp)
 4788      000000
 4789              	LVL581:
 4790              	LVL582:
 4791              	L512:
1359:./Source/CS229Image.c ****         err = get_pixel(pic,i,int_pixel);
 4792              		.loc 1 1359 0
 4793 2453 8D75E4   		leal	-28(%ebp), %esi
 4794              	LVL583:
 4795 2456 89742408 		movl	%esi, 8(%esp)
 4796 245a 8B7D94   		movl	-108(%ebp), %edi
 4797 245d 897C2404 		movl	%edi, 4(%esp)
 4798 2461 8B4508   		movl	8(%ebp), %eax
 4799 2464 890424   		movl	%eax, (%esp)
 4800 2467 E854E3FF 		call	_get_pixel
 4800      FF
1362:./Source/CS229Image.c ****         if(err)
 4801              		.loc 1 1362 0
 4802 246c 85C0     		testl	%eax, %eax
1359:./Source/CS229Image.c ****         err = get_pixel(pic,i,int_pixel);
 4803              		.loc 1 1359 0
 4804 246e 89C3     		movl	%eax, %ebx
1362:./Source/CS229Image.c ****         if(err)
 4805              		.loc 1 1362 0
 4806 2470 0F855A02 		jne	L517
 4806      0000
1369:./Source/CS229Image.c ****         err = set_pixel(&newpic,i,int_pixel);
 4807              		.loc 1 1369 0
 4808 2476 8D55E4   		leal	-28(%ebp), %edx
 4809 2479 89542408 		movl	%edx, 8(%esp)
 4810 247d 8B5D94   		movl	-108(%ebp), %ebx
 4811              	LVL584:
 4812 2480 8D75D0   		leal	-48(%ebp), %esi
 4813 2483 893424   		movl	%esi, (%esp)
 4814 2486 895C2404 		movl	%ebx, 4(%esp)
 4815 248a E811F1FF 		call	_set_pixel
 4815      FF
1372:./Source/CS229Image.c ****         if(err)
 4816              		.loc 1 1372 0
 4817 248f 85C0     		testl	%eax, %eax
 4818              	LVL585:
1369:./Source/CS229Image.c ****         err = set_pixel(&newpic,i,int_pixel);
 4819              		.loc 1 1369 0
 4820 2491 89C3     		movl	%eax, %ebx
 4821              	LVL586:
1372:./Source/CS229Image.c ****         if(err)
 4822              		.loc 1 1372 0
 4823 2493 0F853702 		jne	L517
 4823      0000
 4824 2499 C7459800 		movl	$0, -104(%ebp)
 4824      000000
 4825              	LVL587:
 4826              	L493:
1379:./Source/CS229Image.c ****         for(j = 0;j < (pic->color_mode == MODE_COLOR ? 3 : 1);j++)
 4827              		.loc 1 1379 0
 4828 24a0 8B7D08   		movl	8(%ebp), %edi
GAS LISTING /cygdrive/c/Users/THESCI~1/AppData/Local/Temp/ccH1olGy.s 			page 142


 4829 24a3 31C0     		xorl	%eax, %eax
 4830 24a5 807F01FF 		cmpb	$-1, 1(%edi)
 4831 24a9 0F94C0   		sete	%al
 4832 24ac 8D440001 		leal	1(%eax,%eax), %eax
 4833 24b0 3B4598   		cmpl	-104(%ebp), %eax
 4834 24b3 0F861803 		jbe	L519
 4834      0000
1384:./Source/CS229Image.c ****             for(x = - (width[j] / 2);x < (width[j] + 1) / 2;x++)
 4835              		.loc 1 1384 0
 4836 24b9 8B7D98   		movl	-104(%ebp), %edi
 4837 24bc 8B4510   		movl	16(%ebp), %eax
 4838 24bf 8B1CB8   		movl	(%eax,%edi,4), %ebx
 4839              	LVL588:
 4840 24c2 89DA     		movl	%ebx, %edx
 4841 24c4 89DF     		movl	%ebx, %edi
 4842 24c6 D1EA     		shrl	%edx
 4843 24c8 8D4B01   		leal	1(%ebx), %ecx
 4844 24cb F7DA     		negl	%edx
 4845 24cd 89C8     		movl	%ecx, %eax
 4846 24cf 89559C   		movl	%edx, -100(%ebp)
 4847              	LVL589:
 4848 24d2 D1E8     		shrl	%eax
 4849 24d4 31D2     		xorl	%edx, %edx
 4850 24d6 39459C   		cmpl	%eax, -100(%ebp)
 4851 24d9 0F83BF02 		jae	L495
 4851      0000
 4852 24df D9EE     		fldz
 4853 24e1 89DE     		movl	%ebx, %esi
 4854              	LVL590:
 4855 24e3 D95DA0   		fstps	-96(%ebp)
 4856              	LVL591:
 4857              	L507:
1385:./Source/CS229Image.c ****                 for(y = - (width[j] / 2);y < (width[j] + 1) / 2;y++)
 4858              		.loc 1 1385 0
 4859 24e6 D1EE     		shrl	%esi
 4860 24e8 89C8     		movl	%ecx, %eax
 4861 24ea F7DE     		negl	%esi
 4862 24ec D1E8     		shrl	%eax
 4863 24ee 39C6     		cmpl	%eax, %esi
 4864 24f0 897DA8   		movl	%edi, -88(%ebp)
 4865 24f3 0F830701 		jae	L497
 4865      0000
 4866              	LBB88:
 4867              	LBB90:
 258:./Source/CS229Image.c ****     if(pixel < 0 || pixel >= pic->width.value * pic->height.value)
 4868              		.loc 1 258 0
 4869 24f9 8B4508   		movl	8(%ebp), %eax
 4870 24fc 8B7808   		movl	8(%eax), %edi
 4871 24ff 8B480C   		movl	12(%eax), %ecx
 4872 2502 89F8     		movl	%edi, %eax
 4873 2504 0FAFC1   		imull	%ecx, %eax
 4874 2507 394594   		cmpl	%eax, -108(%ebp)
 4875 250a 0F83A500 		jae	L498
 4875      0000
 4876              		.p2align 4,,7
 4877              	L516:
 263:./Source/CS229Image.c ****     dest[1] = pixel / pic->width.value;
GAS LISTING /cygdrive/c/Users/THESCI~1/AppData/Local/Temp/ccH1olGy.s 			page 143


 4878              		.loc 1 263 0
 4879 2510 8B4594   		movl	-108(%ebp), %eax
 4880 2513 31D2     		xorl	%edx, %edx
 4881              	LBE90:
 4882              	LBE88:
 4883              	LBB92:
 4884              	LBB94:
 241:./Source/CS229Image.c ****     if(x < 0 || y < 0 || x >= pic->width.value || y >= pic->height.value)
 4885              		.loc 1 241 0
 4886 2515 895DA8   		movl	%ebx, -88(%ebp)
 4887              	LBE94:
 4888              	LBE92:
 4889              	LBB97:
 4890              	LBB89:
 263:./Source/CS229Image.c ****     dest[1] = pixel / pic->width.value;
 4891              		.loc 1 263 0
 4892 2518 F7F1     		divl	%ecx
 4893              	LBE89:
 4894              	LBE97:
1395:./Source/CS229Image.c ****                     new_i = coordinate_to_linear_address(pic,cord[0] + x,cord[1] + y);
 4895              		.loc 1 1395 0
 4896 251a 03559C   		addl	-100(%ebp), %edx
 4897              	LBB98:
 4898              	LBB95:
 241:./Source/CS229Image.c ****     if(x < 0 || y < 0 || x >= pic->width.value || y >= pic->height.value)
 4899              		.loc 1 241 0
 4900 251d 39CA     		cmpl	%ecx, %edx
 4901 251f 7371     		jae	L501
 4902              	LBE95:
 4903              	LBE98:
1395:./Source/CS229Image.c ****                     new_i = coordinate_to_linear_address(pic,cord[0] + x,cord[1] + y);
 4904              		.loc 1 1395 0
 4905 2521 01F0     		addl	%esi, %eax
 4906              	LBB99:
 4907              	LBB93:
 241:./Source/CS229Image.c ****     if(x < 0 || y < 0 || x >= pic->width.value || y >= pic->height.value)
 4908              		.loc 1 241 0
 4909 2523 39F8     		cmpl	%edi, %eax
 4910 2525 895DA8   		movl	%ebx, -88(%ebp)
 4911 2528 7368     		jae	L501
 245:./Source/CS229Image.c ****     return x + y * pic->width.value;
 4912              		.loc 1 245 0
 4913 252a 0FAFC1   		imull	%ecx, %eax
 4914              	LBE93:
 4915              	LBE99:
1398:./Source/CS229Image.c ****                     if(new_i == -1)
 4916              		.loc 1 1398 0
 4917 252d 895DA8   		movl	%ebx, -88(%ebp)
 4918              	LBB100:
 4919              	LBB96:
 245:./Source/CS229Image.c ****     return x + y * pic->width.value;
 4920              		.loc 1 245 0
 4921 2530 01D0     		addl	%edx, %eax
 4922              	LVL592:
 4923              	LBE96:
 4924              	LBE100:
1398:./Source/CS229Image.c ****                     if(new_i == -1)
GAS LISTING /cygdrive/c/Users/THESCI~1/AppData/Local/Temp/ccH1olGy.s 			page 144


 4925              		.loc 1 1398 0
 4926 2532 83F8FF   		cmpl	$-1, %eax
 4927 2535 745B     		je	L501
1402:./Source/CS229Image.c ****                     err = get_pixel(&newpic,new_i,int_pixel);
 4928              		.loc 1 1402 0
 4929 2537 8D5DE4   		leal	-28(%ebp), %ebx
 4930 253a 8D7DD0   		leal	-48(%ebp), %edi
 4931 253d 895C2408 		movl	%ebx, 8(%esp)
 4932 2541 89442404 		movl	%eax, 4(%esp)
 4933 2545 893C24   		movl	%edi, (%esp)
 4934 2548 E873E2FF 		call	_get_pixel
 4934      FF
 4935              	LVL593:
1405:./Source/CS229Image.c ****                     if(err)
 4936              		.loc 1 1405 0
 4937 254d 85C0     		testl	%eax, %eax
 4938              	LVL594:
1402:./Source/CS229Image.c ****                     err = get_pixel(&newpic,new_i,int_pixel);
 4939              		.loc 1 1402 0
 4940 254f 89C3     		movl	%eax, %ebx
 4941              	LVL595:
1405:./Source/CS229Image.c ****                     if(err)
 4942              		.loc 1 1405 0
 4943 2551 0F857901 		jne	L517
 4943      0000
1412:./Source/CS229Image.c ****                     pixel += ((float)int_pixel[j]) * kernel[j][(x + width[j] / 2) + (y + width[j] /
 4944              		.loc 1 1412 0
 4945 2557 8B4598   		movl	-104(%ebp), %eax
 4946 255a 8B5510   		movl	16(%ebp), %edx
 4947 255d 8B1C82   		movl	(%edx,%eax,4), %ebx
 4948              	LVL596:
 4949 2560 31D2     		xorl	%edx, %edx
 4950 2562 8B4485E4 		movl	-28(%ebp,%eax,4), %eax
 4951 2566 89D9     		movl	%ebx, %ecx
 4952 2568 895DA8   		movl	%ebx, -88(%ebp)
 4953 256b D1E9     		shrl	%ecx
 4954 256d 52       		pushl	%edx
 4955 256e 50       		pushl	%eax
 4956 256f 8B7D98   		movl	-104(%ebp), %edi
 4957 2572 8D040E   		leal	(%esi,%ecx), %eax
 4958 2575 8B550C   		movl	12(%ebp), %edx
 4959 2578 0FAFC3   		imull	%ebx, %eax
 4960 257b DF2C24   		fildq	(%esp)
 4961 257e 83C408   		addl	$8, %esp
 4962 2581 034D9C   		addl	-100(%ebp), %ecx
 4963 2584 01C1     		addl	%eax, %ecx
 4964 2586 8B04BA   		movl	(%edx,%edi,4), %eax
 4965 2589 D80C88   		fmuls	(%eax,%ecx,4)
 4966 258c D845A0   		fadds	-96(%ebp)
 4967 258f D95DA0   		fstps	-96(%ebp)
 4968              	LVL597:
 4969              	L501:
1385:./Source/CS229Image.c ****                 for(y = - (width[j] / 2);y < (width[j] + 1) / 2;y++)
 4970              		.loc 1 1385 0
 4971 2592 8D4301   		leal	1(%ebx), %eax
 4972              	LVL598:
 4973 2595 83C601   		addl	$1, %esi
GAS LISTING /cygdrive/c/Users/THESCI~1/AppData/Local/Temp/ccH1olGy.s 			page 145


 4974 2598 D1E8     		shrl	%eax
 4975 259a 39F0     		cmpl	%esi, %eax
 4976 259c 7662     		jbe	L497
 4977              	LBB101:
 4978              	LBB91:
 258:./Source/CS229Image.c ****     if(pixel < 0 || pixel >= pic->width.value * pic->height.value)
 4979              		.loc 1 258 0
 4980 259e 8B5508   		movl	8(%ebp), %edx
 4981 25a1 8B7A08   		movl	8(%edx), %edi
 4982 25a4 8B4A0C   		movl	12(%edx), %ecx
 4983 25a7 89F8     		movl	%edi, %eax
 4984 25a9 0FAFC1   		imull	%ecx, %eax
 4985 25ac 394594   		cmpl	%eax, -108(%ebp)
 4986 25af 0F825BFF 		jb	L516
 4986      FFFF
 4987              	L498:
 4988              	LBE91:
 4989              	LBE101:
1390:./Source/CS229Image.c ****                         free((void*)newpic.data);
 4990              		.loc 1 1390 0
 4991 25b5 8B45E0   		movl	-32(%ebp), %eax
 4992 25b8 BB0F0000 		movl	$15, %ebx
 4992      00
 4993              	LVL599:
 4994 25bd 890424   		movl	%eax, (%esp)
 4995 25c0 E8000000 		call	_free
 4995      00
1438:./Source/CS229Image.c **** }
 4996              		.loc 1 1438 0
 4997 25c5 83C47C   		addl	$124, %esp
 4998 25c8 89D8     		movl	%ebx, %eax
 4999 25ca 5B       		popl	%ebx
 5000              	LVL600:
 5001 25cb 5E       		popl	%esi
 5002              	LVL601:
 5003 25cc 5F       		popl	%edi
 5004 25cd 5D       		popl	%ebp
 5005 25ce C3       		ret
 5006              	LVL602:
 5007 25cf 90       		.p2align 4,,7
 5008              	L514:
1323:./Source/CS229Image.c ****     if(pic == NULL || kernel == NULL)
 5009              		.loc 1 1323 0
 5010 25d0 BB0C0000 		movl	$12, %ebx
 5010      00
 5011              	LVL603:
1438:./Source/CS229Image.c **** }
 5012              		.loc 1 1438 0
 5013 25d5 83C47C   		addl	$124, %esp
 5014 25d8 89D8     		movl	%ebx, %eax
 5015 25da 5B       		popl	%ebx
 5016              	LVL604:
 5017 25db 5E       		popl	%esi
 5018 25dc 5F       		popl	%edi
 5019 25dd 5D       		popl	%ebp
 5020 25de C3       		ret
 5021              	LVL605:
GAS LISTING /cygdrive/c/Users/THESCI~1/AppData/Local/Temp/ccH1olGy.s 			page 146


 5022 25df 90       		.p2align 4,,7
 5023              	L473:
 5024              	LBB102:
 5025              	LBB82:
 177:./Source/CS229Image.c ****     else if(dest->color_mode == MODE_COLOR)
 5026              		.loc 1 177 0
 5027 25e0 80C201   		addb	$1, %dl
 5028 25e3 743B     		je	L520
 5029              	LVL606:
 5030              	L474:
 5031              	LBE82:
 5032              	LBE102:
1437:./Source/CS229Image.c ****     return SUCCESS;
 5033              		.loc 1 1437 0
 5034 25e5 BB0A0000 		movl	$10, %ebx
 5034      00
 5035              	LVL607:
 5036 25ea E9BDFDFF 		jmp	L470
 5036      FF
 5037              	LVL608:
 5038 25ef 90       		.p2align 4,,7
 5039              	L477:
 5040              	LBB103:
 5041              	LBB85:
 161:./Source/CS229Image.c ****         switch(dest->first_channel.blackwhite_channel_size)
 5042              		.loc 1 161 0
 5043 25f0 BE040000 		movl	$4, %esi
 5043      00
 5044              	LVL609:
 5045 25f5 31D2     		xorl	%edx, %edx
 5046              		.p2align 4,,3
 5047 25f7 E924FEFF 		jmp	L478
 5047      FF
 5048              	LVL610:
 5049 25fc 8D742600 		.p2align 4,,7
 5050              	L497:
 5051              	LBE85:
 5052              	LBE103:
1384:./Source/CS229Image.c ****             for(x = - (width[j] / 2);x < (width[j] + 1) / 2;x++)
 5053              		.loc 1 1384 0
 5054 2600 83459C01 		addl	$1, -100(%ebp)
 5055              	LVL611:
 5056 2604 39459C   		cmpl	%eax, -100(%ebp)
 5057 2607 0F836B01 		jae	L506
 5057      0000
 5058 260d 8B7DA8   		movl	-88(%ebp), %edi
 5059 2610 8D4F01   		leal	1(%edi), %ecx
 5060 2613 89FE     		movl	%edi, %esi
 5061 2615 E9CCFEFF 		jmp	L507
 5061      FF
 5062              	LVL612:
 5063 261a 8DB60000 		.p2align 4,,7
 5063      0000
 5064              	L520:
 5065              	LBB104:
 5066              	LBB81:
 180:./Source/CS229Image.c ****         switch(dest->first_channel.red_channel_size)
GAS LISTING /cygdrive/c/Users/THESCI~1/AppData/Local/Temp/ccH1olGy.s 			page 147


 5067              		.loc 1 180 0
 5068 2620 80F902   		cmpb	$2, %cl
 5069 2623 0F84F500 		je	L480
 5069      0000
 5070 2629 80F904   		cmpb	$4, %cl
 5071 262c 0F84AE00 		je	L481
 5071      0000
 5072 2632 80E901   		subb	$1, %cl
 5073              		.p2align 4,,5
 5074 2635 75AE     		jne	L474
 5075 2637 C745A403 		movl	$3, -92(%ebp)
 5075      000000
 5076              	LVL613:
 5077 263e BE050000 		movl	$5, %esi
 5077      00
 5078              	LVL614:
 5079 2643 BA070000 		movl	$7, %edx
 5079      00
 5080              	LVL615:
 5081 2648 C745AC04 		movl	$4, -84(%ebp)
 5081      000000
 5082              	LVL616:
 5083 264f B9090000 		movl	$9, %ecx
 5083      00
 5084              	LVL617:
 5085 2654 C745B406 		movl	$6, -76(%ebp)
 5085      000000
 5086              	LVL618:
 5087 265b C745B004 		movl	$4, -80(%ebp)
 5087      000000
 5088              	LVL619:
 5089 2662 C745BC07 		movl	$7, -68(%ebp)
 5089      000000
 5090              	LVL620:
 5091 2669 C745B806 		movl	$6, -72(%ebp)
 5091      000000
 5092              	LVL621:
 5093              	L482:
 196:./Source/CS229Image.c ****         switch(dest->green_channel_size)
 5094              		.loc 1 196 0
 5095 2670 80FB02   		cmpb	$2, %bl
 5096 2673 0F84F000 		je	L484
 5096      0000
 5097 2679 80FB04   		cmpb	$4, %bl
 5098 267c 0F84DA00 		je	L485
 5098      0000
 5099 2682 80EB01   		subb	$1, %bl
 5100 2685 0F855AFF 		jne	L474
 5100      FFFF
 5101 268b 8B55A4   		movl	-92(%ebp), %edx
 5102 268e 8B75AC   		movl	-84(%ebp), %esi
 5103 2691 8B4DB4   		movl	-76(%ebp), %ecx
 5104 2694 8955B0   		movl	%edx, -80(%ebp)
 5105              	LVL622:
 5106              	L486:
 212:./Source/CS229Image.c ****         switch(dest->blue_channel_size)
 5107              		.loc 1 212 0
GAS LISTING /cygdrive/c/Users/THESCI~1/AppData/Local/Temp/ccH1olGy.s 			page 148


 5108 2697 89FA     		movl	%edi, %edx
 5109 2699 80FA02   		cmpb	$2, %dl
 5110 269c 7415     		je	L488
 5111 269e 80FA04   		cmpb	$4, %dl
 5112 26a1 0F84CA00 		je	L489
 5112      0000
 5113 26a7 80EA01   		subb	$1, %dl
 5114 26aa 8B75B0   		movl	-80(%ebp), %esi
 5115 26ad 0F8532FF 		jne	L474
 5115      FFFF
 5116              	L488:
 5117 26b3 89F2     		movl	%esi, %edx
 5118 26b5 83E201   		andl	$1, %edx
 5119 26b8 E963FDFF 		jmp	L478
 5119      FF
 5120              	LVL623:
 5121 26bd 8D7600   		.p2align 4,,7
 5122              	L476:
 5123              	LBE81:
 5124              	LBE104:
1437:./Source/CS229Image.c ****     return SUCCESS;
 5125              		.loc 1 1437 0
 5126 26c0 BE020000 		movl	$2, %esi
 5126      00
 5127              	LVL624:
 5128 26c5 31D2     		xorl	%edx, %edx
 5129 26c7 E954FDFF 		jmp	L478
 5129      FF
 5130              	LVL625:
 5131 26cc 8D742600 		.p2align 4,,7
 5132              	L517:
1424:./Source/CS229Image.c ****                 free((void*)newpic.data);
 5133              		.loc 1 1424 0
 5134 26d0 8B45E0   		movl	-32(%ebp), %eax
 5135 26d3 890424   		movl	%eax, (%esp)
 5136 26d6 E8000000 		call	_free
 5136      00
 5137 26db E9CCFCFF 		jmp	L470
 5137      FF
 5138              	LVL626:
 5139              	L481:
 5140              	LBB105:
 5141              	LBB86:
 180:./Source/CS229Image.c ****         switch(dest->first_channel.red_channel_size)
 5142              		.loc 1 180 0
 5143 26e0 C745A406 		movl	$6, -92(%ebp)
 5143      000000
 5144              	LVL627:
 5145 26e7 BE080000 		movl	$8, %esi
 5145      00
 5146              	LVL628:
 5147 26ec BA0A0000 		movl	$10, %edx
 5147      00
 5148              	LVL629:
 5149 26f1 C745AC07 		movl	$7, -84(%ebp)
 5149      000000
 5150              	LVL630:
GAS LISTING /cygdrive/c/Users/THESCI~1/AppData/Local/Temp/ccH1olGy.s 			page 149


 5151 26f8 B90C0000 		movl	$12, %ecx
 5151      00
 5152              	LVL631:
 5153 26fd C745B409 		movl	$9, -76(%ebp)
 5153      000000
 5154              	LVL632:
 5155 2704 C745B007 		movl	$7, -80(%ebp)
 5155      000000
 5156              	LVL633:
 5157 270b C745BC0A 		movl	$10, -68(%ebp)
 5157      000000
 5158              	LVL634:
 5159 2712 C745B809 		movl	$9, -72(%ebp)
 5159      000000
 5160              	LVL635:
 5161 2719 E952FFFF 		jmp	L482
 5161      FF
 5162              	LVL636:
 5163              	L480:
 5164 271e C745A404 		movl	$4, -92(%ebp)
 5164      000000
 5165              	LVL637:
 5166 2725 BE060000 		movl	$6, %esi
 5166      00
 5167              	LVL638:
 5168 272a BA080000 		movl	$8, %edx
 5168      00
 5169              	LVL639:
 5170 272f C745AC05 		movl	$5, -84(%ebp)
 5170      000000
 5171              	LVL640:
 5172 2736 B90A0000 		movl	$10, %ecx
 5172      00
 5173              	LVL641:
 5174 273b C745B407 		movl	$7, -76(%ebp)
 5174      000000
 5175              	LVL642:
 5176 2742 C745B005 		movl	$5, -80(%ebp)
 5176      000000
 5177              	LVL643:
 5178 2749 C745BC08 		movl	$8, -68(%ebp)
 5178      000000
 5179              	LVL644:
 5180 2750 C745B807 		movl	$7, -72(%ebp)
 5180      000000
 5181              	LVL645:
 5182 2757 E914FFFF 		jmp	L482
 5182      FF
 5183              	L485:
 196:./Source/CS229Image.c ****         switch(dest->green_channel_size)
 5184              		.loc 1 196 0
 5185 275c 8B5DB8   		movl	-72(%ebp), %ebx
 5186 275f 89D6     		movl	%edx, %esi
 5187 2761 895DB0   		movl	%ebx, -80(%ebp)
 5188              	LVL646:
 5189 2764 E92EFFFF 		jmp	L486
 5189      FF
GAS LISTING /cygdrive/c/Users/THESCI~1/AppData/Local/Temp/ccH1olGy.s 			page 150


 5190              	LVL647:
 5191              	L484:
 5192 2769 8B4DBC   		movl	-68(%ebp), %ecx
 5193 276c E926FFFF 		jmp	L486
 5193      FF
 5194              	LVL648:
 5195              	L489:
 212:./Source/CS229Image.c ****         switch(dest->blue_channel_size)
 5196              		.loc 1 212 0
 5197 2771 89CE     		movl	%ecx, %esi
 5198 2773 E93BFFFF 		jmp	L488
 5198      FF
 5199              	LVL649:
 5200              	L506:
 5201              	LBE86:
 5202              	LBE105:
1308:./Source/CS229Image.c **** {
 5203              		.loc 1 1308 0
 5204 2778 D945A0   		flds	-96(%ebp)
 5205 277b D91C24   		fstps	(%esp)
 5206 277e E8000000 		call	_roundf
 5206      00
 5207 2783 D97DCE   		fnstcw	-50(%ebp)
 5208 2786 0FB745CE 		movzwl	-50(%ebp), %eax
 5209 278a B40C     		movb	$12, %ah
 5210 278c 668945CC 		movw	%ax, -52(%ebp)
 5211 2790 D96DCC   		fldcw	-52(%ebp)
 5212 2793 DF7DC0   		fistpq	-64(%ebp)
 5213 2796 D96DCE   		fldcw	-50(%ebp)
 5214 2799 8B45C0   		movl	-64(%ebp), %eax
 5215 279c 89C2     		movl	%eax, %edx
 5216              	L495:
1416:./Source/CS229Image.c ****             int_pixel[j] = (uint32_t)roundf(pixel);
 5217              		.loc 1 1416 0
 5218 279e 8B4598   		movl	-104(%ebp), %eax
1419:./Source/CS229Image.c ****             err = set_pixel(&newpic,i,int_pixel);
 5219              		.loc 1 1419 0
 5220 27a1 8D75D0   		leal	-48(%ebp), %esi
 5221              	LVL650:
1416:./Source/CS229Image.c ****             int_pixel[j] = (uint32_t)roundf(pixel);
 5222              		.loc 1 1416 0
 5223 27a4 895485E4 		movl	%edx, -28(%ebp,%eax,4)
1419:./Source/CS229Image.c ****             err = set_pixel(&newpic,i,int_pixel);
 5224              		.loc 1 1419 0
 5225 27a8 8D55E4   		leal	-28(%ebp), %edx
 5226 27ab 89542408 		movl	%edx, 8(%esp)
 5227 27af 8B5D94   		movl	-108(%ebp), %ebx
 5228 27b2 893424   		movl	%esi, (%esp)
 5229 27b5 895C2404 		movl	%ebx, 4(%esp)
 5230 27b9 E8E2EDFF 		call	_set_pixel
 5230      FF
1422:./Source/CS229Image.c ****             if(err)
 5231              		.loc 1 1422 0
 5232 27be 85C0     		testl	%eax, %eax
 5233              	LVL651:
1419:./Source/CS229Image.c ****             err = set_pixel(&newpic,i,int_pixel);
 5234              		.loc 1 1419 0
GAS LISTING /cygdrive/c/Users/THESCI~1/AppData/Local/Temp/ccH1olGy.s 			page 151


 5235 27c0 89C3     		movl	%eax, %ebx
 5236              	LVL652:
1422:./Source/CS229Image.c ****             if(err)
 5237              		.loc 1 1422 0
 5238 27c2 0F8508FF 		jne	L517
 5238      FFFF
1379:./Source/CS229Image.c ****         for(j = 0;j < (pic->color_mode == MODE_COLOR ? 3 : 1);j++)
 5239              		.loc 1 1379 0
 5240 27c8 83459801 		addl	$1, -104(%ebp)
 5241              	LVL653:
 5242 27cc E9CFFCFF 		jmp	L493
 5242      FF
 5243              	L519:
1356:./Source/CS229Image.c ****     for(i = 0;i < len;i++)
 5244              		.loc 1 1356 0
 5245 27d1 83459401 		addl	$1, -108(%ebp)
 5246              	LVL654:
 5247 27d5 8B4594   		movl	-108(%ebp), %eax
 5248 27d8 394590   		cmpl	%eax, -112(%ebp)
 5249 27db 0F8772FC 		ja	L512
 5249      FFFF
 5250              	LVL655:
 5251              	L490:
1431:./Source/CS229Image.c ****     free((void*)pic->data);
 5252              		.loc 1 1431 0
 5253 27e1 8B5508   		movl	8(%ebp), %edx
 5254 27e4 8B4210   		movl	16(%edx), %eax
 5255 27e7 890424   		movl	%eax, (%esp)
 5256 27ea E8000000 		call	_free
 5256      00
1434:./Source/CS229Image.c ****     pic->data = newpic.data;
 5257              		.loc 1 1434 0
 5258 27ef 8B5D08   		movl	8(%ebp), %ebx
 5259              	LVL656:
 5260 27f2 8B45E0   		movl	-32(%ebp), %eax
 5261 27f5 894310   		movl	%eax, 16(%ebx)
 5262 27f8 31DB     		xorl	%ebx, %ebx
 5263              	LVL657:
 5264 27fa E9ADFBFF 		jmp	L470
 5264      FF
 5265              	LFE18:
 5266              		.section .rdata,"dr"
 5267 0027 00       		.align 4
 5268              	LC4:
 5269 0028 CDCCCC3D 		.long	1036831949
 5270              		.section	.debug_frame,"dr"
 5271              	Lframe0:
 5272 0000 10000000 		.long	LECIE0-LSCIE0
 5273              	LSCIE0:
 5274 0004 FFFFFFFF 		.long	0xffffffff
 5275 0008 01       		.byte	0x1
 5276 0009 00       		.ascii "\0"
 5277 000a 01       		.uleb128 0x1
 5278 000b 7C       		.sleb128 -4
 5279 000c 08       		.byte	0x8
 5280 000d 0C       		.byte	0xc
 5281 000e 04       		.uleb128 0x4
GAS LISTING /cygdrive/c/Users/THESCI~1/AppData/Local/Temp/ccH1olGy.s 			page 152


 5282 000f 04       		.uleb128 0x4
 5283 0010 88       		.byte	0x88
 5284 0011 01       		.uleb128 0x1
 5285 0012 0000     		.align 4
 5286              	LECIE0:
 5287              	LSFDE0:
 5288 0014 1C000000 		.long	LEFDE0-LASFDE0
 5289              	LASFDE0:
 5290 0018 00000000 		.secrel32	Lframe0
 5291 001c 00000000 		.long	LFB8
 5292 0020 90010000 		.long	LFE8-LFB8
 5293 0024 41       		.byte	0x4
 5294              		.long	LCFI0-LFB8
 5295 0025 0E       		.byte	0xe
 5296 0026 08       		.uleb128 0x8
 5297 0027 85       		.byte	0x85
 5298 0028 02       		.uleb128 0x2
 5299 0029 47       		.byte	0x4
 5300              		.long	LCFI1-LCFI0
 5301 002a 0D       		.byte	0xd
 5302 002b 05       		.uleb128 0x5
 5303 002c 4F       		.byte	0x4
 5304              		.long	LCFI5-LCFI1
 5305 002d 87       		.byte	0x87
 5306 002e 03       		.uleb128 0x3
 5307 002f 86       		.byte	0x86
 5308 0030 04       		.uleb128 0x4
 5309 0031 83       		.byte	0x83
 5310 0032 05       		.uleb128 0x5
 5311 0033 00       		.align 4
 5312              	LEFDE0:
 5313              	LSFDE2:
 5314 0034 18000000 		.long	LEFDE2-LASFDE2
 5315              	LASFDE2:
 5316 0038 00000000 		.secrel32	Lframe0
 5317 003c 90010000 		.long	LFB9
 5318 0040 29000000 		.long	LFE9-LFB9
 5319 0044 41       		.byte	0x4
 5320              		.long	LCFI6-LFB9
 5321 0045 0E       		.byte	0xe
 5322 0046 08       		.uleb128 0x8
 5323 0047 85       		.byte	0x85
 5324 0048 02       		.uleb128 0x2
 5325 0049 42       		.byte	0x4
 5326              		.long	LCFI7-LCFI6
 5327 004a 0D       		.byte	0xd
 5328 004b 05       		.uleb128 0x5
 5329 004c 41       		.byte	0x4
 5330              		.long	LCFI8-LCFI7
 5331 004d 83       		.byte	0x83
 5332 004e 03       		.uleb128 0x3
 5333 004f 00       		.align 4
 5334              	LEFDE2:
 5335              	LSFDE4:
 5336 0050 1C000000 		.long	LEFDE4-LASFDE4
 5337              	LASFDE4:
 5338 0054 00000000 		.secrel32	Lframe0
GAS LISTING /cygdrive/c/Users/THESCI~1/AppData/Local/Temp/ccH1olGy.s 			page 153


 5339 0058 C0010000 		.long	LFB10
 5340 005c 60000000 		.long	LFE10-LFB10
 5341 0060 41       		.byte	0x4
 5342              		.long	LCFI9-LFB10
 5343 0061 0E       		.byte	0xe
 5344 0062 08       		.uleb128 0x8
 5345 0063 85       		.byte	0x85
 5346 0064 02       		.uleb128 0x2
 5347 0065 42       		.byte	0x4
 5348              		.long	LCFI10-LCFI9
 5349 0066 0D       		.byte	0xd
 5350 0067 05       		.uleb128 0x5
 5351 0068 4A       		.byte	0x4
 5352              		.long	LCFI13-LCFI10
 5353 0069 86       		.byte	0x86
 5354 006a 03       		.uleb128 0x3
 5355 006b 83       		.byte	0x83
 5356 006c 04       		.uleb128 0x4
 5357 006d 000000   		.align 4
 5358              	LEFDE4:
 5359              	LSFDE6:
 5360 0070 1C000000 		.long	LEFDE6-LASFDE6
 5361              	LASFDE6:
 5362 0074 00000000 		.secrel32	Lframe0
 5363 0078 20020000 		.long	LFB20
 5364 007c 8F000000 		.long	LFE20-LFB20
 5365 0080 41       		.byte	0x4
 5366              		.long	LCFI14-LFB20
 5367 0081 0E       		.byte	0xe
 5368 0082 08       		.uleb128 0x8
 5369 0083 85       		.byte	0x85
 5370 0084 02       		.uleb128 0x2
 5371 0085 42       		.byte	0x4
 5372              		.long	LCFI15-LCFI14
 5373 0086 0D       		.byte	0xd
 5374 0087 05       		.uleb128 0x5
 5375 0088 45       		.byte	0x4
 5376              		.long	LCFI18-LCFI15
 5377 0089 83       		.byte	0x83
 5378 008a 04       		.uleb128 0x4
 5379 008b 86       		.byte	0x86
 5380 008c 03       		.uleb128 0x3
 5381 008d 000000   		.align 4
 5382              	LEFDE6:
 5383              	LSFDE8:
 5384 0090 1C000000 		.long	LEFDE8-LASFDE8
 5385              	LASFDE8:
 5386 0094 00000000 		.secrel32	Lframe0
 5387 0098 B0020000 		.long	LFB19
 5388 009c DC000000 		.long	LFE19-LFB19
 5389 00a0 41       		.byte	0x4
 5390              		.long	LCFI19-LFB19
 5391 00a1 0E       		.byte	0xe
 5392 00a2 08       		.uleb128 0x8
 5393 00a3 85       		.byte	0x85
 5394 00a4 02       		.uleb128 0x2
 5395 00a5 42       		.byte	0x4
GAS LISTING /cygdrive/c/Users/THESCI~1/AppData/Local/Temp/ccH1olGy.s 			page 154


 5396              		.long	LCFI20-LCFI19
 5397 00a6 0D       		.byte	0xd
 5398 00a7 05       		.uleb128 0x5
 5399 00a8 46       		.byte	0x4
 5400              		.long	LCFI22-LCFI20
 5401 00a9 83       		.byte	0x83
 5402 00aa 04       		.uleb128 0x4
 5403 00ab 46       		.byte	0x4
 5404              		.long	LCFI23-LCFI22
 5405 00ac 86       		.byte	0x86
 5406 00ad 03       		.uleb128 0x3
 5407 00ae 0000     		.align 4
 5408              	LEFDE8:
 5409              	LSFDE10:
 5410 00b0 20000000 		.long	LEFDE10-LASFDE10
 5411              	LASFDE10:
 5412 00b4 00000000 		.secrel32	Lframe0
 5413 00b8 90030000 		.long	LFB6
 5414 00bc D5010000 		.long	LFE6-LFB6
 5415 00c0 41       		.byte	0x4
 5416              		.long	LCFI24-LFB6
 5417 00c1 0E       		.byte	0xe
 5418 00c2 08       		.uleb128 0x8
 5419 00c3 85       		.byte	0x85
 5420 00c4 02       		.uleb128 0x2
 5421 00c5 47       		.byte	0x4
 5422              		.long	LCFI25-LCFI24
 5423 00c6 0D       		.byte	0xd
 5424 00c7 05       		.uleb128 0x5
 5425 00c8 46       		.byte	0x4
 5426              		.long	LCFI27-LCFI25
 5427 00c9 86       		.byte	0x86
 5428 00ca 04       		.uleb128 0x4
 5429 00cb 46       		.byte	0x4
 5430              		.long	LCFI28-LCFI27
 5431 00cc 87       		.byte	0x87
 5432 00cd 03       		.uleb128 0x3
 5433 00ce 46       		.byte	0x4
 5434              		.long	LCFI29-LCFI28
 5435 00cf 83       		.byte	0x83
 5436 00d0 05       		.uleb128 0x5
 5437 00d1 000000   		.align 4
 5438              	LEFDE10:
 5439              	LSFDE12:
 5440 00d4 1C000000 		.long	LEFDE12-LASFDE12
 5441              	LASFDE12:
 5442 00d8 00000000 		.secrel32	Lframe0
 5443 00dc 70050000 		.long	LFB7
 5444 00e0 46020000 		.long	LFE7-LFB7
 5445 00e4 41       		.byte	0x4
 5446              		.long	LCFI30-LFB7
 5447 00e5 0E       		.byte	0xe
 5448 00e6 08       		.uleb128 0x8
 5449 00e7 85       		.byte	0x85
 5450 00e8 02       		.uleb128 0x2
 5451 00e9 47       		.byte	0x4
 5452              		.long	LCFI31-LCFI30
GAS LISTING /cygdrive/c/Users/THESCI~1/AppData/Local/Temp/ccH1olGy.s 			page 155


 5453 00ea 0D       		.byte	0xd
 5454 00eb 05       		.uleb128 0x5
 5455 00ec 46       		.byte	0x4
 5456              		.long	LCFI35-LCFI31
 5457 00ed 83       		.byte	0x83
 5458 00ee 05       		.uleb128 0x5
 5459 00ef 86       		.byte	0x86
 5460 00f0 04       		.uleb128 0x4
 5461 00f1 87       		.byte	0x87
 5462 00f2 03       		.uleb128 0x3
 5463 00f3 00       		.align 4
 5464              	LEFDE12:
 5465              	LSFDE14:
 5466 00f4 1C000000 		.long	LEFDE14-LASFDE14
 5467              	LASFDE14:
 5468 00f8 00000000 		.secrel32	Lframe0
 5469 00fc C0070000 		.long	LFB11
 5470 0100 C3040000 		.long	LFE11-LFB11
 5471 0104 41       		.byte	0x4
 5472              		.long	LCFI36-LFB11
 5473 0105 0E       		.byte	0xe
 5474 0106 08       		.uleb128 0x8
 5475 0107 85       		.byte	0x85
 5476 0108 02       		.uleb128 0x2
 5477 0109 42       		.byte	0x4
 5478              		.long	LCFI37-LCFI36
 5479 010a 0D       		.byte	0xd
 5480 010b 05       		.uleb128 0x5
 5481 010c 4F       		.byte	0x4
 5482              		.long	LCFI41-LCFI37
 5483 010d 87       		.byte	0x87
 5484 010e 03       		.uleb128 0x3
 5485 010f 86       		.byte	0x86
 5486 0110 04       		.uleb128 0x4
 5487 0111 83       		.byte	0x83
 5488 0112 05       		.uleb128 0x5
 5489 0113 00       		.align 4
 5490              	LEFDE14:
 5491              	LSFDE16:
 5492 0114 1C000000 		.long	LEFDE16-LASFDE16
 5493              	LASFDE16:
 5494 0118 00000000 		.secrel32	Lframe0
 5495 011c 900C0000 		.long	LFB13
 5496 0120 DF000000 		.long	LFE13-LFB13
 5497 0124 41       		.byte	0x4
 5498              		.long	LCFI42-LFB13
 5499 0125 0E       		.byte	0xe
 5500 0126 08       		.uleb128 0x8
 5501 0127 85       		.byte	0x85
 5502 0128 02       		.uleb128 0x2
 5503 0129 42       		.byte	0x4
 5504              		.long	LCFI43-LCFI42
 5505 012a 0D       		.byte	0xd
 5506 012b 05       		.uleb128 0x5
 5507 012c 46       		.byte	0x4
 5508              		.long	LCFI45-LCFI43
 5509 012d 86       		.byte	0x86
GAS LISTING /cygdrive/c/Users/THESCI~1/AppData/Local/Temp/ccH1olGy.s 			page 156


 5510 012e 04       		.uleb128 0x4
 5511 012f 49       		.byte	0x4
 5512              		.long	LCFI47-LCFI45
 5513 0130 87       		.byte	0x87
 5514 0131 03       		.uleb128 0x3
 5515 0132 83       		.byte	0x83
 5516 0133 05       		.uleb128 0x5
 5517              		.align 4
 5518              	LEFDE16:
 5519              	LSFDE18:
 5520 0134 1C000000 		.long	LEFDE18-LASFDE18
 5521              	LASFDE18:
 5522 0138 00000000 		.secrel32	Lframe0
 5523 013c 700D0000 		.long	LFB21
 5524 0140 C4040000 		.long	LFE21-LFB21
 5525 0144 41       		.byte	0x4
 5526              		.long	LCFI48-LFB21
 5527 0145 0E       		.byte	0xe
 5528 0146 08       		.uleb128 0x8
 5529 0147 85       		.byte	0x85
 5530 0148 02       		.uleb128 0x2
 5531 0149 42       		.byte	0x4
 5532              		.long	LCFI49-LCFI48
 5533 014a 0D       		.byte	0xd
 5534 014b 05       		.uleb128 0x5
 5535 014c 46       		.byte	0x4
 5536              		.long	LCFI53-LCFI49
 5537 014d 83       		.byte	0x83
 5538 014e 05       		.uleb128 0x5
 5539 014f 86       		.byte	0x86
 5540 0150 04       		.uleb128 0x4
 5541 0151 87       		.byte	0x87
 5542 0152 03       		.uleb128 0x3
 5543 0153 00       		.align 4
 5544              	LEFDE18:
 5545              	LSFDE20:
 5546 0154 20000000 		.long	LEFDE20-LASFDE20
 5547              	LASFDE20:
 5548 0158 00000000 		.secrel32	Lframe0
 5549 015c 40120000 		.long	LFB22
 5550 0160 55030000 		.long	LFE22-LFB22
 5551 0164 41       		.byte	0x4
 5552              		.long	LCFI54-LFB22
 5553 0165 0E       		.byte	0xe
 5554 0166 08       		.uleb128 0x8
 5555 0167 85       		.byte	0x85
 5556 0168 02       		.uleb128 0x2
 5557 0169 42       		.byte	0x4
 5558              		.long	LCFI55-LCFI54
 5559 016a 0D       		.byte	0xd
 5560 016b 05       		.uleb128 0x5
 5561 016c 46       		.byte	0x4
 5562              		.long	LCFI57-LCFI55
 5563 016d 86       		.byte	0x86
 5564 016e 04       		.uleb128 0x4
 5565 016f 46       		.byte	0x4
 5566              		.long	LCFI58-LCFI57
GAS LISTING /cygdrive/c/Users/THESCI~1/AppData/Local/Temp/ccH1olGy.s 			page 157


 5567 0170 87       		.byte	0x87
 5568 0171 03       		.uleb128 0x3
 5569 0172 46       		.byte	0x4
 5570              		.long	LCFI59-LCFI58
 5571 0173 83       		.byte	0x83
 5572 0174 05       		.uleb128 0x5
 5573 0175 000000   		.align 4
 5574              	LEFDE20:
 5575              	LSFDE22:
 5576 0178 1C000000 		.long	LEFDE22-LASFDE22
 5577              	LASFDE22:
 5578 017c 00000000 		.secrel32	Lframe0
 5579 0180 A0150000 		.long	LFB12
 5580 0184 BB040000 		.long	LFE12-LFB12
 5581 0188 41       		.byte	0x4
 5582              		.long	LCFI60-LFB12
 5583 0189 0E       		.byte	0xe
 5584 018a 08       		.uleb128 0x8
 5585 018b 85       		.byte	0x85
 5586 018c 02       		.uleb128 0x2
 5587 018d 42       		.byte	0x4
 5588              		.long	LCFI61-LCFI60
 5589 018e 0D       		.byte	0xd
 5590 018f 05       		.uleb128 0x5
 5591 0190 4F       		.byte	0x4
 5592              		.long	LCFI65-LCFI61
 5593 0191 87       		.byte	0x87
 5594 0192 03       		.uleb128 0x3
 5595 0193 86       		.byte	0x86
 5596 0194 04       		.uleb128 0x4
 5597 0195 83       		.byte	0x83
 5598 0196 05       		.uleb128 0x5
 5599 0197 00       		.align 4
 5600              	LEFDE22:
 5601              	LSFDE24:
 5602 0198 1C000000 		.long	LEFDE24-LASFDE24
 5603              	LASFDE24:
 5604 019c 00000000 		.secrel32	Lframe0
 5605 01a0 601A0000 		.long	LFB14
 5606 01a4 28010000 		.long	LFE14-LFB14
 5607 01a8 41       		.byte	0x4
 5608              		.long	LCFI66-LFB14
 5609 01a9 0E       		.byte	0xe
 5610 01aa 08       		.uleb128 0x8
 5611 01ab 85       		.byte	0x85
 5612 01ac 02       		.uleb128 0x2
 5613 01ad 42       		.byte	0x4
 5614              		.long	LCFI67-LCFI66
 5615 01ae 0D       		.byte	0xd
 5616 01af 05       		.uleb128 0x5
 5617 01b0 46       		.byte	0x4
 5618              		.long	LCFI71-LCFI67
 5619 01b1 83       		.byte	0x83
 5620 01b2 05       		.uleb128 0x5
 5621 01b3 86       		.byte	0x86
 5622 01b4 04       		.uleb128 0x4
 5623 01b5 87       		.byte	0x87
GAS LISTING /cygdrive/c/Users/THESCI~1/AppData/Local/Temp/ccH1olGy.s 			page 158


 5624 01b6 03       		.uleb128 0x3
 5625 01b7 00       		.align 4
 5626              	LEFDE24:
 5627              	LSFDE26:
 5628 01b8 1C000000 		.long	LEFDE26-LASFDE26
 5629              	LASFDE26:
 5630 01bc 00000000 		.secrel32	Lframe0
 5631 01c0 901B0000 		.long	LFB15
 5632 01c4 75020000 		.long	LFE15-LFB15
 5633 01c8 41       		.byte	0x4
 5634              		.long	LCFI72-LFB15
 5635 01c9 0E       		.byte	0xe
 5636 01ca 08       		.uleb128 0x8
 5637 01cb 85       		.byte	0x85
 5638 01cc 02       		.uleb128 0x2
 5639 01cd 42       		.byte	0x4
 5640              		.long	LCFI73-LCFI72
 5641 01ce 0D       		.byte	0xd
 5642 01cf 05       		.uleb128 0x5
 5643 01d0 46       		.byte	0x4
 5644              		.long	LCFI77-LCFI73
 5645 01d1 83       		.byte	0x83
 5646 01d2 05       		.uleb128 0x5
 5647 01d3 86       		.byte	0x86
 5648 01d4 04       		.uleb128 0x4
 5649 01d5 87       		.byte	0x87
 5650 01d6 03       		.uleb128 0x3
 5651 01d7 00       		.align 4
 5652              	LEFDE26:
 5653              	LSFDE28:
 5654 01d8 1C000000 		.long	LEFDE28-LASFDE28
 5655              	LASFDE28:
 5656 01dc 00000000 		.secrel32	Lframe0
 5657 01e0 101E0000 		.long	LFB17
 5658 01e4 05020000 		.long	LFE17-LFB17
 5659 01e8 41       		.byte	0x4
 5660              		.long	LCFI78-LFB17
 5661 01e9 0E       		.byte	0xe
 5662 01ea 08       		.uleb128 0x8
 5663 01eb 85       		.byte	0x85
 5664 01ec 02       		.uleb128 0x2
 5665 01ed 42       		.byte	0x4
 5666              		.long	LCFI79-LCFI78
 5667 01ee 0D       		.byte	0xd
 5668 01ef 05       		.uleb128 0x5
 5669 01f0 46       		.byte	0x4
 5670              		.long	LCFI83-LCFI79
 5671 01f1 83       		.byte	0x83
 5672 01f2 05       		.uleb128 0x5
 5673 01f3 86       		.byte	0x86
 5674 01f4 04       		.uleb128 0x4
 5675 01f5 87       		.byte	0x87
 5676 01f6 03       		.uleb128 0x3
 5677 01f7 00       		.align 4
 5678              	LEFDE28:
 5679              	LSFDE30:
 5680 01f8 1C000000 		.long	LEFDE30-LASFDE30
GAS LISTING /cygdrive/c/Users/THESCI~1/AppData/Local/Temp/ccH1olGy.s 			page 159


 5681              	LASFDE30:
 5682 01fc 00000000 		.secrel32	Lframe0
 5683 0200 20200000 		.long	LFB16
 5684 0204 55030000 		.long	LFE16-LFB16
 5685 0208 41       		.byte	0x4
 5686              		.long	LCFI84-LFB16
 5687 0209 0E       		.byte	0xe
 5688 020a 08       		.uleb128 0x8
 5689 020b 85       		.byte	0x85
 5690 020c 02       		.uleb128 0x2
 5691 020d 42       		.byte	0x4
 5692              		.long	LCFI85-LCFI84
 5693 020e 0D       		.byte	0xd
 5694 020f 05       		.uleb128 0x5
 5695 0210 43       		.byte	0x4
 5696              		.long	LCFI88-LCFI85
 5697 0211 83       		.byte	0x83
 5698 0212 05       		.uleb128 0x5
 5699 0213 86       		.byte	0x86
 5700 0214 04       		.uleb128 0x4
 5701 0215 87       		.byte	0x87
 5702 0216 03       		.uleb128 0x3
 5703 0217 00       		.align 4
 5704              	LEFDE30:
 5705              	LSFDE32:
 5706 0218 1C000000 		.long	LEFDE32-LASFDE32
 5707              	LASFDE32:
 5708 021c 00000000 		.secrel32	Lframe0
 5709 0220 80230000 		.long	LFB18
 5710 0224 7F040000 		.long	LFE18-LFB18
 5711 0228 41       		.byte	0x4
 5712              		.long	LCFI90-LFB18
 5713 0229 0E       		.byte	0xe
 5714 022a 08       		.uleb128 0x8
 5715 022b 85       		.byte	0x85
 5716 022c 02       		.uleb128 0x2
 5717 022d 42       		.byte	0x4
 5718              		.long	LCFI91-LCFI90
 5719 022e 0D       		.byte	0xd
 5720 022f 05       		.uleb128 0x5
 5721 0230 46       		.byte	0x4
 5722              		.long	LCFI95-LCFI91
 5723 0231 83       		.byte	0x83
 5724 0232 05       		.uleb128 0x5
 5725 0233 86       		.byte	0x86
 5726 0234 04       		.uleb128 0x4
 5727 0235 87       		.byte	0x87
 5728 0236 03       		.uleb128 0x3
 5729 0237 00       		.align 4
 5730              	LEFDE32:
 5731              		.text
 5732              	Letext0:
 5733 27ff 90       		.section	.debug_loc,"dr"
 5734              	Ldebug_loc0:
 5735              	LLST0:
 5736 0000 00000000 		.long	LFB8-Ltext0
 5737 0004 01000000 		.long	LCFI0-Ltext0
GAS LISTING /cygdrive/c/Users/THESCI~1/AppData/Local/Temp/ccH1olGy.s 			page 160


 5738 0008 0200     		.word	0x2
 5739 000a 74       		.byte	0x74
 5740 000b 04       		.sleb128 4
 5741 000c 01000000 		.long	LCFI0-Ltext0
 5742 0010 08000000 		.long	LCFI1-Ltext0
 5743 0014 0200     		.word	0x2
 5744 0016 74       		.byte	0x74
 5745 0017 08       		.sleb128 8
 5746 0018 08000000 		.long	LCFI1-Ltext0
 5747 001c 90010000 		.long	LFE8-Ltext0
 5748 0020 0200     		.word	0x2
 5749 0022 75       		.byte	0x75
 5750 0023 08       		.sleb128 8
 5751 0024 00000000 		.long	0x0
 5752 0028 00000000 		.long	0x0
 5753              	LLST1:
 5754 002c 00000000 		.long	LVL0-Ltext0
 5755 0030 1B000000 		.long	LVL2-Ltext0
 5756 0034 0200     		.word	0x2
 5757 0036 91       		.byte	0x91
 5758 0037 00       		.sleb128 0
 5759 0038 1B000000 		.long	LVL2-Ltext0
 5760 003c 90010000 		.long	LFE8-Ltext0
 5761 0040 0100     		.word	0x1
 5762 0042 51       		.byte	0x51
 5763 0043 00000000 		.long	0x0
 5764 0047 00000000 		.long	0x0
 5765              	LLST2:
 5766 004b 06000000 		.long	LVL1-Ltext0
 5767 004f 1F000000 		.long	LVL3-Ltext0
 5768 0053 0100     		.word	0x1
 5769 0055 50       		.byte	0x50
 5770 0056 2C000000 		.long	LVL4-Ltext0
 5771 005a 36000000 		.long	LVL5-Ltext0
 5772 005e 0100     		.word	0x1
 5773 0060 50       		.byte	0x50
 5774 0061 3F000000 		.long	LVL6-Ltext0
 5775 0065 41000000 		.long	LVL7-Ltext0
 5776 0069 0200     		.word	0x2
 5777 006b 75       		.byte	0x75
 5778 006c 70       		.sleb128 -16
 5779 006d 41000000 		.long	LVL7-Ltext0
 5780 0071 44000000 		.long	LVL8-Ltext0
 5781 0075 0100     		.word	0x1
 5782 0077 50       		.byte	0x50
 5783 0078 44000000 		.long	LVL8-Ltext0
 5784 007c 4E000000 		.long	LVL9-Ltext0
 5785 0080 0200     		.word	0x2
 5786 0082 75       		.byte	0x75
 5787 0083 70       		.sleb128 -16
 5788 0084 73000000 		.long	LVL10-Ltext0
 5789 0088 78000000 		.long	LVL11-Ltext0
 5790 008c 0200     		.word	0x2
 5791 008e 75       		.byte	0x75
 5792 008f 60       		.sleb128 -32
 5793 0090 78000000 		.long	LVL11-Ltext0
 5794 0094 7D000000 		.long	LVL12-Ltext0
GAS LISTING /cygdrive/c/Users/THESCI~1/AppData/Local/Temp/ccH1olGy.s 			page 161


 5795 0098 0100     		.word	0x1
 5796 009a 50       		.byte	0x50
 5797 009b 7D000000 		.long	LVL12-Ltext0
 5798 009f 84000000 		.long	LVL13-Ltext0
 5799 00a3 0100     		.word	0x1
 5800 00a5 57       		.byte	0x57
 5801 00a6 84000000 		.long	LVL13-Ltext0
 5802 00aa 89000000 		.long	LVL14-Ltext0
 5803 00ae 0200     		.word	0x2
 5804 00b0 75       		.byte	0x75
 5805 00b1 64       		.sleb128 -28
 5806 00b2 89000000 		.long	LVL14-Ltext0
 5807 00b6 8E000000 		.long	LVL15-Ltext0
 5808 00ba 0100     		.word	0x1
 5809 00bc 56       		.byte	0x56
 5810 00bd 8E000000 		.long	LVL15-Ltext0
 5811 00c1 95000000 		.long	LVL16-Ltext0
 5812 00c5 0100     		.word	0x1
 5813 00c7 53       		.byte	0x53
 5814 00c8 95000000 		.long	LVL16-Ltext0
 5815 00cc 9C000000 		.long	LVL17-Ltext0
 5816 00d0 0200     		.word	0x2
 5817 00d2 75       		.byte	0x75
 5818 00d3 68       		.sleb128 -24
 5819 00d4 9C000000 		.long	LVL17-Ltext0
 5820 00d8 A3000000 		.long	LVL18-Ltext0
 5821 00dc 0200     		.word	0x2
 5822 00de 75       		.byte	0x75
 5823 00df 6C       		.sleb128 -20
 5824 00e0 A3000000 		.long	LVL18-Ltext0
 5825 00e4 C3000000 		.long	LVL19-Ltext0
 5826 00e8 0200     		.word	0x2
 5827 00ea 75       		.byte	0x75
 5828 00eb 70       		.sleb128 -16
 5829 00ec C3000000 		.long	LVL19-Ltext0
 5830 00f0 C9000000 		.long	LVL20-Ltext0
 5831 00f4 0200     		.word	0x2
 5832 00f6 75       		.byte	0x75
 5833 00f7 6C       		.sleb128 -20
 5834 00f8 C9000000 		.long	LVL20-Ltext0
 5835 00fc EA000000 		.long	LVL21-Ltext0
 5836 0100 0200     		.word	0x2
 5837 0102 75       		.byte	0x75
 5838 0103 70       		.sleb128 -16
 5839 0104 EA000000 		.long	LVL21-Ltext0
 5840 0108 EF000000 		.long	LVL22-Ltext0
 5841 010c 0100     		.word	0x1
 5842 010e 50       		.byte	0x50
 5843 010f F7000000 		.long	LVL23-Ltext0
 5844 0113 FC000000 		.long	LVL24-Ltext0
 5845 0117 0200     		.word	0x2
 5846 0119 75       		.byte	0x75
 5847 011a 60       		.sleb128 -32
 5848 011b FC000000 		.long	LVL24-Ltext0
 5849 011f 01010000 		.long	LVL25-Ltext0
 5850 0123 0100     		.word	0x1
 5851 0125 50       		.byte	0x50
GAS LISTING /cygdrive/c/Users/THESCI~1/AppData/Local/Temp/ccH1olGy.s 			page 162


 5852 0126 01010000 		.long	LVL25-Ltext0
 5853 012a 08010000 		.long	LVL26-Ltext0
 5854 012e 0100     		.word	0x1
 5855 0130 57       		.byte	0x57
 5856 0131 08010000 		.long	LVL26-Ltext0
 5857 0135 0D010000 		.long	LVL27-Ltext0
 5858 0139 0200     		.word	0x2
 5859 013b 75       		.byte	0x75
 5860 013c 64       		.sleb128 -28
 5861 013d 0D010000 		.long	LVL27-Ltext0
 5862 0141 12010000 		.long	LVL28-Ltext0
 5863 0145 0100     		.word	0x1
 5864 0147 56       		.byte	0x56
 5865 0148 12010000 		.long	LVL28-Ltext0
 5866 014c 19010000 		.long	LVL29-Ltext0
 5867 0150 0100     		.word	0x1
 5868 0152 53       		.byte	0x53
 5869 0153 19010000 		.long	LVL29-Ltext0
 5870 0157 20010000 		.long	LVL30-Ltext0
 5871 015b 0200     		.word	0x2
 5872 015d 75       		.byte	0x75
 5873 015e 68       		.sleb128 -24
 5874 015f 20010000 		.long	LVL30-Ltext0
 5875 0163 27010000 		.long	LVL31-Ltext0
 5876 0167 0200     		.word	0x2
 5877 0169 75       		.byte	0x75
 5878 016a 6C       		.sleb128 -20
 5879 016b 27010000 		.long	LVL31-Ltext0
 5880 016f 2C010000 		.long	LVL32-Ltext0
 5881 0173 0200     		.word	0x2
 5882 0175 75       		.byte	0x75
 5883 0176 70       		.sleb128 -16
 5884 0177 37010000 		.long	LVL33-Ltext0
 5885 017b 3C010000 		.long	LVL34-Ltext0
 5886 017f 0200     		.word	0x2
 5887 0181 75       		.byte	0x75
 5888 0182 60       		.sleb128 -32
 5889 0183 3C010000 		.long	LVL34-Ltext0
 5890 0187 41010000 		.long	LVL35-Ltext0
 5891 018b 0100     		.word	0x1
 5892 018d 50       		.byte	0x50
 5893 018e 41010000 		.long	LVL35-Ltext0
 5894 0192 48010000 		.long	LVL36-Ltext0
 5895 0196 0100     		.word	0x1
 5896 0198 57       		.byte	0x57
 5897 0199 48010000 		.long	LVL36-Ltext0
 5898 019d 4D010000 		.long	LVL37-Ltext0
 5899 01a1 0200     		.word	0x2
 5900 01a3 75       		.byte	0x75
 5901 01a4 64       		.sleb128 -28
 5902 01a5 4D010000 		.long	LVL37-Ltext0
 5903 01a9 52010000 		.long	LVL38-Ltext0
 5904 01ad 0100     		.word	0x1
 5905 01af 56       		.byte	0x56
 5906 01b0 52010000 		.long	LVL38-Ltext0
 5907 01b4 59010000 		.long	LVL39-Ltext0
 5908 01b8 0100     		.word	0x1
GAS LISTING /cygdrive/c/Users/THESCI~1/AppData/Local/Temp/ccH1olGy.s 			page 163


 5909 01ba 53       		.byte	0x53
 5910 01bb 59010000 		.long	LVL39-Ltext0
 5911 01bf 60010000 		.long	LVL40-Ltext0
 5912 01c3 0200     		.word	0x2
 5913 01c5 75       		.byte	0x75
 5914 01c6 68       		.sleb128 -24
 5915 01c7 60010000 		.long	LVL40-Ltext0
 5916 01cb 67010000 		.long	LVL41-Ltext0
 5917 01cf 0200     		.word	0x2
 5918 01d1 75       		.byte	0x75
 5919 01d2 6C       		.sleb128 -20
 5920 01d3 67010000 		.long	LVL41-Ltext0
 5921 01d7 90010000 		.long	LFE8-Ltext0
 5922 01db 0200     		.word	0x2
 5923 01dd 75       		.byte	0x75
 5924 01de 70       		.sleb128 -16
 5925 01df 00000000 		.long	0x0
 5926 01e3 00000000 		.long	0x0
 5927              	LLST3:
 5928 01e7 90010000 		.long	LFB9-Ltext0
 5929 01eb 91010000 		.long	LCFI6-Ltext0
 5930 01ef 0200     		.word	0x2
 5931 01f1 74       		.byte	0x74
 5932 01f2 04       		.sleb128 4
 5933 01f3 91010000 		.long	LCFI6-Ltext0
 5934 01f7 93010000 		.long	LCFI7-Ltext0
 5935 01fb 0200     		.word	0x2
 5936 01fd 74       		.byte	0x74
 5937 01fe 08       		.sleb128 8
 5938 01ff 93010000 		.long	LCFI7-Ltext0
 5939 0203 B9010000 		.long	LFE9-Ltext0
 5940 0207 0200     		.word	0x2
 5941 0209 75       		.byte	0x75
 5942 020a 08       		.sleb128 8
 5943 020b 00000000 		.long	0x0
 5944 020f 00000000 		.long	0x0
 5945              	LLST4:
 5946 0213 90010000 		.long	LVL42-Ltext0
 5947 0217 A4010000 		.long	LVL43-Ltext0
 5948 021b 0200     		.word	0x2
 5949 021d 91       		.byte	0x91
 5950 021e 00       		.sleb128 0
 5951 021f A4010000 		.long	LVL43-Ltext0
 5952 0223 B9010000 		.long	LFE9-Ltext0
 5953 0227 0100     		.word	0x1
 5954 0229 51       		.byte	0x51
 5955 022a 00000000 		.long	0x0
 5956 022e 00000000 		.long	0x0
 5957              	LLST5:
 5958 0232 90010000 		.long	LVL42-Ltext0
 5959 0236 A4010000 		.long	LVL43-Ltext0
 5960 023a 0200     		.word	0x2
 5961 023c 91       		.byte	0x91
 5962 023d 04       		.sleb128 4
 5963 023e A4010000 		.long	LVL43-Ltext0
 5964 0242 AF010000 		.long	LVL45-Ltext0
 5965 0246 0100     		.word	0x1
GAS LISTING /cygdrive/c/Users/THESCI~1/AppData/Local/Temp/ccH1olGy.s 			page 164


 5966 0248 53       		.byte	0x53
 5967 0249 AF010000 		.long	LVL45-Ltext0
 5968 024d B1010000 		.long	LVL46-Ltext0
 5969 0251 0200     		.word	0x2
 5970 0253 75       		.byte	0x75
 5971 0254 0C       		.sleb128 12
 5972 0255 B1010000 		.long	LVL46-Ltext0
 5973 0259 B7010000 		.long	LVL48-Ltext0
 5974 025d 0100     		.word	0x1
 5975 025f 53       		.byte	0x53
 5976 0260 B7010000 		.long	LVL48-Ltext0
 5977 0264 B9010000 		.long	LFE9-Ltext0
 5978 0268 0200     		.word	0x2
 5979 026a 75       		.byte	0x75
 5980 026b 0C       		.sleb128 12
 5981 026c 00000000 		.long	0x0
 5982 0270 00000000 		.long	0x0
 5983              	LLST6:
 5984 0274 90010000 		.long	LVL42-Ltext0
 5985 0278 A4010000 		.long	LVL43-Ltext0
 5986 027c 0200     		.word	0x2
 5987 027e 91       		.byte	0x91
 5988 027f 08       		.sleb128 8
 5989 0280 A4010000 		.long	LVL43-Ltext0
 5990 0284 AE010000 		.long	LVL44-Ltext0
 5991 0288 0100     		.word	0x1
 5992 028a 50       		.byte	0x50
 5993 028b B1010000 		.long	LVL46-Ltext0
 5994 028f B6010000 		.long	LVL47-Ltext0
 5995 0293 0100     		.word	0x1
 5996 0295 50       		.byte	0x50
 5997 0296 B6010000 		.long	LVL47-Ltext0
 5998 029a B9010000 		.long	LFE9-Ltext0
 5999 029e 0200     		.word	0x2
 6000 02a0 75       		.byte	0x75
 6001 02a1 10       		.sleb128 16
 6002 02a2 00000000 		.long	0x0
 6003 02a6 00000000 		.long	0x0
 6004              	LLST7:
 6005 02aa C0010000 		.long	LFB10-Ltext0
 6006 02ae C1010000 		.long	LCFI9-Ltext0
 6007 02b2 0200     		.word	0x2
 6008 02b4 74       		.byte	0x74
 6009 02b5 04       		.sleb128 4
 6010 02b6 C1010000 		.long	LCFI9-Ltext0
 6011 02ba C3010000 		.long	LCFI10-Ltext0
 6012 02be 0200     		.word	0x2
 6013 02c0 74       		.byte	0x74
 6014 02c1 08       		.sleb128 8
 6015 02c2 C3010000 		.long	LCFI10-Ltext0
 6016 02c6 20020000 		.long	LFE10-Ltext0
 6017 02ca 0200     		.word	0x2
 6018 02cc 75       		.byte	0x75
 6019 02cd 08       		.sleb128 8
 6020 02ce 00000000 		.long	0x0
 6021 02d2 00000000 		.long	0x0
 6022              	LLST8:
GAS LISTING /cygdrive/c/Users/THESCI~1/AppData/Local/Temp/ccH1olGy.s 			page 165


 6023 02d6 C0010000 		.long	LVL49-Ltext0
 6024 02da D7010000 		.long	LVL50-Ltext0
 6025 02de 0200     		.word	0x2
 6026 02e0 91       		.byte	0x91
 6027 02e1 00       		.sleb128 0
 6028 02e2 D7010000 		.long	LVL50-Ltext0
 6029 02e6 02020000 		.long	LVL52-Ltext0
 6030 02ea 0100     		.word	0x1
 6031 02ec 53       		.byte	0x53
 6032 02ed 02020000 		.long	LVL52-Ltext0
 6033 02f1 0A020000 		.long	LVL54-Ltext0
 6034 02f5 0200     		.word	0x2
 6035 02f7 75       		.byte	0x75
 6036 02f8 08       		.sleb128 8
 6037 02f9 0A020000 		.long	LVL54-Ltext0
 6038 02fd 18020000 		.long	LVL55-Ltext0
 6039 0301 0100     		.word	0x1
 6040 0303 53       		.byte	0x53
 6041 0304 18020000 		.long	LVL55-Ltext0
 6042 0308 20020000 		.long	LFE10-Ltext0
 6043 030c 0200     		.word	0x2
 6044 030e 75       		.byte	0x75
 6045 030f 08       		.sleb128 8
 6046 0310 00000000 		.long	0x0
 6047 0314 00000000 		.long	0x0
 6048              	LLST9:
 6049 0318 C0010000 		.long	LVL49-Ltext0
 6050 031c E9010000 		.long	LVL51-Ltext0
 6051 0320 0200     		.word	0x2
 6052 0322 91       		.byte	0x91
 6053 0323 04       		.sleb128 4
 6054 0324 E9010000 		.long	LVL51-Ltext0
 6055 0328 0A020000 		.long	LVL54-Ltext0
 6056 032c 0200     		.word	0x2
 6057 032e 75       		.byte	0x75
 6058 032f 0C       		.sleb128 12
 6059 0330 0A020000 		.long	LVL54-Ltext0
 6060 0334 20020000 		.long	LFE10-Ltext0
 6061 0338 0200     		.word	0x2
 6062 033a 91       		.byte	0x91
 6063 033b 04       		.sleb128 4
 6064 033c 00000000 		.long	0x0
 6065 0340 00000000 		.long	0x0
 6066              	LLST10:
 6067 0344 C0010000 		.long	LVL49-Ltext0
 6068 0348 D7010000 		.long	LVL50-Ltext0
 6069 034c 0200     		.word	0x2
 6070 034e 91       		.byte	0x91
 6071 034f 08       		.sleb128 8
 6072 0350 D7010000 		.long	LVL50-Ltext0
 6073 0354 06020000 		.long	LVL53-Ltext0
 6074 0358 0100     		.word	0x1
 6075 035a 56       		.byte	0x56
 6076 035b 06020000 		.long	LVL53-Ltext0
 6077 035f 0A020000 		.long	LVL54-Ltext0
 6078 0363 0200     		.word	0x2
 6079 0365 75       		.byte	0x75
GAS LISTING /cygdrive/c/Users/THESCI~1/AppData/Local/Temp/ccH1olGy.s 			page 166


 6080 0366 10       		.sleb128 16
 6081 0367 0A020000 		.long	LVL54-Ltext0
 6082 036b 1C020000 		.long	LVL56-Ltext0
 6083 036f 0100     		.word	0x1
 6084 0371 56       		.byte	0x56
 6085 0372 1C020000 		.long	LVL56-Ltext0
 6086 0376 20020000 		.long	LFE10-Ltext0
 6087 037a 0200     		.word	0x2
 6088 037c 75       		.byte	0x75
 6089 037d 10       		.sleb128 16
 6090 037e 00000000 		.long	0x0
 6091 0382 00000000 		.long	0x0
 6092              	LLST11:
 6093 0386 20020000 		.long	LFB20-Ltext0
 6094 038a 21020000 		.long	LCFI14-Ltext0
 6095 038e 0200     		.word	0x2
 6096 0390 74       		.byte	0x74
 6097 0391 04       		.sleb128 4
 6098 0392 21020000 		.long	LCFI14-Ltext0
 6099 0396 23020000 		.long	LCFI15-Ltext0
 6100 039a 0200     		.word	0x2
 6101 039c 74       		.byte	0x74
 6102 039d 08       		.sleb128 8
 6103 039e 23020000 		.long	LCFI15-Ltext0
 6104 03a2 AF020000 		.long	LFE20-Ltext0
 6105 03a6 0200     		.word	0x2
 6106 03a8 75       		.byte	0x75
 6107 03a9 08       		.sleb128 8
 6108 03aa 00000000 		.long	0x0
 6109 03ae 00000000 		.long	0x0
 6110              	LLST12:
 6111 03b2 20020000 		.long	LVL57-Ltext0
 6112 03b6 32020000 		.long	LVL58-Ltext0
 6113 03ba 0200     		.word	0x2
 6114 03bc 91       		.byte	0x91
 6115 03bd 00       		.sleb128 0
 6116 03be 32020000 		.long	LVL58-Ltext0
 6117 03c2 93020000 		.long	LVL60-Ltext0
 6118 03c6 0100     		.word	0x1
 6119 03c8 56       		.byte	0x56
 6120 03c9 93020000 		.long	LVL60-Ltext0
 6121 03cd 95020000 		.long	LVL61-Ltext0
 6122 03d1 0200     		.word	0x2
 6123 03d3 75       		.byte	0x75
 6124 03d4 08       		.sleb128 8
 6125 03d5 95020000 		.long	LVL61-Ltext0
 6126 03d9 9F020000 		.long	LVL63-Ltext0
 6127 03dd 0100     		.word	0x1
 6128 03df 56       		.byte	0x56
 6129 03e0 9F020000 		.long	LVL63-Ltext0
 6130 03e4 A1020000 		.long	LVL64-Ltext0
 6131 03e8 0200     		.word	0x2
 6132 03ea 75       		.byte	0x75
 6133 03eb 08       		.sleb128 8
 6134 03ec A1020000 		.long	LVL64-Ltext0
 6135 03f0 AF020000 		.long	LFE20-Ltext0
 6136 03f4 0100     		.word	0x1
GAS LISTING /cygdrive/c/Users/THESCI~1/AppData/Local/Temp/ccH1olGy.s 			page 167


 6137 03f6 56       		.byte	0x56
 6138 03f7 00000000 		.long	0x0
 6139 03fb 00000000 		.long	0x0
 6140              	LLST13:
 6141 03ff 20020000 		.long	LVL57-Ltext0
 6142 0403 32020000 		.long	LVL58-Ltext0
 6143 0407 0200     		.word	0x2
 6144 0409 91       		.byte	0x91
 6145 040a 04       		.sleb128 4
 6146 040b 32020000 		.long	LVL58-Ltext0
 6147 040f 92020000 		.long	LVL59-Ltext0
 6148 0413 0100     		.word	0x1
 6149 0415 53       		.byte	0x53
 6150 0416 92020000 		.long	LVL59-Ltext0
 6151 041a 95020000 		.long	LVL61-Ltext0
 6152 041e 0200     		.word	0x2
 6153 0420 75       		.byte	0x75
 6154 0421 0C       		.sleb128 12
 6155 0422 95020000 		.long	LVL61-Ltext0
 6156 0426 9E020000 		.long	LVL62-Ltext0
 6157 042a 0100     		.word	0x1
 6158 042c 53       		.byte	0x53
 6159 042d 9E020000 		.long	LVL62-Ltext0
 6160 0431 A1020000 		.long	LVL64-Ltext0
 6161 0435 0200     		.word	0x2
 6162 0437 75       		.byte	0x75
 6163 0438 0C       		.sleb128 12
 6164 0439 A1020000 		.long	LVL64-Ltext0
 6165 043d AF020000 		.long	LFE20-Ltext0
 6166 0441 0100     		.word	0x1
 6167 0443 53       		.byte	0x53
 6168 0444 00000000 		.long	0x0
 6169 0448 00000000 		.long	0x0
 6170              	LLST14:
 6171 044c B0020000 		.long	LFB19-Ltext0
 6172 0450 B1020000 		.long	LCFI19-Ltext0
 6173 0454 0200     		.word	0x2
 6174 0456 74       		.byte	0x74
 6175 0457 04       		.sleb128 4
 6176 0458 B1020000 		.long	LCFI19-Ltext0
 6177 045c B3020000 		.long	LCFI20-Ltext0
 6178 0460 0200     		.word	0x2
 6179 0462 74       		.byte	0x74
 6180 0463 08       		.sleb128 8
 6181 0464 B3020000 		.long	LCFI20-Ltext0
 6182 0468 8C030000 		.long	LFE19-Ltext0
 6183 046c 0200     		.word	0x2
 6184 046e 75       		.byte	0x75
 6185 046f 08       		.sleb128 8
 6186 0470 00000000 		.long	0x0
 6187 0474 00000000 		.long	0x0
 6188              	LLST15:
 6189 0478 B0020000 		.long	LVL65-Ltext0
 6190 047c C6020000 		.long	LVL66-Ltext0
 6191 0480 0200     		.word	0x2
 6192 0482 91       		.byte	0x91
 6193 0483 00       		.sleb128 0
GAS LISTING /cygdrive/c/Users/THESCI~1/AppData/Local/Temp/ccH1olGy.s 			page 168


 6194 0484 C6020000 		.long	LVL66-Ltext0
 6195 0488 D8020000 		.long	LVL67-Ltext0
 6196 048c 0100     		.word	0x1
 6197 048e 53       		.byte	0x53
 6198 048f D8020000 		.long	LVL67-Ltext0
 6199 0493 DF020000 		.long	LVL69-Ltext0
 6200 0497 0200     		.word	0x2
 6201 0499 75       		.byte	0x75
 6202 049a 08       		.sleb128 8
 6203 049b DF020000 		.long	LVL69-Ltext0
 6204 049f 05030000 		.long	LVL70-Ltext0
 6205 04a3 0100     		.word	0x1
 6206 04a5 53       		.byte	0x53
 6207 04a6 05030000 		.long	LVL70-Ltext0
 6208 04aa 11030000 		.long	LVL72-Ltext0
 6209 04ae 0200     		.word	0x2
 6210 04b0 75       		.byte	0x75
 6211 04b1 08       		.sleb128 8
 6212 04b2 11030000 		.long	LVL72-Ltext0
 6213 04b6 14030000 		.long	LVL73-Ltext0
 6214 04ba 0100     		.word	0x1
 6215 04bc 53       		.byte	0x53
 6216 04bd 14030000 		.long	LVL73-Ltext0
 6217 04c1 20030000 		.long	LVL75-Ltext0
 6218 04c5 0200     		.word	0x2
 6219 04c7 75       		.byte	0x75
 6220 04c8 08       		.sleb128 8
 6221 04c9 20030000 		.long	LVL75-Ltext0
 6222 04cd 8C030000 		.long	LFE19-Ltext0
 6223 04d1 0100     		.word	0x1
 6224 04d3 53       		.byte	0x53
 6225 04d4 00000000 		.long	0x0
 6226 04d8 00000000 		.long	0x0
 6227              	LLST16:
 6228 04dc B0020000 		.long	LVL65-Ltext0
 6229 04e0 C6020000 		.long	LVL66-Ltext0
 6230 04e4 0200     		.word	0x2
 6231 04e6 91       		.byte	0x91
 6232 04e7 04       		.sleb128 4
 6233 04e8 C6020000 		.long	LVL66-Ltext0
 6234 04ec DB020000 		.long	LVL68-Ltext0
 6235 04f0 0100     		.word	0x1
 6236 04f2 56       		.byte	0x56
 6237 04f3 DB020000 		.long	LVL68-Ltext0
 6238 04f7 DF020000 		.long	LVL69-Ltext0
 6239 04fb 0200     		.word	0x2
 6240 04fd 75       		.byte	0x75
 6241 04fe 0C       		.sleb128 12
 6242 04ff DF020000 		.long	LVL69-Ltext0
 6243 0503 0D030000 		.long	LVL71-Ltext0
 6244 0507 0100     		.word	0x1
 6245 0509 56       		.byte	0x56
 6246 050a 0D030000 		.long	LVL71-Ltext0
 6247 050e 11030000 		.long	LVL72-Ltext0
 6248 0512 0200     		.word	0x2
 6249 0514 75       		.byte	0x75
 6250 0515 0C       		.sleb128 12
GAS LISTING /cygdrive/c/Users/THESCI~1/AppData/Local/Temp/ccH1olGy.s 			page 169


 6251 0516 11030000 		.long	LVL72-Ltext0
 6252 051a 1C030000 		.long	LVL74-Ltext0
 6253 051e 0100     		.word	0x1
 6254 0520 56       		.byte	0x56
 6255 0521 1C030000 		.long	LVL74-Ltext0
 6256 0525 20030000 		.long	LVL75-Ltext0
 6257 0529 0200     		.word	0x2
 6258 052b 75       		.byte	0x75
 6259 052c 0C       		.sleb128 12
 6260 052d 20030000 		.long	LVL75-Ltext0
 6261 0531 8C030000 		.long	LFE19-Ltext0
 6262 0535 0100     		.word	0x1
 6263 0537 56       		.byte	0x56
 6264 0538 00000000 		.long	0x0
 6265 053c 00000000 		.long	0x0
 6266              	LLST17:
 6267 0540 90030000 		.long	LFB6-Ltext0
 6268 0544 91030000 		.long	LCFI24-Ltext0
 6269 0548 0200     		.word	0x2
 6270 054a 74       		.byte	0x74
 6271 054b 04       		.sleb128 4
 6272 054c 91030000 		.long	LCFI24-Ltext0
 6273 0550 98030000 		.long	LCFI25-Ltext0
 6274 0554 0200     		.word	0x2
 6275 0556 74       		.byte	0x74
 6276 0557 08       		.sleb128 8
 6277 0558 98030000 		.long	LCFI25-Ltext0
 6278 055c 65050000 		.long	LFE6-Ltext0
 6279 0560 0200     		.word	0x2
 6280 0562 75       		.byte	0x75
 6281 0563 08       		.sleb128 8
 6282 0564 00000000 		.long	0x0
 6283 0568 00000000 		.long	0x0
 6284              	LLST18:
 6285 056c 90030000 		.long	LVL76-Ltext0
 6286 0570 AE030000 		.long	LVL77-Ltext0
 6287 0574 0200     		.word	0x2
 6288 0576 91       		.byte	0x91
 6289 0577 00       		.sleb128 0
 6290 0578 AE030000 		.long	LVL77-Ltext0
 6291 057c D0030000 		.long	LVL78-Ltext0
 6292 0580 0100     		.word	0x1
 6293 0582 56       		.byte	0x56
 6294 0583 D0030000 		.long	LVL78-Ltext0
 6295 0587 E4030000 		.long	LVL84-Ltext0
 6296 058b 0200     		.word	0x2
 6297 058d 75       		.byte	0x75
 6298 058e 08       		.sleb128 8
 6299 058f E4030000 		.long	LVL84-Ltext0
 6300 0593 30050000 		.long	LVL88-Ltext0
 6301 0597 0100     		.word	0x1
 6302 0599 56       		.byte	0x56
 6303 059a 30050000 		.long	LVL88-Ltext0
 6304 059e 65050000 		.long	LFE6-Ltext0
 6305 05a2 0200     		.word	0x2
 6306 05a4 75       		.byte	0x75
 6307 05a5 08       		.sleb128 8
GAS LISTING /cygdrive/c/Users/THESCI~1/AppData/Local/Temp/ccH1olGy.s 			page 170


 6308 05a6 00000000 		.long	0x0
 6309 05aa 00000000 		.long	0x0
 6310              	LLST19:
 6311 05ae 90030000 		.long	LVL76-Ltext0
 6312 05b2 AE030000 		.long	LVL77-Ltext0
 6313 05b6 0200     		.word	0x2
 6314 05b8 91       		.byte	0x91
 6315 05b9 04       		.sleb128 4
 6316 05ba AE030000 		.long	LVL77-Ltext0
 6317 05be E0030000 		.long	LVL83-Ltext0
 6318 05c2 0100     		.word	0x1
 6319 05c4 57       		.byte	0x57
 6320 05c5 E0030000 		.long	LVL83-Ltext0
 6321 05c9 E4030000 		.long	LVL84-Ltext0
 6322 05cd 0200     		.word	0x2
 6323 05cf 75       		.byte	0x75
 6324 05d0 0C       		.sleb128 12
 6325 05d1 E4030000 		.long	LVL84-Ltext0
 6326 05d5 65050000 		.long	LFE6-Ltext0
 6327 05d9 0100     		.word	0x1
 6328 05db 57       		.byte	0x57
 6329 05dc 00000000 		.long	0x0
 6330 05e0 00000000 		.long	0x0
 6331              	LLST20:
 6332 05e4 D0030000 		.long	LVL78-Ltext0
 6333 05e8 DA030000 		.long	LVL81-Ltext0
 6334 05ec 0100     		.word	0x1
 6335 05ee 50       		.byte	0x50
 6336 05ef DA030000 		.long	LVL81-Ltext0
 6337 05f3 DD030000 		.long	LVL82-Ltext0
 6338 05f7 0100     		.word	0x1
 6339 05f9 56       		.byte	0x56
 6340 05fa 27050000 		.long	LVL87-Ltext0
 6341 05fe 30050000 		.long	LVL88-Ltext0
 6342 0602 0100     		.word	0x1
 6343 0604 50       		.byte	0x50
 6344 0605 30050000 		.long	LVL88-Ltext0
 6345 0609 36050000 		.long	LVL89-Ltext0
 6346 060d 0100     		.word	0x1
 6347 060f 56       		.byte	0x56
 6348 0610 36050000 		.long	LVL89-Ltext0
 6349 0614 39050000 		.long	LVL90-Ltext0
 6350 0618 0100     		.word	0x1
 6351 061a 50       		.byte	0x50
 6352 061b 39050000 		.long	LVL90-Ltext0
 6353 061f 54050000 		.long	LVL91-Ltext0
 6354 0623 0100     		.word	0x1
 6355 0625 56       		.byte	0x56
 6356 0626 54050000 		.long	LVL91-Ltext0
 6357 062a 65050000 		.long	LFE6-Ltext0
 6358 062e 0100     		.word	0x1
 6359 0630 50       		.byte	0x50
 6360 0631 00000000 		.long	0x0
 6361 0635 00000000 		.long	0x0
 6362              	LLST21:
 6363 0639 D0030000 		.long	LVL78-Ltext0
 6364 063d D8030000 		.long	LVL80-Ltext0
GAS LISTING /cygdrive/c/Users/THESCI~1/AppData/Local/Temp/ccH1olGy.s 			page 171


 6365 0641 0100     		.word	0x1
 6366 0643 53       		.byte	0x53
 6367 0644 27050000 		.long	LVL87-Ltext0
 6368 0648 65050000 		.long	LFE6-Ltext0
 6369 064c 0100     		.word	0x1
 6370 064e 53       		.byte	0x53
 6371 064f 00000000 		.long	0x0
 6372 0653 00000000 		.long	0x0
 6373              	LLST22:
 6374 0657 D5030000 		.long	LVL79-Ltext0
 6375 065b D8030000 		.long	LVL80-Ltext0
 6376 065f 0100     		.word	0x1
 6377 0661 53       		.byte	0x53
 6378 0662 EF040000 		.long	LVL85-Ltext0
 6379 0666 F1040000 		.long	LVL86-Ltext0
 6380 066a 0100     		.word	0x1
 6381 066c 50       		.byte	0x50
 6382 066d 00000000 		.long	0x0
 6383 0671 00000000 		.long	0x0
 6384              	LLST23:
 6385 0675 70050000 		.long	LFB7-Ltext0
 6386 0679 71050000 		.long	LCFI30-Ltext0
 6387 067d 0200     		.word	0x2
 6388 067f 74       		.byte	0x74
 6389 0680 04       		.sleb128 4
 6390 0681 71050000 		.long	LCFI30-Ltext0
 6391 0685 78050000 		.long	LCFI31-Ltext0
 6392 0689 0200     		.word	0x2
 6393 068b 74       		.byte	0x74
 6394 068c 08       		.sleb128 8
 6395 068d 78050000 		.long	LCFI31-Ltext0
 6396 0691 B6070000 		.long	LFE7-Ltext0
 6397 0695 0200     		.word	0x2
 6398 0697 75       		.byte	0x75
 6399 0698 08       		.sleb128 8
 6400 0699 00000000 		.long	0x0
 6401 069d 00000000 		.long	0x0
 6402              	LLST24:
 6403 06a1 70050000 		.long	LVL92-Ltext0
 6404 06a5 8C050000 		.long	LVL93-Ltext0
 6405 06a9 0200     		.word	0x2
 6406 06ab 91       		.byte	0x91
 6407 06ac 00       		.sleb128 0
 6408 06ad 8C050000 		.long	LVL93-Ltext0
 6409 06b1 23060000 		.long	LVL95-Ltext0
 6410 06b5 0100     		.word	0x1
 6411 06b7 57       		.byte	0x57
 6412 06b8 23060000 		.long	LVL95-Ltext0
 6413 06bc 25060000 		.long	LVL96-Ltext0
 6414 06c0 0200     		.word	0x2
 6415 06c2 75       		.byte	0x75
 6416 06c3 08       		.sleb128 8
 6417 06c4 25060000 		.long	LVL96-Ltext0
 6418 06c8 75060000 		.long	LVL104-Ltext0
 6419 06cc 0100     		.word	0x1
 6420 06ce 57       		.byte	0x57
 6421 06cf 75060000 		.long	LVL104-Ltext0
GAS LISTING /cygdrive/c/Users/THESCI~1/AppData/Local/Temp/ccH1olGy.s 			page 172


 6422 06d3 77060000 		.long	LVL105-Ltext0
 6423 06d7 0200     		.word	0x2
 6424 06d9 75       		.byte	0x75
 6425 06da 08       		.sleb128 8
 6426 06db 77060000 		.long	LVL105-Ltext0
 6427 06df B6070000 		.long	LFE7-Ltext0
 6428 06e3 0100     		.word	0x1
 6429 06e5 57       		.byte	0x57
 6430 06e6 00000000 		.long	0x0
 6431 06ea 00000000 		.long	0x0
 6432              	LLST25:
 6433 06ee 70050000 		.long	LVL92-Ltext0
 6434 06f2 8C050000 		.long	LVL93-Ltext0
 6435 06f6 0200     		.word	0x2
 6436 06f8 91       		.byte	0x91
 6437 06f9 04       		.sleb128 4
 6438 06fa 8C050000 		.long	LVL93-Ltext0
 6439 06fe B6070000 		.long	LFE7-Ltext0
 6440 0702 0200     		.word	0x2
 6441 0704 75       		.byte	0x75
 6442 0705 0C       		.sleb128 12
 6443 0706 00000000 		.long	0x0
 6444 070a 00000000 		.long	0x0
 6445              	LLST26:
 6446 070e 4C060000 		.long	LVL99-Ltext0
 6447 0712 73060000 		.long	LVL102-Ltext0
 6448 0716 0100     		.word	0x1
 6449 0718 53       		.byte	0x53
 6450 0719 00000000 		.long	0x0
 6451 071d 00000000 		.long	0x0
 6452              	LLST27:
 6453 0721 43060000 		.long	LVL98-Ltext0
 6454 0725 74060000 		.long	LVL103-Ltext0
 6455 0729 0100     		.word	0x1
 6456 072b 56       		.byte	0x56
 6457 072c 00000000 		.long	0x0
 6458 0730 00000000 		.long	0x0
 6459              	LLST28:
 6460 0734 18060000 		.long	LVL94-Ltext0
 6461 0738 25060000 		.long	LVL96-Ltext0
 6462 073c 0200     		.word	0x2
 6463 073e 75       		.byte	0x75
 6464 073f 70       		.sleb128 -16
 6465 0740 3F060000 		.long	LVL97-Ltext0
 6466 0744 69060000 		.long	LVL100-Ltext0
 6467 0748 0100     		.word	0x1
 6468 074a 52       		.byte	0x52
 6469 074b 6D060000 		.long	LVL101-Ltext0
 6470 074f 77060000 		.long	LVL105-Ltext0
 6471 0753 0100     		.word	0x1
 6472 0755 52       		.byte	0x52
 6473 0756 99060000 		.long	LVL106-Ltext0
 6474 075a 9E060000 		.long	LVL107-Ltext0
 6475 075e 0200     		.word	0x2
 6476 0760 75       		.byte	0x75
 6477 0761 5C       		.sleb128 -36
 6478 0762 9E060000 		.long	LVL107-Ltext0
GAS LISTING /cygdrive/c/Users/THESCI~1/AppData/Local/Temp/ccH1olGy.s 			page 173


 6479 0766 A3060000 		.long	LVL108-Ltext0
 6480 076a 0100     		.word	0x1
 6481 076c 52       		.byte	0x52
 6482 076d A3060000 		.long	LVL108-Ltext0
 6483 0771 AA060000 		.long	LVL109-Ltext0
 6484 0775 0100     		.word	0x1
 6485 0777 51       		.byte	0x51
 6486 0778 AA060000 		.long	LVL109-Ltext0
 6487 077c B1060000 		.long	LVL110-Ltext0
 6488 0780 0200     		.word	0x2
 6489 0782 75       		.byte	0x75
 6490 0783 58       		.sleb128 -40
 6491 0784 B1060000 		.long	LVL110-Ltext0
 6492 0788 B8060000 		.long	LVL111-Ltext0
 6493 078c 0200     		.word	0x2
 6494 078e 75       		.byte	0x75
 6495 078f 60       		.sleb128 -32
 6496 0790 B8060000 		.long	LVL111-Ltext0
 6497 0794 BF060000 		.long	LVL112-Ltext0
 6498 0798 0200     		.word	0x2
 6499 079a 75       		.byte	0x75
 6500 079b 64       		.sleb128 -28
 6501 079c BF060000 		.long	LVL112-Ltext0
 6502 07a0 C6060000 		.long	LVL113-Ltext0
 6503 07a4 0200     		.word	0x2
 6504 07a6 75       		.byte	0x75
 6505 07a7 68       		.sleb128 -24
 6506 07a8 C6060000 		.long	LVL113-Ltext0
 6507 07ac CD060000 		.long	LVL114-Ltext0
 6508 07b0 0200     		.word	0x2
 6509 07b2 75       		.byte	0x75
 6510 07b3 6C       		.sleb128 -20
 6511 07b4 CD060000 		.long	LVL114-Ltext0
 6512 07b8 EE060000 		.long	LVL115-Ltext0
 6513 07bc 0200     		.word	0x2
 6514 07be 75       		.byte	0x75
 6515 07bf 70       		.sleb128 -16
 6516 07c0 EE060000 		.long	LVL115-Ltext0
 6517 07c4 F4060000 		.long	LVL116-Ltext0
 6518 07c8 0200     		.word	0x2
 6519 07ca 75       		.byte	0x75
 6520 07cb 64       		.sleb128 -28
 6521 07cc F4060000 		.long	LVL116-Ltext0
 6522 07d0 0F070000 		.long	LVL117-Ltext0
 6523 07d4 0200     		.word	0x2
 6524 07d6 75       		.byte	0x75
 6525 07d7 70       		.sleb128 -16
 6526 07d8 0F070000 		.long	LVL117-Ltext0
 6527 07dc 16070000 		.long	LVL118-Ltext0
 6528 07e0 0200     		.word	0x2
 6529 07e2 75       		.byte	0x75
 6530 07e3 64       		.sleb128 -28
 6531 07e4 16070000 		.long	LVL118-Ltext0
 6532 07e8 1D070000 		.long	LVL119-Ltext0
 6533 07ec 0100     		.word	0x1
 6534 07ee 52       		.byte	0x52
 6535 07ef 24070000 		.long	LVL120-Ltext0
GAS LISTING /cygdrive/c/Users/THESCI~1/AppData/Local/Temp/ccH1olGy.s 			page 174


 6536 07f3 29070000 		.long	LVL121-Ltext0
 6537 07f7 0200     		.word	0x2
 6538 07f9 75       		.byte	0x75
 6539 07fa 5C       		.sleb128 -36
 6540 07fb 29070000 		.long	LVL121-Ltext0
 6541 07ff 2E070000 		.long	LVL122-Ltext0
 6542 0803 0100     		.word	0x1
 6543 0805 52       		.byte	0x52
 6544 0806 2E070000 		.long	LVL122-Ltext0
 6545 080a 35070000 		.long	LVL123-Ltext0
 6546 080e 0100     		.word	0x1
 6547 0810 51       		.byte	0x51
 6548 0811 35070000 		.long	LVL123-Ltext0
 6549 0815 3C070000 		.long	LVL124-Ltext0
 6550 0819 0200     		.word	0x2
 6551 081b 75       		.byte	0x75
 6552 081c 58       		.sleb128 -40
 6553 081d 3C070000 		.long	LVL124-Ltext0
 6554 0821 43070000 		.long	LVL125-Ltext0
 6555 0825 0200     		.word	0x2
 6556 0827 75       		.byte	0x75
 6557 0828 60       		.sleb128 -32
 6558 0829 43070000 		.long	LVL125-Ltext0
 6559 082d 4A070000 		.long	LVL126-Ltext0
 6560 0831 0200     		.word	0x2
 6561 0833 75       		.byte	0x75
 6562 0834 64       		.sleb128 -28
 6563 0835 4A070000 		.long	LVL126-Ltext0
 6564 0839 51070000 		.long	LVL127-Ltext0
 6565 083d 0200     		.word	0x2
 6566 083f 75       		.byte	0x75
 6567 0840 68       		.sleb128 -24
 6568 0841 51070000 		.long	LVL127-Ltext0
 6569 0845 58070000 		.long	LVL128-Ltext0
 6570 0849 0200     		.word	0x2
 6571 084b 75       		.byte	0x75
 6572 084c 6C       		.sleb128 -20
 6573 084d 58070000 		.long	LVL128-Ltext0
 6574 0851 5D070000 		.long	LVL129-Ltext0
 6575 0855 0200     		.word	0x2
 6576 0857 75       		.byte	0x75
 6577 0858 70       		.sleb128 -16
 6578 0859 64070000 		.long	LVL130-Ltext0
 6579 085d 69070000 		.long	LVL131-Ltext0
 6580 0861 0200     		.word	0x2
 6581 0863 75       		.byte	0x75
 6582 0864 5C       		.sleb128 -36
 6583 0865 69070000 		.long	LVL131-Ltext0
 6584 0869 6E070000 		.long	LVL132-Ltext0
 6585 086d 0100     		.word	0x1
 6586 086f 52       		.byte	0x52
 6587 0870 6E070000 		.long	LVL132-Ltext0
 6588 0874 75070000 		.long	LVL133-Ltext0
 6589 0878 0100     		.word	0x1
 6590 087a 51       		.byte	0x51
 6591 087b 75070000 		.long	LVL133-Ltext0
 6592 087f 7C070000 		.long	LVL134-Ltext0
GAS LISTING /cygdrive/c/Users/THESCI~1/AppData/Local/Temp/ccH1olGy.s 			page 175


 6593 0883 0200     		.word	0x2
 6594 0885 75       		.byte	0x75
 6595 0886 58       		.sleb128 -40
 6596 0887 7C070000 		.long	LVL134-Ltext0
 6597 088b 83070000 		.long	LVL135-Ltext0
 6598 088f 0200     		.word	0x2
 6599 0891 75       		.byte	0x75
 6600 0892 60       		.sleb128 -32
 6601 0893 83070000 		.long	LVL135-Ltext0
 6602 0897 8A070000 		.long	LVL136-Ltext0
 6603 089b 0200     		.word	0x2
 6604 089d 75       		.byte	0x75
 6605 089e 64       		.sleb128 -28
 6606 089f 8A070000 		.long	LVL136-Ltext0
 6607 08a3 91070000 		.long	LVL137-Ltext0
 6608 08a7 0200     		.word	0x2
 6609 08a9 75       		.byte	0x75
 6610 08aa 68       		.sleb128 -24
 6611 08ab 91070000 		.long	LVL137-Ltext0
 6612 08af 98070000 		.long	LVL138-Ltext0
 6613 08b3 0200     		.word	0x2
 6614 08b5 75       		.byte	0x75
 6615 08b6 6C       		.sleb128 -20
 6616 08b7 98070000 		.long	LVL138-Ltext0
 6617 08bb A9070000 		.long	LVL139-Ltext0
 6618 08bf 0200     		.word	0x2
 6619 08c1 75       		.byte	0x75
 6620 08c2 70       		.sleb128 -16
 6621 08c3 A9070000 		.long	LVL139-Ltext0
 6622 08c7 AE070000 		.long	LVL140-Ltext0
 6623 08cb 0200     		.word	0x2
 6624 08cd 75       		.byte	0x75
 6625 08ce 64       		.sleb128 -28
 6626 08cf AE070000 		.long	LVL140-Ltext0
 6627 08d3 B6070000 		.long	LFE7-Ltext0
 6628 08d7 0200     		.word	0x2
 6629 08d9 75       		.byte	0x75
 6630 08da 70       		.sleb128 -16
 6631 08db 00000000 		.long	0x0
 6632 08df 00000000 		.long	0x0
 6633              	LLST29:
 6634 08e3 C0070000 		.long	LFB11-Ltext0
 6635 08e7 C1070000 		.long	LCFI36-Ltext0
 6636 08eb 0200     		.word	0x2
 6637 08ed 74       		.byte	0x74
 6638 08ee 04       		.sleb128 4
 6639 08ef C1070000 		.long	LCFI36-Ltext0
 6640 08f3 C3070000 		.long	LCFI37-Ltext0
 6641 08f7 0200     		.word	0x2
 6642 08f9 74       		.byte	0x74
 6643 08fa 08       		.sleb128 8
 6644 08fb C3070000 		.long	LCFI37-Ltext0
 6645 08ff 830C0000 		.long	LFE11-Ltext0
 6646 0903 0200     		.word	0x2
 6647 0905 75       		.byte	0x75
 6648 0906 08       		.sleb128 8
 6649 0907 00000000 		.long	0x0
GAS LISTING /cygdrive/c/Users/THESCI~1/AppData/Local/Temp/ccH1olGy.s 			page 176


 6650 090b 00000000 		.long	0x0
 6651              	LLST30:
 6652 090f C0070000 		.long	LVL141-Ltext0
 6653 0913 D6070000 		.long	LVL142-Ltext0
 6654 0917 0200     		.word	0x2
 6655 0919 91       		.byte	0x91
 6656 091a 00       		.sleb128 0
 6657 091b D6070000 		.long	LVL142-Ltext0
 6658 091f 830C0000 		.long	LFE11-Ltext0
 6659 0923 0100     		.word	0x1
 6660 0925 51       		.byte	0x51
 6661 0926 00000000 		.long	0x0
 6662 092a 00000000 		.long	0x0
 6663              	LLST31:
 6664 092e C0070000 		.long	LVL141-Ltext0
 6665 0932 07080000 		.long	LVL149-Ltext0
 6666 0936 0200     		.word	0x2
 6667 0938 91       		.byte	0x91
 6668 0939 04       		.sleb128 4
 6669 093a 07080000 		.long	LVL149-Ltext0
 6670 093e 44080000 		.long	LVL153-Ltext0
 6671 0942 0200     		.word	0x2
 6672 0944 75       		.byte	0x75
 6673 0945 0C       		.sleb128 12
 6674 0946 44080000 		.long	LVL153-Ltext0
 6675 094a 4B080000 		.long	LVL154-Ltext0
 6676 094e 0200     		.word	0x2
 6677 0950 91       		.byte	0x91
 6678 0951 04       		.sleb128 4
 6679 0952 4B080000 		.long	LVL154-Ltext0
 6680 0956 830C0000 		.long	LFE11-Ltext0
 6681 095a 0200     		.word	0x2
 6682 095c 75       		.byte	0x75
 6683 095d 0C       		.sleb128 12
 6684 095e 00000000 		.long	0x0
 6685 0962 00000000 		.long	0x0
 6686              	LLST32:
 6687 0966 C0070000 		.long	LVL141-Ltext0
 6688 096a DD070000 		.long	LVL143-Ltext0
 6689 096e 0200     		.word	0x2
 6690 0970 91       		.byte	0x91
 6691 0971 08       		.sleb128 8
 6692 0972 DD070000 		.long	LVL143-Ltext0
 6693 0976 E7070000 		.long	LVL144-Ltext0
 6694 097a 0200     		.word	0x2
 6695 097c 75       		.byte	0x75
 6696 097d 10       		.sleb128 16
 6697 097e E7070000 		.long	LVL144-Ltext0
 6698 0982 F6070000 		.long	LVL148-Ltext0
 6699 0986 0200     		.word	0x2
 6700 0988 91       		.byte	0x91
 6701 0989 08       		.sleb128 8
 6702 098a F6070000 		.long	LVL148-Ltext0
 6703 098e 44080000 		.long	LVL153-Ltext0
 6704 0992 0200     		.word	0x2
 6705 0994 75       		.byte	0x75
 6706 0995 10       		.sleb128 16
GAS LISTING /cygdrive/c/Users/THESCI~1/AppData/Local/Temp/ccH1olGy.s 			page 177


 6707 0996 44080000 		.long	LVL153-Ltext0
 6708 099a 4B080000 		.long	LVL154-Ltext0
 6709 099e 0200     		.word	0x2
 6710 09a0 91       		.byte	0x91
 6711 09a1 08       		.sleb128 8
 6712 09a2 4B080000 		.long	LVL154-Ltext0
 6713 09a6 830C0000 		.long	LFE11-Ltext0
 6714 09aa 0200     		.word	0x2
 6715 09ac 75       		.byte	0x75
 6716 09ad 10       		.sleb128 16
 6717 09ae 00000000 		.long	0x0
 6718 09b2 00000000 		.long	0x0
 6719              	LLST33:
 6720 09b6 E7070000 		.long	LVL144-Ltext0
 6721 09ba F6070000 		.long	LVL148-Ltext0
 6722 09be 0200     		.word	0x2
 6723 09c0 75       		.byte	0x75
 6724 09c1 64       		.sleb128 -28
 6725 09c2 3B080000 		.long	LVL151-Ltext0
 6726 09c6 44080000 		.long	LVL153-Ltext0
 6727 09ca 0100     		.word	0x1
 6728 09cc 53       		.byte	0x53
 6729 09cd 5B080000 		.long	LVL156-Ltext0
 6730 09d1 6C080000 		.long	LVL158-Ltext0
 6731 09d5 0200     		.word	0x2
 6732 09d7 75       		.byte	0x75
 6733 09d8 64       		.sleb128 -28
 6734 09d9 6C080000 		.long	LVL158-Ltext0
 6735 09dd 77080000 		.long	LVL160-Ltext0
 6736 09e1 0100     		.word	0x1
 6737 09e3 53       		.byte	0x53
 6738 09e4 77080000 		.long	LVL160-Ltext0
 6739 09e8 13090000 		.long	LVL162-Ltext0
 6740 09ec 0200     		.word	0x2
 6741 09ee 75       		.byte	0x75
 6742 09ef 64       		.sleb128 -28
 6743 09f0 1F090000 		.long	LVL164-Ltext0
 6744 09f4 2E090000 		.long	LVL165-Ltext0
 6745 09f8 0200     		.word	0x2
 6746 09fa 75       		.byte	0x75
 6747 09fb 64       		.sleb128 -28
 6748 09fc 53090000 		.long	LVL166-Ltext0
 6749 0a00 58090000 		.long	LVL167-Ltext0
 6750 0a04 0200     		.word	0x2
 6751 0a06 75       		.byte	0x75
 6752 0a07 6C       		.sleb128 -20
 6753 0a08 58090000 		.long	LVL167-Ltext0
 6754 0a0c 5D090000 		.long	LVL168-Ltext0
 6755 0a10 0100     		.word	0x1
 6756 0a12 53       		.byte	0x53
 6757 0a13 5D090000 		.long	LVL168-Ltext0
 6758 0a17 64090000 		.long	LVL169-Ltext0
 6759 0a1b 0100     		.word	0x1
 6760 0a1d 56       		.byte	0x56
 6761 0a1e 64090000 		.long	LVL169-Ltext0
 6762 0a22 69090000 		.long	LVL170-Ltext0
 6763 0a26 0200     		.word	0x2
GAS LISTING /cygdrive/c/Users/THESCI~1/AppData/Local/Temp/ccH1olGy.s 			page 178


 6764 0a28 75       		.byte	0x75
 6765 0a29 70       		.sleb128 -16
 6766 0a2a 69090000 		.long	LVL170-Ltext0
 6767 0a2e 70090000 		.long	LVL171-Ltext0
 6768 0a32 0100     		.word	0x1
 6769 0a34 57       		.byte	0x57
 6770 0a35 70090000 		.long	LVL171-Ltext0
 6771 0a39 77090000 		.long	LVL172-Ltext0
 6772 0a3d 0200     		.word	0x2
 6773 0a3f 75       		.byte	0x75
 6774 0a40 60       		.sleb128 -32
 6775 0a41 77090000 		.long	LVL172-Ltext0
 6776 0a45 7E090000 		.long	LVL173-Ltext0
 6777 0a49 0200     		.word	0x2
 6778 0a4b 75       		.byte	0x75
 6779 0a4c 68       		.sleb128 -24
 6780 0a4d 7E090000 		.long	LVL173-Ltext0
 6781 0a51 85090000 		.long	LVL174-Ltext0
 6782 0a55 0200     		.word	0x2
 6783 0a57 75       		.byte	0x75
 6784 0a58 5C       		.sleb128 -36
 6785 0a59 85090000 		.long	LVL174-Ltext0
 6786 0a5d B0090000 		.long	LVL175-Ltext0
 6787 0a61 0200     		.word	0x2
 6788 0a63 75       		.byte	0x75
 6789 0a64 64       		.sleb128 -28
 6790 0a65 B0090000 		.long	LVL175-Ltext0
 6791 0a69 5E0B0000 		.long	LVL179-Ltext0
 6792 0a6d 0200     		.word	0x2
 6793 0a6f 75       		.byte	0x75
 6794 0a70 64       		.sleb128 -28
 6795 0a71 650B0000 		.long	LVL180-Ltext0
 6796 0a75 6A0B0000 		.long	LVL181-Ltext0
 6797 0a79 0200     		.word	0x2
 6798 0a7b 75       		.byte	0x75
 6799 0a7c 6C       		.sleb128 -20
 6800 0a7d 6A0B0000 		.long	LVL181-Ltext0
 6801 0a81 6F0B0000 		.long	LVL182-Ltext0
 6802 0a85 0100     		.word	0x1
 6803 0a87 53       		.byte	0x53
 6804 0a88 6F0B0000 		.long	LVL182-Ltext0
 6805 0a8c 760B0000 		.long	LVL183-Ltext0
 6806 0a90 0100     		.word	0x1
 6807 0a92 56       		.byte	0x56
 6808 0a93 760B0000 		.long	LVL183-Ltext0
 6809 0a97 7B0B0000 		.long	LVL184-Ltext0
 6810 0a9b 0200     		.word	0x2
 6811 0a9d 75       		.byte	0x75
 6812 0a9e 70       		.sleb128 -16
 6813 0a9f 7B0B0000 		.long	LVL184-Ltext0
 6814 0aa3 820B0000 		.long	LVL185-Ltext0
 6815 0aa7 0100     		.word	0x1
 6816 0aa9 57       		.byte	0x57
 6817 0aaa 820B0000 		.long	LVL185-Ltext0
 6818 0aae 890B0000 		.long	LVL186-Ltext0
 6819 0ab2 0200     		.word	0x2
 6820 0ab4 75       		.byte	0x75
GAS LISTING /cygdrive/c/Users/THESCI~1/AppData/Local/Temp/ccH1olGy.s 			page 179


 6821 0ab5 60       		.sleb128 -32
 6822 0ab6 890B0000 		.long	LVL186-Ltext0
 6823 0aba 900B0000 		.long	LVL187-Ltext0
 6824 0abe 0200     		.word	0x2
 6825 0ac0 75       		.byte	0x75
 6826 0ac1 68       		.sleb128 -24
 6827 0ac2 900B0000 		.long	LVL187-Ltext0
 6828 0ac6 970B0000 		.long	LVL188-Ltext0
 6829 0aca 0200     		.word	0x2
 6830 0acc 75       		.byte	0x75
 6831 0acd 5C       		.sleb128 -36
 6832 0ace 970B0000 		.long	LVL188-Ltext0
 6833 0ad2 9C0B0000 		.long	LVL189-Ltext0
 6834 0ad6 0200     		.word	0x2
 6835 0ad8 75       		.byte	0x75
 6836 0ad9 64       		.sleb128 -28
 6837 0ada A30B0000 		.long	LVL190-Ltext0
 6838 0ade A80B0000 		.long	LVL191-Ltext0
 6839 0ae2 0200     		.word	0x2
 6840 0ae4 75       		.byte	0x75
 6841 0ae5 6C       		.sleb128 -20
 6842 0ae6 A80B0000 		.long	LVL191-Ltext0
 6843 0aea AD0B0000 		.long	LVL192-Ltext0
 6844 0aee 0100     		.word	0x1
 6845 0af0 53       		.byte	0x53
 6846 0af1 AD0B0000 		.long	LVL192-Ltext0
 6847 0af5 B40B0000 		.long	LVL193-Ltext0
 6848 0af9 0100     		.word	0x1
 6849 0afb 56       		.byte	0x56
 6850 0afc B40B0000 		.long	LVL193-Ltext0
 6851 0b00 B90B0000 		.long	LVL194-Ltext0
 6852 0b04 0200     		.word	0x2
 6853 0b06 75       		.byte	0x75
 6854 0b07 70       		.sleb128 -16
 6855 0b08 B90B0000 		.long	LVL194-Ltext0
 6856 0b0c C00B0000 		.long	LVL195-Ltext0
 6857 0b10 0100     		.word	0x1
 6858 0b12 57       		.byte	0x57
 6859 0b13 C00B0000 		.long	LVL195-Ltext0
 6860 0b17 C70B0000 		.long	LVL196-Ltext0
 6861 0b1b 0200     		.word	0x2
 6862 0b1d 75       		.byte	0x75
 6863 0b1e 60       		.sleb128 -32
 6864 0b1f C70B0000 		.long	LVL196-Ltext0
 6865 0b23 CE0B0000 		.long	LVL197-Ltext0
 6866 0b27 0200     		.word	0x2
 6867 0b29 75       		.byte	0x75
 6868 0b2a 68       		.sleb128 -24
 6869 0b2b CE0B0000 		.long	LVL197-Ltext0
 6870 0b2f D50B0000 		.long	LVL198-Ltext0
 6871 0b33 0200     		.word	0x2
 6872 0b35 75       		.byte	0x75
 6873 0b36 5C       		.sleb128 -36
 6874 0b37 D50B0000 		.long	LVL198-Ltext0
 6875 0b3b 830C0000 		.long	LFE11-Ltext0
 6876 0b3f 0200     		.word	0x2
 6877 0b41 75       		.byte	0x75
GAS LISTING /cygdrive/c/Users/THESCI~1/AppData/Local/Temp/ccH1olGy.s 			page 180


 6878 0b42 64       		.sleb128 -28
 6879 0b43 00000000 		.long	0x0
 6880 0b47 00000000 		.long	0x0
 6881              	LLST34:
 6882 0b4b E7070000 		.long	LVL144-Ltext0
 6883 0b4f EF070000 		.long	LVL147-Ltext0
 6884 0b53 0100     		.word	0x1
 6885 0b55 56       		.byte	0x56
 6886 0b56 5B080000 		.long	LVL156-Ltext0
 6887 0b5a 67080000 		.long	LVL157-Ltext0
 6888 0b5e 0100     		.word	0x1
 6889 0b60 56       		.byte	0x56
 6890 0b61 73080000 		.long	LVL159-Ltext0
 6891 0b65 13090000 		.long	LVL162-Ltext0
 6892 0b69 0100     		.word	0x1
 6893 0b6b 56       		.byte	0x56
 6894 0b6c 1F090000 		.long	LVL164-Ltext0
 6895 0b70 2E090000 		.long	LVL165-Ltext0
 6896 0b74 0100     		.word	0x1
 6897 0b76 56       		.byte	0x56
 6898 0b77 E2090000 		.long	LVL178-Ltext0
 6899 0b7b 5E0B0000 		.long	LVL179-Ltext0
 6900 0b7f 0100     		.word	0x1
 6901 0b81 56       		.byte	0x56
 6902 0b82 080C0000 		.long	LVL201-Ltext0
 6903 0b86 830C0000 		.long	LFE11-Ltext0
 6904 0b8a 0100     		.word	0x1
 6905 0b8c 56       		.byte	0x56
 6906 0b8d 00000000 		.long	0x0
 6907 0b91 00000000 		.long	0x0
 6908              	LLST35:
 6909 0b95 E7070000 		.long	LVL144-Ltext0
 6910 0b99 EC070000 		.long	LVL146-Ltext0
 6911 0b9d 0100     		.word	0x1
 6912 0b9f 50       		.byte	0x50
 6913 0ba0 36080000 		.long	LVL150-Ltext0
 6914 0ba4 44080000 		.long	LVL153-Ltext0
 6915 0ba8 0100     		.word	0x1
 6916 0baa 50       		.byte	0x50
 6917 0bab 6C080000 		.long	LVL158-Ltext0
 6918 0baf 84080000 		.long	LVL161-Ltext0
 6919 0bb3 0100     		.word	0x1
 6920 0bb5 50       		.byte	0x50
 6921 0bb6 00000000 		.long	0x0
 6922 0bba 00000000 		.long	0x0
 6923              	LLST36:
 6924 0bbe E7070000 		.long	LVL144-Ltext0
 6925 0bc2 EA070000 		.long	LVL145-Ltext0
 6926 0bc6 0100     		.word	0x1
 6927 0bc8 53       		.byte	0x53
 6928 0bc9 53080000 		.long	LVL155-Ltext0
 6929 0bcd 67080000 		.long	LVL157-Ltext0
 6930 0bd1 0100     		.word	0x1
 6931 0bd3 53       		.byte	0x53
 6932 0bd4 77080000 		.long	LVL160-Ltext0
 6933 0bd8 13090000 		.long	LVL162-Ltext0
 6934 0bdc 0100     		.word	0x1
GAS LISTING /cygdrive/c/Users/THESCI~1/AppData/Local/Temp/ccH1olGy.s 			page 181


 6935 0bde 53       		.byte	0x53
 6936 0bdf 16090000 		.long	LVL163-Ltext0
 6937 0be3 2E090000 		.long	LVL165-Ltext0
 6938 0be7 0100     		.word	0x1
 6939 0be9 53       		.byte	0x53
 6940 0bea E0090000 		.long	LVL177-Ltext0
 6941 0bee 5E0B0000 		.long	LVL179-Ltext0
 6942 0bf2 0100     		.word	0x1
 6943 0bf4 53       		.byte	0x53
 6944 0bf5 080C0000 		.long	LVL201-Ltext0
 6945 0bf9 830C0000 		.long	LFE11-Ltext0
 6946 0bfd 0100     		.word	0x1
 6947 0bff 53       		.byte	0x53
 6948 0c00 00000000 		.long	0x0
 6949 0c04 00000000 		.long	0x0
 6950              	LLST37:
 6951 0c08 900C0000 		.long	LFB13-Ltext0
 6952 0c0c 910C0000 		.long	LCFI42-Ltext0
 6953 0c10 0200     		.word	0x2
 6954 0c12 74       		.byte	0x74
 6955 0c13 04       		.sleb128 4
 6956 0c14 910C0000 		.long	LCFI42-Ltext0
 6957 0c18 930C0000 		.long	LCFI43-Ltext0
 6958 0c1c 0200     		.word	0x2
 6959 0c1e 74       		.byte	0x74
 6960 0c1f 08       		.sleb128 8
 6961 0c20 930C0000 		.long	LCFI43-Ltext0
 6962 0c24 6F0D0000 		.long	LFE13-Ltext0
 6963 0c28 0200     		.word	0x2
 6964 0c2a 75       		.byte	0x75
 6965 0c2b 08       		.sleb128 8
 6966 0c2c 00000000 		.long	0x0
 6967 0c30 00000000 		.long	0x0
 6968              	LLST38:
 6969 0c34 900C0000 		.long	LVL202-Ltext0
 6970 0c38 AA0C0000 		.long	LVL203-Ltext0
 6971 0c3c 0200     		.word	0x2
 6972 0c3e 91       		.byte	0x91
 6973 0c3f 00       		.sleb128 0
 6974 0c40 AA0C0000 		.long	LVL203-Ltext0
 6975 0c44 C50C0000 		.long	LVL209-Ltext0
 6976 0c48 0100     		.word	0x1
 6977 0c4a 56       		.byte	0x56
 6978 0c4b C50C0000 		.long	LVL209-Ltext0
 6979 0c4f CC0C0000 		.long	LVL211-Ltext0
 6980 0c53 0200     		.word	0x2
 6981 0c55 75       		.byte	0x75
 6982 0c56 08       		.sleb128 8
 6983 0c57 CC0C0000 		.long	LVL211-Ltext0
 6984 0c5b 6F0D0000 		.long	LFE13-Ltext0
 6985 0c5f 0100     		.word	0x1
 6986 0c61 56       		.byte	0x56
 6987 0c62 00000000 		.long	0x0
 6988 0c66 00000000 		.long	0x0
 6989              	LLST39:
 6990 0c6a 900C0000 		.long	LVL202-Ltext0
 6991 0c6e B50C0000 		.long	LVL204-Ltext0
GAS LISTING /cygdrive/c/Users/THESCI~1/AppData/Local/Temp/ccH1olGy.s 			page 182


 6992 0c72 0200     		.word	0x2
 6993 0c74 91       		.byte	0x91
 6994 0c75 04       		.sleb128 4
 6995 0c76 B50C0000 		.long	LVL204-Ltext0
 6996 0c7a 4D0D0000 		.long	LVL222-Ltext0
 6997 0c7e 0200     		.word	0x2
 6998 0c80 75       		.byte	0x75
 6999 0c81 0C       		.sleb128 12
 7000 0c82 4D0D0000 		.long	LVL222-Ltext0
 7001 0c86 5A0D0000 		.long	LVL224-Ltext0
 7002 0c8a 0200     		.word	0x2
 7003 0c8c 91       		.byte	0x91
 7004 0c8d 04       		.sleb128 4
 7005 0c8e 5A0D0000 		.long	LVL224-Ltext0
 7006 0c92 6F0D0000 		.long	LFE13-Ltext0
 7007 0c96 0200     		.word	0x2
 7008 0c98 75       		.byte	0x75
 7009 0c99 0C       		.sleb128 12
 7010 0c9a 00000000 		.long	0x0
 7011 0c9e 00000000 		.long	0x0
 7012              	LLST40:
 7013 0ca2 BF0C0000 		.long	LVL206-Ltext0
 7014 0ca6 C20C0000 		.long	LVL207-Ltext0
 7015 0caa 0100     		.word	0x1
 7016 0cac 53       		.byte	0x53
 7017 0cad EC0C0000 		.long	LVL214-Ltext0
 7018 0cb1 4D0D0000 		.long	LVL222-Ltext0
 7019 0cb5 0100     		.word	0x1
 7020 0cb7 53       		.byte	0x53
 7021 0cb8 670D0000 		.long	LVL226-Ltext0
 7022 0cbc 6F0D0000 		.long	LFE13-Ltext0
 7023 0cc0 0100     		.word	0x1
 7024 0cc2 53       		.byte	0x53
 7025 0cc3 00000000 		.long	0x0
 7026 0cc7 00000000 		.long	0x0
 7027              	LLST41:
 7028 0ccb BF0C0000 		.long	LVL206-Ltext0
 7029 0ccf C80C0000 		.long	LVL210-Ltext0
 7030 0cd3 0100     		.word	0x1
 7031 0cd5 57       		.byte	0x57
 7032 0cd6 E20C0000 		.long	LVL213-Ltext0
 7033 0cda 4D0D0000 		.long	LVL222-Ltext0
 7034 0cde 0100     		.word	0x1
 7035 0ce0 57       		.byte	0x57
 7036 0ce1 5A0D0000 		.long	LVL224-Ltext0
 7037 0ce5 6F0D0000 		.long	LFE13-Ltext0
 7038 0ce9 0100     		.word	0x1
 7039 0ceb 57       		.byte	0x57
 7040 0cec 00000000 		.long	0x0
 7041 0cf0 00000000 		.long	0x0
 7042              	LLST42:
 7043 0cf4 BF0C0000 		.long	LVL206-Ltext0
 7044 0cf8 CC0C0000 		.long	LVL211-Ltext0
 7045 0cfc 0200     		.word	0x2
 7046 0cfe 75       		.byte	0x75
 7047 0cff 60       		.sleb128 -32
 7048 0d00 F30C0000 		.long	LVL215-Ltext0
GAS LISTING /cygdrive/c/Users/THESCI~1/AppData/Local/Temp/ccH1olGy.s 			page 183


 7049 0d04 4D0D0000 		.long	LVL222-Ltext0
 7050 0d08 0200     		.word	0x2
 7051 0d0a 75       		.byte	0x75
 7052 0d0b 60       		.sleb128 -32
 7053 0d0c 670D0000 		.long	LVL226-Ltext0
 7054 0d10 6F0D0000 		.long	LFE13-Ltext0
 7055 0d14 0200     		.word	0x2
 7056 0d16 75       		.byte	0x75
 7057 0d17 60       		.sleb128 -32
 7058 0d18 00000000 		.long	0x0
 7059 0d1c 00000000 		.long	0x0
 7060              	LLST43:
 7061 0d20 BD0C0000 		.long	LVL205-Ltext0
 7062 0d24 C20C0000 		.long	LVL208-Ltext0
 7063 0d28 0100     		.word	0x1
 7064 0d2a 50       		.byte	0x50
 7065 0d2b CC0C0000 		.long	LVL211-Ltext0
 7066 0d2f D40C0000 		.long	LVL212-Ltext0
 7067 0d33 0100     		.word	0x1
 7068 0d35 50       		.byte	0x50
 7069 0d36 F50C0000 		.long	LVL216-Ltext0
 7070 0d3a FB0C0000 		.long	LVL217-Ltext0
 7071 0d3e 0100     		.word	0x1
 7072 0d40 50       		.byte	0x50
 7073 0d41 220D0000 		.long	LVL219-Ltext0
 7074 0d45 300D0000 		.long	LVL220-Ltext0
 7075 0d49 0100     		.word	0x1
 7076 0d4b 50       		.byte	0x50
 7077 0d4c 550D0000 		.long	LVL223-Ltext0
 7078 0d50 5A0D0000 		.long	LVL224-Ltext0
 7079 0d54 0100     		.word	0x1
 7080 0d56 50       		.byte	0x50
 7081 0d57 620D0000 		.long	LVL225-Ltext0
 7082 0d5b 670D0000 		.long	LVL226-Ltext0
 7083 0d5f 0100     		.word	0x1
 7084 0d61 50       		.byte	0x50
 7085 0d62 6A0D0000 		.long	LVL227-Ltext0
 7086 0d66 6F0D0000 		.long	LFE13-Ltext0
 7087 0d6a 0100     		.word	0x1
 7088 0d6c 50       		.byte	0x50
 7089 0d6d 00000000 		.long	0x0
 7090 0d71 00000000 		.long	0x0
 7091              	LLST44:
 7092 0d75 700D0000 		.long	LFB21-Ltext0
 7093 0d79 710D0000 		.long	LCFI48-Ltext0
 7094 0d7d 0200     		.word	0x2
 7095 0d7f 74       		.byte	0x74
 7096 0d80 04       		.sleb128 4
 7097 0d81 710D0000 		.long	LCFI48-Ltext0
 7098 0d85 730D0000 		.long	LCFI49-Ltext0
 7099 0d89 0200     		.word	0x2
 7100 0d8b 74       		.byte	0x74
 7101 0d8c 08       		.sleb128 8
 7102 0d8d 730D0000 		.long	LCFI49-Ltext0
 7103 0d91 34120000 		.long	LFE21-Ltext0
 7104 0d95 0200     		.word	0x2
 7105 0d97 75       		.byte	0x75
GAS LISTING /cygdrive/c/Users/THESCI~1/AppData/Local/Temp/ccH1olGy.s 			page 184


 7106 0d98 08       		.sleb128 8
 7107 0d99 00000000 		.long	0x0
 7108 0d9d 00000000 		.long	0x0
 7109              	LLST45:
 7110 0da1 700D0000 		.long	LVL228-Ltext0
 7111 0da5 930D0000 		.long	LVL229-Ltext0
 7112 0da9 0200     		.word	0x2
 7113 0dab 91       		.byte	0x91
 7114 0dac 00       		.sleb128 0
 7115 0dad 930D0000 		.long	LVL229-Ltext0
 7116 0db1 34120000 		.long	LFE21-Ltext0
 7117 0db5 0200     		.word	0x2
 7118 0db7 75       		.byte	0x75
 7119 0db8 08       		.sleb128 8
 7120 0db9 00000000 		.long	0x0
 7121 0dbd 00000000 		.long	0x0
 7122              	LLST46:
 7123 0dc1 700D0000 		.long	LVL228-Ltext0
 7124 0dc5 930D0000 		.long	LVL229-Ltext0
 7125 0dc9 0200     		.word	0x2
 7126 0dcb 91       		.byte	0x91
 7127 0dcc 04       		.sleb128 4
 7128 0dcd 930D0000 		.long	LVL229-Ltext0
 7129 0dd1 34120000 		.long	LFE21-Ltext0
 7130 0dd5 0200     		.word	0x2
 7131 0dd7 75       		.byte	0x75
 7132 0dd8 0C       		.sleb128 12
 7133 0dd9 00000000 		.long	0x0
 7134 0ddd 00000000 		.long	0x0
 7135              	LLST47:
 7136 0de1 700D0000 		.long	LVL228-Ltext0
 7137 0de5 9C0D0000 		.long	LVL230-Ltext0
 7138 0de9 0200     		.word	0x2
 7139 0deb 91       		.byte	0x91
 7140 0dec 08       		.sleb128 8
 7141 0ded 9C0D0000 		.long	LVL230-Ltext0
 7142 0df1 540F0000 		.long	LVL249-Ltext0
 7143 0df5 0200     		.word	0x2
 7144 0df7 75       		.byte	0x75
 7145 0df8 10       		.sleb128 16
 7146 0df9 540F0000 		.long	LVL249-Ltext0
 7147 0dfd 590F0000 		.long	LVL250-Ltext0
 7148 0e01 0200     		.word	0x2
 7149 0e03 91       		.byte	0x91
 7150 0e04 08       		.sleb128 8
 7151 0e05 590F0000 		.long	LVL250-Ltext0
 7152 0e09 34120000 		.long	LFE21-Ltext0
 7153 0e0d 0200     		.word	0x2
 7154 0e0f 75       		.byte	0x75
 7155 0e10 10       		.sleb128 16
 7156 0e11 00000000 		.long	0x0
 7157 0e15 00000000 		.long	0x0
 7158              	LLST48:
 7159 0e19 700D0000 		.long	LVL228-Ltext0
 7160 0e1d CB0D0000 		.long	LVL234-Ltext0
 7161 0e21 0200     		.word	0x2
 7162 0e23 91       		.byte	0x91
GAS LISTING /cygdrive/c/Users/THESCI~1/AppData/Local/Temp/ccH1olGy.s 			page 185


 7163 0e24 0C       		.sleb128 12
 7164 0e25 CB0D0000 		.long	LVL234-Ltext0
 7165 0e29 540F0000 		.long	LVL249-Ltext0
 7166 0e2d 0200     		.word	0x2
 7167 0e2f 75       		.byte	0x75
 7168 0e30 14       		.sleb128 20
 7169 0e31 540F0000 		.long	LVL249-Ltext0
 7170 0e35 770F0000 		.long	LVL253-Ltext0
 7171 0e39 0200     		.word	0x2
 7172 0e3b 91       		.byte	0x91
 7173 0e3c 0C       		.sleb128 12
 7174 0e3d 770F0000 		.long	LVL253-Ltext0
 7175 0e41 AC0F0000 		.long	LVL258-Ltext0
 7176 0e45 0200     		.word	0x2
 7177 0e47 75       		.byte	0x75
 7178 0e48 14       		.sleb128 20
 7179 0e49 AC0F0000 		.long	LVL258-Ltext0
 7180 0e4d DF0F0000 		.long	LVL265-Ltext0
 7181 0e51 0200     		.word	0x2
 7182 0e53 91       		.byte	0x91
 7183 0e54 0C       		.sleb128 12
 7184 0e55 DF0F0000 		.long	LVL265-Ltext0
 7185 0e59 34120000 		.long	LFE21-Ltext0
 7186 0e5d 0200     		.word	0x2
 7187 0e5f 75       		.byte	0x75
 7188 0e60 14       		.sleb128 20
 7189 0e61 00000000 		.long	0x0
 7190 0e65 00000000 		.long	0x0
 7191              	LLST49:
 7192 0e69 700D0000 		.long	LVL228-Ltext0
 7193 0e6d 070E0000 		.long	LVL238-Ltext0
 7194 0e71 0200     		.word	0x2
 7195 0e73 91       		.byte	0x91
 7196 0e74 10       		.sleb128 16
 7197 0e75 070E0000 		.long	LVL238-Ltext0
 7198 0e79 540F0000 		.long	LVL249-Ltext0
 7199 0e7d 0200     		.word	0x2
 7200 0e7f 75       		.byte	0x75
 7201 0e80 18       		.sleb128 24
 7202 0e81 540F0000 		.long	LVL249-Ltext0
 7203 0e85 DF0F0000 		.long	LVL265-Ltext0
 7204 0e89 0200     		.word	0x2
 7205 0e8b 91       		.byte	0x91
 7206 0e8c 10       		.sleb128 16
 7207 0e8d DF0F0000 		.long	LVL265-Ltext0
 7208 0e91 00120000 		.long	LVL275-Ltext0
 7209 0e95 0200     		.word	0x2
 7210 0e97 75       		.byte	0x75
 7211 0e98 18       		.sleb128 24
 7212 0e99 00120000 		.long	LVL275-Ltext0
 7213 0e9d 34120000 		.long	LFE21-Ltext0
 7214 0ea1 0200     		.word	0x2
 7215 0ea3 91       		.byte	0x91
 7216 0ea4 10       		.sleb128 16
 7217 0ea5 00000000 		.long	0x0
 7218 0ea9 00000000 		.long	0x0
 7219              	LLST50:
GAS LISTING /cygdrive/c/Users/THESCI~1/AppData/Local/Temp/ccH1olGy.s 			page 186


 7220 0ead 700D0000 		.long	LVL228-Ltext0
 7221 0eb1 0E0E0000 		.long	LVL239-Ltext0
 7222 0eb5 0200     		.word	0x2
 7223 0eb7 91       		.byte	0x91
 7224 0eb8 14       		.sleb128 20
 7225 0eb9 0E0E0000 		.long	LVL239-Ltext0
 7226 0ebd 1E0E0000 		.long	LVL240-Ltext0
 7227 0ec1 0200     		.word	0x2
 7228 0ec3 75       		.byte	0x75
 7229 0ec4 1C       		.sleb128 28
 7230 0ec5 1E0E0000 		.long	LVL240-Ltext0
 7231 0ec9 34120000 		.long	LFE21-Ltext0
 7232 0ecd 0200     		.word	0x2
 7233 0ecf 91       		.byte	0x91
 7234 0ed0 14       		.sleb128 20
 7235 0ed1 00000000 		.long	0x0
 7236 0ed5 00000000 		.long	0x0
 7237              	LLST51:
 7238 0ed9 A90D0000 		.long	LVL232-Ltext0
 7239 0edd 540F0000 		.long	LVL249-Ltext0
 7240 0ee1 0300     		.word	0x3
 7241 0ee3 75       		.byte	0x75
 7242 0ee4 947F     		.sleb128 -108
 7243 0ee6 630F0000 		.long	LVL251-Ltext0
 7244 0eea AC0F0000 		.long	LVL258-Ltext0
 7245 0eee 0300     		.word	0x3
 7246 0ef0 75       		.byte	0x75
 7247 0ef1 947F     		.sleb128 -108
 7248 0ef3 BD0F0000 		.long	LVL260-Ltext0
 7249 0ef7 CC0F0000 		.long	LVL262-Ltext0
 7250 0efb 0300     		.word	0x3
 7251 0efd 75       		.byte	0x75
 7252 0efe 947F     		.sleb128 -108
 7253 0f00 DA0F0000 		.long	LVL263-Ltext0
 7254 0f04 34120000 		.long	LFE21-Ltext0
 7255 0f08 0300     		.word	0x3
 7256 0f0a 75       		.byte	0x75
 7257 0f0b 947F     		.sleb128 -108
 7258 0f0d 00000000 		.long	0x0
 7259 0f11 00000000 		.long	0x0
 7260              	LLST52:
 7261 0f15 D80D0000 		.long	LVL236-Ltext0
 7262 0f19 540F0000 		.long	LVL249-Ltext0
 7263 0f1d 0300     		.word	0x3
 7264 0f1f 75       		.byte	0x75
 7265 0f20 987F     		.sleb128 -104
 7266 0f22 840F0000 		.long	LVL255-Ltext0
 7267 0f26 AC0F0000 		.long	LVL258-Ltext0
 7268 0f2a 0300     		.word	0x3
 7269 0f2c 75       		.byte	0x75
 7270 0f2d 987F     		.sleb128 -104
 7271 0f2f DF0F0000 		.long	LVL265-Ltext0
 7272 0f33 00120000 		.long	LVL275-Ltext0
 7273 0f37 0300     		.word	0x3
 7274 0f39 75       		.byte	0x75
 7275 0f3a 987F     		.sleb128 -104
 7276 0f3c 0A120000 		.long	LVL276-Ltext0
GAS LISTING /cygdrive/c/Users/THESCI~1/AppData/Local/Temp/ccH1olGy.s 			page 187


 7277 0f40 12120000 		.long	LVL278-Ltext0
 7278 0f44 0300     		.word	0x3
 7279 0f46 75       		.byte	0x75
 7280 0f47 987F     		.sleb128 -104
 7281 0f49 1C120000 		.long	LVL279-Ltext0
 7282 0f4d 34120000 		.long	LFE21-Ltext0
 7283 0f51 0300     		.word	0x3
 7284 0f53 75       		.byte	0x75
 7285 0f54 987F     		.sleb128 -104
 7286 0f56 00000000 		.long	0x0
 7287 0f5a 00000000 		.long	0x0
 7288              	LLST53:
 7289 0f5e A20D0000 		.long	LVL231-Ltext0
 7290 0f62 540F0000 		.long	LVL249-Ltext0
 7291 0f66 0300     		.word	0x3
 7292 0f68 75       		.byte	0x75
 7293 0f69 9C7F     		.sleb128 -100
 7294 0f6b 660F0000 		.long	LVL252-Ltext0
 7295 0f6f AC0F0000 		.long	LVL258-Ltext0
 7296 0f73 0300     		.word	0x3
 7297 0f75 75       		.byte	0x75
 7298 0f76 9C7F     		.sleb128 -100
 7299 0f78 B60F0000 		.long	LVL259-Ltext0
 7300 0f7c CC0F0000 		.long	LVL262-Ltext0
 7301 0f80 0300     		.word	0x3
 7302 0f82 75       		.byte	0x75
 7303 0f83 9C7F     		.sleb128 -100
 7304 0f85 DD0F0000 		.long	LVL264-Ltext0
 7305 0f89 34120000 		.long	LFE21-Ltext0
 7306 0f8d 0300     		.word	0x3
 7307 0f8f 75       		.byte	0x75
 7308 0f90 9C7F     		.sleb128 -100
 7309 0f92 00000000 		.long	0x0
 7310 0f96 00000000 		.long	0x0
 7311              	LLST54:
 7312 0f9a D10D0000 		.long	LVL235-Ltext0
 7313 0f9e 540F0000 		.long	LVL249-Ltext0
 7314 0fa2 0300     		.word	0x3
 7315 0fa4 75       		.byte	0x75
 7316 0fa5 A07F     		.sleb128 -96
 7317 0fa7 7D0F0000 		.long	LVL254-Ltext0
 7318 0fab AC0F0000 		.long	LVL258-Ltext0
 7319 0faf 0300     		.word	0x3
 7320 0fb1 75       		.byte	0x75
 7321 0fb2 A07F     		.sleb128 -96
 7322 0fb4 DF0F0000 		.long	LVL265-Ltext0
 7323 0fb8 00120000 		.long	LVL275-Ltext0
 7324 0fbc 0300     		.word	0x3
 7325 0fbe 75       		.byte	0x75
 7326 0fbf A07F     		.sleb128 -96
 7327 0fc1 0D120000 		.long	LVL277-Ltext0
 7328 0fc5 12120000 		.long	LVL278-Ltext0
 7329 0fc9 0300     		.word	0x3
 7330 0fcb 75       		.byte	0x75
 7331 0fcc A07F     		.sleb128 -96
 7332 0fce 1F120000 		.long	LVL280-Ltext0
 7333 0fd2 34120000 		.long	LFE21-Ltext0
GAS LISTING /cygdrive/c/Users/THESCI~1/AppData/Local/Temp/ccH1olGy.s 			page 188


 7334 0fd6 0300     		.word	0x3
 7335 0fd8 75       		.byte	0x75
 7336 0fd9 A07F     		.sleb128 -96
 7337 0fdb 00000000 		.long	0x0
 7338 0fdf 00000000 		.long	0x0
 7339              	LLST55:
 7340 0fe3 000E0000 		.long	LVL237-Ltext0
 7341 0fe7 230E0000 		.long	LVL241-Ltext0
 7342 0feb 0300     		.word	0x3
 7343 0fed 75       		.byte	0x75
 7344 0fee A47F     		.sleb128 -92
 7345 0ff0 230E0000 		.long	LVL241-Ltext0
 7346 0ff4 260E0000 		.long	LVL242-Ltext0
 7347 0ff8 0600     		.word	0x6
 7348 0ffa 50       		.byte	0x50
 7349 0ffb 93       		.byte	0x93
 7350 0ffc 04       		.uleb128 0x4
 7351 0ffd 52       		.byte	0x52
 7352 0ffe 93       		.byte	0x93
 7353 0fff 04       		.uleb128 0x4
 7354 1000 260E0000 		.long	LVL242-Ltext0
 7355 1004 540F0000 		.long	LVL249-Ltext0
 7356 1008 0100     		.word	0x1
 7357 100a 50       		.byte	0x50
 7358 100b A00F0000 		.long	LVL257-Ltext0
 7359 100f AC0F0000 		.long	LVL258-Ltext0
 7360 1013 0300     		.word	0x3
 7361 1015 75       		.byte	0x75
 7362 1016 A47F     		.sleb128 -92
 7363 1018 DF0F0000 		.long	LVL265-Ltext0
 7364 101c E5110000 		.long	LVL272-Ltext0
 7365 1020 0300     		.word	0x3
 7366 1022 75       		.byte	0x75
 7367 1023 A47F     		.sleb128 -92
 7368 1025 E5110000 		.long	LVL272-Ltext0
 7369 1029 00120000 		.long	LVL275-Ltext0
 7370 102d 0600     		.word	0x6
 7371 102f 50       		.byte	0x50
 7372 1030 93       		.byte	0x93
 7373 1031 04       		.uleb128 0x4
 7374 1032 52       		.byte	0x52
 7375 1033 93       		.byte	0x93
 7376 1034 04       		.uleb128 0x4
 7377 1035 00000000 		.long	0x0
 7378 1039 00000000 		.long	0x0
 7379              	LLST56:
 7380 103d 5B0E0000 		.long	LVL243-Ltext0
 7381 1041 540F0000 		.long	LVL249-Ltext0
 7382 1045 0100     		.word	0x1
 7383 1047 57       		.byte	0x57
 7384 1048 DF0F0000 		.long	LVL265-Ltext0
 7385 104c FE110000 		.long	LVL274-Ltext0
 7386 1050 0100     		.word	0x1
 7387 1052 57       		.byte	0x57
 7388 1053 00000000 		.long	0x0
 7389 1057 00000000 		.long	0x0
 7390              	LLST57:
GAS LISTING /cygdrive/c/Users/THESCI~1/AppData/Local/Temp/ccH1olGy.s 			page 189


 7391 105b 760E0000 		.long	LVL245-Ltext0
 7392 105f 900E0000 		.long	LVL246-Ltext0
 7393 1063 0100     		.word	0x1
 7394 1065 53       		.byte	0x53
 7395 1066 9B0E0000 		.long	LVL247-Ltext0
 7396 106a 540F0000 		.long	LVL249-Ltext0
 7397 106e 0100     		.word	0x1
 7398 1070 53       		.byte	0x53
 7399 1071 DF0F0000 		.long	LVL265-Ltext0
 7400 1075 EC0F0000 		.long	LVL266-Ltext0
 7401 1079 0100     		.word	0x1
 7402 107b 53       		.byte	0x53
 7403 107c F50F0000 		.long	LVL267-Ltext0
 7404 1080 FC110000 		.long	LVL273-Ltext0
 7405 1084 0100     		.word	0x1
 7406 1086 53       		.byte	0x53
 7407 1087 00000000 		.long	0x0
 7408 108b 00000000 		.long	0x0
 7409              	LLST58:
 7410 108f 630E0000 		.long	LVL244-Ltext0
 7411 1093 540F0000 		.long	LVL249-Ltext0
 7412 1097 0300     		.word	0x3
 7413 1099 75       		.byte	0x75
 7414 109a A87F     		.sleb128 -88
 7415 109c DF0F0000 		.long	LVL265-Ltext0
 7416 10a0 00120000 		.long	LVL275-Ltext0
 7417 10a4 0300     		.word	0x3
 7418 10a6 75       		.byte	0x75
 7419 10a7 A87F     		.sleb128 -88
 7420 10a9 00000000 		.long	0x0
 7421 10ad 00000000 		.long	0x0
 7422              	LLST59:
 7423 10b1 40120000 		.long	LFB22-Ltext0
 7424 10b5 41120000 		.long	LCFI54-Ltext0
 7425 10b9 0200     		.word	0x2
 7426 10bb 74       		.byte	0x74
 7427 10bc 04       		.sleb128 4
 7428 10bd 41120000 		.long	LCFI54-Ltext0
 7429 10c1 43120000 		.long	LCFI55-Ltext0
 7430 10c5 0200     		.word	0x2
 7431 10c7 74       		.byte	0x74
 7432 10c8 08       		.sleb128 8
 7433 10c9 43120000 		.long	LCFI55-Ltext0
 7434 10cd 95150000 		.long	LFE22-Ltext0
 7435 10d1 0200     		.word	0x2
 7436 10d3 75       		.byte	0x75
 7437 10d4 08       		.sleb128 8
 7438 10d5 00000000 		.long	0x0
 7439 10d9 00000000 		.long	0x0
 7440              	LLST60:
 7441 10dd 40120000 		.long	LVL282-Ltext0
 7442 10e1 59120000 		.long	LVL283-Ltext0
 7443 10e5 0200     		.word	0x2
 7444 10e7 91       		.byte	0x91
 7445 10e8 00       		.sleb128 0
 7446 10e9 59120000 		.long	LVL283-Ltext0
 7447 10ed 74120000 		.long	LVL287-Ltext0
GAS LISTING /cygdrive/c/Users/THESCI~1/AppData/Local/Temp/ccH1olGy.s 			page 190


 7448 10f1 0100     		.word	0x1
 7449 10f3 56       		.byte	0x56
 7450 10f4 74120000 		.long	LVL287-Ltext0
 7451 10f8 7B120000 		.long	LVL289-Ltext0
 7452 10fc 0200     		.word	0x2
 7453 10fe 75       		.byte	0x75
 7454 10ff 08       		.sleb128 8
 7455 1100 7B120000 		.long	LVL289-Ltext0
 7456 1104 95150000 		.long	LFE22-Ltext0
 7457 1108 0100     		.word	0x1
 7458 110a 56       		.byte	0x56
 7459 110b 00000000 		.long	0x0
 7460 110f 00000000 		.long	0x0
 7461              	LLST61:
 7462 1113 40120000 		.long	LVL282-Ltext0
 7463 1117 59120000 		.long	LVL283-Ltext0
 7464 111b 0200     		.word	0x2
 7465 111d 91       		.byte	0x91
 7466 111e 04       		.sleb128 4
 7467 111f 59120000 		.long	LVL283-Ltext0
 7468 1123 77120000 		.long	LVL288-Ltext0
 7469 1127 0100     		.word	0x1
 7470 1129 57       		.byte	0x57
 7471 112a 77120000 		.long	LVL288-Ltext0
 7472 112e 7B120000 		.long	LVL289-Ltext0
 7473 1132 0200     		.word	0x2
 7474 1134 75       		.byte	0x75
 7475 1135 0C       		.sleb128 12
 7476 1136 7B120000 		.long	LVL289-Ltext0
 7477 113a 95150000 		.long	LFE22-Ltext0
 7478 113e 0100     		.word	0x1
 7479 1140 57       		.byte	0x57
 7480 1141 00000000 		.long	0x0
 7481 1145 00000000 		.long	0x0
 7482              	LLST62:
 7483 1149 40120000 		.long	LVL282-Ltext0
 7484 114d 64120000 		.long	LVL284-Ltext0
 7485 1151 0200     		.word	0x2
 7486 1153 91       		.byte	0x91
 7487 1154 08       		.sleb128 8
 7488 1155 64120000 		.long	LVL284-Ltext0
 7489 1159 95120000 		.long	LVL290-Ltext0
 7490 115d 0200     		.word	0x2
 7491 115f 75       		.byte	0x75
 7492 1160 10       		.sleb128 16
 7493 1161 95120000 		.long	LVL290-Ltext0
 7494 1165 9C120000 		.long	LVL291-Ltext0
 7495 1169 0200     		.word	0x2
 7496 116b 91       		.byte	0x91
 7497 116c 08       		.sleb128 8
 7498 116d 9C120000 		.long	LVL291-Ltext0
 7499 1171 95150000 		.long	LFE22-Ltext0
 7500 1175 0200     		.word	0x2
 7501 1177 75       		.byte	0x75
 7502 1178 10       		.sleb128 16
 7503 1179 00000000 		.long	0x0
 7504 117d 00000000 		.long	0x0
GAS LISTING /cygdrive/c/Users/THESCI~1/AppData/Local/Temp/ccH1olGy.s 			page 191


 7505              	LLST63:
 7506 1181 6E120000 		.long	LVL285-Ltext0
 7507 1185 7B120000 		.long	LVL289-Ltext0
 7508 1189 0300     		.word	0x3
 7509 118b 75       		.byte	0x75
 7510 118c B47F     		.sleb128 -76
 7511 118e D2120000 		.long	LVL292-Ltext0
 7512 1192 F7120000 		.long	LVL295-Ltext0
 7513 1196 0300     		.word	0x3
 7514 1198 75       		.byte	0x75
 7515 1199 B47F     		.sleb128 -76
 7516 119b 76130000 		.long	LVL301-Ltext0
 7517 119f 76150000 		.long	LVL326-Ltext0
 7518 11a3 0300     		.word	0x3
 7519 11a5 75       		.byte	0x75
 7520 11a6 B47F     		.sleb128 -76
 7521 11a8 85150000 		.long	LVL327-Ltext0
 7522 11ac 95150000 		.long	LFE22-Ltext0
 7523 11b0 0300     		.word	0x3
 7524 11b2 75       		.byte	0x75
 7525 11b3 B47F     		.sleb128 -76
 7526 11b5 00000000 		.long	0x0
 7527 11b9 00000000 		.long	0x0
 7528              	LLST64:
 7529 11bd 6E120000 		.long	LVL285-Ltext0
 7530 11c1 71120000 		.long	LVL286-Ltext0
 7531 11c5 0100     		.word	0x1
 7532 11c7 53       		.byte	0x53
 7533 11c8 79130000 		.long	LVL302-Ltext0
 7534 11cc 31140000 		.long	LVL309-Ltext0
 7535 11d0 0100     		.word	0x1
 7536 11d2 53       		.byte	0x53
 7537 11d3 85150000 		.long	LVL327-Ltext0
 7538 11d7 95150000 		.long	LFE22-Ltext0
 7539 11db 0100     		.word	0x1
 7540 11dd 53       		.byte	0x53
 7541 11de 00000000 		.long	0x0
 7542 11e2 00000000 		.long	0x0
 7543              	LLST65:
 7544 11e6 6E120000 		.long	LVL285-Ltext0
 7545 11ea 7B120000 		.long	LVL289-Ltext0
 7546 11ee 0300     		.word	0x3
 7547 11f0 75       		.byte	0x75
 7548 11f1 B87F     		.sleb128 -72
 7549 11f3 D2120000 		.long	LVL292-Ltext0
 7550 11f7 F7120000 		.long	LVL295-Ltext0
 7551 11fb 0300     		.word	0x3
 7552 11fd 75       		.byte	0x75
 7553 11fe B87F     		.sleb128 -72
 7554 1200 57130000 		.long	LVL296-Ltext0
 7555 1204 76150000 		.long	LVL326-Ltext0
 7556 1208 0300     		.word	0x3
 7557 120a 75       		.byte	0x75
 7558 120b B87F     		.sleb128 -72
 7559 120d 85150000 		.long	LVL327-Ltext0
 7560 1211 95150000 		.long	LFE22-Ltext0
 7561 1215 0300     		.word	0x3
GAS LISTING /cygdrive/c/Users/THESCI~1/AppData/Local/Temp/ccH1olGy.s 			page 192


 7562 1217 75       		.byte	0x75
 7563 1218 B87F     		.sleb128 -72
 7564 121a 00000000 		.long	0x0
 7565 121e 00000000 		.long	0x0
 7566              	LLST66:
 7567 1222 6E120000 		.long	LVL285-Ltext0
 7568 1226 7B120000 		.long	LVL289-Ltext0
 7569 122a 0300     		.word	0x3
 7570 122c 75       		.byte	0x75
 7571 122d BC7F     		.sleb128 -68
 7572 122f D2120000 		.long	LVL292-Ltext0
 7573 1233 F7120000 		.long	LVL295-Ltext0
 7574 1237 0300     		.word	0x3
 7575 1239 75       		.byte	0x75
 7576 123a BC7F     		.sleb128 -68
 7577 123c 61130000 		.long	LVL298-Ltext0
 7578 1240 76150000 		.long	LVL326-Ltext0
 7579 1244 0300     		.word	0x3
 7580 1246 75       		.byte	0x75
 7581 1247 BC7F     		.sleb128 -68
 7582 1249 85150000 		.long	LVL327-Ltext0
 7583 124d 95150000 		.long	LFE22-Ltext0
 7584 1251 0300     		.word	0x3
 7585 1253 75       		.byte	0x75
 7586 1254 BC7F     		.sleb128 -68
 7587 1256 00000000 		.long	0x0
 7588 125a 00000000 		.long	0x0
 7589              	LLST67:
 7590 125e 6E120000 		.long	LVL285-Ltext0
 7591 1262 7B120000 		.long	LVL289-Ltext0
 7592 1266 0200     		.word	0x2
 7593 1268 75       		.byte	0x75
 7594 1269 40       		.sleb128 -64
 7595 126a D2120000 		.long	LVL292-Ltext0
 7596 126e F7120000 		.long	LVL295-Ltext0
 7597 1272 0200     		.word	0x2
 7598 1274 75       		.byte	0x75
 7599 1275 40       		.sleb128 -64
 7600 1276 68130000 		.long	LVL299-Ltext0
 7601 127a 76150000 		.long	LVL326-Ltext0
 7602 127e 0200     		.word	0x2
 7603 1280 75       		.byte	0x75
 7604 1281 40       		.sleb128 -64
 7605 1282 85150000 		.long	LVL327-Ltext0
 7606 1286 95150000 		.long	LFE22-Ltext0
 7607 128a 0200     		.word	0x2
 7608 128c 75       		.byte	0x75
 7609 128d 40       		.sleb128 -64
 7610 128e 00000000 		.long	0x0
 7611 1292 00000000 		.long	0x0
 7612              	LLST68:
 7613 1296 6E120000 		.long	LVL285-Ltext0
 7614 129a 7B120000 		.long	LVL289-Ltext0
 7615 129e 0200     		.word	0x2
 7616 12a0 75       		.byte	0x75
 7617 12a1 44       		.sleb128 -60
 7618 12a2 D2120000 		.long	LVL292-Ltext0
GAS LISTING /cygdrive/c/Users/THESCI~1/AppData/Local/Temp/ccH1olGy.s 			page 193


 7619 12a6 F7120000 		.long	LVL295-Ltext0
 7620 12aa 0200     		.word	0x2
 7621 12ac 75       		.byte	0x75
 7622 12ad 44       		.sleb128 -60
 7623 12ae 6F130000 		.long	LVL300-Ltext0
 7624 12b2 76150000 		.long	LVL326-Ltext0
 7625 12b6 0200     		.word	0x2
 7626 12b8 75       		.byte	0x75
 7627 12b9 44       		.sleb128 -60
 7628 12ba 85150000 		.long	LVL327-Ltext0
 7629 12be 95150000 		.long	LFE22-Ltext0
 7630 12c2 0200     		.word	0x2
 7631 12c4 75       		.byte	0x75
 7632 12c5 44       		.sleb128 -60
 7633 12c6 00000000 		.long	0x0
 7634 12ca 00000000 		.long	0x0
 7635              	LLST69:
 7636 12ce 6E120000 		.long	LVL285-Ltext0
 7637 12d2 7B120000 		.long	LVL289-Ltext0
 7638 12d6 0200     		.word	0x2
 7639 12d8 75       		.byte	0x75
 7640 12d9 48       		.sleb128 -56
 7641 12da D2120000 		.long	LVL292-Ltext0
 7642 12de F7120000 		.long	LVL295-Ltext0
 7643 12e2 0200     		.word	0x2
 7644 12e4 75       		.byte	0x75
 7645 12e5 48       		.sleb128 -56
 7646 12e6 5A130000 		.long	LVL297-Ltext0
 7647 12ea 76150000 		.long	LVL326-Ltext0
 7648 12ee 0200     		.word	0x2
 7649 12f0 75       		.byte	0x75
 7650 12f1 48       		.sleb128 -56
 7651 12f2 85150000 		.long	LVL327-Ltext0
 7652 12f6 95150000 		.long	LFE22-Ltext0
 7653 12fa 0200     		.word	0x2
 7654 12fc 75       		.byte	0x75
 7655 12fd 48       		.sleb128 -56
 7656 12fe 00000000 		.long	0x0
 7657 1302 00000000 		.long	0x0
 7658              	LLST70:
 7659 1306 6E120000 		.long	LVL285-Ltext0
 7660 130a 7B120000 		.long	LVL289-Ltext0
 7661 130e 0200     		.word	0x2
 7662 1310 75       		.byte	0x75
 7663 1311 4C       		.sleb128 -52
 7664 1312 D2120000 		.long	LVL292-Ltext0
 7665 1316 F7120000 		.long	LVL295-Ltext0
 7666 131a 0200     		.word	0x2
 7667 131c 75       		.byte	0x75
 7668 131d 4C       		.sleb128 -52
 7669 131e 71140000 		.long	LVL312-Ltext0
 7670 1322 D6140000 		.long	LVL319-Ltext0
 7671 1326 0200     		.word	0x2
 7672 1328 75       		.byte	0x75
 7673 1329 5C       		.sleb128 -36
 7674 132a D6140000 		.long	LVL319-Ltext0
 7675 132e 76150000 		.long	LVL326-Ltext0
GAS LISTING /cygdrive/c/Users/THESCI~1/AppData/Local/Temp/ccH1olGy.s 			page 194


 7676 1332 0200     		.word	0x2
 7677 1334 75       		.byte	0x75
 7678 1335 4C       		.sleb128 -52
 7679 1336 00000000 		.long	0x0
 7680 133a 00000000 		.long	0x0
 7681              	LLST71:
 7682 133e 6E120000 		.long	LVL285-Ltext0
 7683 1342 7B120000 		.long	LVL289-Ltext0
 7684 1346 0200     		.word	0x2
 7685 1348 75       		.byte	0x75
 7686 1349 60       		.sleb128 -32
 7687 134a D2120000 		.long	LVL292-Ltext0
 7688 134e F7120000 		.long	LVL295-Ltext0
 7689 1352 0200     		.word	0x2
 7690 1354 75       		.byte	0x75
 7691 1355 60       		.sleb128 -32
 7692 1356 75140000 		.long	LVL313-Ltext0
 7693 135a DE140000 		.long	LVL320-Ltext0
 7694 135e 0200     		.word	0x2
 7695 1360 75       		.byte	0x75
 7696 1361 50       		.sleb128 -48
 7697 1362 DE140000 		.long	LVL320-Ltext0
 7698 1366 76150000 		.long	LVL326-Ltext0
 7699 136a 0200     		.word	0x2
 7700 136c 75       		.byte	0x75
 7701 136d 60       		.sleb128 -32
 7702 136e 00000000 		.long	0x0
 7703 1372 00000000 		.long	0x0
 7704              	LLST72:
 7705 1376 31140000 		.long	LVL309-Ltext0
 7706 137a 6A140000 		.long	LVL311-Ltext0
 7707 137e 0100     		.word	0x1
 7708 1380 53       		.byte	0x53
 7709 1381 00000000 		.long	0x0
 7710 1385 00000000 		.long	0x0
 7711              	LLST73:
 7712 1389 6E120000 		.long	LVL285-Ltext0
 7713 138d 7B120000 		.long	LVL289-Ltext0
 7714 1391 0100     		.word	0x1
 7715 1393 52       		.byte	0x52
 7716 1394 D2120000 		.long	LVL292-Ltext0
 7717 1398 F7120000 		.long	LVL295-Ltext0
 7718 139c 0100     		.word	0x1
 7719 139e 52       		.byte	0x52
 7720 139f 56140000 		.long	LVL310-Ltext0
 7721 13a3 78140000 		.long	LVL314-Ltext0
 7722 13a7 0100     		.word	0x1
 7723 13a9 52       		.byte	0x52
 7724 13aa C3140000 		.long	LVL318-Ltext0
 7725 13ae 03150000 		.long	LVL322-Ltext0
 7726 13b2 0100     		.word	0x1
 7727 13b4 52       		.byte	0x52
 7728 13b5 48150000 		.long	LVL324-Ltext0
 7729 13b9 53150000 		.long	LVL325-Ltext0
 7730 13bd 0100     		.word	0x1
 7731 13bf 52       		.byte	0x52
 7732 13c0 00000000 		.long	0x0
GAS LISTING /cygdrive/c/Users/THESCI~1/AppData/Local/Temp/ccH1olGy.s 			page 195


 7733 13c4 00000000 		.long	0x0
 7734              	LLST74:
 7735 13c8 A0150000 		.long	LFB12-Ltext0
 7736 13cc A1150000 		.long	LCFI60-Ltext0
 7737 13d0 0200     		.word	0x2
 7738 13d2 74       		.byte	0x74
 7739 13d3 04       		.sleb128 4
 7740 13d4 A1150000 		.long	LCFI60-Ltext0
 7741 13d8 A3150000 		.long	LCFI61-Ltext0
 7742 13dc 0200     		.word	0x2
 7743 13de 74       		.byte	0x74
 7744 13df 08       		.sleb128 8
 7745 13e0 A3150000 		.long	LCFI61-Ltext0
 7746 13e4 5B1A0000 		.long	LFE12-Ltext0
 7747 13e8 0200     		.word	0x2
 7748 13ea 75       		.byte	0x75
 7749 13eb 08       		.sleb128 8
 7750 13ec 00000000 		.long	0x0
 7751 13f0 00000000 		.long	0x0
 7752              	LLST75:
 7753 13f4 A0150000 		.long	LVL328-Ltext0
 7754 13f8 B6150000 		.long	LVL329-Ltext0
 7755 13fc 0200     		.word	0x2
 7756 13fe 91       		.byte	0x91
 7757 13ff 00       		.sleb128 0
 7758 1400 B6150000 		.long	LVL329-Ltext0
 7759 1404 C7150000 		.long	LVL331-Ltext0
 7760 1408 0100     		.word	0x1
 7761 140a 51       		.byte	0x51
 7762 140b C7150000 		.long	LVL331-Ltext0
 7763 140f D6150000 		.long	LVL334-Ltext0
 7764 1413 0200     		.word	0x2
 7765 1415 75       		.byte	0x75
 7766 1416 08       		.sleb128 8
 7767 1417 D6150000 		.long	LVL334-Ltext0
 7768 141b D3170000 		.long	LVL372-Ltext0
 7769 141f 0100     		.word	0x1
 7770 1421 51       		.byte	0x51
 7771 1422 D3170000 		.long	LVL372-Ltext0
 7772 1426 E4170000 		.long	LVL373-Ltext0
 7773 142a 0200     		.word	0x2
 7774 142c 75       		.byte	0x75
 7775 142d 08       		.sleb128 8
 7776 142e E4170000 		.long	LVL373-Ltext0
 7777 1432 21190000 		.long	LVL386-Ltext0
 7778 1436 0100     		.word	0x1
 7779 1438 51       		.byte	0x51
 7780 1439 21190000 		.long	LVL386-Ltext0
 7781 143d 2D190000 		.long	LVL388-Ltext0
 7782 1441 0200     		.word	0x2
 7783 1443 75       		.byte	0x75
 7784 1444 08       		.sleb128 8
 7785 1445 2D190000 		.long	LVL388-Ltext0
 7786 1449 301A0000 		.long	LVL416-Ltext0
 7787 144d 0100     		.word	0x1
 7788 144f 51       		.byte	0x51
 7789 1450 301A0000 		.long	LVL416-Ltext0
GAS LISTING /cygdrive/c/Users/THESCI~1/AppData/Local/Temp/ccH1olGy.s 			page 196


 7790 1454 401A0000 		.long	LVL417-Ltext0
 7791 1458 0200     		.word	0x2
 7792 145a 75       		.byte	0x75
 7793 145b 08       		.sleb128 8
 7794 145c 401A0000 		.long	LVL417-Ltext0
 7795 1460 4B1A0000 		.long	LVL419-Ltext0
 7796 1464 0100     		.word	0x1
 7797 1466 51       		.byte	0x51
 7798 1467 4B1A0000 		.long	LVL419-Ltext0
 7799 146b 5B1A0000 		.long	LFE12-Ltext0
 7800 146f 0200     		.word	0x2
 7801 1471 75       		.byte	0x75
 7802 1472 08       		.sleb128 8
 7803 1473 00000000 		.long	0x0
 7804 1477 00000000 		.long	0x0
 7805              	LLST76:
 7806 147b A0150000 		.long	LVL328-Ltext0
 7807 147f E7150000 		.long	LVL335-Ltext0
 7808 1483 0200     		.word	0x2
 7809 1485 91       		.byte	0x91
 7810 1486 04       		.sleb128 4
 7811 1487 E7150000 		.long	LVL335-Ltext0
 7812 148b 21160000 		.long	LVL339-Ltext0
 7813 148f 0200     		.word	0x2
 7814 1491 75       		.byte	0x75
 7815 1492 0C       		.sleb128 12
 7816 1493 21160000 		.long	LVL339-Ltext0
 7817 1497 28160000 		.long	LVL340-Ltext0
 7818 149b 0200     		.word	0x2
 7819 149d 91       		.byte	0x91
 7820 149e 04       		.sleb128 4
 7821 149f 28160000 		.long	LVL340-Ltext0
 7822 14a3 5B1A0000 		.long	LFE12-Ltext0
 7823 14a7 0200     		.word	0x2
 7824 14a9 75       		.byte	0x75
 7825 14aa 0C       		.sleb128 12
 7826 14ab 00000000 		.long	0x0
 7827 14af 00000000 		.long	0x0
 7828              	LLST77:
 7829 14b3 A0150000 		.long	LVL328-Ltext0
 7830 14b7 BD150000 		.long	LVL330-Ltext0
 7831 14bb 0200     		.word	0x2
 7832 14bd 91       		.byte	0x91
 7833 14be 08       		.sleb128 8
 7834 14bf BD150000 		.long	LVL330-Ltext0
 7835 14c3 C7150000 		.long	LVL331-Ltext0
 7836 14c7 0200     		.word	0x2
 7837 14c9 75       		.byte	0x75
 7838 14ca 10       		.sleb128 16
 7839 14cb C7150000 		.long	LVL331-Ltext0
 7840 14cf D6150000 		.long	LVL334-Ltext0
 7841 14d3 0200     		.word	0x2
 7842 14d5 91       		.byte	0x91
 7843 14d6 08       		.sleb128 8
 7844 14d7 D6150000 		.long	LVL334-Ltext0
 7845 14db 21160000 		.long	LVL339-Ltext0
 7846 14df 0200     		.word	0x2
GAS LISTING /cygdrive/c/Users/THESCI~1/AppData/Local/Temp/ccH1olGy.s 			page 197


 7847 14e1 75       		.byte	0x75
 7848 14e2 10       		.sleb128 16
 7849 14e3 21160000 		.long	LVL339-Ltext0
 7850 14e7 28160000 		.long	LVL340-Ltext0
 7851 14eb 0200     		.word	0x2
 7852 14ed 91       		.byte	0x91
 7853 14ee 08       		.sleb128 8
 7854 14ef 28160000 		.long	LVL340-Ltext0
 7855 14f3 5B1A0000 		.long	LFE12-Ltext0
 7856 14f7 0200     		.word	0x2
 7857 14f9 75       		.byte	0x75
 7858 14fa 10       		.sleb128 16
 7859 14fb 00000000 		.long	0x0
 7860 14ff 00000000 		.long	0x0
 7861              	LLST78:
 7862 1503 C7150000 		.long	LVL331-Ltext0
 7863 1507 D6150000 		.long	LVL334-Ltext0
 7864 150b 0200     		.word	0x2
 7865 150d 75       		.byte	0x75
 7866 150e 5C       		.sleb128 -36
 7867 150f 18160000 		.long	LVL337-Ltext0
 7868 1513 21160000 		.long	LVL339-Ltext0
 7869 1517 0100     		.word	0x1
 7870 1519 53       		.byte	0x53
 7871 151a 33160000 		.long	LVL342-Ltext0
 7872 151e 44160000 		.long	LVL345-Ltext0
 7873 1522 0200     		.word	0x2
 7874 1524 75       		.byte	0x75
 7875 1525 5C       		.sleb128 -36
 7876 1526 44160000 		.long	LVL345-Ltext0
 7877 152a 4B160000 		.long	LVL347-Ltext0
 7878 152e 0100     		.word	0x1
 7879 1530 53       		.byte	0x53
 7880 1531 4B160000 		.long	LVL347-Ltext0
 7881 1535 D8160000 		.long	LVL350-Ltext0
 7882 1539 0200     		.word	0x2
 7883 153b 75       		.byte	0x75
 7884 153c 5C       		.sleb128 -36
 7885 153d E4160000 		.long	LVL352-Ltext0
 7886 1541 F2160000 		.long	LVL354-Ltext0
 7887 1545 0200     		.word	0x2
 7888 1547 75       		.byte	0x75
 7889 1548 5C       		.sleb128 -36
 7890 1549 17170000 		.long	LVL355-Ltext0
 7891 154d 1C170000 		.long	LVL356-Ltext0
 7892 1551 0200     		.word	0x2
 7893 1553 75       		.byte	0x75
 7894 1554 6C       		.sleb128 -20
 7895 1555 1C170000 		.long	LVL356-Ltext0
 7896 1559 21170000 		.long	LVL357-Ltext0
 7897 155d 0100     		.word	0x1
 7898 155f 53       		.byte	0x53
 7899 1560 21170000 		.long	LVL357-Ltext0
 7900 1564 28170000 		.long	LVL358-Ltext0
 7901 1568 0100     		.word	0x1
 7902 156a 57       		.byte	0x57
 7903 156b 28170000 		.long	LVL358-Ltext0
GAS LISTING /cygdrive/c/Users/THESCI~1/AppData/Local/Temp/ccH1olGy.s 			page 198


 7904 156f 2D170000 		.long	LVL359-Ltext0
 7905 1573 0200     		.word	0x2
 7906 1575 75       		.byte	0x75
 7907 1576 60       		.sleb128 -32
 7908 1577 2D170000 		.long	LVL359-Ltext0
 7909 157b 34170000 		.long	LVL360-Ltext0
 7910 157f 0100     		.word	0x1
 7911 1581 52       		.byte	0x52
 7912 1582 34170000 		.long	LVL360-Ltext0
 7913 1586 3B170000 		.long	LVL361-Ltext0
 7914 158a 0200     		.word	0x2
 7915 158c 75       		.byte	0x75
 7916 158d 68       		.sleb128 -24
 7917 158e 3B170000 		.long	LVL361-Ltext0
 7918 1592 42170000 		.long	LVL362-Ltext0
 7919 1596 0200     		.word	0x2
 7920 1598 75       		.byte	0x75
 7921 1599 64       		.sleb128 -28
 7922 159a 42170000 		.long	LVL362-Ltext0
 7923 159e 49170000 		.long	LVL363-Ltext0
 7924 15a2 0200     		.word	0x2
 7925 15a4 75       		.byte	0x75
 7926 15a5 70       		.sleb128 -16
 7927 15a6 49170000 		.long	LVL363-Ltext0
 7928 15aa 3C190000 		.long	LVL389-Ltext0
 7929 15ae 0200     		.word	0x2
 7930 15b0 75       		.byte	0x75
 7931 15b1 5C       		.sleb128 -36
 7932 15b2 43190000 		.long	LVL390-Ltext0
 7933 15b6 48190000 		.long	LVL391-Ltext0
 7934 15ba 0200     		.word	0x2
 7935 15bc 75       		.byte	0x75
 7936 15bd 6C       		.sleb128 -20
 7937 15be 48190000 		.long	LVL391-Ltext0
 7938 15c2 4D190000 		.long	LVL392-Ltext0
 7939 15c6 0100     		.word	0x1
 7940 15c8 53       		.byte	0x53
 7941 15c9 4D190000 		.long	LVL392-Ltext0
 7942 15cd 54190000 		.long	LVL393-Ltext0
 7943 15d1 0100     		.word	0x1
 7944 15d3 57       		.byte	0x57
 7945 15d4 54190000 		.long	LVL393-Ltext0
 7946 15d8 59190000 		.long	LVL394-Ltext0
 7947 15dc 0200     		.word	0x2
 7948 15de 75       		.byte	0x75
 7949 15df 60       		.sleb128 -32
 7950 15e0 59190000 		.long	LVL394-Ltext0
 7951 15e4 60190000 		.long	LVL395-Ltext0
 7952 15e8 0100     		.word	0x1
 7953 15ea 52       		.byte	0x52
 7954 15eb 60190000 		.long	LVL395-Ltext0
 7955 15ef 67190000 		.long	LVL396-Ltext0
 7956 15f3 0200     		.word	0x2
 7957 15f5 75       		.byte	0x75
 7958 15f6 68       		.sleb128 -24
 7959 15f7 67190000 		.long	LVL396-Ltext0
 7960 15fb 6E190000 		.long	LVL397-Ltext0
GAS LISTING /cygdrive/c/Users/THESCI~1/AppData/Local/Temp/ccH1olGy.s 			page 199


 7961 15ff 0200     		.word	0x2
 7962 1601 75       		.byte	0x75
 7963 1602 64       		.sleb128 -28
 7964 1603 6E190000 		.long	LVL397-Ltext0
 7965 1607 75190000 		.long	LVL398-Ltext0
 7966 160b 0200     		.word	0x2
 7967 160d 75       		.byte	0x75
 7968 160e 70       		.sleb128 -16
 7969 160f 75190000 		.long	LVL398-Ltext0
 7970 1613 7A190000 		.long	LVL399-Ltext0
 7971 1617 0200     		.word	0x2
 7972 1619 75       		.byte	0x75
 7973 161a 5C       		.sleb128 -36
 7974 161b 81190000 		.long	LVL400-Ltext0
 7975 161f 86190000 		.long	LVL401-Ltext0
 7976 1623 0200     		.word	0x2
 7977 1625 75       		.byte	0x75
 7978 1626 6C       		.sleb128 -20
 7979 1627 86190000 		.long	LVL401-Ltext0
 7980 162b 8B190000 		.long	LVL402-Ltext0
 7981 162f 0100     		.word	0x1
 7982 1631 53       		.byte	0x53
 7983 1632 8B190000 		.long	LVL402-Ltext0
 7984 1636 92190000 		.long	LVL403-Ltext0
 7985 163a 0100     		.word	0x1
 7986 163c 57       		.byte	0x57
 7987 163d 92190000 		.long	LVL403-Ltext0
 7988 1641 97190000 		.long	LVL404-Ltext0
 7989 1645 0200     		.word	0x2
 7990 1647 75       		.byte	0x75
 7991 1648 60       		.sleb128 -32
 7992 1649 97190000 		.long	LVL404-Ltext0
 7993 164d 9E190000 		.long	LVL405-Ltext0
 7994 1651 0100     		.word	0x1
 7995 1653 52       		.byte	0x52
 7996 1654 9E190000 		.long	LVL405-Ltext0
 7997 1658 A5190000 		.long	LVL406-Ltext0
 7998 165c 0200     		.word	0x2
 7999 165e 75       		.byte	0x75
 8000 165f 68       		.sleb128 -24
 8001 1660 A5190000 		.long	LVL406-Ltext0
 8002 1664 AC190000 		.long	LVL407-Ltext0
 8003 1668 0200     		.word	0x2
 8004 166a 75       		.byte	0x75
 8005 166b 64       		.sleb128 -28
 8006 166c AC190000 		.long	LVL407-Ltext0
 8007 1670 B3190000 		.long	LVL408-Ltext0
 8008 1674 0200     		.word	0x2
 8009 1676 75       		.byte	0x75
 8010 1677 70       		.sleb128 -16
 8011 1678 B3190000 		.long	LVL408-Ltext0
 8012 167c 5B1A0000 		.long	LFE12-Ltext0
 8013 1680 0200     		.word	0x2
 8014 1682 75       		.byte	0x75
 8015 1683 5C       		.sleb128 -36
 8016 1684 00000000 		.long	0x0
 8017 1688 00000000 		.long	0x0
GAS LISTING /cygdrive/c/Users/THESCI~1/AppData/Local/Temp/ccH1olGy.s 			page 200


 8018              	LLST79:
 8019 168c 33160000 		.long	LVL342-Ltext0
 8020 1690 36160000 		.long	LVL343-Ltext0
 8021 1694 0100     		.word	0x1
 8022 1696 52       		.byte	0x52
 8023 1697 47160000 		.long	LVL346-Ltext0
 8024 169b CD160000 		.long	LVL349-Ltext0
 8025 169f 0100     		.word	0x1
 8026 16a1 52       		.byte	0x52
 8027 16a2 E4160000 		.long	LVL352-Ltext0
 8028 16a6 E9160000 		.long	LVL353-Ltext0
 8029 16aa 0100     		.word	0x1
 8030 16ac 52       		.byte	0x52
 8031 16ad A0170000 		.long	LVL368-Ltext0
 8032 16b1 B8170000 		.long	LVL369-Ltext0
 8033 16b5 0100     		.word	0x1
 8034 16b7 52       		.byte	0x52
 8035 16b8 BD170000 		.long	LVL370-Ltext0
 8036 16bc CB170000 		.long	LVL371-Ltext0
 8037 16c0 0100     		.word	0x1
 8038 16c2 52       		.byte	0x52
 8039 16c3 E4170000 		.long	LVL373-Ltext0
 8040 16c7 EF170000 		.long	LVL374-Ltext0
 8041 16cb 0100     		.word	0x1
 8042 16cd 52       		.byte	0x52
 8043 16ce 06180000 		.long	LVL375-Ltext0
 8044 16d2 1B180000 		.long	LVL376-Ltext0
 8045 16d6 0100     		.word	0x1
 8046 16d8 52       		.byte	0x52
 8047 16d9 31180000 		.long	LVL377-Ltext0
 8048 16dd A1180000 		.long	LVL378-Ltext0
 8049 16e1 0100     		.word	0x1
 8050 16e3 52       		.byte	0x52
 8051 16e4 B5180000 		.long	LVL379-Ltext0
 8052 16e8 B8180000 		.long	LVL380-Ltext0
 8053 16ec 0100     		.word	0x1
 8054 16ee 52       		.byte	0x52
 8055 16ef D1180000 		.long	LVL381-Ltext0
 8056 16f3 D4180000 		.long	LVL382-Ltext0
 8057 16f7 0100     		.word	0x1
 8058 16f9 52       		.byte	0x52
 8059 16fa EB180000 		.long	LVL383-Ltext0
 8060 16fe F3180000 		.long	LVL384-Ltext0
 8061 1702 0100     		.word	0x1
 8062 1704 52       		.byte	0x52
 8063 1705 09190000 		.long	LVL385-Ltext0
 8064 1709 23190000 		.long	LVL387-Ltext0
 8065 170d 0100     		.word	0x1
 8066 170f 52       		.byte	0x52
 8067 1710 2D190000 		.long	LVL388-Ltext0
 8068 1714 3C190000 		.long	LVL389-Ltext0
 8069 1718 0100     		.word	0x1
 8070 171a 52       		.byte	0x52
 8071 171b E8190000 		.long	LVL412-Ltext0
 8072 171f 011A0000 		.long	LVL413-Ltext0
 8073 1723 0100     		.word	0x1
 8074 1725 52       		.byte	0x52
GAS LISTING /cygdrive/c/Users/THESCI~1/AppData/Local/Temp/ccH1olGy.s 			page 201


 8075 1726 121A0000 		.long	LVL414-Ltext0
 8076 172a 281A0000 		.long	LVL415-Ltext0
 8077 172e 0100     		.word	0x1
 8078 1730 52       		.byte	0x52
 8079 1731 401A0000 		.long	LVL417-Ltext0
 8080 1735 431A0000 		.long	LVL418-Ltext0
 8081 1739 0100     		.word	0x1
 8082 173b 52       		.byte	0x52
 8083 173c 00000000 		.long	0x0
 8084 1740 00000000 		.long	0x0
 8085              	LLST80:
 8086 1744 C7150000 		.long	LVL331-Ltext0
 8087 1748 CF150000 		.long	LVL333-Ltext0
 8088 174c 0100     		.word	0x1
 8089 174e 56       		.byte	0x56
 8090 174f 13160000 		.long	LVL336-Ltext0
 8091 1753 21160000 		.long	LVL339-Ltext0
 8092 1757 0100     		.word	0x1
 8093 1759 56       		.byte	0x56
 8094 175a 44160000 		.long	LVL345-Ltext0
 8095 175e 58160000 		.long	LVL348-Ltext0
 8096 1762 0100     		.word	0x1
 8097 1764 56       		.byte	0x56
 8098 1765 00000000 		.long	0x0
 8099 1769 00000000 		.long	0x0
 8100              	LLST81:
 8101 176d C7150000 		.long	LVL331-Ltext0
 8102 1771 CA150000 		.long	LVL332-Ltext0
 8103 1775 0100     		.word	0x1
 8104 1777 53       		.byte	0x53
 8105 1778 2B160000 		.long	LVL341-Ltext0
 8106 177c 3F160000 		.long	LVL344-Ltext0
 8107 1780 0100     		.word	0x1
 8108 1782 53       		.byte	0x53
 8109 1783 4B160000 		.long	LVL347-Ltext0
 8110 1787 D8160000 		.long	LVL350-Ltext0
 8111 178b 0100     		.word	0x1
 8112 178d 53       		.byte	0x53
 8113 178e DB160000 		.long	LVL351-Ltext0
 8114 1792 F2160000 		.long	LVL354-Ltext0
 8115 1796 0100     		.word	0x1
 8116 1798 53       		.byte	0x53
 8117 1799 9E170000 		.long	LVL367-Ltext0
 8118 179d 3C190000 		.long	LVL389-Ltext0
 8119 17a1 0100     		.word	0x1
 8120 17a3 53       		.byte	0x53
 8121 17a4 E8190000 		.long	LVL412-Ltext0
 8122 17a8 5B1A0000 		.long	LFE12-Ltext0
 8123 17ac 0100     		.word	0x1
 8124 17ae 53       		.byte	0x53
 8125 17af 00000000 		.long	0x0
 8126 17b3 00000000 		.long	0x0
 8127              	LLST82:
 8128 17b7 601A0000 		.long	LFB14-Ltext0
 8129 17bb 611A0000 		.long	LCFI66-Ltext0
 8130 17bf 0200     		.word	0x2
 8131 17c1 74       		.byte	0x74
GAS LISTING /cygdrive/c/Users/THESCI~1/AppData/Local/Temp/ccH1olGy.s 			page 202


 8132 17c2 04       		.sleb128 4
 8133 17c3 611A0000 		.long	LCFI66-Ltext0
 8134 17c7 631A0000 		.long	LCFI67-Ltext0
 8135 17cb 0200     		.word	0x2
 8136 17cd 74       		.byte	0x74
 8137 17ce 08       		.sleb128 8
 8138 17cf 631A0000 		.long	LCFI67-Ltext0
 8139 17d3 881B0000 		.long	LFE14-Ltext0
 8140 17d7 0200     		.word	0x2
 8141 17d9 75       		.byte	0x75
 8142 17da 08       		.sleb128 8
 8143 17db 00000000 		.long	0x0
 8144 17df 00000000 		.long	0x0
 8145              	LLST83:
 8146 17e3 601A0000 		.long	LVL420-Ltext0
 8147 17e7 771A0000 		.long	LVL421-Ltext0
 8148 17eb 0200     		.word	0x2
 8149 17ed 91       		.byte	0x91
 8150 17ee 00       		.sleb128 0
 8151 17ef 771A0000 		.long	LVL421-Ltext0
 8152 17f3 921A0000 		.long	LVL426-Ltext0
 8153 17f7 0100     		.word	0x1
 8154 17f9 57       		.byte	0x57
 8155 17fa 921A0000 		.long	LVL426-Ltext0
 8156 17fe 941A0000 		.long	LVL427-Ltext0
 8157 1802 0200     		.word	0x2
 8158 1804 75       		.byte	0x75
 8159 1805 08       		.sleb128 8
 8160 1806 941A0000 		.long	LVL427-Ltext0
 8161 180a 711B0000 		.long	LVL439-Ltext0
 8162 180e 0100     		.word	0x1
 8163 1810 57       		.byte	0x57
 8164 1811 711B0000 		.long	LVL439-Ltext0
 8165 1815 731B0000 		.long	LVL440-Ltext0
 8166 1819 0200     		.word	0x2
 8167 181b 75       		.byte	0x75
 8168 181c 08       		.sleb128 8
 8169 181d 731B0000 		.long	LVL440-Ltext0
 8170 1821 881B0000 		.long	LFE14-Ltext0
 8171 1825 0100     		.word	0x1
 8172 1827 57       		.byte	0x57
 8173 1828 00000000 		.long	0x0
 8174 182c 00000000 		.long	0x0
 8175              	LLST84:
 8176 1830 601A0000 		.long	LVL420-Ltext0
 8177 1834 771A0000 		.long	LVL421-Ltext0
 8178 1838 0200     		.word	0x2
 8179 183a 91       		.byte	0x91
 8180 183b 04       		.sleb128 4
 8181 183c 771A0000 		.long	LVL421-Ltext0
 8182 1840 911A0000 		.long	LVL425-Ltext0
 8183 1844 0100     		.word	0x1
 8184 1846 56       		.byte	0x56
 8185 1847 911A0000 		.long	LVL425-Ltext0
 8186 184b 941A0000 		.long	LVL427-Ltext0
 8187 184f 0200     		.word	0x2
 8188 1851 75       		.byte	0x75
GAS LISTING /cygdrive/c/Users/THESCI~1/AppData/Local/Temp/ccH1olGy.s 			page 203


 8189 1852 0C       		.sleb128 12
 8190 1853 941A0000 		.long	LVL427-Ltext0
 8191 1857 701B0000 		.long	LVL438-Ltext0
 8192 185b 0100     		.word	0x1
 8193 185d 56       		.byte	0x56
 8194 185e 701B0000 		.long	LVL438-Ltext0
 8195 1862 731B0000 		.long	LVL440-Ltext0
 8196 1866 0200     		.word	0x2
 8197 1868 75       		.byte	0x75
 8198 1869 0C       		.sleb128 12
 8199 186a 731B0000 		.long	LVL440-Ltext0
 8200 186e 881B0000 		.long	LFE14-Ltext0
 8201 1872 0100     		.word	0x1
 8202 1874 56       		.byte	0x56
 8203 1875 00000000 		.long	0x0
 8204 1879 00000000 		.long	0x0
 8205              	LLST85:
 8206 187d 8A1A0000 		.long	LVL423-Ltext0
 8207 1881 901A0000 		.long	LVL424-Ltext0
 8208 1885 0100     		.word	0x1
 8209 1887 53       		.byte	0x53
 8210 1888 C01A0000 		.long	LVL429-Ltext0
 8211 188c 671B0000 		.long	LVL437-Ltext0
 8212 1890 0100     		.word	0x1
 8213 1892 53       		.byte	0x53
 8214 1893 00000000 		.long	0x0
 8215 1897 00000000 		.long	0x0
 8216              	LLST86:
 8217 189b 8A1A0000 		.long	LVL423-Ltext0
 8218 189f 941A0000 		.long	LVL427-Ltext0
 8219 18a3 0200     		.word	0x2
 8220 18a5 75       		.byte	0x75
 8221 18a6 60       		.sleb128 -32
 8222 18a7 B81A0000 		.long	LVL428-Ltext0
 8223 18ab 731B0000 		.long	LVL440-Ltext0
 8224 18af 0200     		.word	0x2
 8225 18b1 75       		.byte	0x75
 8226 18b2 60       		.sleb128 -32
 8227 18b3 00000000 		.long	0x0
 8228 18b7 00000000 		.long	0x0
 8229              	LLST87:
 8230 18bb 7E1A0000 		.long	LVL422-Ltext0
 8231 18bf C71A0000 		.long	LVL430-Ltext0
 8232 18c3 0100     		.word	0x1
 8233 18c5 52       		.byte	0x52
 8234 18c6 EE1A0000 		.long	LVL431-Ltext0
 8235 18ca F01A0000 		.long	LVL432-Ltext0
 8236 18ce 0100     		.word	0x1
 8237 18d0 50       		.byte	0x50
 8238 18d1 0F1B0000 		.long	LVL434-Ltext0
 8239 18d5 111B0000 		.long	LVL435-Ltext0
 8240 18d9 0100     		.word	0x1
 8241 18db 50       		.byte	0x50
 8242 18dc 671B0000 		.long	LVL437-Ltext0
 8243 18e0 731B0000 		.long	LVL440-Ltext0
 8244 18e4 0100     		.word	0x1
 8245 18e6 52       		.byte	0x52
GAS LISTING /cygdrive/c/Users/THESCI~1/AppData/Local/Temp/ccH1olGy.s 			page 204


 8246 18e7 831B0000 		.long	LVL441-Ltext0
 8247 18eb 881B0000 		.long	LFE14-Ltext0
 8248 18ef 0100     		.word	0x1
 8249 18f1 52       		.byte	0x52
 8250 18f2 00000000 		.long	0x0
 8251 18f6 00000000 		.long	0x0
 8252              	LLST88:
 8253 18fa 901B0000 		.long	LFB15-Ltext0
 8254 18fe 911B0000 		.long	LCFI72-Ltext0
 8255 1902 0200     		.word	0x2
 8256 1904 74       		.byte	0x74
 8257 1905 04       		.sleb128 4
 8258 1906 911B0000 		.long	LCFI72-Ltext0
 8259 190a 931B0000 		.long	LCFI73-Ltext0
 8260 190e 0200     		.word	0x2
 8261 1910 74       		.byte	0x74
 8262 1911 08       		.sleb128 8
 8263 1912 931B0000 		.long	LCFI73-Ltext0
 8264 1916 051E0000 		.long	LFE15-Ltext0
 8265 191a 0200     		.word	0x2
 8266 191c 75       		.byte	0x75
 8267 191d 08       		.sleb128 8
 8268 191e 00000000 		.long	0x0
 8269 1922 00000000 		.long	0x0
 8270              	LLST89:
 8271 1926 901B0000 		.long	LVL442-Ltext0
 8272 192a A71B0000 		.long	LVL443-Ltext0
 8273 192e 0200     		.word	0x2
 8274 1930 91       		.byte	0x91
 8275 1931 00       		.sleb128 0
 8276 1932 A71B0000 		.long	LVL443-Ltext0
 8277 1936 C21B0000 		.long	LVL448-Ltext0
 8278 193a 0100     		.word	0x1
 8279 193c 57       		.byte	0x57
 8280 193d C21B0000 		.long	LVL448-Ltext0
 8281 1941 C41B0000 		.long	LVL449-Ltext0
 8282 1945 0200     		.word	0x2
 8283 1947 75       		.byte	0x75
 8284 1948 08       		.sleb128 8
 8285 1949 C41B0000 		.long	LVL449-Ltext0
 8286 194d FA1C0000 		.long	LVL461-Ltext0
 8287 1951 0100     		.word	0x1
 8288 1953 57       		.byte	0x57
 8289 1954 FA1C0000 		.long	LVL461-Ltext0
 8290 1958 FC1C0000 		.long	LVL462-Ltext0
 8291 195c 0200     		.word	0x2
 8292 195e 75       		.byte	0x75
 8293 195f 08       		.sleb128 8
 8294 1960 FC1C0000 		.long	LVL462-Ltext0
 8295 1964 051E0000 		.long	LFE15-Ltext0
 8296 1968 0100     		.word	0x1
 8297 196a 57       		.byte	0x57
 8298 196b 00000000 		.long	0x0
 8299 196f 00000000 		.long	0x0
 8300              	LLST90:
 8301 1973 901B0000 		.long	LVL442-Ltext0
 8302 1977 A71B0000 		.long	LVL443-Ltext0
GAS LISTING /cygdrive/c/Users/THESCI~1/AppData/Local/Temp/ccH1olGy.s 			page 205


 8303 197b 0200     		.word	0x2
 8304 197d 91       		.byte	0x91
 8305 197e 04       		.sleb128 4
 8306 197f A71B0000 		.long	LVL443-Ltext0
 8307 1983 C11B0000 		.long	LVL447-Ltext0
 8308 1987 0100     		.word	0x1
 8309 1989 56       		.byte	0x56
 8310 198a C11B0000 		.long	LVL447-Ltext0
 8311 198e C41B0000 		.long	LVL449-Ltext0
 8312 1992 0200     		.word	0x2
 8313 1994 75       		.byte	0x75
 8314 1995 0C       		.sleb128 12
 8315 1996 C41B0000 		.long	LVL449-Ltext0
 8316 199a F91C0000 		.long	LVL460-Ltext0
 8317 199e 0100     		.word	0x1
 8318 19a0 56       		.byte	0x56
 8319 19a1 F91C0000 		.long	LVL460-Ltext0
 8320 19a5 FC1C0000 		.long	LVL462-Ltext0
 8321 19a9 0200     		.word	0x2
 8322 19ab 75       		.byte	0x75
 8323 19ac 0C       		.sleb128 12
 8324 19ad FC1C0000 		.long	LVL462-Ltext0
 8325 19b1 051E0000 		.long	LFE15-Ltext0
 8326 19b5 0100     		.word	0x1
 8327 19b7 56       		.byte	0x56
 8328 19b8 00000000 		.long	0x0
 8329 19bc 00000000 		.long	0x0
 8330              	LLST91:
 8331 19c0 BA1B0000 		.long	LVL445-Ltext0
 8332 19c4 C01B0000 		.long	LVL446-Ltext0
 8333 19c8 0100     		.word	0x1
 8334 19ca 53       		.byte	0x53
 8335 19cb 291C0000 		.long	LVL451-Ltext0
 8336 19cf E91C0000 		.long	LVL459-Ltext0
 8337 19d3 0100     		.word	0x1
 8338 19d5 53       		.byte	0x53
 8339 19d6 00000000 		.long	0x0
 8340 19da 00000000 		.long	0x0
 8341              	LLST92:
 8342 19de BA1B0000 		.long	LVL445-Ltext0
 8343 19e2 C41B0000 		.long	LVL449-Ltext0
 8344 19e6 0200     		.word	0x2
 8345 19e8 75       		.byte	0x75
 8346 19e9 54       		.sleb128 -44
 8347 19ea 211C0000 		.long	LVL450-Ltext0
 8348 19ee FC1C0000 		.long	LVL462-Ltext0
 8349 19f2 0200     		.word	0x2
 8350 19f4 75       		.byte	0x75
 8351 19f5 54       		.sleb128 -44
 8352 19f6 00000000 		.long	0x0
 8353 19fa 00000000 		.long	0x0
 8354              	LLST93:
 8355 19fe AE1B0000 		.long	LVL444-Ltext0
 8356 1a02 3B1C0000 		.long	LVL452-Ltext0
 8357 1a06 0100     		.word	0x1
 8358 1a08 52       		.byte	0x52
 8359 1a09 5F1C0000 		.long	LVL453-Ltext0
GAS LISTING /cygdrive/c/Users/THESCI~1/AppData/Local/Temp/ccH1olGy.s 			page 206


 8360 1a0d 611C0000 		.long	LVL454-Ltext0
 8361 1a11 0100     		.word	0x1
 8362 1a13 50       		.byte	0x50
 8363 1a14 881C0000 		.long	LVL456-Ltext0
 8364 1a18 8A1C0000 		.long	LVL457-Ltext0
 8365 1a1c 0100     		.word	0x1
 8366 1a1e 50       		.byte	0x50
 8367 1a1f E91C0000 		.long	LVL459-Ltext0
 8368 1a23 FC1C0000 		.long	LVL462-Ltext0
 8369 1a27 0100     		.word	0x1
 8370 1a29 52       		.byte	0x52
 8371 1a2a 101D0000 		.long	LVL463-Ltext0
 8372 1a2e 051E0000 		.long	LFE15-Ltext0
 8373 1a32 0100     		.word	0x1
 8374 1a34 52       		.byte	0x52
 8375 1a35 00000000 		.long	0x0
 8376 1a39 00000000 		.long	0x0
 8377              	LLST94:
 8378 1a3d 101E0000 		.long	LFB17-Ltext0
 8379 1a41 111E0000 		.long	LCFI78-Ltext0
 8380 1a45 0200     		.word	0x2
 8381 1a47 74       		.byte	0x74
 8382 1a48 04       		.sleb128 4
 8383 1a49 111E0000 		.long	LCFI78-Ltext0
 8384 1a4d 131E0000 		.long	LCFI79-Ltext0
 8385 1a51 0200     		.word	0x2
 8386 1a53 74       		.byte	0x74
 8387 1a54 08       		.sleb128 8
 8388 1a55 131E0000 		.long	LCFI79-Ltext0
 8389 1a59 15200000 		.long	LFE17-Ltext0
 8390 1a5d 0200     		.word	0x2
 8391 1a5f 75       		.byte	0x75
 8392 1a60 08       		.sleb128 8
 8393 1a61 00000000 		.long	0x0
 8394 1a65 00000000 		.long	0x0
 8395              	LLST95:
 8396 1a69 101E0000 		.long	LVL465-Ltext0
 8397 1a6d 451E0000 		.long	LVL473-Ltext0
 8398 1a71 0200     		.word	0x2
 8399 1a73 91       		.byte	0x91
 8400 1a74 00       		.sleb128 0
 8401 1a75 451E0000 		.long	LVL473-Ltext0
 8402 1a79 15200000 		.long	LFE17-Ltext0
 8403 1a7d 0200     		.word	0x2
 8404 1a7f 75       		.byte	0x75
 8405 1a80 08       		.sleb128 8
 8406 1a81 00000000 		.long	0x0
 8407 1a85 00000000 		.long	0x0
 8408              	LLST96:
 8409 1a89 101E0000 		.long	LVL465-Ltext0
 8410 1a8d 211E0000 		.long	LVL466-Ltext0
 8411 1a91 0200     		.word	0x2
 8412 1a93 91       		.byte	0x91
 8413 1a94 04       		.sleb128 4
 8414 1a95 211E0000 		.long	LVL466-Ltext0
 8415 1a99 2C1E0000 		.long	LVL468-Ltext0
 8416 1a9d 0100     		.word	0x1
GAS LISTING /cygdrive/c/Users/THESCI~1/AppData/Local/Temp/ccH1olGy.s 			page 207


 8417 1a9f 50       		.byte	0x50
 8418 1aa0 2C1E0000 		.long	LVL468-Ltext0
 8419 1aa4 371E0000 		.long	LVL471-Ltext0
 8420 1aa8 0200     		.word	0x2
 8421 1aaa 75       		.byte	0x75
 8422 1aab 0C       		.sleb128 12
 8423 1aac 371E0000 		.long	LVL471-Ltext0
 8424 1ab0 7B1E0000 		.long	LVL477-Ltext0
 8425 1ab4 0100     		.word	0x1
 8426 1ab6 50       		.byte	0x50
 8427 1ab7 7B1E0000 		.long	LVL477-Ltext0
 8428 1abb 3E1F0000 		.long	LVL485-Ltext0
 8429 1abf 0200     		.word	0x2
 8430 1ac1 75       		.byte	0x75
 8431 1ac2 0C       		.sleb128 12
 8432 1ac3 3E1F0000 		.long	LVL485-Ltext0
 8433 1ac7 521F0000 		.long	LVL487-Ltext0
 8434 1acb 0100     		.word	0x1
 8435 1acd 50       		.byte	0x50
 8436 1ace 521F0000 		.long	LVL487-Ltext0
 8437 1ad2 15200000 		.long	LFE17-Ltext0
 8438 1ad6 0200     		.word	0x2
 8439 1ad8 75       		.byte	0x75
 8440 1ad9 0C       		.sleb128 12
 8441 1ada 00000000 		.long	0x0
 8442 1ade 00000000 		.long	0x0
 8443              	LLST97:
 8444 1ae2 2C1E0000 		.long	LVL468-Ltext0
 8445 1ae6 341E0000 		.long	LVL470-Ltext0
 8446 1aea 0100     		.word	0x1
 8447 1aec 56       		.byte	0x56
 8448 1aed 6E1E0000 		.long	LVL476-Ltext0
 8449 1af1 3E1F0000 		.long	LVL485-Ltext0
 8450 1af5 0100     		.word	0x1
 8451 1af7 56       		.byte	0x56
 8452 1af8 4D1F0000 		.long	LVL486-Ltext0
 8453 1afc 15200000 		.long	LFE17-Ltext0
 8454 1b00 0100     		.word	0x1
 8455 1b02 56       		.byte	0x56
 8456 1b03 00000000 		.long	0x0
 8457 1b07 00000000 		.long	0x0
 8458              	LLST98:
 8459 1b0b 2C1E0000 		.long	LVL468-Ltext0
 8460 1b0f 371E0000 		.long	LVL471-Ltext0
 8461 1b13 0200     		.word	0x2
 8462 1b15 75       		.byte	0x75
 8463 1b16 50       		.sleb128 -48
 8464 1b17 641E0000 		.long	LVL475-Ltext0
 8465 1b1b 15200000 		.long	LFE17-Ltext0
 8466 1b1f 0200     		.word	0x2
 8467 1b21 75       		.byte	0x75
 8468 1b22 50       		.sleb128 -48
 8469 1b23 00000000 		.long	0x0
 8470 1b27 00000000 		.long	0x0
 8471              	LLST99:
 8472 1b2b 2C1E0000 		.long	LVL468-Ltext0
 8473 1b2f 331E0000 		.long	LVL469-Ltext0
GAS LISTING /cygdrive/c/Users/THESCI~1/AppData/Local/Temp/ccH1olGy.s 			page 208


 8474 1b33 0100     		.word	0x1
 8475 1b35 53       		.byte	0x53
 8476 1b36 991E0000 		.long	LVL478-Ltext0
 8477 1b3a 051F0000 		.long	LVL482-Ltext0
 8478 1b3e 0100     		.word	0x1
 8479 1b40 53       		.byte	0x53
 8480 1b41 521F0000 		.long	LVL487-Ltext0
 8481 1b45 641F0000 		.long	LVL488-Ltext0
 8482 1b49 0100     		.word	0x1
 8483 1b4b 53       		.byte	0x53
 8484 1b4c 9C1F0000 		.long	LVL490-Ltext0
 8485 1b50 15200000 		.long	LFE17-Ltext0
 8486 1b54 0100     		.word	0x1
 8487 1b56 53       		.byte	0x53
 8488 1b57 00000000 		.long	0x0
 8489 1b5b 00000000 		.long	0x0
 8490              	LLST100:
 8491 1b5f 20200000 		.long	LFB16-Ltext0
 8492 1b63 21200000 		.long	LCFI84-Ltext0
 8493 1b67 0200     		.word	0x2
 8494 1b69 74       		.byte	0x74
 8495 1b6a 04       		.sleb128 4
 8496 1b6b 21200000 		.long	LCFI84-Ltext0
 8497 1b6f 23200000 		.long	LCFI85-Ltext0
 8498 1b73 0200     		.word	0x2
 8499 1b75 74       		.byte	0x74
 8500 1b76 08       		.sleb128 8
 8501 1b77 23200000 		.long	LCFI85-Ltext0
 8502 1b7b 75230000 		.long	LFE16-Ltext0
 8503 1b7f 0200     		.word	0x2
 8504 1b81 75       		.byte	0x75
 8505 1b82 08       		.sleb128 8
 8506 1b83 00000000 		.long	0x0
 8507 1b87 00000000 		.long	0x0
 8508              	LLST101:
 8509 1b8b 20200000 		.long	LVL496-Ltext0
 8510 1b8f 5F200000 		.long	LVL499-Ltext0
 8511 1b93 0200     		.word	0x2
 8512 1b95 91       		.byte	0x91
 8513 1b96 00       		.sleb128 0
 8514 1b97 5F200000 		.long	LVL499-Ltext0
 8515 1b9b 6C200000 		.long	LVL500-Ltext0
 8516 1b9f 0200     		.word	0x2
 8517 1ba1 75       		.byte	0x75
 8518 1ba2 08       		.sleb128 8
 8519 1ba3 6C200000 		.long	LVL500-Ltext0
 8520 1ba7 76200000 		.long	LVL504-Ltext0
 8521 1bab 0200     		.word	0x2
 8522 1bad 91       		.byte	0x91
 8523 1bae 00       		.sleb128 0
 8524 1baf 76200000 		.long	LVL504-Ltext0
 8525 1bb3 75230000 		.long	LFE16-Ltext0
 8526 1bb7 0200     		.word	0x2
 8527 1bb9 75       		.byte	0x75
 8528 1bba 08       		.sleb128 8
 8529 1bbb 00000000 		.long	0x0
 8530 1bbf 00000000 		.long	0x0
GAS LISTING /cygdrive/c/Users/THESCI~1/AppData/Local/Temp/ccH1olGy.s 			page 209


 8531              	LLST102:
 8532 1bc3 20200000 		.long	LVL496-Ltext0
 8533 1bc7 32200000 		.long	LVL498-Ltext0
 8534 1bcb 0200     		.word	0x2
 8535 1bcd 91       		.byte	0x91
 8536 1bce 04       		.sleb128 4
 8537 1bcf 32200000 		.long	LVL498-Ltext0
 8538 1bd3 73200000 		.long	LVL502-Ltext0
 8539 1bd7 0100     		.word	0x1
 8540 1bd9 56       		.byte	0x56
 8541 1bda 73200000 		.long	LVL502-Ltext0
 8542 1bde 76200000 		.long	LVL504-Ltext0
 8543 1be2 0200     		.word	0x2
 8544 1be4 75       		.byte	0x75
 8545 1be5 0C       		.sleb128 12
 8546 1be6 76200000 		.long	LVL504-Ltext0
 8547 1bea D1210000 		.long	LVL523-Ltext0
 8548 1bee 0100     		.word	0x1
 8549 1bf0 56       		.byte	0x56
 8550 1bf1 D1210000 		.long	LVL523-Ltext0
 8551 1bf5 D4210000 		.long	LVL524-Ltext0
 8552 1bf9 0200     		.word	0x2
 8553 1bfb 75       		.byte	0x75
 8554 1bfc 0C       		.sleb128 12
 8555 1bfd D4210000 		.long	LVL524-Ltext0
 8556 1c01 75230000 		.long	LFE16-Ltext0
 8557 1c05 0100     		.word	0x1
 8558 1c07 56       		.byte	0x56
 8559 1c08 00000000 		.long	0x0
 8560 1c0c 00000000 		.long	0x0
 8561              	LLST103:
 8562 1c10 28200000 		.long	LVL497-Ltext0
 8563 1c14 72200000 		.long	LVL501-Ltext0
 8564 1c18 0100     		.word	0x1
 8565 1c1a 53       		.byte	0x53
 8566 1c1b 76200000 		.long	LVL504-Ltext0
 8567 1c1f A5200000 		.long	LVL507-Ltext0
 8568 1c23 0100     		.word	0x1
 8569 1c25 53       		.byte	0x53
 8570 1c26 01210000 		.long	LVL508-Ltext0
 8571 1c2a 21210000 		.long	LVL510-Ltext0
 8572 1c2e 0100     		.word	0x1
 8573 1c30 57       		.byte	0x57
 8574 1c31 21210000 		.long	LVL510-Ltext0
 8575 1c35 75210000 		.long	LVL515-Ltext0
 8576 1c39 0200     		.word	0x2
 8577 1c3b 75       		.byte	0x75
 8578 1c3c 4C       		.sleb128 -52
 8579 1c3d 75210000 		.long	LVL515-Ltext0
 8580 1c41 AD210000 		.long	LVL517-Ltext0
 8581 1c45 0100     		.word	0x1
 8582 1c47 53       		.byte	0x53
 8583 1c48 AD210000 		.long	LVL517-Ltext0
 8584 1c4c BD210000 		.long	LVL519-Ltext0
 8585 1c50 0200     		.word	0x2
 8586 1c52 75       		.byte	0x75
 8587 1c53 4C       		.sleb128 -52
GAS LISTING /cygdrive/c/Users/THESCI~1/AppData/Local/Temp/ccH1olGy.s 			page 210


 8588 1c54 C5210000 		.long	LVL520-Ltext0
 8589 1c58 CA210000 		.long	LVL521-Ltext0
 8590 1c5c 0100     		.word	0x1
 8591 1c5e 57       		.byte	0x57
 8592 1c5f CA210000 		.long	LVL521-Ltext0
 8593 1c63 D0210000 		.long	LVL522-Ltext0
 8594 1c67 0100     		.word	0x1
 8595 1c69 53       		.byte	0x53
 8596 1c6a D9210000 		.long	LVL525-Ltext0
 8597 1c6e E0210000 		.long	LVL526-Ltext0
 8598 1c72 0100     		.word	0x1
 8599 1c74 57       		.byte	0x57
 8600 1c75 E0210000 		.long	LVL526-Ltext0
 8601 1c79 F0210000 		.long	LVL527-Ltext0
 8602 1c7d 0100     		.word	0x1
 8603 1c7f 53       		.byte	0x53
 8604 1c80 12220000 		.long	LVL528-Ltext0
 8605 1c84 17220000 		.long	LVL529-Ltext0
 8606 1c88 0200     		.word	0x2
 8607 1c8a 75       		.byte	0x75
 8608 1c8b 40       		.sleb128 -64
 8609 1c8c 17220000 		.long	LVL529-Ltext0
 8610 1c90 1C220000 		.long	LVL530-Ltext0
 8611 1c94 0100     		.word	0x1
 8612 1c96 57       		.byte	0x57
 8613 1c97 1C220000 		.long	LVL530-Ltext0
 8614 1c9b 23220000 		.long	LVL531-Ltext0
 8615 1c9f 0100     		.word	0x1
 8616 1ca1 51       		.byte	0x51
 8617 1ca2 23220000 		.long	LVL531-Ltext0
 8618 1ca6 28220000 		.long	LVL532-Ltext0
 8619 1caa 0200     		.word	0x2
 8620 1cac 75       		.byte	0x75
 8621 1cad 44       		.sleb128 -60
 8622 1cae 28220000 		.long	LVL532-Ltext0
 8623 1cb2 2F220000 		.long	LVL533-Ltext0
 8624 1cb6 0100     		.word	0x1
 8625 1cb8 52       		.byte	0x52
 8626 1cb9 2F220000 		.long	LVL533-Ltext0
 8627 1cbd 36220000 		.long	LVL534-Ltext0
 8628 1cc1 0200     		.word	0x2
 8629 1cc3 75       		.byte	0x75
 8630 1cc4 48       		.sleb128 -56
 8631 1cc5 36220000 		.long	LVL534-Ltext0
 8632 1cc9 3D220000 		.long	LVL535-Ltext0
 8633 1ccd 0200     		.word	0x2
 8634 1ccf 75       		.byte	0x75
 8635 1cd0 4C       		.sleb128 -52
 8636 1cd1 3D220000 		.long	LVL535-Ltext0
 8637 1cd5 44220000 		.long	LVL536-Ltext0
 8638 1cd9 0300     		.word	0x3
 8639 1cdb 75       		.byte	0x75
 8640 1cdc BC7F     		.sleb128 -68
 8641 1cde 44220000 		.long	LVL536-Ltext0
 8642 1ce2 67220000 		.long	LVL537-Ltext0
 8643 1ce6 0200     		.word	0x2
 8644 1ce8 75       		.byte	0x75
GAS LISTING /cygdrive/c/Users/THESCI~1/AppData/Local/Temp/ccH1olGy.s 			page 211


 8645 1ce9 50       		.sleb128 -48
 8646 1cea 67220000 		.long	LVL537-Ltext0
 8647 1cee 6D220000 		.long	LVL538-Ltext0
 8648 1cf2 0200     		.word	0x2
 8649 1cf4 75       		.byte	0x75
 8650 1cf5 4C       		.sleb128 -52
 8651 1cf6 6D220000 		.long	LVL538-Ltext0
 8652 1cfa 8A220000 		.long	LVL539-Ltext0
 8653 1cfe 0200     		.word	0x2
 8654 1d00 75       		.byte	0x75
 8655 1d01 50       		.sleb128 -48
 8656 1d02 8A220000 		.long	LVL539-Ltext0
 8657 1d06 94220000 		.long	LVL540-Ltext0
 8658 1d0a 0200     		.word	0x2
 8659 1d0c 75       		.byte	0x75
 8660 1d0d 4C       		.sleb128 -52
 8661 1d0e 99220000 		.long	LVL541-Ltext0
 8662 1d12 A0220000 		.long	LVL542-Ltext0
 8663 1d16 0100     		.word	0x1
 8664 1d18 57       		.byte	0x57
 8665 1d19 A0220000 		.long	LVL542-Ltext0
 8666 1d1d AA220000 		.long	LVL543-Ltext0
 8667 1d21 0100     		.word	0x1
 8668 1d23 53       		.byte	0x53
 8669 1d24 AA220000 		.long	LVL543-Ltext0
 8670 1d28 B6220000 		.long	LVL544-Ltext0
 8671 1d2c 0200     		.word	0x2
 8672 1d2e 75       		.byte	0x75
 8673 1d2f 4C       		.sleb128 -52
 8674 1d30 B6220000 		.long	LVL544-Ltext0
 8675 1d34 E1220000 		.long	LVL546-Ltext0
 8676 1d38 0100     		.word	0x1
 8677 1d3a 53       		.byte	0x53
 8678 1d3b E8220000 		.long	LVL547-Ltext0
 8679 1d3f ED220000 		.long	LVL548-Ltext0
 8680 1d43 0200     		.word	0x2
 8681 1d45 75       		.byte	0x75
 8682 1d46 40       		.sleb128 -64
 8683 1d47 ED220000 		.long	LVL548-Ltext0
 8684 1d4b F2220000 		.long	LVL549-Ltext0
 8685 1d4f 0100     		.word	0x1
 8686 1d51 57       		.byte	0x57
 8687 1d52 F2220000 		.long	LVL549-Ltext0
 8688 1d56 F9220000 		.long	LVL550-Ltext0
 8689 1d5a 0100     		.word	0x1
 8690 1d5c 51       		.byte	0x51
 8691 1d5d F9220000 		.long	LVL550-Ltext0
 8692 1d61 FE220000 		.long	LVL551-Ltext0
 8693 1d65 0200     		.word	0x2
 8694 1d67 75       		.byte	0x75
 8695 1d68 44       		.sleb128 -60
 8696 1d69 FE220000 		.long	LVL551-Ltext0
 8697 1d6d 05230000 		.long	LVL552-Ltext0
 8698 1d71 0100     		.word	0x1
 8699 1d73 52       		.byte	0x52
 8700 1d74 05230000 		.long	LVL552-Ltext0
 8701 1d78 0C230000 		.long	LVL553-Ltext0
GAS LISTING /cygdrive/c/Users/THESCI~1/AppData/Local/Temp/ccH1olGy.s 			page 212


 8702 1d7c 0200     		.word	0x2
 8703 1d7e 75       		.byte	0x75
 8704 1d7f 48       		.sleb128 -56
 8705 1d80 0C230000 		.long	LVL553-Ltext0
 8706 1d84 13230000 		.long	LVL554-Ltext0
 8707 1d88 0200     		.word	0x2
 8708 1d8a 75       		.byte	0x75
 8709 1d8b 4C       		.sleb128 -52
 8710 1d8c 13230000 		.long	LVL554-Ltext0
 8711 1d90 1A230000 		.long	LVL555-Ltext0
 8712 1d94 0300     		.word	0x3
 8713 1d96 75       		.byte	0x75
 8714 1d97 BC7F     		.sleb128 -68
 8715 1d99 1A230000 		.long	LVL555-Ltext0
 8716 1d9d 1F230000 		.long	LVL556-Ltext0
 8717 1da1 0200     		.word	0x2
 8718 1da3 75       		.byte	0x75
 8719 1da4 50       		.sleb128 -48
 8720 1da5 26230000 		.long	LVL557-Ltext0
 8721 1da9 2B230000 		.long	LVL558-Ltext0
 8722 1dad 0200     		.word	0x2
 8723 1daf 75       		.byte	0x75
 8724 1db0 40       		.sleb128 -64
 8725 1db1 2B230000 		.long	LVL558-Ltext0
 8726 1db5 30230000 		.long	LVL559-Ltext0
 8727 1db9 0100     		.word	0x1
 8728 1dbb 57       		.byte	0x57
 8729 1dbc 30230000 		.long	LVL559-Ltext0
 8730 1dc0 37230000 		.long	LVL560-Ltext0
 8731 1dc4 0100     		.word	0x1
 8732 1dc6 51       		.byte	0x51
 8733 1dc7 37230000 		.long	LVL560-Ltext0
 8734 1dcb 3C230000 		.long	LVL561-Ltext0
 8735 1dcf 0200     		.word	0x2
 8736 1dd1 75       		.byte	0x75
 8737 1dd2 44       		.sleb128 -60
 8738 1dd3 3C230000 		.long	LVL561-Ltext0
 8739 1dd7 43230000 		.long	LVL562-Ltext0
 8740 1ddb 0100     		.word	0x1
 8741 1ddd 52       		.byte	0x52
 8742 1dde 43230000 		.long	LVL562-Ltext0
 8743 1de2 4A230000 		.long	LVL563-Ltext0
 8744 1de6 0200     		.word	0x2
 8745 1de8 75       		.byte	0x75
 8746 1de9 48       		.sleb128 -56
 8747 1dea 4A230000 		.long	LVL563-Ltext0
 8748 1dee 51230000 		.long	LVL564-Ltext0
 8749 1df2 0200     		.word	0x2
 8750 1df4 75       		.byte	0x75
 8751 1df5 4C       		.sleb128 -52
 8752 1df6 51230000 		.long	LVL564-Ltext0
 8753 1dfa 58230000 		.long	LVL565-Ltext0
 8754 1dfe 0300     		.word	0x3
 8755 1e00 75       		.byte	0x75
 8756 1e01 BC7F     		.sleb128 -68
 8757 1e03 58230000 		.long	LVL565-Ltext0
 8758 1e07 68230000 		.long	LVL566-Ltext0
GAS LISTING /cygdrive/c/Users/THESCI~1/AppData/Local/Temp/ccH1olGy.s 			page 213


 8759 1e0b 0200     		.word	0x2
 8760 1e0d 75       		.byte	0x75
 8761 1e0e 50       		.sleb128 -48
 8762 1e0f 68230000 		.long	LVL566-Ltext0
 8763 1e13 6D230000 		.long	LVL567-Ltext0
 8764 1e17 0200     		.word	0x2
 8765 1e19 75       		.byte	0x75
 8766 1e1a 4C       		.sleb128 -52
 8767 1e1b 6D230000 		.long	LVL567-Ltext0
 8768 1e1f 75230000 		.long	LFE16-Ltext0
 8769 1e23 0200     		.word	0x2
 8770 1e25 75       		.byte	0x75
 8771 1e26 50       		.sleb128 -48
 8772 1e27 00000000 		.long	0x0
 8773 1e2b 00000000 		.long	0x0
 8774              	LLST104:
 8775 1e2f 6C200000 		.long	LVL500-Ltext0
 8776 1e33 76200000 		.long	LVL504-Ltext0
 8777 1e37 0300     		.word	0x3
 8778 1e39 75       		.byte	0x75
 8779 1e3a B47F     		.sleb128 -76
 8780 1e3c 3F210000 		.long	LVL511-Ltext0
 8781 1e40 BD210000 		.long	LVL519-Ltext0
 8782 1e44 0300     		.word	0x3
 8783 1e46 75       		.byte	0x75
 8784 1e47 B47F     		.sleb128 -76
 8785 1e49 E0210000 		.long	LVL526-Ltext0
 8786 1e4d F0210000 		.long	LVL527-Ltext0
 8787 1e51 0300     		.word	0x3
 8788 1e53 75       		.byte	0x75
 8789 1e54 B47F     		.sleb128 -76
 8790 1e56 A0220000 		.long	LVL542-Ltext0
 8791 1e5a E1220000 		.long	LVL546-Ltext0
 8792 1e5e 0300     		.word	0x3
 8793 1e60 75       		.byte	0x75
 8794 1e61 B47F     		.sleb128 -76
 8795 1e63 00000000 		.long	0x0
 8796 1e67 00000000 		.long	0x0
 8797              	LLST105:
 8798 1e6b 6C200000 		.long	LVL500-Ltext0
 8799 1e6f 74200000 		.long	LVL503-Ltext0
 8800 1e73 0100     		.word	0x1
 8801 1e75 57       		.byte	0x57
 8802 1e76 4A210000 		.long	LVL512-Ltext0
 8803 1e7a BD210000 		.long	LVL519-Ltext0
 8804 1e7e 0100     		.word	0x1
 8805 1e80 57       		.byte	0x57
 8806 1e81 E0210000 		.long	LVL526-Ltext0
 8807 1e85 F0210000 		.long	LVL527-Ltext0
 8808 1e89 0100     		.word	0x1
 8809 1e8b 57       		.byte	0x57
 8810 1e8c A0220000 		.long	LVL542-Ltext0
 8811 1e90 BF220000 		.long	LVL545-Ltext0
 8812 1e94 0100     		.word	0x1
 8813 1e96 57       		.byte	0x57
 8814 1e97 00000000 		.long	0x0
 8815 1e9b 00000000 		.long	0x0
GAS LISTING /cygdrive/c/Users/THESCI~1/AppData/Local/Temp/ccH1olGy.s 			page 214


 8816              	LLST106:
 8817 1e9f 5C210000 		.long	LVL513-Ltext0
 8818 1ea3 71210000 		.long	LVL514-Ltext0
 8819 1ea7 0100     		.word	0x1
 8820 1ea9 50       		.byte	0x50
 8821 1eaa B8210000 		.long	LVL518-Ltext0
 8822 1eae BD210000 		.long	LVL519-Ltext0
 8823 1eb2 0100     		.word	0x1
 8824 1eb4 50       		.byte	0x50
 8825 1eb5 00000000 		.long	0x0
 8826 1eb9 00000000 		.long	0x0
 8827              	LLST107:
 8828 1ebd 80230000 		.long	LFB18-Ltext0
 8829 1ec1 81230000 		.long	LCFI90-Ltext0
 8830 1ec5 0200     		.word	0x2
 8831 1ec7 74       		.byte	0x74
 8832 1ec8 04       		.sleb128 4
 8833 1ec9 81230000 		.long	LCFI90-Ltext0
 8834 1ecd 83230000 		.long	LCFI91-Ltext0
 8835 1ed1 0200     		.word	0x2
 8836 1ed3 74       		.byte	0x74
 8837 1ed4 08       		.sleb128 8
 8838 1ed5 83230000 		.long	LCFI91-Ltext0
 8839 1ed9 FF270000 		.long	LFE18-Ltext0
 8840 1edd 0200     		.word	0x2
 8841 1edf 75       		.byte	0x75
 8842 1ee0 08       		.sleb128 8
 8843 1ee1 00000000 		.long	0x0
 8844 1ee5 00000000 		.long	0x0
 8845              	LLST108:
 8846 1ee9 80230000 		.long	LVL568-Ltext0
 8847 1eed 94230000 		.long	LVL569-Ltext0
 8848 1ef1 0200     		.word	0x2
 8849 1ef3 91       		.byte	0x91
 8850 1ef4 00       		.sleb128 0
 8851 1ef5 94230000 		.long	LVL569-Ltext0
 8852 1ef9 FF270000 		.long	LFE18-Ltext0
 8853 1efd 0200     		.word	0x2
 8854 1eff 75       		.byte	0x75
 8855 1f00 08       		.sleb128 8
 8856 1f01 00000000 		.long	0x0
 8857 1f05 00000000 		.long	0x0
 8858              	LLST109:
 8859 1f09 80230000 		.long	LVL568-Ltext0
 8860 1f0d 9F230000 		.long	LVL570-Ltext0
 8861 1f11 0200     		.word	0x2
 8862 1f13 91       		.byte	0x91
 8863 1f14 04       		.sleb128 4
 8864 1f15 9F230000 		.long	LVL570-Ltext0
 8865 1f19 CF250000 		.long	LVL602-Ltext0
 8866 1f1d 0200     		.word	0x2
 8867 1f1f 75       		.byte	0x75
 8868 1f20 0C       		.sleb128 12
 8869 1f21 CF250000 		.long	LVL602-Ltext0
 8870 1f25 DF250000 		.long	LVL605-Ltext0
 8871 1f29 0200     		.word	0x2
 8872 1f2b 91       		.byte	0x91
GAS LISTING /cygdrive/c/Users/THESCI~1/AppData/Local/Temp/ccH1olGy.s 			page 215


 8873 1f2c 04       		.sleb128 4
 8874 1f2d DF250000 		.long	LVL605-Ltext0
 8875 1f31 FF270000 		.long	LFE18-Ltext0
 8876 1f35 0200     		.word	0x2
 8877 1f37 75       		.byte	0x75
 8878 1f38 0C       		.sleb128 12
 8879 1f39 00000000 		.long	0x0
 8880 1f3d 00000000 		.long	0x0
 8881              	LLST110:
 8882 1f41 80230000 		.long	LVL568-Ltext0
 8883 1f45 BF230000 		.long	LVL576-Ltext0
 8884 1f49 0200     		.word	0x2
 8885 1f4b 91       		.byte	0x91
 8886 1f4c 08       		.sleb128 8
 8887 1f4d BF230000 		.long	LVL576-Ltext0
 8888 1f51 CF250000 		.long	LVL602-Ltext0
 8889 1f55 0200     		.word	0x2
 8890 1f57 75       		.byte	0x75
 8891 1f58 10       		.sleb128 16
 8892 1f59 CF250000 		.long	LVL602-Ltext0
 8893 1f5d DF250000 		.long	LVL605-Ltext0
 8894 1f61 0200     		.word	0x2
 8895 1f63 91       		.byte	0x91
 8896 1f64 08       		.sleb128 8
 8897 1f65 DF250000 		.long	LVL605-Ltext0
 8898 1f69 FF270000 		.long	LFE18-Ltext0
 8899 1f6d 0200     		.word	0x2
 8900 1f6f 75       		.byte	0x75
 8901 1f70 10       		.sleb128 16
 8902 1f71 00000000 		.long	0x0
 8903 1f75 00000000 		.long	0x0
 8904              	LLST111:
 8905 1f79 A7230000 		.long	LVL571-Ltext0
 8906 1f7d B2230000 		.long	LVL573-Ltext0
 8907 1f81 0100     		.word	0x1
 8908 1f83 53       		.byte	0x53
 8909 1f84 B6230000 		.long	LVL575-Ltext0
 8910 1f88 D0230000 		.long	LVL577-Ltext0
 8911 1f8c 0100     		.word	0x1
 8912 1f8e 53       		.byte	0x53
 8913 1f8f 13240000 		.long	LVL578-Ltext0
 8914 1f93 56240000 		.long	LVL583-Ltext0
 8915 1f97 0100     		.word	0x1
 8916 1f99 56       		.byte	0x56
 8917 1f9a 56240000 		.long	LVL583-Ltext0
 8918 1f9e 80240000 		.long	LVL584-Ltext0
 8919 1fa2 0100     		.word	0x1
 8920 1fa4 53       		.byte	0x53
 8921 1fa5 91240000 		.long	LVL585-Ltext0
 8922 1fa9 93240000 		.long	LVL586-Ltext0
 8923 1fad 0100     		.word	0x1
 8924 1faf 50       		.byte	0x50
 8925 1fb0 4F250000 		.long	LVL594-Ltext0
 8926 1fb4 51250000 		.long	LVL595-Ltext0
 8927 1fb8 0100     		.word	0x1
 8928 1fba 50       		.byte	0x50
 8929 1fbb BD250000 		.long	LVL599-Ltext0
GAS LISTING /cygdrive/c/Users/THESCI~1/AppData/Local/Temp/ccH1olGy.s 			page 216


 8930 1fbf CB250000 		.long	LVL600-Ltext0
 8931 1fc3 0100     		.word	0x1
 8932 1fc5 53       		.byte	0x53
 8933 1fc6 D5250000 		.long	LVL603-Ltext0
 8934 1fca DB250000 		.long	LVL604-Ltext0
 8935 1fce 0100     		.word	0x1
 8936 1fd0 53       		.byte	0x53
 8937 1fd1 E5250000 		.long	LVL606-Ltext0
 8938 1fd5 EA250000 		.long	LVL607-Ltext0
 8939 1fd9 0100     		.word	0x1
 8940 1fdb 56       		.byte	0x56
 8941 1fdc EA250000 		.long	LVL607-Ltext0
 8942 1fe0 EF250000 		.long	LVL608-Ltext0
 8943 1fe4 0100     		.word	0x1
 8944 1fe6 53       		.byte	0x53
 8945 1fe7 F5250000 		.long	LVL609-Ltext0
 8946 1feb FC250000 		.long	LVL610-Ltext0
 8947 1fef 0100     		.word	0x1
 8948 1ff1 56       		.byte	0x56
 8949 1ff2 3E260000 		.long	LVL613-Ltext0
 8950 1ff6 43260000 		.long	LVL614-Ltext0
 8951 1ffa 0300     		.word	0x3
 8952 1ffc 75       		.byte	0x75
 8953 1ffd A47F     		.sleb128 -92
 8954 1fff 43260000 		.long	LVL614-Ltext0
 8955 2003 48260000 		.long	LVL615-Ltext0
 8956 2007 0100     		.word	0x1
 8957 2009 56       		.byte	0x56
 8958 200a 48260000 		.long	LVL615-Ltext0
 8959 200e 4F260000 		.long	LVL616-Ltext0
 8960 2012 0100     		.word	0x1
 8961 2014 52       		.byte	0x52
 8962 2015 4F260000 		.long	LVL616-Ltext0
 8963 2019 54260000 		.long	LVL617-Ltext0
 8964 201d 0300     		.word	0x3
 8965 201f 75       		.byte	0x75
 8966 2020 AC7F     		.sleb128 -84
 8967 2022 54260000 		.long	LVL617-Ltext0
 8968 2026 5B260000 		.long	LVL618-Ltext0
 8969 202a 0100     		.word	0x1
 8970 202c 51       		.byte	0x51
 8971 202d 5B260000 		.long	LVL618-Ltext0
 8972 2031 62260000 		.long	LVL619-Ltext0
 8973 2035 0300     		.word	0x3
 8974 2037 75       		.byte	0x75
 8975 2038 B47F     		.sleb128 -76
 8976 203a 62260000 		.long	LVL619-Ltext0
 8977 203e 69260000 		.long	LVL620-Ltext0
 8978 2042 0300     		.word	0x3
 8979 2044 75       		.byte	0x75
 8980 2045 B07F     		.sleb128 -80
 8981 2047 69260000 		.long	LVL620-Ltext0
 8982 204b 70260000 		.long	LVL621-Ltext0
 8983 204f 0300     		.word	0x3
 8984 2051 75       		.byte	0x75
 8985 2052 BC7F     		.sleb128 -68
 8986 2054 70260000 		.long	LVL621-Ltext0
GAS LISTING /cygdrive/c/Users/THESCI~1/AppData/Local/Temp/ccH1olGy.s 			page 217


 8987 2058 97260000 		.long	LVL622-Ltext0
 8988 205c 0300     		.word	0x3
 8989 205e 75       		.byte	0x75
 8990 205f B87F     		.sleb128 -72
 8991 2061 97260000 		.long	LVL622-Ltext0
 8992 2065 BD260000 		.long	LVL623-Ltext0
 8993 2069 0300     		.word	0x3
 8994 206b 75       		.byte	0x75
 8995 206c B07F     		.sleb128 -80
 8996 206e C5260000 		.long	LVL624-Ltext0
 8997 2072 CC260000 		.long	LVL625-Ltext0
 8998 2076 0100     		.word	0x1
 8999 2078 56       		.byte	0x56
 9000 2079 CC260000 		.long	LVL625-Ltext0
 9001 207d E0260000 		.long	LVL626-Ltext0
 9002 2081 0100     		.word	0x1
 9003 2083 53       		.byte	0x53
 9004 2084 E7260000 		.long	LVL627-Ltext0
 9005 2088 EC260000 		.long	LVL628-Ltext0
 9006 208c 0300     		.word	0x3
 9007 208e 75       		.byte	0x75
 9008 208f A47F     		.sleb128 -92
 9009 2091 EC260000 		.long	LVL628-Ltext0
 9010 2095 F1260000 		.long	LVL629-Ltext0
 9011 2099 0100     		.word	0x1
 9012 209b 56       		.byte	0x56
 9013 209c F1260000 		.long	LVL629-Ltext0
 9014 20a0 F8260000 		.long	LVL630-Ltext0
 9015 20a4 0100     		.word	0x1
 9016 20a6 52       		.byte	0x52
 9017 20a7 F8260000 		.long	LVL630-Ltext0
 9018 20ab FD260000 		.long	LVL631-Ltext0
 9019 20af 0300     		.word	0x3
 9020 20b1 75       		.byte	0x75
 9021 20b2 AC7F     		.sleb128 -84
 9022 20b4 FD260000 		.long	LVL631-Ltext0
 9023 20b8 04270000 		.long	LVL632-Ltext0
 9024 20bc 0100     		.word	0x1
 9025 20be 51       		.byte	0x51
 9026 20bf 04270000 		.long	LVL632-Ltext0
 9027 20c3 0B270000 		.long	LVL633-Ltext0
 9028 20c7 0300     		.word	0x3
 9029 20c9 75       		.byte	0x75
 9030 20ca B47F     		.sleb128 -76
 9031 20cc 0B270000 		.long	LVL633-Ltext0
 9032 20d0 12270000 		.long	LVL634-Ltext0
 9033 20d4 0300     		.word	0x3
 9034 20d6 75       		.byte	0x75
 9035 20d7 B07F     		.sleb128 -80
 9036 20d9 12270000 		.long	LVL634-Ltext0
 9037 20dd 19270000 		.long	LVL635-Ltext0
 9038 20e1 0300     		.word	0x3
 9039 20e3 75       		.byte	0x75
 9040 20e4 BC7F     		.sleb128 -68
 9041 20e6 19270000 		.long	LVL635-Ltext0
 9042 20ea 1E270000 		.long	LVL636-Ltext0
 9043 20ee 0300     		.word	0x3
GAS LISTING /cygdrive/c/Users/THESCI~1/AppData/Local/Temp/ccH1olGy.s 			page 218


 9044 20f0 75       		.byte	0x75
 9045 20f1 B87F     		.sleb128 -72
 9046 20f3 25270000 		.long	LVL637-Ltext0
 9047 20f7 2A270000 		.long	LVL638-Ltext0
 9048 20fb 0300     		.word	0x3
 9049 20fd 75       		.byte	0x75
 9050 20fe A47F     		.sleb128 -92
 9051 2100 2A270000 		.long	LVL638-Ltext0
 9052 2104 2F270000 		.long	LVL639-Ltext0
 9053 2108 0100     		.word	0x1
 9054 210a 56       		.byte	0x56
 9055 210b 2F270000 		.long	LVL639-Ltext0
 9056 210f 36270000 		.long	LVL640-Ltext0
 9057 2113 0100     		.word	0x1
 9058 2115 52       		.byte	0x52
 9059 2116 36270000 		.long	LVL640-Ltext0
 9060 211a 3B270000 		.long	LVL641-Ltext0
 9061 211e 0300     		.word	0x3
 9062 2120 75       		.byte	0x75
 9063 2121 AC7F     		.sleb128 -84
 9064 2123 3B270000 		.long	LVL641-Ltext0
 9065 2127 42270000 		.long	LVL642-Ltext0
 9066 212b 0100     		.word	0x1
 9067 212d 51       		.byte	0x51
 9068 212e 42270000 		.long	LVL642-Ltext0
 9069 2132 49270000 		.long	LVL643-Ltext0
 9070 2136 0300     		.word	0x3
 9071 2138 75       		.byte	0x75
 9072 2139 B47F     		.sleb128 -76
 9073 213b 49270000 		.long	LVL643-Ltext0
 9074 213f 50270000 		.long	LVL644-Ltext0
 9075 2143 0300     		.word	0x3
 9076 2145 75       		.byte	0x75
 9077 2146 B07F     		.sleb128 -80
 9078 2148 50270000 		.long	LVL644-Ltext0
 9079 214c 57270000 		.long	LVL645-Ltext0
 9080 2150 0300     		.word	0x3
 9081 2152 75       		.byte	0x75
 9082 2153 BC7F     		.sleb128 -68
 9083 2155 57270000 		.long	LVL645-Ltext0
 9084 2159 64270000 		.long	LVL646-Ltext0
 9085 215d 0300     		.word	0x3
 9086 215f 75       		.byte	0x75
 9087 2160 B87F     		.sleb128 -72
 9088 2162 64270000 		.long	LVL646-Ltext0
 9089 2166 69270000 		.long	LVL647-Ltext0
 9090 216a 0300     		.word	0x3
 9091 216c 75       		.byte	0x75
 9092 216d B07F     		.sleb128 -80
 9093 216f 69270000 		.long	LVL647-Ltext0
 9094 2173 71270000 		.long	LVL648-Ltext0
 9095 2177 0300     		.word	0x3
 9096 2179 75       		.byte	0x75
 9097 217a B87F     		.sleb128 -72
 9098 217c 71270000 		.long	LVL648-Ltext0
 9099 2180 78270000 		.long	LVL649-Ltext0
 9100 2184 0300     		.word	0x3
GAS LISTING /cygdrive/c/Users/THESCI~1/AppData/Local/Temp/ccH1olGy.s 			page 219


 9101 2186 75       		.byte	0x75
 9102 2187 B07F     		.sleb128 -80
 9103 2189 C0270000 		.long	LVL651-Ltext0
 9104 218d C2270000 		.long	LVL652-Ltext0
 9105 2191 0100     		.word	0x1
 9106 2193 50       		.byte	0x50
 9107 2194 E1270000 		.long	LVL655-Ltext0
 9108 2198 F2270000 		.long	LVL656-Ltext0
 9109 219c 0100     		.word	0x1
 9110 219e 53       		.byte	0x53
 9111 219f F2270000 		.long	LVL656-Ltext0
 9112 21a3 FA270000 		.long	LVL657-Ltext0
 9113 21a7 0100     		.word	0x1
 9114 21a9 56       		.byte	0x56
 9115 21aa FA270000 		.long	LVL657-Ltext0
 9116 21ae FF270000 		.long	LFE18-Ltext0
 9117 21b2 0100     		.word	0x1
 9118 21b4 53       		.byte	0x53
 9119 21b5 00000000 		.long	0x0
 9120 21b9 00000000 		.long	0x0
 9121              	LLST112:
 9122 21bd AC230000 		.long	LVL572-Ltext0
 9123 21c1 B6230000 		.long	LVL575-Ltext0
 9124 21c5 0300     		.word	0x3
 9125 21c7 75       		.byte	0x75
 9126 21c8 907F     		.sleb128 -112
 9127 21ca 46240000 		.long	LVL580-Ltext0
 9128 21ce CF250000 		.long	LVL602-Ltext0
 9129 21d2 0300     		.word	0x3
 9130 21d4 75       		.byte	0x75
 9131 21d5 907F     		.sleb128 -112
 9132 21d7 FC250000 		.long	LVL610-Ltext0
 9133 21db 1A260000 		.long	LVL612-Ltext0
 9134 21df 0300     		.word	0x3
 9135 21e1 75       		.byte	0x75
 9136 21e2 907F     		.sleb128 -112
 9137 21e4 CC260000 		.long	LVL625-Ltext0
 9138 21e8 E0260000 		.long	LVL626-Ltext0
 9139 21ec 0300     		.word	0x3
 9140 21ee 75       		.byte	0x75
 9141 21ef 907F     		.sleb128 -112
 9142 21f1 78270000 		.long	LVL649-Ltext0
 9143 21f5 FF270000 		.long	LFE18-Ltext0
 9144 21f9 0300     		.word	0x3
 9145 21fb 75       		.byte	0x75
 9146 21fc 907F     		.sleb128 -112
 9147 21fe 00000000 		.long	0x0
 9148 2202 00000000 		.long	0x0
 9149              	LLST113:
 9150 2206 AC230000 		.long	LVL572-Ltext0
 9151 220a B6230000 		.long	LVL575-Ltext0
 9152 220e 0300     		.word	0x3
 9153 2210 75       		.byte	0x75
 9154 2211 947F     		.sleb128 -108
 9155 2213 53240000 		.long	LVL581-Ltext0
 9156 2217 CF250000 		.long	LVL602-Ltext0
 9157 221b 0300     		.word	0x3
GAS LISTING /cygdrive/c/Users/THESCI~1/AppData/Local/Temp/ccH1olGy.s 			page 220


 9158 221d 75       		.byte	0x75
 9159 221e 947F     		.sleb128 -108
 9160 2220 FC250000 		.long	LVL610-Ltext0
 9161 2224 1A260000 		.long	LVL612-Ltext0
 9162 2228 0300     		.word	0x3
 9163 222a 75       		.byte	0x75
 9164 222b 947F     		.sleb128 -108
 9165 222d CC260000 		.long	LVL625-Ltext0
 9166 2231 E0260000 		.long	LVL626-Ltext0
 9167 2235 0300     		.word	0x3
 9168 2237 75       		.byte	0x75
 9169 2238 947F     		.sleb128 -108
 9170 223a 78270000 		.long	LVL649-Ltext0
 9171 223e FF270000 		.long	LFE18-Ltext0
 9172 2242 0300     		.word	0x3
 9173 2244 75       		.byte	0x75
 9174 2245 947F     		.sleb128 -108
 9175 2247 00000000 		.long	0x0
 9176 224b 00000000 		.long	0x0
 9177              	LLST114:
 9178 224f AC230000 		.long	LVL572-Ltext0
 9179 2253 B6230000 		.long	LVL575-Ltext0
 9180 2257 0300     		.word	0x3
 9181 2259 75       		.byte	0x75
 9182 225a 987F     		.sleb128 -104
 9183 225c 53240000 		.long	LVL582-Ltext0
 9184 2260 CF250000 		.long	LVL602-Ltext0
 9185 2264 0300     		.word	0x3
 9186 2266 75       		.byte	0x75
 9187 2267 987F     		.sleb128 -104
 9188 2269 FC250000 		.long	LVL610-Ltext0
 9189 226d 1A260000 		.long	LVL612-Ltext0
 9190 2271 0300     		.word	0x3
 9191 2273 75       		.byte	0x75
 9192 2274 987F     		.sleb128 -104
 9193 2276 CC260000 		.long	LVL625-Ltext0
 9194 227a E0260000 		.long	LVL626-Ltext0
 9195 227e 0300     		.word	0x3
 9196 2280 75       		.byte	0x75
 9197 2281 987F     		.sleb128 -104
 9198 2283 78270000 		.long	LVL649-Ltext0
 9199 2287 FF270000 		.long	LFE18-Ltext0
 9200 228b 0300     		.word	0x3
 9201 228d 75       		.byte	0x75
 9202 228e 987F     		.sleb128 -104
 9203 2290 00000000 		.long	0x0
 9204 2294 00000000 		.long	0x0
 9205              	LLST115:
 9206 2298 AC230000 		.long	LVL572-Ltext0
 9207 229c B6230000 		.long	LVL575-Ltext0
 9208 22a0 0300     		.word	0x3
 9209 22a2 75       		.byte	0x75
 9210 22a3 9C7F     		.sleb128 -100
 9211 22a5 53240000 		.long	LVL582-Ltext0
 9212 22a9 CF250000 		.long	LVL602-Ltext0
 9213 22ad 0300     		.word	0x3
 9214 22af 75       		.byte	0x75
GAS LISTING /cygdrive/c/Users/THESCI~1/AppData/Local/Temp/ccH1olGy.s 			page 221


 9215 22b0 9C7F     		.sleb128 -100
 9216 22b2 FC250000 		.long	LVL610-Ltext0
 9217 22b6 1A260000 		.long	LVL612-Ltext0
 9218 22ba 0300     		.word	0x3
 9219 22bc 75       		.byte	0x75
 9220 22bd 9C7F     		.sleb128 -100
 9221 22bf CC260000 		.long	LVL625-Ltext0
 9222 22c3 E0260000 		.long	LVL626-Ltext0
 9223 22c7 0300     		.word	0x3
 9224 22c9 75       		.byte	0x75
 9225 22ca 9C7F     		.sleb128 -100
 9226 22cc 78270000 		.long	LVL649-Ltext0
 9227 22d0 FF270000 		.long	LFE18-Ltext0
 9228 22d4 0300     		.word	0x3
 9229 22d6 75       		.byte	0x75
 9230 22d7 9C7F     		.sleb128 -100
 9231 22d9 00000000 		.long	0x0
 9232 22dd 00000000 		.long	0x0
 9233              	LLST116:
 9234 22e1 AC230000 		.long	LVL572-Ltext0
 9235 22e5 B3230000 		.long	LVL574-Ltext0
 9236 22e9 0100     		.word	0x1
 9237 22eb 56       		.byte	0x56
 9238 22ec E3240000 		.long	LVL590-Ltext0
 9239 22f0 CC250000 		.long	LVL601-Ltext0
 9240 22f4 0100     		.word	0x1
 9241 22f6 56       		.byte	0x56
 9242 22f7 FC250000 		.long	LVL610-Ltext0
 9243 22fb 1A260000 		.long	LVL612-Ltext0
 9244 22ff 0100     		.word	0x1
 9245 2301 56       		.byte	0x56
 9246 2302 CC260000 		.long	LVL625-Ltext0
 9247 2306 E0260000 		.long	LVL626-Ltext0
 9248 230a 0100     		.word	0x1
 9249 230c 56       		.byte	0x56
 9250 230d 78270000 		.long	LVL649-Ltext0
 9251 2311 A4270000 		.long	LVL650-Ltext0
 9252 2315 0100     		.word	0x1
 9253 2317 56       		.byte	0x56
 9254 2318 00000000 		.long	0x0
 9255 231c 00000000 		.long	0x0
 9256              	LLST117:
 9257 2320 AC230000 		.long	LVL572-Ltext0
 9258 2324 B6230000 		.long	LVL575-Ltext0
 9259 2328 0300     		.word	0x3
 9260 232a 75       		.byte	0x75
 9261 232b A07F     		.sleb128 -96
 9262 232d 53240000 		.long	LVL582-Ltext0
 9263 2331 CF250000 		.long	LVL602-Ltext0
 9264 2335 0300     		.word	0x3
 9265 2337 75       		.byte	0x75
 9266 2338 A07F     		.sleb128 -96
 9267 233a FC250000 		.long	LVL610-Ltext0
 9268 233e 1A260000 		.long	LVL612-Ltext0
 9269 2342 0300     		.word	0x3
 9270 2344 75       		.byte	0x75
 9271 2345 A07F     		.sleb128 -96
GAS LISTING /cygdrive/c/Users/THESCI~1/AppData/Local/Temp/ccH1olGy.s 			page 222


 9272 2347 CC260000 		.long	LVL625-Ltext0
 9273 234b E0260000 		.long	LVL626-Ltext0
 9274 234f 0300     		.word	0x3
 9275 2351 75       		.byte	0x75
 9276 2352 A07F     		.sleb128 -96
 9277 2354 78270000 		.long	LVL649-Ltext0
 9278 2358 FF270000 		.long	LFE18-Ltext0
 9279 235c 0300     		.word	0x3
 9280 235e 75       		.byte	0x75
 9281 235f A07F     		.sleb128 -96
 9282 2361 00000000 		.long	0x0
 9283 2365 00000000 		.long	0x0
 9284              	LLST118:
 9285 2369 32250000 		.long	LVL592-Ltext0
 9286 236d 4D250000 		.long	LVL593-Ltext0
 9287 2371 0100     		.word	0x1
 9288 2373 50       		.byte	0x50
 9289 2374 92250000 		.long	LVL597-Ltext0
 9290 2378 95250000 		.long	LVL598-Ltext0
 9291 237c 0100     		.word	0x1
 9292 237e 50       		.byte	0x50
 9293 237f 00000000 		.long	0x0
 9294 2383 00000000 		.long	0x0
 9295              		.file 2 "/usr/include/sys/lock.h"
 9296              		.file 3 "/usr/include/sys/_types.h"
 9297              		.file 4 "/usr/lib/gcc/i686-pc-cygwin/4.3.4/include/stddef.h"
 9298              		.file 5 "/usr/include/sys/reent.h"
 9299              		.file 6 "/usr/include/stdint.h"
 9300              		.file 7 "/usr/include/stdio.h"
 9301              		.file 8 "./Source/../Headers/Defines.h"
 9302              		.file 9 "./Source/../Headers/PPMImage.h"
 9303              		.file 10 "./Source/../Headers/CS229Image.h"
 9304              		.section	.debug_info,"dr"
 9305 0000 951B0000 		.long	0x1b95
 9306 0004 0200     		.word	0x2
 9307 0006 00000000 		.secrel32	Ldebug_abbrev0
 9308 000a 04       		.byte	0x4
 9309 000b 01       		.uleb128 0x1
 9310 000c 474E5520 		.ascii "GNU C 4.3.4 20090804 (release) 1\0"
 9310      4320342E 
 9310      332E3420 
 9310      32303039 
 9310      30383034 
 9311 002d 01       		.byte	0x1
 9312 002e 2E2F536F 		.ascii "./Source/CS229Image.c\0"
 9312      75726365 
 9312      2F435332 
 9312      3239496D 
 9312      6167652E 
 9313 0044 2F637967 		.ascii "/cygdrive/c/Users/The Science Guy/Documents/NetBeansProjects/C Project\0"
 9313      64726976 
 9313      652F632F 
 9313      55736572 
 9313      732F5468 
 9314 008b 00000000 		.long	Ltext0
 9315 008f FF270000 		.long	Letext0
 9316 0093 00000000 		.secrel32	Ldebug_line0
GAS LISTING /cygdrive/c/Users/THESCI~1/AppData/Local/Temp/ccH1olGy.s 			page 223


 9317 0097 02       		.uleb128 0x2
 9318 0098 04       		.byte	0x4
 9319 0099 07       		.byte	0x7
 9320 009a 756E7369 		.ascii "unsigned int\0"
 9320      676E6564 
 9320      20696E74 
 9320      00
 9321 00a7 02       		.uleb128 0x2
 9322 00a8 02       		.byte	0x2
 9323 00a9 07       		.byte	0x7
 9324 00aa 73686F72 		.ascii "short unsigned int\0"
 9324      7420756E 
 9324      7369676E 
 9324      65642069 
 9324      6E7400
 9325 00bd 02       		.uleb128 0x2
 9326 00be 01       		.byte	0x1
 9327 00bf 06       		.byte	0x6
 9328 00c0 7369676E 		.ascii "signed char\0"
 9328      65642063 
 9328      68617200 
 9329 00cc 02       		.uleb128 0x2
 9330 00cd 01       		.byte	0x1
 9331 00ce 08       		.byte	0x8
 9332 00cf 756E7369 		.ascii "unsigned char\0"
 9332      676E6564 
 9332      20636861 
 9332      7200
 9333 00dd 02       		.uleb128 0x2
 9334 00de 02       		.byte	0x2
 9335 00df 05       		.byte	0x5
 9336 00e0 73686F72 		.ascii "short int\0"
 9336      7420696E 
 9336      7400
 9337 00ea 02       		.uleb128 0x2
 9338 00eb 04       		.byte	0x4
 9339 00ec 05       		.byte	0x5
 9340 00ed 696E7400 		.ascii "int\0"
 9341 00f1 02       		.uleb128 0x2
 9342 00f2 08       		.byte	0x8
 9343 00f3 05       		.byte	0x5
 9344 00f4 6C6F6E67 		.ascii "long long int\0"
 9344      206C6F6E 
 9344      6720696E 
 9344      7400
 9345 0102 02       		.uleb128 0x2
 9346 0103 08       		.byte	0x8
 9347 0104 07       		.byte	0x7
 9348 0105 6C6F6E67 		.ascii "long long unsigned int\0"
 9348      206C6F6E 
 9348      6720756E 
 9348      7369676E 
 9348      65642069 
 9349 011c 03       		.uleb128 0x3
 9350 011d 5F4C4F43 		.ascii "_LOCK_T\0"
 9350      4B5F5400 
 9351 0125 02       		.byte	0x2
GAS LISTING /cygdrive/c/Users/THESCI~1/AppData/Local/Temp/ccH1olGy.s 			page 224


 9352 0126 0E       		.byte	0xe
 9353 0127 2B010000 		.long	0x12b
 9354 012b 04       		.uleb128 0x4
 9355 012c 04       		.byte	0x4
 9356 012d 02       		.uleb128 0x2
 9357 012e 04       		.byte	0x4
 9358 012f 05       		.byte	0x5
 9359 0130 6C6F6E67 		.ascii "long int\0"
 9359      20696E74 
 9359      00
 9360 0139 03       		.uleb128 0x3
 9361 013a 5F6F6666 		.ascii "_off64_t\0"
 9361      36345F74 
 9361      00
 9362 0143 03       		.byte	0x3
 9363 0144 24       		.byte	0x24
 9364 0145 F1000000 		.long	0xf1
 9365 0149 03       		.uleb128 0x3
 9366 014a 5F66706F 		.ascii "_fpos_t\0"
 9366      735F7400 
 9367 0152 03       		.byte	0x3
 9368 0153 2C       		.byte	0x2c
 9369 0154 2D010000 		.long	0x12d
 9370 0158 03       		.uleb128 0x3
 9371 0159 5F66706F 		.ascii "_fpos64_t\0"
 9371      7336345F 
 9371      7400
 9372 0163 03       		.byte	0x3
 9373 0164 32       		.byte	0x32
 9374 0165 39010000 		.long	0x139
 9375 0169 03       		.uleb128 0x3
 9376 016a 5F737369 		.ascii "_ssize_t\0"
 9376      7A655F74 
 9376      00
 9377 0173 03       		.byte	0x3
 9378 0174 38       		.byte	0x38
 9379 0175 EA000000 		.long	0xea
 9380 0179 05       		.uleb128 0x5
 9381 017a 77696E74 		.ascii "wint_t\0"
 9381      5F7400
 9382 0181 04       		.byte	0x4
 9383 0182 6301     		.word	0x163
 9384 0184 97000000 		.long	0x97
 9385 0188 06       		.uleb128 0x6
 9386 0189 04       		.byte	0x4
 9387 018a 03       		.byte	0x3
 9388 018b 47       		.byte	0x47
 9389 018c AC010000 		.long	0x1ac
 9390 0190 07       		.uleb128 0x7
 9391 0191 5F5F7763 		.ascii "__wch\0"
 9391      6800
 9392 0197 03       		.byte	0x3
 9393 0198 48       		.byte	0x48
 9394 0199 79010000 		.long	0x179
 9395 019d 07       		.uleb128 0x7
 9396 019e 5F5F7763 		.ascii "__wchb\0"
 9396      686200
GAS LISTING /cygdrive/c/Users/THESCI~1/AppData/Local/Temp/ccH1olGy.s 			page 225


 9397 01a5 03       		.byte	0x3
 9398 01a6 49       		.byte	0x49
 9399 01a7 AC010000 		.long	0x1ac
 9400 01ab 00       		.byte	0x0
 9401 01ac 08       		.uleb128 0x8
 9402 01ad CC000000 		.long	0xcc
 9403 01b1 BC010000 		.long	0x1bc
 9404 01b5 09       		.uleb128 0x9
 9405 01b6 BC010000 		.long	0x1bc
 9406 01ba 03       		.byte	0x3
 9407 01bb 00       		.byte	0x0
 9408 01bc 0A       		.uleb128 0xa
 9409 01bd 04       		.byte	0x4
 9410 01be 07       		.byte	0x7
 9411 01bf 0B       		.uleb128 0xb
 9412 01c0 08       		.byte	0x8
 9413 01c1 03       		.byte	0x3
 9414 01c2 44       		.byte	0x44
 9415 01c3 EC010000 		.long	0x1ec
 9416 01c7 0C       		.uleb128 0xc
 9417 01c8 5F5F636F 		.ascii "__count\0"
 9417      756E7400 
 9418 01d0 03       		.byte	0x3
 9419 01d1 45       		.byte	0x45
 9420 01d2 EA000000 		.long	0xea
 9421 01d6 02       		.byte	0x2
 9422 01d7 23       		.byte	0x23
 9423 01d8 00       		.uleb128 0x0
 9424 01d9 0C       		.uleb128 0xc
 9425 01da 5F5F7661 		.ascii "__value\0"
 9425      6C756500 
 9426 01e2 03       		.byte	0x3
 9427 01e3 4A       		.byte	0x4a
 9428 01e4 88010000 		.long	0x188
 9429 01e8 02       		.byte	0x2
 9430 01e9 23       		.byte	0x23
 9431 01ea 04       		.uleb128 0x4
 9432 01eb 00       		.byte	0x0
 9433 01ec 03       		.uleb128 0x3
 9434 01ed 5F6D6273 		.ascii "_mbstate_t\0"
 9434      74617465 
 9434      5F7400
 9435 01f8 03       		.byte	0x3
 9436 01f9 4B       		.byte	0x4b
 9437 01fa BF010000 		.long	0x1bf
 9438 01fe 03       		.uleb128 0x3
 9439 01ff 5F666C6F 		.ascii "_flock_t\0"
 9439      636B5F74 
 9439      00
 9440 0208 03       		.byte	0x3
 9441 0209 4F       		.byte	0x4f
 9442 020a 1C010000 		.long	0x11c
 9443 020e 03       		.uleb128 0x3
 9444 020f 5F5F554C 		.ascii "__ULong\0"
 9444      6F6E6700 
 9445 0217 05       		.byte	0x5
 9446 0218 15       		.byte	0x15
GAS LISTING /cygdrive/c/Users/THESCI~1/AppData/Local/Temp/ccH1olGy.s 			page 226


 9447 0219 1D020000 		.long	0x21d
 9448 021d 02       		.uleb128 0x2
 9449 021e 04       		.byte	0x4
 9450 021f 07       		.byte	0x7
 9451 0220 6C6F6E67 		.ascii "long unsigned int\0"
 9451      20756E73 
 9451      69676E65 
 9451      6420696E 
 9451      7400
 9452 0232 0D       		.uleb128 0xd
 9453 0233 5F426967 		.ascii "_Bigint\0"
 9453      696E7400 
 9454 023b 18       		.byte	0x18
 9455 023c 05       		.byte	0x5
 9456 023d 2D       		.byte	0x2d
 9457 023e 9E020000 		.long	0x29e
 9458 0242 0C       		.uleb128 0xc
 9459 0243 5F6E6578 		.ascii "_next\0"
 9459      7400
 9460 0249 05       		.byte	0x5
 9461 024a 2E       		.byte	0x2e
 9462 024b 9E020000 		.long	0x29e
 9463 024f 02       		.byte	0x2
 9464 0250 23       		.byte	0x23
 9465 0251 00       		.uleb128 0x0
 9466 0252 0C       		.uleb128 0xc
 9467 0253 5F6B00   		.ascii "_k\0"
 9468 0256 05       		.byte	0x5
 9469 0257 2F       		.byte	0x2f
 9470 0258 EA000000 		.long	0xea
 9471 025c 02       		.byte	0x2
 9472 025d 23       		.byte	0x23
 9473 025e 04       		.uleb128 0x4
 9474 025f 0C       		.uleb128 0xc
 9475 0260 5F6D6178 		.ascii "_maxwds\0"
 9475      77647300 
 9476 0268 05       		.byte	0x5
 9477 0269 2F       		.byte	0x2f
 9478 026a EA000000 		.long	0xea
 9479 026e 02       		.byte	0x2
 9480 026f 23       		.byte	0x23
 9481 0270 08       		.uleb128 0x8
 9482 0271 0C       		.uleb128 0xc
 9483 0272 5F736967 		.ascii "_sign\0"
 9483      6E00
 9484 0278 05       		.byte	0x5
 9485 0279 2F       		.byte	0x2f
 9486 027a EA000000 		.long	0xea
 9487 027e 02       		.byte	0x2
 9488 027f 23       		.byte	0x23
 9489 0280 0C       		.uleb128 0xc
 9490 0281 0C       		.uleb128 0xc
 9491 0282 5F776473 		.ascii "_wds\0"
 9491      00
 9492 0287 05       		.byte	0x5
 9493 0288 2F       		.byte	0x2f
 9494 0289 EA000000 		.long	0xea
GAS LISTING /cygdrive/c/Users/THESCI~1/AppData/Local/Temp/ccH1olGy.s 			page 227


 9495 028d 02       		.byte	0x2
 9496 028e 23       		.byte	0x23
 9497 028f 10       		.uleb128 0x10
 9498 0290 0C       		.uleb128 0xc
 9499 0291 5F7800   		.ascii "_x\0"
 9500 0294 05       		.byte	0x5
 9501 0295 30       		.byte	0x30
 9502 0296 A4020000 		.long	0x2a4
 9503 029a 02       		.byte	0x2
 9504 029b 23       		.byte	0x23
 9505 029c 14       		.uleb128 0x14
 9506 029d 00       		.byte	0x0
 9507 029e 0E       		.uleb128 0xe
 9508 029f 04       		.byte	0x4
 9509 02a0 32020000 		.long	0x232
 9510 02a4 08       		.uleb128 0x8
 9511 02a5 0E020000 		.long	0x20e
 9512 02a9 B4020000 		.long	0x2b4
 9513 02ad 09       		.uleb128 0x9
 9514 02ae BC010000 		.long	0x1bc
 9515 02b2 00       		.byte	0x0
 9516 02b3 00       		.byte	0x0
 9517 02b4 0D       		.uleb128 0xd
 9518 02b5 5F5F746D 		.ascii "__tm\0"
 9518      00
 9519 02ba 24       		.byte	0x24
 9520 02bb 05       		.byte	0x5
 9521 02bc 35       		.byte	0x35
 9522 02bd 74030000 		.long	0x374
 9523 02c1 0C       		.uleb128 0xc
 9524 02c2 5F5F746D 		.ascii "__tm_sec\0"
 9524      5F736563 
 9524      00
 9525 02cb 05       		.byte	0x5
 9526 02cc 36       		.byte	0x36
 9527 02cd EA000000 		.long	0xea
 9528 02d1 02       		.byte	0x2
 9529 02d2 23       		.byte	0x23
 9530 02d3 00       		.uleb128 0x0
 9531 02d4 0C       		.uleb128 0xc
 9532 02d5 5F5F746D 		.ascii "__tm_min\0"
 9532      5F6D696E 
 9532      00
 9533 02de 05       		.byte	0x5
 9534 02df 37       		.byte	0x37
 9535 02e0 EA000000 		.long	0xea
 9536 02e4 02       		.byte	0x2
 9537 02e5 23       		.byte	0x23
 9538 02e6 04       		.uleb128 0x4
 9539 02e7 0C       		.uleb128 0xc
 9540 02e8 5F5F746D 		.ascii "__tm_hour\0"
 9540      5F686F75 
 9540      7200
 9541 02f2 05       		.byte	0x5
 9542 02f3 38       		.byte	0x38
 9543 02f4 EA000000 		.long	0xea
 9544 02f8 02       		.byte	0x2
GAS LISTING /cygdrive/c/Users/THESCI~1/AppData/Local/Temp/ccH1olGy.s 			page 228


 9545 02f9 23       		.byte	0x23
 9546 02fa 08       		.uleb128 0x8
 9547 02fb 0C       		.uleb128 0xc
 9548 02fc 5F5F746D 		.ascii "__tm_mday\0"
 9548      5F6D6461 
 9548      7900
 9549 0306 05       		.byte	0x5
 9550 0307 39       		.byte	0x39
 9551 0308 EA000000 		.long	0xea
 9552 030c 02       		.byte	0x2
 9553 030d 23       		.byte	0x23
 9554 030e 0C       		.uleb128 0xc
 9555 030f 0C       		.uleb128 0xc
 9556 0310 5F5F746D 		.ascii "__tm_mon\0"
 9556      5F6D6F6E 
 9556      00
 9557 0319 05       		.byte	0x5
 9558 031a 3A       		.byte	0x3a
 9559 031b EA000000 		.long	0xea
 9560 031f 02       		.byte	0x2
 9561 0320 23       		.byte	0x23
 9562 0321 10       		.uleb128 0x10
 9563 0322 0C       		.uleb128 0xc
 9564 0323 5F5F746D 		.ascii "__tm_year\0"
 9564      5F796561 
 9564      7200
 9565 032d 05       		.byte	0x5
 9566 032e 3B       		.byte	0x3b
 9567 032f EA000000 		.long	0xea
 9568 0333 02       		.byte	0x2
 9569 0334 23       		.byte	0x23
 9570 0335 14       		.uleb128 0x14
 9571 0336 0C       		.uleb128 0xc
 9572 0337 5F5F746D 		.ascii "__tm_wday\0"
 9572      5F776461 
 9572      7900
 9573 0341 05       		.byte	0x5
 9574 0342 3C       		.byte	0x3c
 9575 0343 EA000000 		.long	0xea
 9576 0347 02       		.byte	0x2
 9577 0348 23       		.byte	0x23
 9578 0349 18       		.uleb128 0x18
 9579 034a 0C       		.uleb128 0xc
 9580 034b 5F5F746D 		.ascii "__tm_yday\0"
 9580      5F796461 
 9580      7900
 9581 0355 05       		.byte	0x5
 9582 0356 3D       		.byte	0x3d
 9583 0357 EA000000 		.long	0xea
 9584 035b 02       		.byte	0x2
 9585 035c 23       		.byte	0x23
 9586 035d 1C       		.uleb128 0x1c
 9587 035e 0C       		.uleb128 0xc
 9588 035f 5F5F746D 		.ascii "__tm_isdst\0"
 9588      5F697364 
 9588      737400
 9589 036a 05       		.byte	0x5
GAS LISTING /cygdrive/c/Users/THESCI~1/AppData/Local/Temp/ccH1olGy.s 			page 229


 9590 036b 3E       		.byte	0x3e
 9591 036c EA000000 		.long	0xea
 9592 0370 02       		.byte	0x2
 9593 0371 23       		.byte	0x23
 9594 0372 20       		.uleb128 0x20
 9595 0373 00       		.byte	0x0
 9596 0374 0F       		.uleb128 0xf
 9597 0375 00000000 		.secrel32	LASF0
 9598 0379 0801     		.word	0x108
 9599 037b 05       		.byte	0x5
 9600 037c 47       		.byte	0x47
 9601 037d D2030000 		.long	0x3d2
 9602 0381 0C       		.uleb128 0xc
 9603 0382 5F666E61 		.ascii "_fnargs\0"
 9603      72677300 
 9604 038a 05       		.byte	0x5
 9605 038b 48       		.byte	0x48
 9606 038c D2030000 		.long	0x3d2
 9607 0390 02       		.byte	0x2
 9608 0391 23       		.byte	0x23
 9609 0392 00       		.uleb128 0x0
 9610 0393 0C       		.uleb128 0xc
 9611 0394 5F64736F 		.ascii "_dso_handle\0"
 9611      5F68616E 
 9611      646C6500 
 9612 03a0 05       		.byte	0x5
 9613 03a1 49       		.byte	0x49
 9614 03a2 D2030000 		.long	0x3d2
 9615 03a6 03       		.byte	0x3
 9616 03a7 23       		.byte	0x23
 9617 03a8 8001     		.uleb128 0x80
 9618 03aa 0C       		.uleb128 0xc
 9619 03ab 5F666E74 		.ascii "_fntypes\0"
 9619      79706573 
 9619      00
 9620 03b4 05       		.byte	0x5
 9621 03b5 4B       		.byte	0x4b
 9622 03b6 0E020000 		.long	0x20e
 9623 03ba 03       		.byte	0x3
 9624 03bb 23       		.byte	0x23
 9625 03bc 8002     		.uleb128 0x100
 9626 03be 0C       		.uleb128 0xc
 9627 03bf 5F69735F 		.ascii "_is_cxa\0"
 9627      63786100 
 9628 03c7 05       		.byte	0x5
 9629 03c8 4E       		.byte	0x4e
 9630 03c9 0E020000 		.long	0x20e
 9631 03cd 03       		.byte	0x3
 9632 03ce 23       		.byte	0x23
 9633 03cf 8402     		.uleb128 0x104
 9634 03d1 00       		.byte	0x0
 9635 03d2 08       		.uleb128 0x8
 9636 03d3 2B010000 		.long	0x12b
 9637 03d7 E2030000 		.long	0x3e2
 9638 03db 09       		.uleb128 0x9
 9639 03dc BC010000 		.long	0x1bc
 9640 03e0 1F       		.byte	0x1f
GAS LISTING /cygdrive/c/Users/THESCI~1/AppData/Local/Temp/ccH1olGy.s 			page 230


 9641 03e1 00       		.byte	0x0
 9642 03e2 10       		.uleb128 0x10
 9643 03e3 5F617465 		.ascii "_atexit\0"
 9643      78697400 
 9644 03eb 9001     		.word	0x190
 9645 03ed 05       		.byte	0x5
 9646 03ee 59       		.byte	0x59
 9647 03ef 31040000 		.long	0x431
 9648 03f3 0C       		.uleb128 0xc
 9649 03f4 5F6E6578 		.ascii "_next\0"
 9649      7400
 9650 03fa 05       		.byte	0x5
 9651 03fb 5A       		.byte	0x5a
 9652 03fc 31040000 		.long	0x431
 9653 0400 02       		.byte	0x2
 9654 0401 23       		.byte	0x23
 9655 0402 00       		.uleb128 0x0
 9656 0403 0C       		.uleb128 0xc
 9657 0404 5F696E64 		.ascii "_ind\0"
 9657      00
 9658 0409 05       		.byte	0x5
 9659 040a 5B       		.byte	0x5b
 9660 040b EA000000 		.long	0xea
 9661 040f 02       		.byte	0x2
 9662 0410 23       		.byte	0x23
 9663 0411 04       		.uleb128 0x4
 9664 0412 0C       		.uleb128 0xc
 9665 0413 5F666E73 		.ascii "_fns\0"
 9665      00
 9666 0418 05       		.byte	0x5
 9667 0419 5D       		.byte	0x5d
 9668 041a 37040000 		.long	0x437
 9669 041e 02       		.byte	0x2
 9670 041f 23       		.byte	0x23
 9671 0420 08       		.uleb128 0x8
 9672 0421 11       		.uleb128 0x11
 9673 0422 00000000 		.secrel32	LASF0
 9674 0426 05       		.byte	0x5
 9675 0427 5E       		.byte	0x5e
 9676 0428 74030000 		.long	0x374
 9677 042c 03       		.byte	0x3
 9678 042d 23       		.byte	0x23
 9679 042e 8801     		.uleb128 0x88
 9680 0430 00       		.byte	0x0
 9681 0431 0E       		.uleb128 0xe
 9682 0432 04       		.byte	0x4
 9683 0433 E2030000 		.long	0x3e2
 9684 0437 08       		.uleb128 0x8
 9685 0438 49040000 		.long	0x449
 9686 043c 47040000 		.long	0x447
 9687 0440 09       		.uleb128 0x9
 9688 0441 BC010000 		.long	0x1bc
 9689 0445 1F       		.byte	0x1f
 9690 0446 00       		.byte	0x0
 9691 0447 12       		.uleb128 0x12
 9692 0448 01       		.byte	0x1
 9693 0449 0E       		.uleb128 0xe
GAS LISTING /cygdrive/c/Users/THESCI~1/AppData/Local/Temp/ccH1olGy.s 			page 231


 9694 044a 04       		.byte	0x4
 9695 044b 47040000 		.long	0x447
 9696 044f 0D       		.uleb128 0xd
 9697 0450 5F5F7362 		.ascii "__sbuf\0"
 9697      756600
 9698 0457 08       		.byte	0x8
 9699 0458 05       		.byte	0x5
 9700 0459 69       		.byte	0x69
 9701 045a 7F040000 		.long	0x47f
 9702 045e 0C       		.uleb128 0xc
 9703 045f 5F626173 		.ascii "_base\0"
 9703      6500
 9704 0465 05       		.byte	0x5
 9705 0466 6A       		.byte	0x6a
 9706 0467 7F040000 		.long	0x47f
 9707 046b 02       		.byte	0x2
 9708 046c 23       		.byte	0x23
 9709 046d 00       		.uleb128 0x0
 9710 046e 0C       		.uleb128 0xc
 9711 046f 5F73697A 		.ascii "_size\0"
 9711      6500
 9712 0475 05       		.byte	0x5
 9713 0476 6B       		.byte	0x6b
 9714 0477 EA000000 		.long	0xea
 9715 047b 02       		.byte	0x2
 9716 047c 23       		.byte	0x23
 9717 047d 04       		.uleb128 0x4
 9718 047e 00       		.byte	0x0
 9719 047f 0E       		.uleb128 0xe
 9720 0480 04       		.byte	0x4
 9721 0481 CC000000 		.long	0xcc
 9722 0485 13       		.uleb128 0x13
 9723 0486 01       		.byte	0x1
 9724 0487 69010000 		.long	0x169
 9725 048b A4040000 		.long	0x4a4
 9726 048f 14       		.uleb128 0x14
 9727 0490 A4040000 		.long	0x4a4
 9728 0494 14       		.uleb128 0x14
 9729 0495 2B010000 		.long	0x12b
 9730 0499 14       		.uleb128 0x14
 9731 049a 75060000 		.long	0x675
 9732 049e 14       		.uleb128 0x14
 9733 049f EA000000 		.long	0xea
 9734 04a3 00       		.byte	0x0
 9735 04a4 0E       		.uleb128 0xe
 9736 04a5 04       		.byte	0x4
 9737 04a6 AA040000 		.long	0x4aa
 9738 04aa 10       		.uleb128 0x10
 9739 04ab 5F726565 		.ascii "_reent\0"
 9739      6E7400
 9740 04b2 4004     		.word	0x440
 9741 04b4 05       		.byte	0x5
 9742 04b5 25       		.byte	0x25
 9743 04b6 75060000 		.long	0x675
 9744 04ba 15       		.uleb128 0x15
 9745 04bb 5F657272 		.ascii "_errno\0"
 9745      6E6F00
GAS LISTING /cygdrive/c/Users/THESCI~1/AppData/Local/Temp/ccH1olGy.s 			page 232


 9746 04c2 05       		.byte	0x5
 9747 04c3 4602     		.word	0x246
 9748 04c5 EA000000 		.long	0xea
 9749 04c9 02       		.byte	0x2
 9750 04ca 23       		.byte	0x23
 9751 04cb 00       		.uleb128 0x0
 9752 04cc 15       		.uleb128 0x15
 9753 04cd 5F737464 		.ascii "_stdin\0"
 9753      696E00
 9754 04d4 05       		.byte	0x5
 9755 04d5 4B02     		.word	0x24b
 9756 04d7 42090000 		.long	0x942
 9757 04db 02       		.byte	0x2
 9758 04dc 23       		.byte	0x23
 9759 04dd 04       		.uleb128 0x4
 9760 04de 15       		.uleb128 0x15
 9761 04df 5F737464 		.ascii "_stdout\0"
 9761      6F757400 
 9762 04e7 05       		.byte	0x5
 9763 04e8 4B02     		.word	0x24b
 9764 04ea 42090000 		.long	0x942
 9765 04ee 02       		.byte	0x2
 9766 04ef 23       		.byte	0x23
 9767 04f0 08       		.uleb128 0x8
 9768 04f1 15       		.uleb128 0x15
 9769 04f2 5F737464 		.ascii "_stderr\0"
 9769      65727200 
 9770 04fa 05       		.byte	0x5
 9771 04fb 4B02     		.word	0x24b
 9772 04fd 42090000 		.long	0x942
 9773 0501 02       		.byte	0x2
 9774 0502 23       		.byte	0x23
 9775 0503 0C       		.uleb128 0xc
 9776 0504 15       		.uleb128 0x15
 9777 0505 5F696E63 		.ascii "_inc\0"
 9777      00
 9778 050a 05       		.byte	0x5
 9779 050b 4D02     		.word	0x24d
 9780 050d EA000000 		.long	0xea
 9781 0511 02       		.byte	0x2
 9782 0512 23       		.byte	0x23
 9783 0513 10       		.uleb128 0x10
 9784 0514 15       		.uleb128 0x15
 9785 0515 5F656D65 		.ascii "_emergency\0"
 9785      7267656E 
 9785      637900
 9786 0520 05       		.byte	0x5
 9787 0521 4E02     		.word	0x24e
 9788 0523 210C0000 		.long	0xc21
 9789 0527 02       		.byte	0x2
 9790 0528 23       		.byte	0x23
 9791 0529 14       		.uleb128 0x14
 9792 052a 15       		.uleb128 0x15
 9793 052b 5F637572 		.ascii "_current_category\0"
 9793      72656E74 
 9793      5F636174 
 9793      65676F72 
GAS LISTING /cygdrive/c/Users/THESCI~1/AppData/Local/Temp/ccH1olGy.s 			page 233


 9793      7900
 9794 053d 05       		.byte	0x5
 9795 053e 5002     		.word	0x250
 9796 0540 EA000000 		.long	0xea
 9797 0544 02       		.byte	0x2
 9798 0545 23       		.byte	0x23
 9799 0546 30       		.uleb128 0x30
 9800 0547 15       		.uleb128 0x15
 9801 0548 5F637572 		.ascii "_current_locale\0"
 9801      72656E74 
 9801      5F6C6F63 
 9801      616C6500 
 9802 0558 05       		.byte	0x5
 9803 0559 5102     		.word	0x251
 9804 055b A8060000 		.long	0x6a8
 9805 055f 02       		.byte	0x2
 9806 0560 23       		.byte	0x23
 9807 0561 34       		.uleb128 0x34
 9808 0562 15       		.uleb128 0x15
 9809 0563 5F5F7364 		.ascii "__sdidinit\0"
 9809      6964696E 
 9809      697400
 9810 056e 05       		.byte	0x5
 9811 056f 5302     		.word	0x253
 9812 0571 EA000000 		.long	0xea
 9813 0575 02       		.byte	0x2
 9814 0576 23       		.byte	0x23
 9815 0577 38       		.uleb128 0x38
 9816 0578 15       		.uleb128 0x15
 9817 0579 5F5F636C 		.ascii "__cleanup\0"
 9817      65616E75 
 9817      7000
 9818 0583 05       		.byte	0x5
 9819 0584 5502     		.word	0x255
 9820 0586 3D0C0000 		.long	0xc3d
 9821 058a 02       		.byte	0x2
 9822 058b 23       		.byte	0x23
 9823 058c 3C       		.uleb128 0x3c
 9824 058d 15       		.uleb128 0x15
 9825 058e 5F726573 		.ascii "_result\0"
 9825      756C7400 
 9826 0596 05       		.byte	0x5
 9827 0597 5802     		.word	0x258
 9828 0599 9E020000 		.long	0x29e
 9829 059d 02       		.byte	0x2
 9830 059e 23       		.byte	0x23
 9831 059f 40       		.uleb128 0x40
 9832 05a0 15       		.uleb128 0x15
 9833 05a1 5F726573 		.ascii "_result_k\0"
 9833      756C745F 
 9833      6B00
 9834 05ab 05       		.byte	0x5
 9835 05ac 5902     		.word	0x259
 9836 05ae EA000000 		.long	0xea
 9837 05b2 02       		.byte	0x2
 9838 05b3 23       		.byte	0x23
 9839 05b4 44       		.uleb128 0x44
GAS LISTING /cygdrive/c/Users/THESCI~1/AppData/Local/Temp/ccH1olGy.s 			page 234


 9840 05b5 15       		.uleb128 0x15
 9841 05b6 5F703573 		.ascii "_p5s\0"
 9841      00
 9842 05bb 05       		.byte	0x5
 9843 05bc 5A02     		.word	0x25a
 9844 05be 9E020000 		.long	0x29e
 9845 05c2 02       		.byte	0x2
 9846 05c3 23       		.byte	0x23
 9847 05c4 48       		.uleb128 0x48
 9848 05c5 15       		.uleb128 0x15
 9849 05c6 5F667265 		.ascii "_freelist\0"
 9849      656C6973 
 9849      7400
 9850 05d0 05       		.byte	0x5
 9851 05d1 5B02     		.word	0x25b
 9852 05d3 430C0000 		.long	0xc43
 9853 05d7 02       		.byte	0x2
 9854 05d8 23       		.byte	0x23
 9855 05d9 4C       		.uleb128 0x4c
 9856 05da 15       		.uleb128 0x15
 9857 05db 5F637674 		.ascii "_cvtlen\0"
 9857      6C656E00 
 9858 05e3 05       		.byte	0x5
 9859 05e4 5E02     		.word	0x25e
 9860 05e6 EA000000 		.long	0xea
 9861 05ea 02       		.byte	0x2
 9862 05eb 23       		.byte	0x23
 9863 05ec 50       		.uleb128 0x50
 9864 05ed 15       		.uleb128 0x15
 9865 05ee 5F637674 		.ascii "_cvtbuf\0"
 9865      62756600 
 9866 05f6 05       		.byte	0x5
 9867 05f7 5F02     		.word	0x25f
 9868 05f9 75060000 		.long	0x675
 9869 05fd 02       		.byte	0x2
 9870 05fe 23       		.byte	0x23
 9871 05ff 54       		.uleb128 0x54
 9872 0600 15       		.uleb128 0x15
 9873 0601 5F6E6577 		.ascii "_new\0"
 9873      00
 9874 0606 05       		.byte	0x5
 9875 0607 8202     		.word	0x282
 9876 0609 F80B0000 		.long	0xbf8
 9877 060d 02       		.byte	0x2
 9878 060e 23       		.byte	0x23
 9879 060f 58       		.uleb128 0x58
 9880 0610 15       		.uleb128 0x15
 9881 0611 5F617465 		.ascii "_atexit\0"
 9881      78697400 
 9882 0619 05       		.byte	0x5
 9883 061a 8502     		.word	0x285
 9884 061c 31040000 		.long	0x431
 9885 0620 03       		.byte	0x3
 9886 0621 23       		.byte	0x23
 9887 0622 C802     		.uleb128 0x148
 9888 0624 15       		.uleb128 0x15
 9889 0625 5F617465 		.ascii "_atexit0\0"
GAS LISTING /cygdrive/c/Users/THESCI~1/AppData/Local/Temp/ccH1olGy.s 			page 235


 9889      78697430 
 9889      00
 9890 062e 05       		.byte	0x5
 9891 062f 8602     		.word	0x286
 9892 0631 E2030000 		.long	0x3e2
 9893 0635 03       		.byte	0x3
 9894 0636 23       		.byte	0x23
 9895 0637 CC02     		.uleb128 0x14c
 9896 0639 15       		.uleb128 0x15
 9897 063a 5F736967 		.ascii "_sig_func\0"
 9897      5F66756E 
 9897      6300
 9898 0644 05       		.byte	0x5
 9899 0645 8902     		.word	0x289
 9900 0647 550C0000 		.long	0xc55
 9901 064b 03       		.byte	0x3
 9902 064c 23       		.byte	0x23
 9903 064d DC05     		.uleb128 0x2dc
 9904 064f 15       		.uleb128 0x15
 9905 0650 5F5F7367 		.ascii "__sglue\0"
 9905      6C756500 
 9906 0658 05       		.byte	0x5
 9907 0659 8E02     		.word	0x28e
 9908 065b F8080000 		.long	0x8f8
 9909 065f 03       		.byte	0x3
 9910 0660 23       		.byte	0x23
 9911 0661 E005     		.uleb128 0x2e0
 9912 0663 15       		.uleb128 0x15
 9913 0664 5F5F7366 		.ascii "__sf\0"
 9913      00
 9914 0669 05       		.byte	0x5
 9915 066a 8F02     		.word	0x28f
 9916 066c 610C0000 		.long	0xc61
 9917 0670 03       		.byte	0x3
 9918 0671 23       		.byte	0x23
 9919 0672 F005     		.uleb128 0x2f0
 9920 0674 00       		.byte	0x0
 9921 0675 0E       		.uleb128 0xe
 9922 0676 04       		.byte	0x4
 9923 0677 7B060000 		.long	0x67b
 9924 067b 02       		.uleb128 0x2
 9925 067c 01       		.byte	0x1
 9926 067d 06       		.byte	0x6
 9927 067e 63686172 		.ascii "char\0"
 9927      00
 9928 0683 0E       		.uleb128 0xe
 9929 0684 04       		.byte	0x4
 9930 0685 85040000 		.long	0x485
 9931 0689 13       		.uleb128 0x13
 9932 068a 01       		.byte	0x1
 9933 068b 69010000 		.long	0x169
 9934 068f A8060000 		.long	0x6a8
 9935 0693 14       		.uleb128 0x14
 9936 0694 A4040000 		.long	0x4a4
 9937 0698 14       		.uleb128 0x14
 9938 0699 2B010000 		.long	0x12b
 9939 069d 14       		.uleb128 0x14
GAS LISTING /cygdrive/c/Users/THESCI~1/AppData/Local/Temp/ccH1olGy.s 			page 236


 9940 069e A8060000 		.long	0x6a8
 9941 06a2 14       		.uleb128 0x14
 9942 06a3 EA000000 		.long	0xea
 9943 06a7 00       		.byte	0x0
 9944 06a8 0E       		.uleb128 0xe
 9945 06a9 04       		.byte	0x4
 9946 06aa AE060000 		.long	0x6ae
 9947 06ae 16       		.uleb128 0x16
 9948 06af 7B060000 		.long	0x67b
 9949 06b3 0E       		.uleb128 0xe
 9950 06b4 04       		.byte	0x4
 9951 06b5 89060000 		.long	0x689
 9952 06b9 13       		.uleb128 0x13
 9953 06ba 01       		.byte	0x1
 9954 06bb 49010000 		.long	0x149
 9955 06bf D8060000 		.long	0x6d8
 9956 06c3 14       		.uleb128 0x14
 9957 06c4 A4040000 		.long	0x4a4
 9958 06c8 14       		.uleb128 0x14
 9959 06c9 2B010000 		.long	0x12b
 9960 06cd 14       		.uleb128 0x14
 9961 06ce 49010000 		.long	0x149
 9962 06d2 14       		.uleb128 0x14
 9963 06d3 EA000000 		.long	0xea
 9964 06d7 00       		.byte	0x0
 9965 06d8 0E       		.uleb128 0xe
 9966 06d9 04       		.byte	0x4
 9967 06da B9060000 		.long	0x6b9
 9968 06de 13       		.uleb128 0x13
 9969 06df 01       		.byte	0x1
 9970 06e0 EA000000 		.long	0xea
 9971 06e4 F3060000 		.long	0x6f3
 9972 06e8 14       		.uleb128 0x14
 9973 06e9 A4040000 		.long	0x4a4
 9974 06ed 14       		.uleb128 0x14
 9975 06ee 2B010000 		.long	0x12b
 9976 06f2 00       		.byte	0x0
 9977 06f3 0E       		.uleb128 0xe
 9978 06f4 04       		.byte	0x4
 9979 06f5 DE060000 		.long	0x6de
 9980 06f9 08       		.uleb128 0x8
 9981 06fa CC000000 		.long	0xcc
 9982 06fe 09070000 		.long	0x709
 9983 0702 09       		.uleb128 0x9
 9984 0703 BC010000 		.long	0x1bc
 9985 0707 02       		.byte	0x2
 9986 0708 00       		.byte	0x0
 9987 0709 08       		.uleb128 0x8
 9988 070a CC000000 		.long	0xcc
 9989 070e 19070000 		.long	0x719
 9990 0712 09       		.uleb128 0x9
 9991 0713 BC010000 		.long	0x1bc
 9992 0717 00       		.byte	0x0
 9993 0718 00       		.byte	0x0
 9994 0719 0D       		.uleb128 0xd
 9995 071a 5F5F7346 		.ascii "__sFILE64\0"
 9995      494C4536 
GAS LISTING /cygdrive/c/Users/THESCI~1/AppData/Local/Temp/ccH1olGy.s 			page 237


 9995      3400
 9996 0724 70       		.byte	0x70
 9997 0725 05       		.byte	0x5
 9998 0726 E2       		.byte	0xe2
 9999 0727 C4080000 		.long	0x8c4
 10000 072b 0C       		.uleb128 0xc
 10001 072c 5F7000   		.ascii "_p\0"
 10002 072f 05       		.byte	0x5
 10003 0730 E3       		.byte	0xe3
 10004 0731 7F040000 		.long	0x47f
 10005 0735 02       		.byte	0x2
 10006 0736 23       		.byte	0x23
 10007 0737 00       		.uleb128 0x0
 10008 0738 0C       		.uleb128 0xc
 10009 0739 5F7200   		.ascii "_r\0"
 10010 073c 05       		.byte	0x5
 10011 073d E4       		.byte	0xe4
 10012 073e EA000000 		.long	0xea
 10013 0742 02       		.byte	0x2
 10014 0743 23       		.byte	0x23
 10015 0744 04       		.uleb128 0x4
 10016 0745 0C       		.uleb128 0xc
 10017 0746 5F7700   		.ascii "_w\0"
 10018 0749 05       		.byte	0x5
 10019 074a E5       		.byte	0xe5
 10020 074b EA000000 		.long	0xea
 10021 074f 02       		.byte	0x2
 10022 0750 23       		.byte	0x23
 10023 0751 08       		.uleb128 0x8
 10024 0752 0C       		.uleb128 0xc
 10025 0753 5F666C61 		.ascii "_flags\0"
 10025      677300
 10026 075a 05       		.byte	0x5
 10027 075b E6       		.byte	0xe6
 10028 075c DD000000 		.long	0xdd
 10029 0760 02       		.byte	0x2
 10030 0761 23       		.byte	0x23
 10031 0762 0C       		.uleb128 0xc
 10032 0763 0C       		.uleb128 0xc
 10033 0764 5F66696C 		.ascii "_file\0"
 10033      6500
 10034 076a 05       		.byte	0x5
 10035 076b E7       		.byte	0xe7
 10036 076c DD000000 		.long	0xdd
 10037 0770 02       		.byte	0x2
 10038 0771 23       		.byte	0x23
 10039 0772 0E       		.uleb128 0xe
 10040 0773 0C       		.uleb128 0xc
 10041 0774 5F626600 		.ascii "_bf\0"
 10042 0778 05       		.byte	0x5
 10043 0779 E8       		.byte	0xe8
 10044 077a 4F040000 		.long	0x44f
 10045 077e 02       		.byte	0x2
 10046 077f 23       		.byte	0x23
 10047 0780 10       		.uleb128 0x10
 10048 0781 0C       		.uleb128 0xc
 10049 0782 5F6C6266 		.ascii "_lbfsize\0"
GAS LISTING /cygdrive/c/Users/THESCI~1/AppData/Local/Temp/ccH1olGy.s 			page 238


 10049      73697A65 
 10049      00
 10050 078b 05       		.byte	0x5
 10051 078c E9       		.byte	0xe9
 10052 078d EA000000 		.long	0xea
 10053 0791 02       		.byte	0x2
 10054 0792 23       		.byte	0x23
 10055 0793 18       		.uleb128 0x18
 10056 0794 0C       		.uleb128 0xc
 10057 0795 5F646174 		.ascii "_data\0"
 10057      6100
 10058 079b 05       		.byte	0x5
 10059 079c EB       		.byte	0xeb
 10060 079d A4040000 		.long	0x4a4
 10061 07a1 02       		.byte	0x2
 10062 07a2 23       		.byte	0x23
 10063 07a3 1C       		.uleb128 0x1c
 10064 07a4 0C       		.uleb128 0xc
 10065 07a5 5F636F6F 		.ascii "_cookie\0"
 10065      6B696500 
 10066 07ad 05       		.byte	0x5
 10067 07ae EE       		.byte	0xee
 10068 07af 2B010000 		.long	0x12b
 10069 07b3 02       		.byte	0x2
 10070 07b4 23       		.byte	0x23
 10071 07b5 20       		.uleb128 0x20
 10072 07b6 0C       		.uleb128 0xc
 10073 07b7 5F726561 		.ascii "_read\0"
 10073      6400
 10074 07bd 05       		.byte	0x5
 10075 07be F0       		.byte	0xf0
 10076 07bf 83060000 		.long	0x683
 10077 07c3 02       		.byte	0x2
 10078 07c4 23       		.byte	0x23
 10079 07c5 24       		.uleb128 0x24
 10080 07c6 0C       		.uleb128 0xc
 10081 07c7 5F777269 		.ascii "_write\0"
 10081      746500
 10082 07ce 05       		.byte	0x5
 10083 07cf F2       		.byte	0xf2
 10084 07d0 B3060000 		.long	0x6b3
 10085 07d4 02       		.byte	0x2
 10086 07d5 23       		.byte	0x23
 10087 07d6 28       		.uleb128 0x28
 10088 07d7 0C       		.uleb128 0xc
 10089 07d8 5F736565 		.ascii "_seek\0"
 10089      6B00
 10090 07de 05       		.byte	0x5
 10091 07df F4       		.byte	0xf4
 10092 07e0 D8060000 		.long	0x6d8
 10093 07e4 02       		.byte	0x2
 10094 07e5 23       		.byte	0x23
 10095 07e6 2C       		.uleb128 0x2c
 10096 07e7 0C       		.uleb128 0xc
 10097 07e8 5F636C6F 		.ascii "_close\0"
 10097      736500
 10098 07ef 05       		.byte	0x5
GAS LISTING /cygdrive/c/Users/THESCI~1/AppData/Local/Temp/ccH1olGy.s 			page 239


 10099 07f0 F5       		.byte	0xf5
 10100 07f1 F3060000 		.long	0x6f3
 10101 07f5 02       		.byte	0x2
 10102 07f6 23       		.byte	0x23
 10103 07f7 30       		.uleb128 0x30
 10104 07f8 0C       		.uleb128 0xc
 10105 07f9 5F756200 		.ascii "_ub\0"
 10106 07fd 05       		.byte	0x5
 10107 07fe F8       		.byte	0xf8
 10108 07ff 4F040000 		.long	0x44f
 10109 0803 02       		.byte	0x2
 10110 0804 23       		.byte	0x23
 10111 0805 34       		.uleb128 0x34
 10112 0806 0C       		.uleb128 0xc
 10113 0807 5F757000 		.ascii "_up\0"
 10114 080b 05       		.byte	0x5
 10115 080c F9       		.byte	0xf9
 10116 080d 7F040000 		.long	0x47f
 10117 0811 02       		.byte	0x2
 10118 0812 23       		.byte	0x23
 10119 0813 3C       		.uleb128 0x3c
 10120 0814 0C       		.uleb128 0xc
 10121 0815 5F757200 		.ascii "_ur\0"
 10122 0819 05       		.byte	0x5
 10123 081a FA       		.byte	0xfa
 10124 081b EA000000 		.long	0xea
 10125 081f 02       		.byte	0x2
 10126 0820 23       		.byte	0x23
 10127 0821 40       		.uleb128 0x40
 10128 0822 0C       		.uleb128 0xc
 10129 0823 5F756275 		.ascii "_ubuf\0"
 10129      6600
 10130 0829 05       		.byte	0x5
 10131 082a FD       		.byte	0xfd
 10132 082b F9060000 		.long	0x6f9
 10133 082f 02       		.byte	0x2
 10134 0830 23       		.byte	0x23
 10135 0831 44       		.uleb128 0x44
 10136 0832 0C       		.uleb128 0xc
 10137 0833 5F6E6275 		.ascii "_nbuf\0"
 10137      6600
 10138 0839 05       		.byte	0x5
 10139 083a FE       		.byte	0xfe
 10140 083b 09070000 		.long	0x709
 10141 083f 02       		.byte	0x2
 10142 0840 23       		.byte	0x23
 10143 0841 47       		.uleb128 0x47
 10144 0842 15       		.uleb128 0x15
 10145 0843 5F6C6200 		.ascii "_lb\0"
 10146 0847 05       		.byte	0x5
 10147 0848 0101     		.word	0x101
 10148 084a 4F040000 		.long	0x44f
 10149 084e 02       		.byte	0x2
 10150 084f 23       		.byte	0x23
 10151 0850 48       		.uleb128 0x48
 10152 0851 15       		.uleb128 0x15
 10153 0852 5F626C6B 		.ascii "_blksize\0"
GAS LISTING /cygdrive/c/Users/THESCI~1/AppData/Local/Temp/ccH1olGy.s 			page 240


 10153      73697A65 
 10153      00
 10154 085b 05       		.byte	0x5
 10155 085c 0401     		.word	0x104
 10156 085e EA000000 		.long	0xea
 10157 0862 02       		.byte	0x2
 10158 0863 23       		.byte	0x23
 10159 0864 50       		.uleb128 0x50
 10160 0865 15       		.uleb128 0x15
 10161 0866 5F666C61 		.ascii "_flags2\0"
 10161      67733200 
 10162 086e 05       		.byte	0x5
 10163 086f 0501     		.word	0x105
 10164 0871 EA000000 		.long	0xea
 10165 0875 02       		.byte	0x2
 10166 0876 23       		.byte	0x23
 10167 0877 54       		.uleb128 0x54
 10168 0878 15       		.uleb128 0x15
 10169 0879 5F6F6666 		.ascii "_offset\0"
 10169      73657400 
 10170 0881 05       		.byte	0x5
 10171 0882 0701     		.word	0x107
 10172 0884 39010000 		.long	0x139
 10173 0888 02       		.byte	0x2
 10174 0889 23       		.byte	0x23
 10175 088a 58       		.uleb128 0x58
 10176 088b 15       		.uleb128 0x15
 10177 088c 5F736565 		.ascii "_seek64\0"
 10177      6B363400 
 10178 0894 05       		.byte	0x5
 10179 0895 0801     		.word	0x108
 10180 0897 E3080000 		.long	0x8e3
 10181 089b 02       		.byte	0x2
 10182 089c 23       		.byte	0x23
 10183 089d 60       		.uleb128 0x60
 10184 089e 15       		.uleb128 0x15
 10185 089f 5F6C6F63 		.ascii "_lock\0"
 10185      6B00
 10186 08a5 05       		.byte	0x5
 10187 08a6 0B01     		.word	0x10b
 10188 08a8 FE010000 		.long	0x1fe
 10189 08ac 02       		.byte	0x2
 10190 08ad 23       		.byte	0x23
 10191 08ae 64       		.uleb128 0x64
 10192 08af 15       		.uleb128 0x15
 10193 08b0 5F6D6273 		.ascii "_mbstate\0"
 10193      74617465 
 10193      00
 10194 08b9 05       		.byte	0x5
 10195 08ba 0D01     		.word	0x10d
 10196 08bc EC010000 		.long	0x1ec
 10197 08c0 02       		.byte	0x2
 10198 08c1 23       		.byte	0x23
 10199 08c2 68       		.uleb128 0x68
 10200 08c3 00       		.byte	0x0
 10201 08c4 13       		.uleb128 0x13
 10202 08c5 01       		.byte	0x1
GAS LISTING /cygdrive/c/Users/THESCI~1/AppData/Local/Temp/ccH1olGy.s 			page 241


 10203 08c6 58010000 		.long	0x158
 10204 08ca E3080000 		.long	0x8e3
 10205 08ce 14       		.uleb128 0x14
 10206 08cf A4040000 		.long	0x4a4
 10207 08d3 14       		.uleb128 0x14
 10208 08d4 2B010000 		.long	0x12b
 10209 08d8 14       		.uleb128 0x14
 10210 08d9 58010000 		.long	0x158
 10211 08dd 14       		.uleb128 0x14
 10212 08de EA000000 		.long	0xea
 10213 08e2 00       		.byte	0x0
 10214 08e3 0E       		.uleb128 0xe
 10215 08e4 04       		.byte	0x4
 10216 08e5 C4080000 		.long	0x8c4
 10217 08e9 05       		.uleb128 0x5
 10218 08ea 5F5F4649 		.ascii "__FILE\0"
 10218      4C4500
 10219 08f1 05       		.byte	0x5
 10220 08f2 0F01     		.word	0x10f
 10221 08f4 19070000 		.long	0x719
 10222 08f8 17       		.uleb128 0x17
 10223 08f9 5F676C75 		.ascii "_glue\0"
 10223      6500
 10224 08ff 0C       		.byte	0xc
 10225 0900 05       		.byte	0x5
 10226 0901 1601     		.word	0x116
 10227 0903 3C090000 		.long	0x93c
 10228 0907 15       		.uleb128 0x15
 10229 0908 5F6E6578 		.ascii "_next\0"
 10229      7400
 10230 090e 05       		.byte	0x5
 10231 090f 1701     		.word	0x117
 10232 0911 3C090000 		.long	0x93c
 10233 0915 02       		.byte	0x2
 10234 0916 23       		.byte	0x23
 10235 0917 00       		.uleb128 0x0
 10236 0918 15       		.uleb128 0x15
 10237 0919 5F6E696F 		.ascii "_niobs\0"
 10237      627300
 10238 0920 05       		.byte	0x5
 10239 0921 1801     		.word	0x118
 10240 0923 EA000000 		.long	0xea
 10241 0927 02       		.byte	0x2
 10242 0928 23       		.byte	0x23
 10243 0929 04       		.uleb128 0x4
 10244 092a 15       		.uleb128 0x15
 10245 092b 5F696F62 		.ascii "_iobs\0"
 10245      7300
 10246 0931 05       		.byte	0x5
 10247 0932 1901     		.word	0x119
 10248 0934 42090000 		.long	0x942
 10249 0938 02       		.byte	0x2
 10250 0939 23       		.byte	0x23
 10251 093a 08       		.uleb128 0x8
 10252 093b 00       		.byte	0x0
 10253 093c 0E       		.uleb128 0xe
 10254 093d 04       		.byte	0x4
GAS LISTING /cygdrive/c/Users/THESCI~1/AppData/Local/Temp/ccH1olGy.s 			page 242


 10255 093e F8080000 		.long	0x8f8
 10256 0942 0E       		.uleb128 0xe
 10257 0943 04       		.byte	0x4
 10258 0944 E9080000 		.long	0x8e9
 10259 0948 17       		.uleb128 0x17
 10260 0949 5F72616E 		.ascii "_rand48\0"
 10260      64343800 
 10261 0951 0E       		.byte	0xe
 10262 0952 05       		.byte	0x5
 10263 0953 3101     		.word	0x131
 10264 0955 8C090000 		.long	0x98c
 10265 0959 15       		.uleb128 0x15
 10266 095a 5F736565 		.ascii "_seed\0"
 10266      6400
 10267 0960 05       		.byte	0x5
 10268 0961 3201     		.word	0x132
 10269 0963 8C090000 		.long	0x98c
 10270 0967 02       		.byte	0x2
 10271 0968 23       		.byte	0x23
 10272 0969 00       		.uleb128 0x0
 10273 096a 15       		.uleb128 0x15
 10274 096b 5F6D756C 		.ascii "_mult\0"
 10274      7400
 10275 0971 05       		.byte	0x5
 10276 0972 3301     		.word	0x133
 10277 0974 8C090000 		.long	0x98c
 10278 0978 02       		.byte	0x2
 10279 0979 23       		.byte	0x23
 10280 097a 06       		.uleb128 0x6
 10281 097b 15       		.uleb128 0x15
 10282 097c 5F616464 		.ascii "_add\0"
 10282      00
 10283 0981 05       		.byte	0x5
 10284 0982 3401     		.word	0x134
 10285 0984 A7000000 		.long	0xa7
 10286 0988 02       		.byte	0x2
 10287 0989 23       		.byte	0x23
 10288 098a 0C       		.uleb128 0xc
 10289 098b 00       		.byte	0x0
 10290 098c 08       		.uleb128 0x8
 10291 098d A7000000 		.long	0xa7
 10292 0991 9C090000 		.long	0x99c
 10293 0995 09       		.uleb128 0x9
 10294 0996 BC010000 		.long	0x1bc
 10295 099a 02       		.byte	0x2
 10296 099b 00       		.byte	0x0
 10297 099c 18       		.uleb128 0x18
 10298 099d D0       		.byte	0xd0
 10299 099e 05       		.byte	0x5
 10300 099f 6402     		.word	0x264
 10301 09a1 780B0000 		.long	0xb78
 10302 09a5 15       		.uleb128 0x15
 10303 09a6 5F756E75 		.ascii "_unused_rand\0"
 10303      7365645F 
 10303      72616E64 
 10303      00
 10304 09b3 05       		.byte	0x5
GAS LISTING /cygdrive/c/Users/THESCI~1/AppData/Local/Temp/ccH1olGy.s 			page 243


 10305 09b4 6502     		.word	0x265
 10306 09b6 97000000 		.long	0x97
 10307 09ba 02       		.byte	0x2
 10308 09bb 23       		.byte	0x23
 10309 09bc 00       		.uleb128 0x0
 10310 09bd 15       		.uleb128 0x15
 10311 09be 5F737472 		.ascii "_strtok_last\0"
 10311      746F6B5F 
 10311      6C617374 
 10311      00
 10312 09cb 05       		.byte	0x5
 10313 09cc 6602     		.word	0x266
 10314 09ce 75060000 		.long	0x675
 10315 09d2 02       		.byte	0x2
 10316 09d3 23       		.byte	0x23
 10317 09d4 04       		.uleb128 0x4
 10318 09d5 15       		.uleb128 0x15
 10319 09d6 5F617363 		.ascii "_asctime_buf\0"
 10319      74696D65 
 10319      5F627566 
 10319      00
 10320 09e3 05       		.byte	0x5
 10321 09e4 6702     		.word	0x267
 10322 09e6 780B0000 		.long	0xb78
 10323 09ea 02       		.byte	0x2
 10324 09eb 23       		.byte	0x23
 10325 09ec 08       		.uleb128 0x8
 10326 09ed 15       		.uleb128 0x15
 10327 09ee 5F6C6F63 		.ascii "_localtime_buf\0"
 10327      616C7469 
 10327      6D655F62 
 10327      756600
 10328 09fd 05       		.byte	0x5
 10329 09fe 6802     		.word	0x268
 10330 0a00 B4020000 		.long	0x2b4
 10331 0a04 02       		.byte	0x2
 10332 0a05 23       		.byte	0x23
 10333 0a06 24       		.uleb128 0x24
 10334 0a07 15       		.uleb128 0x15
 10335 0a08 5F67616D 		.ascii "_gamma_signgam\0"
 10335      6D615F73 
 10335      69676E67 
 10335      616D00
 10336 0a17 05       		.byte	0x5
 10337 0a18 6902     		.word	0x269
 10338 0a1a EA000000 		.long	0xea
 10339 0a1e 02       		.byte	0x2
 10340 0a1f 23       		.byte	0x23
 10341 0a20 48       		.uleb128 0x48
 10342 0a21 15       		.uleb128 0x15
 10343 0a22 5F72616E 		.ascii "_rand_next\0"
 10343      645F6E65 
 10343      787400
 10344 0a2d 05       		.byte	0x5
 10345 0a2e 6A02     		.word	0x26a
 10346 0a30 02010000 		.long	0x102
 10347 0a34 02       		.byte	0x2
GAS LISTING /cygdrive/c/Users/THESCI~1/AppData/Local/Temp/ccH1olGy.s 			page 244


 10348 0a35 23       		.byte	0x23
 10349 0a36 50       		.uleb128 0x50
 10350 0a37 15       		.uleb128 0x15
 10351 0a38 5F723438 		.ascii "_r48\0"
 10351      00
 10352 0a3d 05       		.byte	0x5
 10353 0a3e 6B02     		.word	0x26b
 10354 0a40 48090000 		.long	0x948
 10355 0a44 02       		.byte	0x2
 10356 0a45 23       		.byte	0x23
 10357 0a46 58       		.uleb128 0x58
 10358 0a47 15       		.uleb128 0x15
 10359 0a48 5F6D626C 		.ascii "_mblen_state\0"
 10359      656E5F73 
 10359      74617465 
 10359      00
 10360 0a55 05       		.byte	0x5
 10361 0a56 6C02     		.word	0x26c
 10362 0a58 EC010000 		.long	0x1ec
 10363 0a5c 02       		.byte	0x2
 10364 0a5d 23       		.byte	0x23
 10365 0a5e 68       		.uleb128 0x68
 10366 0a5f 15       		.uleb128 0x15
 10367 0a60 5F6D6274 		.ascii "_mbtowc_state\0"
 10367      6F77635F 
 10367      73746174 
 10367      6500
 10368 0a6e 05       		.byte	0x5
 10369 0a6f 6D02     		.word	0x26d
 10370 0a71 EC010000 		.long	0x1ec
 10371 0a75 02       		.byte	0x2
 10372 0a76 23       		.byte	0x23
 10373 0a77 70       		.uleb128 0x70
 10374 0a78 15       		.uleb128 0x15
 10375 0a79 5F776374 		.ascii "_wctomb_state\0"
 10375      6F6D625F 
 10375      73746174 
 10375      6500
 10376 0a87 05       		.byte	0x5
 10377 0a88 6E02     		.word	0x26e
 10378 0a8a EC010000 		.long	0x1ec
 10379 0a8e 02       		.byte	0x2
 10380 0a8f 23       		.byte	0x23
 10381 0a90 78       		.uleb128 0x78
 10382 0a91 15       		.uleb128 0x15
 10383 0a92 5F6C3634 		.ascii "_l64a_buf\0"
 10383      615F6275 
 10383      6600
 10384 0a9c 05       		.byte	0x5
 10385 0a9d 6F02     		.word	0x26f
 10386 0a9f 880B0000 		.long	0xb88
 10387 0aa3 03       		.byte	0x3
 10388 0aa4 23       		.byte	0x23
 10389 0aa5 8001     		.uleb128 0x80
 10390 0aa7 15       		.uleb128 0x15
 10391 0aa8 5F736967 		.ascii "_signal_buf\0"
 10391      6E616C5F 
GAS LISTING /cygdrive/c/Users/THESCI~1/AppData/Local/Temp/ccH1olGy.s 			page 245


 10391      62756600 
 10392 0ab4 05       		.byte	0x5
 10393 0ab5 7002     		.word	0x270
 10394 0ab7 980B0000 		.long	0xb98
 10395 0abb 03       		.byte	0x3
 10396 0abc 23       		.byte	0x23
 10397 0abd 8801     		.uleb128 0x88
 10398 0abf 15       		.uleb128 0x15
 10399 0ac0 5F676574 		.ascii "_getdate_err\0"
 10399      64617465 
 10399      5F657272 
 10399      00
 10400 0acd 05       		.byte	0x5
 10401 0ace 7102     		.word	0x271
 10402 0ad0 EA000000 		.long	0xea
 10403 0ad4 03       		.byte	0x3
 10404 0ad5 23       		.byte	0x23
 10405 0ad6 A001     		.uleb128 0xa0
 10406 0ad8 15       		.uleb128 0x15
 10407 0ad9 5F6D6272 		.ascii "_mbrlen_state\0"
 10407      6C656E5F 
 10407      73746174 
 10407      6500
 10408 0ae7 05       		.byte	0x5
 10409 0ae8 7202     		.word	0x272
 10410 0aea EC010000 		.long	0x1ec
 10411 0aee 03       		.byte	0x3
 10412 0aef 23       		.byte	0x23
 10413 0af0 A401     		.uleb128 0xa4
 10414 0af2 15       		.uleb128 0x15
 10415 0af3 5F6D6272 		.ascii "_mbrtowc_state\0"
 10415      746F7763 
 10415      5F737461 
 10415      746500
 10416 0b02 05       		.byte	0x5
 10417 0b03 7302     		.word	0x273
 10418 0b05 EC010000 		.long	0x1ec
 10419 0b09 03       		.byte	0x3
 10420 0b0a 23       		.byte	0x23
 10421 0b0b AC01     		.uleb128 0xac
 10422 0b0d 15       		.uleb128 0x15
 10423 0b0e 5F6D6273 		.ascii "_mbsrtowcs_state\0"
 10423      72746F77 
 10423      63735F73 
 10423      74617465 
 10423      00
 10424 0b1f 05       		.byte	0x5
 10425 0b20 7402     		.word	0x274
 10426 0b22 EC010000 		.long	0x1ec
 10427 0b26 03       		.byte	0x3
 10428 0b27 23       		.byte	0x23
 10429 0b28 B401     		.uleb128 0xb4
 10430 0b2a 15       		.uleb128 0x15
 10431 0b2b 5F776372 		.ascii "_wcrtomb_state\0"
 10431      746F6D62 
 10431      5F737461 
 10431      746500
GAS LISTING /cygdrive/c/Users/THESCI~1/AppData/Local/Temp/ccH1olGy.s 			page 246


 10432 0b3a 05       		.byte	0x5
 10433 0b3b 7502     		.word	0x275
 10434 0b3d EC010000 		.long	0x1ec
 10435 0b41 03       		.byte	0x3
 10436 0b42 23       		.byte	0x23
 10437 0b43 BC01     		.uleb128 0xbc
 10438 0b45 15       		.uleb128 0x15
 10439 0b46 5F776373 		.ascii "_wcsrtombs_state\0"
 10439      72746F6D 
 10439      62735F73 
 10439      74617465 
 10439      00
 10440 0b57 05       		.byte	0x5
 10441 0b58 7602     		.word	0x276
 10442 0b5a EC010000 		.long	0x1ec
 10443 0b5e 03       		.byte	0x3
 10444 0b5f 23       		.byte	0x23
 10445 0b60 C401     		.uleb128 0xc4
 10446 0b62 15       		.uleb128 0x15
 10447 0b63 5F685F65 		.ascii "_h_errno\0"
 10447      72726E6F 
 10447      00
 10448 0b6c 05       		.byte	0x5
 10449 0b6d 7702     		.word	0x277
 10450 0b6f EA000000 		.long	0xea
 10451 0b73 03       		.byte	0x3
 10452 0b74 23       		.byte	0x23
 10453 0b75 CC01     		.uleb128 0xcc
 10454 0b77 00       		.byte	0x0
 10455 0b78 08       		.uleb128 0x8
 10456 0b79 7B060000 		.long	0x67b
 10457 0b7d 880B0000 		.long	0xb88
 10458 0b81 09       		.uleb128 0x9
 10459 0b82 BC010000 		.long	0x1bc
 10460 0b86 19       		.byte	0x19
 10461 0b87 00       		.byte	0x0
 10462 0b88 08       		.uleb128 0x8
 10463 0b89 7B060000 		.long	0x67b
 10464 0b8d 980B0000 		.long	0xb98
 10465 0b91 09       		.uleb128 0x9
 10466 0b92 BC010000 		.long	0x1bc
 10467 0b96 07       		.byte	0x7
 10468 0b97 00       		.byte	0x0
 10469 0b98 08       		.uleb128 0x8
 10470 0b99 7B060000 		.long	0x67b
 10471 0b9d A80B0000 		.long	0xba8
 10472 0ba1 09       		.uleb128 0x9
 10473 0ba2 BC010000 		.long	0x1bc
 10474 0ba6 17       		.byte	0x17
 10475 0ba7 00       		.byte	0x0
 10476 0ba8 18       		.uleb128 0x18
 10477 0ba9 F0       		.byte	0xf0
 10478 0baa 05       		.byte	0x5
 10479 0bab 7D02     		.word	0x27d
 10480 0bad D80B0000 		.long	0xbd8
 10481 0bb1 15       		.uleb128 0x15
 10482 0bb2 5F6E6578 		.ascii "_nextf\0"
GAS LISTING /cygdrive/c/Users/THESCI~1/AppData/Local/Temp/ccH1olGy.s 			page 247


 10482      746600
 10483 0bb9 05       		.byte	0x5
 10484 0bba 7F02     		.word	0x27f
 10485 0bbc D80B0000 		.long	0xbd8
 10486 0bc0 02       		.byte	0x2
 10487 0bc1 23       		.byte	0x23
 10488 0bc2 00       		.uleb128 0x0
 10489 0bc3 15       		.uleb128 0x15
 10490 0bc4 5F6E6D61 		.ascii "_nmalloc\0"
 10490      6C6C6F63 
 10490      00
 10491 0bcd 05       		.byte	0x5
 10492 0bce 8002     		.word	0x280
 10493 0bd0 E80B0000 		.long	0xbe8
 10494 0bd4 02       		.byte	0x2
 10495 0bd5 23       		.byte	0x23
 10496 0bd6 78       		.uleb128 0x78
 10497 0bd7 00       		.byte	0x0
 10498 0bd8 08       		.uleb128 0x8
 10499 0bd9 7F040000 		.long	0x47f
 10500 0bdd E80B0000 		.long	0xbe8
 10501 0be1 09       		.uleb128 0x9
 10502 0be2 BC010000 		.long	0x1bc
 10503 0be6 1D       		.byte	0x1d
 10504 0be7 00       		.byte	0x0
 10505 0be8 08       		.uleb128 0x8
 10506 0be9 97000000 		.long	0x97
 10507 0bed F80B0000 		.long	0xbf8
 10508 0bf1 09       		.uleb128 0x9
 10509 0bf2 BC010000 		.long	0x1bc
 10510 0bf6 1D       		.byte	0x1d
 10511 0bf7 00       		.byte	0x0
 10512 0bf8 19       		.uleb128 0x19
 10513 0bf9 F0       		.byte	0xf0
 10514 0bfa 05       		.byte	0x5
 10515 0bfb 6202     		.word	0x262
 10516 0bfd 210C0000 		.long	0xc21
 10517 0c01 1A       		.uleb128 0x1a
 10518 0c02 5F726565 		.ascii "_reent\0"
 10518      6E7400
 10519 0c09 05       		.byte	0x5
 10520 0c0a 7802     		.word	0x278
 10521 0c0c 9C090000 		.long	0x99c
 10522 0c10 1A       		.uleb128 0x1a
 10523 0c11 5F756E75 		.ascii "_unused\0"
 10523      73656400 
 10524 0c19 05       		.byte	0x5
 10525 0c1a 8102     		.word	0x281
 10526 0c1c A80B0000 		.long	0xba8
 10527 0c20 00       		.byte	0x0
 10528 0c21 08       		.uleb128 0x8
 10529 0c22 7B060000 		.long	0x67b
 10530 0c26 310C0000 		.long	0xc31
 10531 0c2a 09       		.uleb128 0x9
 10532 0c2b BC010000 		.long	0x1bc
 10533 0c2f 18       		.byte	0x18
 10534 0c30 00       		.byte	0x0
GAS LISTING /cygdrive/c/Users/THESCI~1/AppData/Local/Temp/ccH1olGy.s 			page 248


 10535 0c31 1B       		.uleb128 0x1b
 10536 0c32 01       		.byte	0x1
 10537 0c33 3D0C0000 		.long	0xc3d
 10538 0c37 14       		.uleb128 0x14
 10539 0c38 A4040000 		.long	0x4a4
 10540 0c3c 00       		.byte	0x0
 10541 0c3d 0E       		.uleb128 0xe
 10542 0c3e 04       		.byte	0x4
 10543 0c3f 310C0000 		.long	0xc31
 10544 0c43 0E       		.uleb128 0xe
 10545 0c44 04       		.byte	0x4
 10546 0c45 9E020000 		.long	0x29e
 10547 0c49 1B       		.uleb128 0x1b
 10548 0c4a 01       		.byte	0x1
 10549 0c4b 550C0000 		.long	0xc55
 10550 0c4f 14       		.uleb128 0x14
 10551 0c50 EA000000 		.long	0xea
 10552 0c54 00       		.byte	0x0
 10553 0c55 0E       		.uleb128 0xe
 10554 0c56 04       		.byte	0x4
 10555 0c57 5B0C0000 		.long	0xc5b
 10556 0c5b 0E       		.uleb128 0xe
 10557 0c5c 04       		.byte	0x4
 10558 0c5d 490C0000 		.long	0xc49
 10559 0c61 08       		.uleb128 0x8
 10560 0c62 E9080000 		.long	0x8e9
 10561 0c66 710C0000 		.long	0xc71
 10562 0c6a 09       		.uleb128 0x9
 10563 0c6b BC010000 		.long	0x1bc
 10564 0c6f 02       		.byte	0x2
 10565 0c70 00       		.byte	0x0
 10566 0c71 03       		.uleb128 0x3
 10567 0c72 696E7438 		.ascii "int8_t\0"
 10567      5F7400
 10568 0c79 06       		.byte	0x6
 10569 0c7a 12       		.byte	0x12
 10570 0c7b BD000000 		.long	0xbd
 10571 0c7f 03       		.uleb128 0x3
 10572 0c80 696E7433 		.ascii "int32_t\0"
 10572      325F7400 
 10573 0c88 06       		.byte	0x6
 10574 0c89 14       		.byte	0x14
 10575 0c8a EA000000 		.long	0xea
 10576 0c8e 03       		.uleb128 0x3
 10577 0c8f 46494C45 		.ascii "FILE\0"
 10577      00
 10578 0c94 07       		.byte	0x7
 10579 0c95 32       		.byte	0x32
 10580 0c96 E9080000 		.long	0x8e9
 10581 0c9a 03       		.uleb128 0x3
 10582 0c9b 5046494C 		.ascii "PFILE\0"
 10582      4500
 10583 0ca1 08       		.byte	0x8
 10584 0ca2 1D       		.byte	0x1d
 10585 0ca3 A70C0000 		.long	0xca7
 10586 0ca7 0E       		.uleb128 0xe
 10587 0ca8 04       		.byte	0x4
GAS LISTING /cygdrive/c/Users/THESCI~1/AppData/Local/Temp/ccH1olGy.s 			page 249


 10588 0ca9 8E0C0000 		.long	0xc8e
 10589 0cad 06       		.uleb128 0x6
 10590 0cae 04       		.byte	0x4
 10591 0caf 09       		.byte	0x9
 10592 0cb0 1F       		.byte	0x1f
 10593 0cb1 D60C0000 		.long	0xcd6
 10594 0cb5 07       		.uleb128 0x7
 10595 0cb6 62797465 		.ascii "byte_ptr\0"
 10595      5F707472 
 10595      00
 10596 0cbf 09       		.byte	0x9
 10597 0cc0 20       		.byte	0x20
 10598 0cc1 7F040000 		.long	0x47f
 10599 0cc5 07       		.uleb128 0x7
 10600 0cc6 776F7264 		.ascii "word_ptr\0"
 10600      5F707472 
 10600      00
 10601 0ccf 09       		.byte	0x9
 10602 0cd0 21       		.byte	0x21
 10603 0cd1 D60C0000 		.long	0xcd6
 10604 0cd5 00       		.byte	0x0
 10605 0cd6 0E       		.uleb128 0xe
 10606 0cd7 04       		.byte	0x4
 10607 0cd8 A7000000 		.long	0xa7
 10608 0cdc 0D       		.uleb128 0xd
 10609 0cdd 70706D69 		.ascii "ppmimage\0"
 10609      6D616765 
 10609      00
 10610 0ce6 18       		.byte	0x18
 10611 0ce7 09       		.byte	0x9
 10612 0ce8 15       		.byte	0x15
 10613 0ce9 5C0D0000 		.long	0xd5c
 10614 0ced 11       		.uleb128 0x11
 10615 0cee 0E000000 		.secrel32	LASF1
 10616 0cf2 09       		.byte	0x9
 10617 0cf3 16       		.byte	0x16
 10618 0cf4 A7000000 		.long	0xa7
 10619 0cf8 02       		.byte	0x2
 10620 0cf9 23       		.byte	0x23
 10621 0cfa 00       		.uleb128 0x0
 10622 0cfb 0C       		.uleb128 0xc
 10623 0cfc 68656967 		.ascii "height\0"
 10623      687400
 10624 0d03 09       		.byte	0x9
 10625 0d04 18       		.byte	0x18
 10626 0d05 97000000 		.long	0x97
 10627 0d09 02       		.byte	0x2
 10628 0d0a 23       		.byte	0x23
 10629 0d0b 04       		.uleb128 0x4
 10630 0d0c 0C       		.uleb128 0xc
 10631 0d0d 77696474 		.ascii "width\0"
 10631      6800
 10632 0d13 09       		.byte	0x9
 10633 0d14 19       		.byte	0x19
 10634 0d15 97000000 		.long	0x97
 10635 0d19 02       		.byte	0x2
 10636 0d1a 23       		.byte	0x23
GAS LISTING /cygdrive/c/Users/THESCI~1/AppData/Local/Temp/ccH1olGy.s 			page 250


 10637 0d1b 08       		.uleb128 0x8
 10638 0d1c 0C       		.uleb128 0xc
 10639 0d1d 6D61785F 		.ascii "max_color_value\0"
 10639      636F6C6F 
 10639      725F7661 
 10639      6C756500 
 10640 0d2d 09       		.byte	0x9
 10641 0d2e 1B       		.byte	0x1b
 10642 0d2f A7000000 		.long	0xa7
 10643 0d33 02       		.byte	0x2
 10644 0d34 23       		.byte	0x23
 10645 0d35 0C       		.uleb128 0xc
 10646 0d36 0C       		.uleb128 0xc
 10647 0d37 70697865 		.ascii "pixel_width\0"
 10647      6C5F7769 
 10647      64746800 
 10648 0d43 09       		.byte	0x9
 10649 0d44 1C       		.byte	0x1c
 10650 0d45 97000000 		.long	0x97
 10651 0d49 02       		.byte	0x2
 10652 0d4a 23       		.byte	0x23
 10653 0d4b 10       		.uleb128 0x10
 10654 0d4c 0C       		.uleb128 0xc
 10655 0d4d 64617461 		.ascii "data\0"
 10655      00
 10656 0d52 09       		.byte	0x9
 10657 0d53 22       		.byte	0x22
 10658 0d54 AD0C0000 		.long	0xcad
 10659 0d58 02       		.byte	0x2
 10660 0d59 23       		.byte	0x23
 10661 0d5a 14       		.uleb128 0x14
 10662 0d5b 00       		.byte	0x0
 10663 0d5c 03       		.uleb128 0x3
 10664 0d5d 5050504D 		.ascii "PPPMIMG\0"
 10664      494D4700 
 10665 0d65 09       		.byte	0x9
 10666 0d66 23       		.byte	0x23
 10667 0d67 6B0D0000 		.long	0xd6b
 10668 0d6b 0E       		.uleb128 0xe
 10669 0d6c 04       		.byte	0x4
 10670 0d6d DC0C0000 		.long	0xcdc
 10671 0d71 0B       		.uleb128 0xb
 10672 0d72 04       		.byte	0x4
 10673 0d73 0A       		.byte	0xa
 10674 0d74 24       		.byte	0x24
 10675 0d75 BA0D0000 		.long	0xdba
 10676 0d79 0C       		.uleb128 0xc
 10677 0d7a 62797465 		.ascii "byte1\0"
 10677      3100
 10678 0d80 0A       		.byte	0xa
 10679 0d81 25       		.byte	0x25
 10680 0d82 CC000000 		.long	0xcc
 10681 0d86 02       		.byte	0x2
 10682 0d87 23       		.byte	0x23
 10683 0d88 00       		.uleb128 0x0
 10684 0d89 0C       		.uleb128 0xc
 10685 0d8a 62797465 		.ascii "byte2\0"
GAS LISTING /cygdrive/c/Users/THESCI~1/AppData/Local/Temp/ccH1olGy.s 			page 251


 10685      3200
 10686 0d90 0A       		.byte	0xa
 10687 0d91 26       		.byte	0x26
 10688 0d92 CC000000 		.long	0xcc
 10689 0d96 02       		.byte	0x2
 10690 0d97 23       		.byte	0x23
 10691 0d98 01       		.uleb128 0x1
 10692 0d99 0C       		.uleb128 0xc
 10693 0d9a 62797465 		.ascii "byte3\0"
 10693      3300
 10694 0da0 0A       		.byte	0xa
 10695 0da1 27       		.byte	0x27
 10696 0da2 CC000000 		.long	0xcc
 10697 0da6 02       		.byte	0x2
 10698 0da7 23       		.byte	0x23
 10699 0da8 02       		.uleb128 0x2
 10700 0da9 0C       		.uleb128 0xc
 10701 0daa 62797465 		.ascii "byte4\0"
 10701      3400
 10702 0db0 0A       		.byte	0xa
 10703 0db1 28       		.byte	0x28
 10704 0db2 CC000000 		.long	0xcc
 10705 0db6 02       		.byte	0x2
 10706 0db7 23       		.byte	0x23
 10707 0db8 03       		.uleb128 0x3
 10708 0db9 00       		.byte	0x0
 10709 0dba 1C       		.uleb128 0x1c
 10710 0dbb 63733232 		.ascii "cs229dimension\0"
 10710      3964696D 
 10710      656E7369 
 10710      6F6E00
 10711 0dca 04       		.byte	0x4
 10712 0dcb 0A       		.byte	0xa
 10713 0dcc 22       		.byte	0x22
 10714 0dcd EC0D0000 		.long	0xdec
 10715 0dd1 07       		.uleb128 0x7
 10716 0dd2 62797465 		.ascii "bytes\0"
 10716      7300
 10717 0dd8 0A       		.byte	0xa
 10718 0dd9 29       		.byte	0x29
 10719 0dda 710D0000 		.long	0xd71
 10720 0dde 07       		.uleb128 0x7
 10721 0ddf 76616C75 		.ascii "value\0"
 10721      6500
 10722 0de5 0A       		.byte	0xa
 10723 0de6 2B       		.byte	0x2b
 10724 0de7 97000000 		.long	0x97
 10725 0deb 00       		.byte	0x0
 10726 0dec 03       		.uleb128 0x3
 10727 0ded 43534449 		.ascii "CSDIM\0"
 10727      4D00
 10728 0df3 0A       		.byte	0xa
 10729 0df4 2C       		.byte	0x2c
 10730 0df5 BA0D0000 		.long	0xdba
 10731 0df9 06       		.uleb128 0x6
 10732 0dfa 01       		.byte	0x1
 10733 0dfb 0A       		.byte	0xa
GAS LISTING /cygdrive/c/Users/THESCI~1/AppData/Local/Temp/ccH1olGy.s 			page 252


 10734 0dfc 36       		.byte	0x36
 10735 0dfd 390E0000 		.long	0xe39
 10736 0e01 07       		.uleb128 0x7
 10737 0e02 7265645F 		.ascii "red_channel_size\0"
 10737      6368616E 
 10737      6E656C5F 
 10737      73697A65 
 10737      00
 10738 0e13 0A       		.byte	0xa
 10739 0e14 37       		.byte	0x37
 10740 0e15 CC000000 		.long	0xcc
 10741 0e19 07       		.uleb128 0x7
 10742 0e1a 626C6163 		.ascii "blackwhite_channel_size\0"
 10742      6B776869 
 10742      74655F63 
 10742      68616E6E 
 10742      656C5F73 
 10743 0e32 0A       		.byte	0xa
 10744 0e33 38       		.byte	0x38
 10745 0e34 CC000000 		.long	0xcc
 10746 0e38 00       		.byte	0x0
 10747 0e39 0D       		.uleb128 0xd
 10748 0e3a 63733232 		.ascii "cs229image\0"
 10748      39696D61 
 10748      676500
 10749 0e45 14       		.byte	0x14
 10750 0e46 0A       		.byte	0xa
 10751 0e47 30       		.byte	0x30
 10752 0e48 F10E0000 		.long	0xef1
 10753 0e4c 11       		.uleb128 0x11
 10754 0e4d 0E000000 		.secrel32	LASF1
 10755 0e51 0A       		.byte	0xa
 10756 0e52 31       		.byte	0x31
 10757 0e53 CC000000 		.long	0xcc
 10758 0e57 02       		.byte	0x2
 10759 0e58 23       		.byte	0x23
 10760 0e59 00       		.uleb128 0x0
 10761 0e5a 0C       		.uleb128 0xc
 10762 0e5b 636F6C6F 		.ascii "color_mode\0"
 10762      725F6D6F 
 10762      646500
 10763 0e66 0A       		.byte	0xa
 10764 0e67 33       		.byte	0x33
 10765 0e68 CC000000 		.long	0xcc
 10766 0e6c 02       		.byte	0x2
 10767 0e6d 23       		.byte	0x23
 10768 0e6e 01       		.uleb128 0x1
 10769 0e6f 0C       		.uleb128 0xc
 10770 0e70 66697273 		.ascii "first_channel\0"
 10770      745F6368 
 10770      616E6E65 
 10770      6C00
 10771 0e7e 0A       		.byte	0xa
 10772 0e7f 39       		.byte	0x39
 10773 0e80 F90D0000 		.long	0xdf9
 10774 0e84 02       		.byte	0x2
 10775 0e85 23       		.byte	0x23
GAS LISTING /cygdrive/c/Users/THESCI~1/AppData/Local/Temp/ccH1olGy.s 			page 253


 10776 0e86 02       		.uleb128 0x2
 10777 0e87 0C       		.uleb128 0xc
 10778 0e88 67726565 		.ascii "green_channel_size\0"
 10778      6E5F6368 
 10778      616E6E65 
 10778      6C5F7369 
 10778      7A6500
 10779 0e9b 0A       		.byte	0xa
 10780 0e9c 3A       		.byte	0x3a
 10781 0e9d CC000000 		.long	0xcc
 10782 0ea1 02       		.byte	0x2
 10783 0ea2 23       		.byte	0x23
 10784 0ea3 03       		.uleb128 0x3
 10785 0ea4 0C       		.uleb128 0xc
 10786 0ea5 626C7565 		.ascii "blue_channel_size\0"
 10786      5F636861 
 10786      6E6E656C 
 10786      5F73697A 
 10786      6500
 10787 0eb7 0A       		.byte	0xa
 10788 0eb8 3B       		.byte	0x3b
 10789 0eb9 CC000000 		.long	0xcc
 10790 0ebd 02       		.byte	0x2
 10791 0ebe 23       		.byte	0x23
 10792 0ebf 04       		.uleb128 0x4
 10793 0ec0 0C       		.uleb128 0xc
 10794 0ec1 68656967 		.ascii "height\0"
 10794      687400
 10795 0ec8 0A       		.byte	0xa
 10796 0ec9 3D       		.byte	0x3d
 10797 0eca EC0D0000 		.long	0xdec
 10798 0ece 02       		.byte	0x2
 10799 0ecf 23       		.byte	0x23
 10800 0ed0 08       		.uleb128 0x8
 10801 0ed1 0C       		.uleb128 0xc
 10802 0ed2 77696474 		.ascii "width\0"
 10802      6800
 10803 0ed8 0A       		.byte	0xa
 10804 0ed9 3E       		.byte	0x3e
 10805 0eda EC0D0000 		.long	0xdec
 10806 0ede 02       		.byte	0x2
 10807 0edf 23       		.byte	0x23
 10808 0ee0 0C       		.uleb128 0xc
 10809 0ee1 0C       		.uleb128 0xc
 10810 0ee2 64617461 		.ascii "data\0"
 10810      00
 10811 0ee7 0A       		.byte	0xa
 10812 0ee8 40       		.byte	0x40
 10813 0ee9 7F040000 		.long	0x47f
 10814 0eed 02       		.byte	0x2
 10815 0eee 23       		.byte	0x23
 10816 0eef 10       		.uleb128 0x10
 10817 0ef0 00       		.byte	0x0
 10818 0ef1 03       		.uleb128 0x3
 10819 0ef2 43535049 		.ascii "CSPIC\0"
 10819      4300
 10820 0ef8 0A       		.byte	0xa
GAS LISTING /cygdrive/c/Users/THESCI~1/AppData/Local/Temp/ccH1olGy.s 			page 254


 10821 0ef9 41       		.byte	0x41
 10822 0efa 390E0000 		.long	0xe39
 10823 0efe 03       		.uleb128 0x3
 10824 0eff 50435350 		.ascii "PCSPIC\0"
 10824      494300
 10825 0f06 0A       		.byte	0xa
 10826 0f07 41       		.byte	0x41
 10827 0f08 0C0F0000 		.long	0xf0c
 10828 0f0c 0E       		.uleb128 0xe
 10829 0f0d 04       		.byte	0x4
 10830 0f0e 390E0000 		.long	0xe39
 10831 0f12 1D       		.uleb128 0x1d
 10832 0f13 01       		.byte	0x1
 10833 0f14 636F6F72 		.ascii "coordinate_to_linear_address\0"
 10833      64696E61 
 10833      74655F74 
 10833      6F5F6C69 
 10833      6E656172 
 10834 0f31 01       		.byte	0x1
 10835 0f32 EF       		.byte	0xef
 10836 0f33 01       		.byte	0x1
 10837 0f34 97000000 		.long	0x97
 10838 0f38 01       		.byte	0x1
 10839 0f39 5B0F0000 		.long	0xf5b
 10840 0f3d 1E       		.uleb128 0x1e
 10841 0f3e 70696300 		.ascii "pic\0"
 10842 0f42 01       		.byte	0x1
 10843 0f43 EE       		.byte	0xee
 10844 0f44 FE0E0000 		.long	0xefe
 10845 0f48 1E       		.uleb128 0x1e
 10846 0f49 7800     		.ascii "x\0"
 10847 0f4b 01       		.byte	0x1
 10848 0f4c EE       		.byte	0xee
 10849 0f4d 97000000 		.long	0x97
 10850 0f51 1E       		.uleb128 0x1e
 10851 0f52 7900     		.ascii "y\0"
 10852 0f54 01       		.byte	0x1
 10853 0f55 EE       		.byte	0xee
 10854 0f56 97000000 		.long	0x97
 10855 0f5a 00       		.byte	0x0
 10856 0f5b 1D       		.uleb128 0x1d
 10857 0f5c 01       		.byte	0x1
 10858 0f5d 64657465 		.ascii "determine_multiplier\0"
 10858      726D696E 
 10858      655F6D75 
 10858      6C746970 
 10858      6C696572 
 10859 0f72 01       		.byte	0x1
 10860 0f73 96       		.byte	0x96
 10861 0f74 01       		.byte	0x1
 10862 0f75 97000000 		.long	0x97
 10863 0f79 01       		.byte	0x1
 10864 0f7a 950F0000 		.long	0xf95
 10865 0f7e 1F       		.uleb128 0x1f
 10866 0f7f 2A000000 		.secrel32	LASF2
 10867 0f83 01       		.byte	0x1
 10868 0f84 95       		.byte	0x95
GAS LISTING /cygdrive/c/Users/THESCI~1/AppData/Local/Temp/ccH1olGy.s 			page 255


 10869 0f85 FE0E0000 		.long	0xefe
 10870 0f89 20       		.uleb128 0x20
 10871 0f8a 6D756C00 		.ascii "mul\0"
 10872 0f8e 01       		.byte	0x1
 10873 0f8f 98       		.byte	0x98
 10874 0f90 97000000 		.long	0x97
 10875 0f94 00       		.byte	0x0
 10876 0f95 21       		.uleb128 0x21
 10877 0f96 5B0F0000 		.long	0xf5b
 10878 0f9a 00000000 		.long	LFB8
 10879 0f9e 90010000 		.long	LFE8
 10880 0fa2 00000000 		.secrel32	LLST0
 10881 0fa6 BD0F0000 		.long	0xfbd
 10882 0faa 22       		.uleb128 0x22
 10883 0fab 7E0F0000 		.long	0xf7e
 10884 0faf 2C000000 		.secrel32	LLST1
 10885 0fb3 23       		.uleb128 0x23
 10886 0fb4 890F0000 		.long	0xf89
 10887 0fb8 4B000000 		.secrel32	LLST2
 10888 0fbc 00       		.byte	0x0
 10889 0fbd 21       		.uleb128 0x21
 10890 0fbe 120F0000 		.long	0xf12
 10891 0fc2 90010000 		.long	LFB9
 10892 0fc6 B9010000 		.long	LFE9
 10893 0fca E7010000 		.secrel32	LLST3
 10894 0fce EE0F0000 		.long	0xfee
 10895 0fd2 22       		.uleb128 0x22
 10896 0fd3 3D0F0000 		.long	0xf3d
 10897 0fd7 13020000 		.secrel32	LLST4
 10898 0fdb 22       		.uleb128 0x22
 10899 0fdc 480F0000 		.long	0xf48
 10900 0fe0 32020000 		.secrel32	LLST5
 10901 0fe4 22       		.uleb128 0x22
 10902 0fe5 510F0000 		.long	0xf51
 10903 0fe9 74020000 		.secrel32	LLST6
 10904 0fed 00       		.byte	0x0
 10905 0fee 1D       		.uleb128 0x1d
 10906 0fef 01       		.byte	0x1
 10907 0ff0 6C696E65 		.ascii "linear_to_coordinate_address\0"
 10907      61725F74 
 10907      6F5F636F 
 10907      6F726469 
 10907      6E617465 
 10908 100d 01       		.byte	0x1
 10909 100e FC       		.byte	0xfc
 10910 100f 01       		.byte	0x1
 10911 1010 97000000 		.long	0x97
 10912 1014 01       		.byte	0x1
 10913 1015 3B100000 		.long	0x103b
 10914 1019 1E       		.uleb128 0x1e
 10915 101a 70696300 		.ascii "pic\0"
 10916 101e 01       		.byte	0x1
 10917 101f FB       		.byte	0xfb
 10918 1020 FE0E0000 		.long	0xefe
 10919 1024 1F       		.uleb128 0x1f
 10920 1025 58000000 		.secrel32	LASF3
 10921 1029 01       		.byte	0x1
GAS LISTING /cygdrive/c/Users/THESCI~1/AppData/Local/Temp/ccH1olGy.s 			page 256


 10922 102a FB       		.byte	0xfb
 10923 102b 97000000 		.long	0x97
 10924 102f 1F       		.uleb128 0x1f
 10925 1030 2A000000 		.secrel32	LASF2
 10926 1034 01       		.byte	0x1
 10927 1035 FB       		.byte	0xfb
 10928 1036 3B100000 		.long	0x103b
 10929 103a 00       		.byte	0x0
 10930 103b 0E       		.uleb128 0xe
 10931 103c 04       		.byte	0x4
 10932 103d 97000000 		.long	0x97
 10933 1041 21       		.uleb128 0x21
 10934 1042 EE0F0000 		.long	0xfee
 10935 1046 C0010000 		.long	LFB10
 10936 104a 20020000 		.long	LFE10
 10937 104e AA020000 		.secrel32	LLST7
 10938 1052 72100000 		.long	0x1072
 10939 1056 22       		.uleb128 0x22
 10940 1057 19100000 		.long	0x1019
 10941 105b D6020000 		.secrel32	LLST8
 10942 105f 22       		.uleb128 0x22
 10943 1060 24100000 		.long	0x1024
 10944 1064 18030000 		.secrel32	LLST9
 10945 1068 22       		.uleb128 0x22
 10946 1069 2F100000 		.long	0x102f
 10947 106d 44030000 		.secrel32	LLST10
 10948 1071 00       		.byte	0x0
 10949 1072 24       		.uleb128 0x24
 10950 1073 01       		.byte	0x1
 10951 1074 636F6E76 		.ascii "convert_ppm_to_cs229\0"
 10951      6572745F 
 10951      70706D5F 
 10951      746F5F63 
 10951      73323239 
 10952 1089 01       		.byte	0x1
 10953 108a DA05     		.word	0x5da
 10954 108c 01       		.byte	0x1
 10955 108d 97000000 		.long	0x97
 10956 1091 20020000 		.long	LFB20
 10957 1095 AF020000 		.long	LFE20
 10958 1099 86030000 		.secrel32	LLST11
 10959 109d C2100000 		.long	0x10c2
 10960 10a1 25       		.uleb128 0x25
 10961 10a2 5E000000 		.secrel32	LASF4
 10962 10a6 01       		.byte	0x1
 10963 10a7 D905     		.word	0x5d9
 10964 10a9 5C0D0000 		.long	0xd5c
 10965 10ad B2030000 		.secrel32	LLST12
 10966 10b1 25       		.uleb128 0x25
 10967 10b2 2A000000 		.secrel32	LASF2
 10968 10b6 01       		.byte	0x1
 10969 10b7 D905     		.word	0x5d9
 10970 10b9 FE0E0000 		.long	0xefe
 10971 10bd FF030000 		.secrel32	LLST13
 10972 10c1 00       		.byte	0x0
 10973 10c2 24       		.uleb128 0x24
 10974 10c3 01       		.byte	0x1
GAS LISTING /cygdrive/c/Users/THESCI~1/AppData/Local/Temp/ccH1olGy.s 			page 257


 10975 10c4 636F6E76 		.ascii "convert_cs229_to_ppm\0"
 10975      6572745F 
 10975      63733232 
 10975      395F746F 
 10975      5F70706D 
 10976 10d9 01       		.byte	0x1
 10977 10da A305     		.word	0x5a3
 10978 10dc 01       		.byte	0x1
 10979 10dd 97000000 		.long	0x97
 10980 10e1 B0020000 		.long	LFB19
 10981 10e5 8C030000 		.long	LFE19
 10982 10e9 4C040000 		.secrel32	LLST14
 10983 10ed 12110000 		.long	0x1112
 10984 10f1 25       		.uleb128 0x25
 10985 10f2 5E000000 		.secrel32	LASF4
 10986 10f6 01       		.byte	0x1
 10987 10f7 A205     		.word	0x5a2
 10988 10f9 FE0E0000 		.long	0xefe
 10989 10fd 78040000 		.secrel32	LLST15
 10990 1101 25       		.uleb128 0x25
 10991 1102 2A000000 		.secrel32	LASF2
 10992 1106 01       		.byte	0x1
 10993 1107 A205     		.word	0x5a2
 10994 1109 5C0D0000 		.long	0xd5c
 10995 110d DC040000 		.secrel32	LLST16
 10996 1111 00       		.byte	0x0
 10997 1112 26       		.uleb128 0x26
 10998 1113 01       		.byte	0x1
 10999 1114 72656164 		.ascii "read_cs229picture\0"
 10999      5F637332 
 10999      32397069 
 10999      63747572 
 10999      6500
 11000 1126 01       		.byte	0x1
 11001 1127 1B       		.byte	0x1b
 11002 1128 01       		.byte	0x1
 11003 1129 97000000 		.long	0x97
 11004 112d 90030000 		.long	LFB6
 11005 1131 65050000 		.long	LFE6
 11006 1135 40050000 		.secrel32	LLST17
 11007 1139 8D110000 		.long	0x118d
 11008 113d 27       		.uleb128 0x27
 11009 113e 2A000000 		.secrel32	LASF2
 11010 1142 01       		.byte	0x1
 11011 1143 1A       		.byte	0x1a
 11012 1144 FE0E0000 		.long	0xefe
 11013 1148 6C050000 		.secrel32	LLST18
 11014 114c 27       		.uleb128 0x27
 11015 114d 5E000000 		.secrel32	LASF4
 11016 1151 01       		.byte	0x1
 11017 1152 1A       		.byte	0x1a
 11018 1153 9A0C0000 		.long	0xc9a
 11019 1157 AE050000 		.secrel32	LLST19
 11020 115b 28       		.uleb128 0x28
 11021 115c 70646174 		.ascii "pdata\0"
 11021      6100
 11022 1162 01       		.byte	0x1
GAS LISTING /cygdrive/c/Users/THESCI~1/AppData/Local/Temp/ccH1olGy.s 			page 258


 11023 1163 1D       		.byte	0x1d
 11024 1164 7F040000 		.long	0x47f
 11025 1168 E4050000 		.secrel32	LLST20
 11026 116c 28       		.uleb128 0x28
 11027 116d 66696E61 		.ascii "final\0"
 11027      6C00
 11028 1173 01       		.byte	0x1
 11029 1174 1E       		.byte	0x1e
 11030 1175 7F040000 		.long	0x47f
 11031 1179 39060000 		.secrel32	LLST21
 11032 117d 28       		.uleb128 0x28
 11033 117e 6D756C00 		.ascii "mul\0"
 11034 1182 01       		.byte	0x1
 11035 1183 1F       		.byte	0x1f
 11036 1184 97000000 		.long	0x97
 11037 1188 57060000 		.secrel32	LLST22
 11038 118c 00       		.byte	0x0
 11039 118d 26       		.uleb128 0x26
 11040 118e 01       		.byte	0x1
 11041 118f 77726974 		.ascii "write_cs229_image\0"
 11041      655F6373 
 11041      3232395F 
 11041      696D6167 
 11041      6500
 11042 11a1 01       		.byte	0x1
 11043 11a2 69       		.byte	0x69
 11044 11a3 01       		.byte	0x1
 11045 11a4 97000000 		.long	0x97
 11046 11a8 70050000 		.long	LFB7
 11047 11ac B6070000 		.long	LFE7
 11048 11b0 75060000 		.secrel32	LLST23
 11049 11b4 1E120000 		.long	0x121e
 11050 11b8 29       		.uleb128 0x29
 11051 11b9 70696300 		.ascii "pic\0"
 11052 11bd 01       		.byte	0x1
 11053 11be 68       		.byte	0x68
 11054 11bf FE0E0000 		.long	0xefe
 11055 11c3 A1060000 		.secrel32	LLST24
 11056 11c7 27       		.uleb128 0x27
 11057 11c8 2A000000 		.secrel32	LASF2
 11058 11cc 01       		.byte	0x1
 11059 11cd 68       		.byte	0x68
 11060 11ce 9A0C0000 		.long	0xc9a
 11061 11d2 EE060000 		.secrel32	LLST25
 11062 11d6 28       		.uleb128 0x28
 11063 11d7 6900     		.ascii "i\0"
 11064 11d9 01       		.byte	0x1
 11065 11da 6B       		.byte	0x6b
 11066 11db 97000000 		.long	0x97
 11067 11df 0E070000 		.secrel32	LLST26
 11068 11e3 28       		.uleb128 0x28
 11069 11e4 6C656E00 		.ascii "len\0"
 11070 11e8 01       		.byte	0x1
 11071 11e9 6C       		.byte	0x6c
 11072 11ea 97000000 		.long	0x97
 11073 11ee 21070000 		.secrel32	LLST27
 11074 11f2 28       		.uleb128 0x28
GAS LISTING /cygdrive/c/Users/THESCI~1/AppData/Local/Temp/ccH1olGy.s 			page 259


 11075 11f3 6D756C00 		.ascii "mul\0"
 11076 11f7 01       		.byte	0x1
 11077 11f8 6D       		.byte	0x6d
 11078 11f9 97000000 		.long	0x97
 11079 11fd 34070000 		.secrel32	LLST28
 11080 1201 2A       		.uleb128 0x2a
 11081 1202 5B0F0000 		.long	0xf5b
 11082 1206 00000000 		.secrel32	Ldebug_ranges0+0x0
 11083 120a 01       		.byte	0x1
 11084 120b 81       		.byte	0x81
 11085 120c 2B       		.uleb128 0x2b
 11086 120d AA0F0000 		.long	0xfaa
 11087 1211 2C       		.uleb128 0x2c
 11088 1212 30000000 		.secrel32	Ldebug_ranges0+0x30
 11089 1216 2D       		.uleb128 0x2d
 11090 1217 890F0000 		.long	0xf89
 11091 121b 00       		.byte	0x0
 11092 121c 00       		.byte	0x0
 11093 121d 00       		.byte	0x0
 11094 121e 24       		.uleb128 0x24
 11095 121f 01       		.byte	0x1
 11096 1220 6765745F 		.ascii "get_pixel\0"
 11096      70697865 
 11096      6C00
 11097 122a 01       		.byte	0x1
 11098 122b 1101     		.word	0x111
 11099 122d 01       		.byte	0x1
 11100 122e 97000000 		.long	0x97
 11101 1232 C0070000 		.long	LFB11
 11102 1236 830C0000 		.long	LFE11
 11103 123a E3080000 		.secrel32	LLST29
 11104 123e E3120000 		.long	0x12e3
 11105 1242 25       		.uleb128 0x25
 11106 1243 35000000 		.secrel32	LASF5
 11107 1247 01       		.byte	0x1
 11108 1248 1001     		.word	0x110
 11109 124a FE0E0000 		.long	0xefe
 11110 124e 0F090000 		.secrel32	LLST30
 11111 1252 25       		.uleb128 0x25
 11112 1253 3D000000 		.secrel32	LASF6
 11113 1257 01       		.byte	0x1
 11114 1258 1001     		.word	0x110
 11115 125a 97000000 		.long	0x97
 11116 125e 2E090000 		.secrel32	LLST31
 11117 1262 25       		.uleb128 0x25
 11118 1263 2A000000 		.secrel32	LASF2
 11119 1267 01       		.byte	0x1
 11120 1268 1001     		.word	0x110
 11121 126a 3B100000 		.long	0x103b
 11122 126e 66090000 		.secrel32	LLST32
 11123 1272 2E       		.uleb128 0x2e
 11124 1273 6D756C00 		.ascii "mul\0"
 11125 1277 01       		.byte	0x1
 11126 1278 1301     		.word	0x113
 11127 127a 97000000 		.long	0x97
 11128 127e B6090000 		.secrel32	LLST33
 11129 1282 2F       		.uleb128 0x2f
GAS LISTING /cygdrive/c/Users/THESCI~1/AppData/Local/Temp/ccH1olGy.s 			page 260


 11130 1283 6F666673 		.ascii "offset\0"
 11130      657400
 11131 128a 01       		.byte	0x1
 11132 128b 1401     		.word	0x114
 11133 128d 97000000 		.long	0x97
 11134 1291 2E       		.uleb128 0x2e
 11135 1292 68616C66 		.ascii "half_in\0"
 11135      5F696E00 
 11136 129a 01       		.byte	0x1
 11137 129b 1501     		.word	0x115
 11138 129d 97000000 		.long	0x97
 11139 12a1 4B0B0000 		.secrel32	LLST34
 11140 12a5 2E       		.uleb128 0x2e
 11141 12a6 6C656E00 		.ascii "len\0"
 11142 12aa 01       		.byte	0x1
 11143 12ab 1601     		.word	0x116
 11144 12ad 97000000 		.long	0x97
 11145 12b1 950B0000 		.secrel32	LLST35
 11146 12b5 30       		.uleb128 0x30
 11147 12b6 58000000 		.secrel32	LASF3
 11148 12ba 01       		.byte	0x1
 11149 12bb 1701     		.word	0x117
 11150 12bd 7F040000 		.long	0x47f
 11151 12c1 BE0B0000 		.secrel32	LLST36
 11152 12c5 31       		.uleb128 0x31
 11153 12c6 5B0F0000 		.long	0xf5b
 11154 12ca 60000000 		.secrel32	Ldebug_ranges0+0x60
 11155 12ce 01       		.byte	0x1
 11156 12cf 2E01     		.word	0x12e
 11157 12d1 2B       		.uleb128 0x2b
 11158 12d2 AA0F0000 		.long	0xfaa
 11159 12d6 2C       		.uleb128 0x2c
 11160 12d7 80000000 		.secrel32	Ldebug_ranges0+0x80
 11161 12db 2D       		.uleb128 0x2d
 11162 12dc 890F0000 		.long	0xf89
 11163 12e0 00       		.byte	0x0
 11164 12e1 00       		.byte	0x0
 11165 12e2 00       		.byte	0x0
 11166 12e3 24       		.uleb128 0x24
 11167 12e4 01       		.byte	0x1
 11168 12e5 636F756E 		.ascii "count_pixels_of_color\0"
 11168      745F7069 
 11168      78656C73 
 11168      5F6F665F 
 11168      636F6C6F 
 11169 12fb 01       		.byte	0x1
 11170 12fc 1C03     		.word	0x31c
 11171 12fe 01       		.byte	0x1
 11172 12ff 97000000 		.long	0x97
 11173 1303 900C0000 		.long	LFB13
 11174 1307 6F0D0000 		.long	LFE13
 11175 130b 080C0000 		.secrel32	LLST37
 11176 130f 8C130000 		.long	0x138c
 11177 1313 25       		.uleb128 0x25
 11178 1314 35000000 		.secrel32	LASF5
 11179 1318 01       		.byte	0x1
 11180 1319 1B03     		.word	0x31b
GAS LISTING /cygdrive/c/Users/THESCI~1/AppData/Local/Temp/ccH1olGy.s 			page 261


 11181 131b FE0E0000 		.long	0xefe
 11182 131f 340C0000 		.secrel32	LLST38
 11183 1323 25       		.uleb128 0x25
 11184 1324 2F000000 		.secrel32	LASF7
 11185 1328 01       		.byte	0x1
 11186 1329 1B03     		.word	0x31b
 11187 132b 3B100000 		.long	0x103b
 11188 132f 6A0C0000 		.secrel32	LLST39
 11189 1333 2E       		.uleb128 0x2e
 11190 1334 6900     		.ascii "i\0"
 11191 1336 01       		.byte	0x1
 11192 1337 1E03     		.word	0x31e
 11193 1339 97000000 		.long	0x97
 11194 133d A20C0000 		.secrel32	LLST40
 11195 1341 2E       		.uleb128 0x2e
 11196 1342 6C656E00 		.ascii "len\0"
 11197 1346 01       		.byte	0x1
 11198 1347 1F03     		.word	0x31f
 11199 1349 97000000 		.long	0x97
 11200 134d CB0C0000 		.secrel32	LLST41
 11201 1351 2E       		.uleb128 0x2e
 11202 1352 636F756E 		.ascii "count\0"
 11202      7400
 11203 1358 01       		.byte	0x1
 11204 1359 2003     		.word	0x320
 11205 135b 97000000 		.long	0x97
 11206 135f F40C0000 		.secrel32	LLST42
 11207 1363 2E       		.uleb128 0x2e
 11208 1364 65727200 		.ascii "err\0"
 11209 1368 01       		.byte	0x1
 11210 1369 2103     		.word	0x321
 11211 136b 97000000 		.long	0x97
 11212 136f 200D0000 		.secrel32	LLST43
 11213 1373 2C       		.uleb128 0x2c
 11214 1374 A0000000 		.secrel32	Ldebug_ranges0+0xa0
 11215 1378 32       		.uleb128 0x32
 11216 1379 636F6C6F 		.ascii "colors\0"
 11216      727300
 11217 1380 01       		.byte	0x1
 11218 1381 3B03     		.word	0x33b
 11219 1383 8C130000 		.long	0x138c
 11220 1387 02       		.byte	0x2
 11221 1388 91       		.byte	0x91
 11222 1389 60       		.sleb128 -32
 11223 138a 00       		.byte	0x0
 11224 138b 00       		.byte	0x0
 11225 138c 08       		.uleb128 0x8
 11226 138d 97000000 		.long	0x97
 11227 1391 9C130000 		.long	0x139c
 11228 1395 09       		.uleb128 0x9
 11229 1396 BC010000 		.long	0x1bc
 11230 139a 02       		.byte	0x2
 11231 139b 00       		.byte	0x0
 11232 139c 24       		.uleb128 0x24
 11233 139d 01       		.byte	0x1
 11234 139e 63686563 		.ascii "check_average_error\0"
 11234      6B5F6176 
GAS LISTING /cygdrive/c/Users/THESCI~1/AppData/Local/Temp/ccH1olGy.s 			page 262


 11234      65726167 
 11234      655F6572 
 11234      726F7200 
 11235 13b2 01       		.byte	0x1
 11236 13b3 0B06     		.word	0x60b
 11237 13b5 01       		.byte	0x1
 11238 13b6 37150000 		.long	0x1537
 11239 13ba 700D0000 		.long	LFB21
 11240 13be 34120000 		.long	LFE21
 11241 13c2 750D0000 		.secrel32	LLST44
 11242 13c6 37150000 		.long	0x1537
 11243 13ca 33       		.uleb128 0x33
 11244 13cb 70696331 		.ascii "pic1\0"
 11244      00
 11245 13d0 01       		.byte	0x1
 11246 13d1 0A06     		.word	0x60a
 11247 13d3 FE0E0000 		.long	0xefe
 11248 13d7 A10D0000 		.secrel32	LLST45
 11249 13db 33       		.uleb128 0x33
 11250 13dc 70696332 		.ascii "pic2\0"
 11250      00
 11251 13e1 01       		.byte	0x1
 11252 13e2 0A06     		.word	0x60a
 11253 13e4 FE0E0000 		.long	0xefe
 11254 13e8 C10D0000 		.secrel32	LLST46
 11255 13ec 33       		.uleb128 0x33
 11256 13ed 7800     		.ascii "x\0"
 11257 13ef 01       		.byte	0x1
 11258 13f0 0A06     		.word	0x60a
 11259 13f2 97000000 		.long	0x97
 11260 13f6 E10D0000 		.secrel32	LLST47
 11261 13fa 33       		.uleb128 0x33
 11262 13fb 7900     		.ascii "y\0"
 11263 13fd 01       		.byte	0x1
 11264 13fe 0A06     		.word	0x60a
 11265 1400 97000000 		.long	0x97
 11266 1404 190E0000 		.secrel32	LLST48
 11267 1408 33       		.uleb128 0x33
 11268 1409 6F5F7700 		.ascii "o_w\0"
 11269 140d 01       		.byte	0x1
 11270 140e 0A06     		.word	0x60a
 11271 1410 3B100000 		.long	0x103b
 11272 1414 690E0000 		.secrel32	LLST49
 11273 1418 33       		.uleb128 0x33
 11274 1419 6F5F6800 		.ascii "o_h\0"
 11275 141d 01       		.byte	0x1
 11276 141e 0A06     		.word	0x60a
 11277 1420 3B100000 		.long	0x103b
 11278 1424 AD0E0000 		.secrel32	LLST50
 11279 1428 2F       		.uleb128 0x2f
 11280 1429 73697A65 		.ascii "size\0"
 11280      00
 11281 142e 01       		.byte	0x1
 11282 142f 0D06     		.word	0x60d
 11283 1431 97000000 		.long	0x97
 11284 1435 2F       		.uleb128 0x2f
 11285 1436 70696300 		.ascii "pic\0"
GAS LISTING /cygdrive/c/Users/THESCI~1/AppData/Local/Temp/ccH1olGy.s 			page 263


 11286 143a 01       		.byte	0x1
 11287 143b 0E06     		.word	0x60e
 11288 143d 97000000 		.long	0x97
 11289 1441 2E       		.uleb128 0x2e
 11290 1442 6F766572 		.ascii "over_left\0"
 11290      5F6C6566 
 11290      7400
 11291 144c 01       		.byte	0x1
 11292 144d 0F06     		.word	0x60f
 11293 144f 97000000 		.long	0x97
 11294 1453 D90E0000 		.secrel32	LLST51
 11295 1457 2E       		.uleb128 0x2e
 11296 1458 6F766572 		.ascii "over_top\0"
 11296      5F746F70 
 11296      00
 11297 1461 01       		.byte	0x1
 11298 1462 1006     		.word	0x610
 11299 1464 97000000 		.long	0x97
 11300 1468 150F0000 		.secrel32	LLST52
 11301 146c 30       		.uleb128 0x30
 11302 146d 4A000000 		.secrel32	LASF8
 11303 1471 01       		.byte	0x1
 11304 1472 1106     		.word	0x611
 11305 1474 7F0C0000 		.long	0xc7f
 11306 1478 5E0F0000 		.secrel32	LLST53
 11307 147c 30       		.uleb128 0x30
 11308 147d 1B000000 		.secrel32	LASF9
 11309 1481 01       		.byte	0x1
 11310 1482 1206     		.word	0x612
 11311 1484 7F0C0000 		.long	0xc7f
 11312 1488 9A0F0000 		.secrel32	LLST54
 11313 148c 2E       		.uleb128 0x2e
 11314 148d 6F766572 		.ascii "overlap\0"
 11314      6C617000 
 11315 1495 01       		.byte	0x1
 11316 1496 1306     		.word	0x613
 11317 1498 97000000 		.long	0x97
 11318 149c E30F0000 		.secrel32	LLST55
 11319 14a0 2E       		.uleb128 0x2e
 11320 14a1 786900   		.ascii "xi\0"
 11321 14a4 01       		.byte	0x1
 11322 14a5 1406     		.word	0x614
 11323 14a7 97000000 		.long	0x97
 11324 14ab 3D100000 		.secrel32	LLST56
 11325 14af 2E       		.uleb128 0x2e
 11326 14b0 796900   		.ascii "yi\0"
 11327 14b3 01       		.byte	0x1
 11328 14b4 1506     		.word	0x615
 11329 14b6 97000000 		.long	0x97
 11330 14ba 5B100000 		.secrel32	LLST57
 11331 14be 2E       		.uleb128 0x2e
 11332 14bf 6572726F 		.ascii "error\0"
 11332      7200
 11333 14c5 01       		.byte	0x1
 11334 14c6 1606     		.word	0x616
 11335 14c8 40150000 		.long	0x1540
 11336 14cc 8F100000 		.secrel32	LLST58
GAS LISTING /cygdrive/c/Users/THESCI~1/AppData/Local/Temp/ccH1olGy.s 			page 264


 11337 14d0 2C       		.uleb128 0x2c
 11338 14d1 B8000000 		.secrel32	Ldebug_ranges0+0xb8
 11339 14d5 32       		.uleb128 0x32
 11340 14d6 636F6C6F 		.ascii "color1\0"
 11340      723100
 11341 14dd 01       		.byte	0x1
 11342 14de 8C06     		.word	0x68c
 11343 14e0 8C130000 		.long	0x138c
 11344 14e4 02       		.byte	0x2
 11345 14e5 91       		.byte	0x91
 11346 14e6 54       		.sleb128 -44
 11347 14e7 32       		.uleb128 0x32
 11348 14e8 636F6C6F 		.ascii "color2\0"
 11348      723200
 11349 14ef 01       		.byte	0x1
 11350 14f0 8D06     		.word	0x68d
 11351 14f2 8C130000 		.long	0x138c
 11352 14f6 02       		.byte	0x2
 11353 14f7 91       		.byte	0x91
 11354 14f8 48       		.sleb128 -56
 11355 14f9 2F       		.uleb128 0x2f
 11356 14fa 785F706F 		.ascii "x_pos1\0"
 11356      733100
 11357 1501 01       		.byte	0x1
 11358 1502 8E06     		.word	0x68e
 11359 1504 97000000 		.long	0x97
 11360 1508 2F       		.uleb128 0x2f
 11361 1509 795F706F 		.ascii "y_pos1\0"
 11361      733100
 11362 1510 01       		.byte	0x1
 11363 1511 8F06     		.word	0x68f
 11364 1513 97000000 		.long	0x97
 11365 1517 2F       		.uleb128 0x2f
 11366 1518 785F706F 		.ascii "x_pos2\0"
 11366      733200
 11367 151f 01       		.byte	0x1
 11368 1520 9006     		.word	0x690
 11369 1522 97000000 		.long	0x97
 11370 1526 2F       		.uleb128 0x2f
 11371 1527 795F706F 		.ascii "y_pos2\0"
 11371      733200
 11372 152e 01       		.byte	0x1
 11373 152f 9106     		.word	0x691
 11374 1531 97000000 		.long	0x97
 11375 1535 00       		.byte	0x0
 11376 1536 00       		.byte	0x0
 11377 1537 02       		.uleb128 0x2
 11378 1538 04       		.byte	0x4
 11379 1539 04       		.byte	0x4
 11380 153a 666C6F61 		.ascii "float\0"
 11380      7400
 11381 1540 02       		.uleb128 0x2
 11382 1541 0C       		.byte	0xc
 11383 1542 04       		.byte	0x4
 11384 1543 6C6F6E67 		.ascii "long double\0"
 11384      20646F75 
 11384      626C6500 
GAS LISTING /cygdrive/c/Users/THESCI~1/AppData/Local/Temp/ccH1olGy.s 			page 265


 11385 154f 24       		.uleb128 0x24
 11386 1550 01       		.byte	0x1
 11387 1551 73746974 		.ascii "stitch_images\0"
 11387      63685F69 
 11387      6D616765 
 11387      7300
 11388 155f 01       		.byte	0x1
 11389 1560 B506     		.word	0x6b5
 11390 1562 01       		.byte	0x1
 11391 1563 97000000 		.long	0x97
 11392 1567 40120000 		.long	LFB22
 11393 156b 95150000 		.long	LFE22
 11394 156f B1100000 		.secrel32	LLST59
 11395 1573 A3160000 		.long	0x16a3
 11396 1577 33       		.uleb128 0x33
 11397 1578 70696331 		.ascii "pic1\0"
 11397      00
 11398 157d 01       		.byte	0x1
 11399 157e B406     		.word	0x6b4
 11400 1580 FE0E0000 		.long	0xefe
 11401 1584 DD100000 		.secrel32	LLST60
 11402 1588 33       		.uleb128 0x33
 11403 1589 70696332 		.ascii "pic2\0"
 11403      00
 11404 158e 01       		.byte	0x1
 11405 158f B406     		.word	0x6b4
 11406 1591 FE0E0000 		.long	0xefe
 11407 1595 13110000 		.secrel32	LLST61
 11408 1599 25       		.uleb128 0x25
 11409 159a 2A000000 		.secrel32	LASF2
 11410 159e 01       		.byte	0x1
 11411 159f B406     		.word	0x6b4
 11412 15a1 FE0E0000 		.long	0xefe
 11413 15a5 49110000 		.secrel32	LLST62
 11414 15a9 2E       		.uleb128 0x2e
 11415 15aa 7800     		.ascii "x\0"
 11416 15ac 01       		.byte	0x1
 11417 15ad B706     		.word	0x6b7
 11418 15af 97000000 		.long	0x97
 11419 15b3 81110000 		.secrel32	LLST63
 11420 15b7 2E       		.uleb128 0x2e
 11421 15b8 7900     		.ascii "y\0"
 11422 15ba 01       		.byte	0x1
 11423 15bb B806     		.word	0x6b8
 11424 15bd 97000000 		.long	0x97
 11425 15c1 BD110000 		.secrel32	LLST64
 11426 15c5 2E       		.uleb128 0x2e
 11427 15c6 62657374 		.ascii "best_x\0"
 11427      5F7800
 11428 15cd 01       		.byte	0x1
 11429 15ce B906     		.word	0x6b9
 11430 15d0 97000000 		.long	0x97
 11431 15d4 E6110000 		.secrel32	LLST65
 11432 15d8 2E       		.uleb128 0x2e
 11433 15d9 62657374 		.ascii "best_y\0"
 11433      5F7900
 11434 15e0 01       		.byte	0x1
GAS LISTING /cygdrive/c/Users/THESCI~1/AppData/Local/Temp/ccH1olGy.s 			page 266


 11435 15e1 BA06     		.word	0x6ba
 11436 15e3 97000000 		.long	0x97
 11437 15e7 22120000 		.secrel32	LLST66
 11438 15eb 30       		.uleb128 0x30
 11439 15ec 4A000000 		.secrel32	LASF8
 11440 15f0 01       		.byte	0x1
 11441 15f1 BB06     		.word	0x6bb
 11442 15f3 97000000 		.long	0x97
 11443 15f7 5E120000 		.secrel32	LLST67
 11444 15fb 30       		.uleb128 0x30
 11445 15fc 1B000000 		.secrel32	LASF9
 11446 1600 01       		.byte	0x1
 11447 1601 BC06     		.word	0x6bc
 11448 1603 97000000 		.long	0x97
 11449 1607 96120000 		.secrel32	LLST68
 11450 160b 2E       		.uleb128 0x2e
 11451 160c 62657374 		.ascii "best_error\0"
 11451      5F657272 
 11451      6F7200
 11452 1617 01       		.byte	0x1
 11453 1618 BD06     		.word	0x6bd
 11454 161a 37150000 		.long	0x1537
 11455 161e CE120000 		.secrel32	LLST69
 11456 1622 34       		.uleb128 0x34
 11457 1623 30010000 		.secrel32	Ldebug_ranges0+0x130
 11458 1627 48160000 		.long	0x1648
 11459 162b 2E       		.uleb128 0x2e
 11460 162c 6900     		.ascii "i\0"
 11461 162e 01       		.byte	0x1
 11462 162f 3907     		.word	0x739
 11463 1631 97000000 		.long	0x97
 11464 1635 06130000 		.secrel32	LLST70
 11465 1639 2E       		.uleb128 0x2e
 11466 163a 6A00     		.ascii "j\0"
 11467 163c 01       		.byte	0x1
 11468 163d 3A07     		.word	0x73a
 11469 163f 97000000 		.long	0x97
 11470 1643 3E130000 		.secrel32	LLST71
 11471 1647 00       		.byte	0x0
 11472 1648 34       		.uleb128 0x34
 11473 1649 60010000 		.secrel32	Ldebug_ranges0+0x160
 11474 164d 7E160000 		.long	0x167e
 11475 1651 32       		.uleb128 0x32
 11476 1652 6F5F7700 		.ascii "o_w\0"
 11477 1656 01       		.byte	0x1
 11478 1657 0707     		.word	0x707
 11479 1659 A3160000 		.long	0x16a3
 11480 165d 02       		.byte	0x2
 11481 165e 91       		.byte	0x91
 11482 165f 68       		.sleb128 -24
 11483 1660 32       		.uleb128 0x32
 11484 1661 6F5F6800 		.ascii "o_h\0"
 11485 1665 01       		.byte	0x1
 11486 1666 0807     		.word	0x708
 11487 1668 A3160000 		.long	0x16a3
 11488 166c 02       		.byte	0x2
 11489 166d 91       		.byte	0x91
GAS LISTING /cygdrive/c/Users/THESCI~1/AppData/Local/Temp/ccH1olGy.s 			page 267


 11490 166e 64       		.sleb128 -28
 11491 166f 32       		.uleb128 0x32
 11492 1670 65727200 		.ascii "err\0"
 11493 1674 01       		.byte	0x1
 11494 1675 0B07     		.word	0x70b
 11495 1677 37150000 		.long	0x1537
 11496 167b 01       		.byte	0x1
 11497 167c 5B       		.byte	0x5b
 11498 167d 00       		.byte	0x0
 11499 167e 2C       		.uleb128 0x2c
 11500 167f 78010000 		.secrel32	Ldebug_ranges0+0x178
 11501 1683 2E       		.uleb128 0x2e
 11502 1684 6C656E00 		.ascii "len\0"
 11503 1688 01       		.byte	0x1
 11504 1689 2807     		.word	0x728
 11505 168b 97000000 		.long	0x97
 11506 168f 76130000 		.secrel32	LLST72
 11507 1693 2E       		.uleb128 0x2e
 11508 1694 6900     		.ascii "i\0"
 11509 1696 01       		.byte	0x1
 11510 1697 2907     		.word	0x729
 11511 1699 97000000 		.long	0x97
 11512 169d 89130000 		.secrel32	LLST73
 11513 16a1 00       		.byte	0x0
 11514 16a2 00       		.byte	0x0
 11515 16a3 08       		.uleb128 0x8
 11516 16a4 97000000 		.long	0x97
 11517 16a8 B3160000 		.long	0x16b3
 11518 16ac 09       		.uleb128 0x9
 11519 16ad BC010000 		.long	0x1bc
 11520 16b1 00       		.byte	0x0
 11521 16b2 00       		.byte	0x0
 11522 16b3 24       		.uleb128 0x24
 11523 16b4 01       		.byte	0x1
 11524 16b5 7365745F 		.ascii "set_pixel\0"
 11524      70697865 
 11524      6C00
 11525 16bf 01       		.byte	0x1
 11526 16c0 DF01     		.word	0x1df
 11527 16c2 01       		.byte	0x1
 11528 16c3 97000000 		.long	0x97
 11529 16c7 A0150000 		.long	LFB12
 11530 16cb 5B1A0000 		.long	LFE12
 11531 16cf C8130000 		.secrel32	LLST74
 11532 16d3 78170000 		.long	0x1778
 11533 16d7 25       		.uleb128 0x25
 11534 16d8 35000000 		.secrel32	LASF5
 11535 16dc 01       		.byte	0x1
 11536 16dd DE01     		.word	0x1de
 11537 16df FE0E0000 		.long	0xefe
 11538 16e3 F4130000 		.secrel32	LLST75
 11539 16e7 25       		.uleb128 0x25
 11540 16e8 3D000000 		.secrel32	LASF6
 11541 16ec 01       		.byte	0x1
 11542 16ed DE01     		.word	0x1de
 11543 16ef 97000000 		.long	0x97
 11544 16f3 7B140000 		.secrel32	LLST76
GAS LISTING /cygdrive/c/Users/THESCI~1/AppData/Local/Temp/ccH1olGy.s 			page 268


 11545 16f7 25       		.uleb128 0x25
 11546 16f8 2F000000 		.secrel32	LASF7
 11547 16fc 01       		.byte	0x1
 11548 16fd DE01     		.word	0x1de
 11549 16ff 3B100000 		.long	0x103b
 11550 1703 B3140000 		.secrel32	LLST77
 11551 1707 2E       		.uleb128 0x2e
 11552 1708 6D756C00 		.ascii "mul\0"
 11553 170c 01       		.byte	0x1
 11554 170d E101     		.word	0x1e1
 11555 170f 97000000 		.long	0x97
 11556 1713 03150000 		.secrel32	LLST78
 11557 1717 2F       		.uleb128 0x2f
 11558 1718 6F666673 		.ascii "offset\0"
 11558      657400
 11559 171f 01       		.byte	0x1
 11560 1720 E201     		.word	0x1e2
 11561 1722 97000000 		.long	0x97
 11562 1726 2E       		.uleb128 0x2e
 11563 1727 68616C66 		.ascii "half_in\0"
 11563      5F696E00 
 11564 172f 01       		.byte	0x1
 11565 1730 E301     		.word	0x1e3
 11566 1732 97000000 		.long	0x97
 11567 1736 8C160000 		.secrel32	LLST79
 11568 173a 2E       		.uleb128 0x2e
 11569 173b 6C656E00 		.ascii "len\0"
 11570 173f 01       		.byte	0x1
 11571 1740 E401     		.word	0x1e4
 11572 1742 97000000 		.long	0x97
 11573 1746 44170000 		.secrel32	LLST80
 11574 174a 30       		.uleb128 0x30
 11575 174b 58000000 		.secrel32	LASF3
 11576 174f 01       		.byte	0x1
 11577 1750 E501     		.word	0x1e5
 11578 1752 7F040000 		.long	0x47f
 11579 1756 6D170000 		.secrel32	LLST81
 11580 175a 31       		.uleb128 0x31
 11581 175b 5B0F0000 		.long	0xf5b
 11582 175f 90010000 		.secrel32	Ldebug_ranges0+0x190
 11583 1763 01       		.byte	0x1
 11584 1764 FC01     		.word	0x1fc
 11585 1766 2B       		.uleb128 0x2b
 11586 1767 AA0F0000 		.long	0xfaa
 11587 176b 2C       		.uleb128 0x2c
 11588 176c B0010000 		.secrel32	Ldebug_ranges0+0x1b0
 11589 1770 2D       		.uleb128 0x2d
 11590 1771 890F0000 		.long	0xf89
 11591 1775 00       		.byte	0x0
 11592 1776 00       		.byte	0x0
 11593 1777 00       		.byte	0x0
 11594 1778 24       		.uleb128 0x24
 11595 1779 01       		.byte	0x1
 11596 177a 6461726B 		.ascii "darken_cs229_image\0"
 11596      656E5F63 
 11596      73323239 
 11596      5F696D61 
GAS LISTING /cygdrive/c/Users/THESCI~1/AppData/Local/Temp/ccH1olGy.s 			page 269


 11596      676500
 11597 178d 01       		.byte	0x1
 11598 178e 5B03     		.word	0x35b
 11599 1790 01       		.byte	0x1
 11600 1791 97000000 		.long	0x97
 11601 1795 601A0000 		.long	LFB14
 11602 1799 881B0000 		.long	LFE14
 11603 179d B7170000 		.secrel32	LLST82
 11604 17a1 07180000 		.long	0x1807
 11605 17a5 25       		.uleb128 0x25
 11606 17a6 35000000 		.secrel32	LASF5
 11607 17aa 01       		.byte	0x1
 11608 17ab 5A03     		.word	0x35a
 11609 17ad FE0E0000 		.long	0xefe
 11610 17b1 E3170000 		.secrel32	LLST83
 11611 17b5 33       		.uleb128 0x33
 11612 17b6 70657263 		.ascii "percent\0"
 11612      656E7400 
 11613 17be 01       		.byte	0x1
 11614 17bf 5A03     		.word	0x35a
 11615 17c1 7F0C0000 		.long	0xc7f
 11616 17c5 30180000 		.secrel32	LLST84
 11617 17c9 35       		.uleb128 0x35
 11618 17ca 2F000000 		.secrel32	LASF7
 11619 17ce 01       		.byte	0x1
 11620 17cf 5D03     		.word	0x35d
 11621 17d1 8C130000 		.long	0x138c
 11622 17d5 02       		.byte	0x2
 11623 17d6 91       		.byte	0x91
 11624 17d7 60       		.sleb128 -32
 11625 17d8 2E       		.uleb128 0x2e
 11626 17d9 6900     		.ascii "i\0"
 11627 17db 01       		.byte	0x1
 11628 17dc 5E03     		.word	0x35e
 11629 17de 97000000 		.long	0x97
 11630 17e2 7D180000 		.secrel32	LLST85
 11631 17e6 2E       		.uleb128 0x2e
 11632 17e7 6C656E00 		.ascii "len\0"
 11633 17eb 01       		.byte	0x1
 11634 17ec 5F03     		.word	0x35f
 11635 17ee 97000000 		.long	0x97
 11636 17f2 9B180000 		.secrel32	LLST86
 11637 17f6 2E       		.uleb128 0x2e
 11638 17f7 65727200 		.ascii "err\0"
 11639 17fb 01       		.byte	0x1
 11640 17fc 6003     		.word	0x360
 11641 17fe 97000000 		.long	0x97
 11642 1802 BB180000 		.secrel32	LLST87
 11643 1806 00       		.byte	0x0
 11644 1807 24       		.uleb128 0x24
 11645 1808 01       		.byte	0x1
 11646 1809 6C696768 		.ascii "lighten_cs229_image\0"
 11646      74656E5F 
 11646      63733232 
 11646      395F696D 
 11646      61676500 
 11647 181d 01       		.byte	0x1
GAS LISTING /cygdrive/c/Users/THESCI~1/AppData/Local/Temp/ccH1olGy.s 			page 270


 11648 181e A203     		.word	0x3a2
 11649 1820 01       		.byte	0x1
 11650 1821 97000000 		.long	0x97
 11651 1825 901B0000 		.long	LFB15
 11652 1829 051E0000 		.long	LFE15
 11653 182d FA180000 		.secrel32	LLST88
 11654 1831 A7180000 		.long	0x18a7
 11655 1835 25       		.uleb128 0x25
 11656 1836 35000000 		.secrel32	LASF5
 11657 183a 01       		.byte	0x1
 11658 183b A103     		.word	0x3a1
 11659 183d FE0E0000 		.long	0xefe
 11660 1841 26190000 		.secrel32	LLST89
 11661 1845 33       		.uleb128 0x33
 11662 1846 70657263 		.ascii "percent\0"
 11662      656E7400 
 11663 184e 01       		.byte	0x1
 11664 184f A103     		.word	0x3a1
 11665 1851 7F0C0000 		.long	0xc7f
 11666 1855 73190000 		.secrel32	LLST90
 11667 1859 35       		.uleb128 0x35
 11668 185a 2F000000 		.secrel32	LASF7
 11669 185e 01       		.byte	0x1
 11670 185f A403     		.word	0x3a4
 11671 1861 8C130000 		.long	0x138c
 11672 1865 02       		.byte	0x2
 11673 1866 91       		.byte	0x91
 11674 1867 60       		.sleb128 -32
 11675 1868 2E       		.uleb128 0x2e
 11676 1869 6900     		.ascii "i\0"
 11677 186b 01       		.byte	0x1
 11678 186c A503     		.word	0x3a5
 11679 186e 97000000 		.long	0x97
 11680 1872 C0190000 		.secrel32	LLST91
 11681 1876 2E       		.uleb128 0x2e
 11682 1877 6C656E00 		.ascii "len\0"
 11683 187b 01       		.byte	0x1
 11684 187c A603     		.word	0x3a6
 11685 187e 97000000 		.long	0x97
 11686 1882 DE190000 		.secrel32	LLST92
 11687 1886 2E       		.uleb128 0x2e
 11688 1887 65727200 		.ascii "err\0"
 11689 188b 01       		.byte	0x1
 11690 188c A703     		.word	0x3a7
 11691 188e 97000000 		.long	0x97
 11692 1892 FE190000 		.secrel32	LLST93
 11693 1896 2F       		.uleb128 0x2f
 11694 1897 6D61785F 		.ascii "max_val\0"
 11694      76616C00 
 11695 189f 01       		.byte	0x1
 11696 18a0 AA03     		.word	0x3aa
 11697 18a2 8C130000 		.long	0x138c
 11698 18a6 00       		.byte	0x0
 11699 18a7 24       		.uleb128 0x24
 11700 18a8 01       		.byte	0x1
 11701 18a9 666C6970 		.ascii "flip_cs229_image\0"
 11701      5F637332 
GAS LISTING /cygdrive/c/Users/THESCI~1/AppData/Local/Temp/ccH1olGy.s 			page 271


 11701      32395F69 
 11701      6D616765 
 11701      00
 11702 18ba 01       		.byte	0x1
 11703 18bb AA04     		.word	0x4aa
 11704 18bd 01       		.byte	0x1
 11705 18be 97000000 		.long	0x97
 11706 18c2 101E0000 		.long	LFB17
 11707 18c6 15200000 		.long	LFE17
 11708 18ca 3D1A0000 		.secrel32	LLST94
 11709 18ce 55190000 		.long	0x1955
 11710 18d2 33       		.uleb128 0x33
 11711 18d3 70696300 		.ascii "pic\0"
 11712 18d7 01       		.byte	0x1
 11713 18d8 A904     		.word	0x4a9
 11714 18da FE0E0000 		.long	0xefe
 11715 18de 691A0000 		.secrel32	LLST95
 11716 18e2 33       		.uleb128 0x33
 11717 18e3 61786973 		.ascii "axis\0"
 11717      00
 11718 18e8 01       		.byte	0x1
 11719 18e9 A904     		.word	0x4a9
 11720 18eb 710C0000 		.long	0xc71
 11721 18ef 891A0000 		.secrel32	LLST96
 11722 18f3 32       		.uleb128 0x32
 11723 18f4 65727200 		.ascii "err\0"
 11724 18f8 01       		.byte	0x1
 11725 18f9 AC04     		.word	0x4ac
 11726 18fb 97000000 		.long	0x97
 11727 18ff 02       		.byte	0x2
 11728 1900 75       		.byte	0x75
 11729 1901 4C       		.sleb128 -52
 11730 1902 2E       		.uleb128 0x2e
 11731 1903 6900     		.ascii "i\0"
 11732 1905 01       		.byte	0x1
 11733 1906 AD04     		.word	0x4ad
 11734 1908 97000000 		.long	0x97
 11735 190c E21A0000 		.secrel32	LLST97
 11736 1910 2E       		.uleb128 0x2e
 11737 1911 6C656E00 		.ascii "len\0"
 11738 1915 01       		.byte	0x1
 11739 1916 AE04     		.word	0x4ae
 11740 1918 97000000 		.long	0x97
 11741 191c 0B1B0000 		.secrel32	LLST98
 11742 1920 32       		.uleb128 0x32
 11743 1921 636F6C6F 		.ascii "colorA\0"
 11743      724100
 11744 1928 01       		.byte	0x1
 11745 1929 AF04     		.word	0x4af
 11746 192b 8C130000 		.long	0x138c
 11747 192f 02       		.byte	0x2
 11748 1930 91       		.byte	0x91
 11749 1931 60       		.sleb128 -32
 11750 1932 32       		.uleb128 0x32
 11751 1933 636F6C6F 		.ascii "colorB\0"
 11751      724200
 11752 193a 01       		.byte	0x1
GAS LISTING /cygdrive/c/Users/THESCI~1/AppData/Local/Temp/ccH1olGy.s 			page 272


 11753 193b B004     		.word	0x4b0
 11754 193d 8C130000 		.long	0x138c
 11755 1941 02       		.byte	0x2
 11756 1942 91       		.byte	0x91
 11757 1943 54       		.sleb128 -44
 11758 1944 2E       		.uleb128 0x2e
 11759 1945 6D6F6400 		.ascii "mod\0"
 11760 1949 01       		.byte	0x1
 11761 194a B104     		.word	0x4b1
 11762 194c 97000000 		.long	0x97
 11763 1950 2B1B0000 		.secrel32	LLST99
 11764 1954 00       		.byte	0x0
 11765 1955 24       		.uleb128 0x24
 11766 1956 01       		.byte	0x1
 11767 1957 726F7461 		.ascii "rotate_cs229_image\0"
 11767      74655F63 
 11767      73323239 
 11767      5F696D61 
 11767      676500
 11768 196a 01       		.byte	0x1
 11769 196b 3504     		.word	0x435
 11770 196d 01       		.byte	0x1
 11771 196e 97000000 		.long	0x97
 11772 1972 20200000 		.long	LFB16
 11773 1976 75230000 		.long	LFE16
 11774 197a 5F1B0000 		.secrel32	LLST100
 11775 197e 2B1A0000 		.long	0x1a2b
 11776 1982 33       		.uleb128 0x33
 11777 1983 70696300 		.ascii "pic\0"
 11778 1987 01       		.byte	0x1
 11779 1988 3404     		.word	0x434
 11780 198a FE0E0000 		.long	0xefe
 11781 198e 8B1B0000 		.secrel32	LLST101
 11782 1992 33       		.uleb128 0x33
 11783 1993 616E676C 		.ascii "angle\0"
 11783      6500
 11784 1999 01       		.byte	0x1
 11785 199a 3404     		.word	0x434
 11786 199c 7F0C0000 		.long	0xc7f
 11787 19a0 C31B0000 		.secrel32	LLST102
 11788 19a4 32       		.uleb128 0x32
 11789 19a5 6E657770 		.ascii "newpic\0"
 11789      696300
 11790 19ac 01       		.byte	0x1
 11791 19ad 3704     		.word	0x437
 11792 19af F10E0000 		.long	0xef1
 11793 19b3 02       		.byte	0x2
 11794 19b4 91       		.byte	0x91
 11795 19b5 4C       		.sleb128 -52
 11796 19b6 2E       		.uleb128 0x2e
 11797 19b7 65727200 		.ascii "err\0"
 11798 19bb 01       		.byte	0x1
 11799 19bc 3804     		.word	0x438
 11800 19be 97000000 		.long	0x97
 11801 19c2 101C0000 		.secrel32	LLST103
 11802 19c6 36       		.uleb128 0x36
 11803 19c7 5B0F0000 		.long	0xf5b
GAS LISTING /cygdrive/c/Users/THESCI~1/AppData/Local/Temp/ccH1olGy.s 			page 273


 11804 19cb D0010000 		.secrel32	Ldebug_ranges0+0x1d0
 11805 19cf 01       		.byte	0x1
 11806 19d0 5C04     		.word	0x45c
 11807 19d2 E7190000 		.long	0x19e7
 11808 19d6 2B       		.uleb128 0x2b
 11809 19d7 AA0F0000 		.long	0xfaa
 11810 19db 2C       		.uleb128 0x2c
 11811 19dc 08020000 		.secrel32	Ldebug_ranges0+0x208
 11812 19e0 2D       		.uleb128 0x2d
 11813 19e1 890F0000 		.long	0xf89
 11814 19e5 00       		.byte	0x0
 11815 19e6 00       		.byte	0x0
 11816 19e7 2C       		.uleb128 0x2c
 11817 19e8 40020000 		.secrel32	Ldebug_ranges0+0x240
 11818 19ec 35       		.uleb128 0x35
 11819 19ed 2F000000 		.secrel32	LASF7
 11820 19f1 01       		.byte	0x1
 11821 19f2 6704     		.word	0x467
 11822 19f4 8C130000 		.long	0x138c
 11823 19f8 02       		.byte	0x2
 11824 19f9 91       		.byte	0x91
 11825 19fa 60       		.sleb128 -32
 11826 19fb 2E       		.uleb128 0x2e
 11827 19fc 6C656E00 		.ascii "len\0"
 11828 1a00 01       		.byte	0x1
 11829 1a01 6804     		.word	0x468
 11830 1a03 97000000 		.long	0x97
 11831 1a07 2F1E0000 		.secrel32	LLST104
 11832 1a0b 2E       		.uleb128 0x2e
 11833 1a0c 6900     		.ascii "i\0"
 11834 1a0e 01       		.byte	0x1
 11835 1a0f 6904     		.word	0x469
 11836 1a11 97000000 		.long	0x97
 11837 1a15 6B1E0000 		.secrel32	LLST105
 11838 1a19 2E       		.uleb128 0x2e
 11839 1a1a 706F7300 		.ascii "pos\0"
 11840 1a1e 01       		.byte	0x1
 11841 1a1f 6A04     		.word	0x46a
 11842 1a21 97000000 		.long	0x97
 11843 1a25 9F1E0000 		.secrel32	LLST106
 11844 1a29 00       		.byte	0x0
 11845 1a2a 00       		.byte	0x0
 11846 1a2b 24       		.uleb128 0x24
 11847 1a2c 01       		.byte	0x1
 11848 1a2d 636F6E76 		.ascii "convolute\0"
 11848      6F6C7574 
 11848      6500
 11849 1a37 01       		.byte	0x1
 11850 1a38 1C05     		.word	0x51c
 11851 1a3a 01       		.byte	0x1
 11852 1a3b 97000000 		.long	0x97
 11853 1a3f 80230000 		.long	LFB18
 11854 1a43 FF270000 		.long	LFE18
 11855 1a47 BD1E0000 		.secrel32	LLST107
 11856 1a4b 801B0000 		.long	0x1b80
 11857 1a4f 33       		.uleb128 0x33
 11858 1a50 70696300 		.ascii "pic\0"
GAS LISTING /cygdrive/c/Users/THESCI~1/AppData/Local/Temp/ccH1olGy.s 			page 274


 11859 1a54 01       		.byte	0x1
 11860 1a55 1B05     		.word	0x51b
 11861 1a57 FE0E0000 		.long	0xefe
 11862 1a5b E91E0000 		.secrel32	LLST108
 11863 1a5f 33       		.uleb128 0x33
 11864 1a60 6B65726E 		.ascii "kernel\0"
 11864      656C00
 11865 1a67 01       		.byte	0x1
 11866 1a68 1B05     		.word	0x51b
 11867 1a6a 801B0000 		.long	0x1b80
 11868 1a6e 091F0000 		.secrel32	LLST109
 11869 1a72 33       		.uleb128 0x33
 11870 1a73 77696474 		.ascii "width\0"
 11870      6800
 11871 1a79 01       		.byte	0x1
 11872 1a7a 1B05     		.word	0x51b
 11873 1a7c 3B100000 		.long	0x103b
 11874 1a80 411F0000 		.secrel32	LLST110
 11875 1a84 32       		.uleb128 0x32
 11876 1a85 6E657770 		.ascii "newpic\0"
 11876      696300
 11877 1a8c 01       		.byte	0x1
 11878 1a8d 1E05     		.word	0x51e
 11879 1a8f F10E0000 		.long	0xef1
 11880 1a93 02       		.byte	0x2
 11881 1a94 91       		.byte	0x91
 11882 1a95 48       		.sleb128 -56
 11883 1a96 2E       		.uleb128 0x2e
 11884 1a97 65727200 		.ascii "err\0"
 11885 1a9b 01       		.byte	0x1
 11886 1a9c 1F05     		.word	0x51f
 11887 1a9e 97000000 		.long	0x97
 11888 1aa2 791F0000 		.secrel32	LLST111
 11889 1aa6 2E       		.uleb128 0x2e
 11890 1aa7 6C656E00 		.ascii "len\0"
 11891 1aab 01       		.byte	0x1
 11892 1aac 2005     		.word	0x520
 11893 1aae 97000000 		.long	0x97
 11894 1ab2 BD210000 		.secrel32	LLST112
 11895 1ab6 2E       		.uleb128 0x2e
 11896 1ab7 6900     		.ascii "i\0"
 11897 1ab9 01       		.byte	0x1
 11898 1aba 2105     		.word	0x521
 11899 1abc 97000000 		.long	0x97
 11900 1ac0 06220000 		.secrel32	LLST113
 11901 1ac4 2E       		.uleb128 0x2e
 11902 1ac5 6A00     		.ascii "j\0"
 11903 1ac7 01       		.byte	0x1
 11904 1ac8 2205     		.word	0x522
 11905 1aca 97000000 		.long	0x97
 11906 1ace 4F220000 		.secrel32	LLST114
 11907 1ad2 2E       		.uleb128 0x2e
 11908 1ad3 7800     		.ascii "x\0"
 11909 1ad5 01       		.byte	0x1
 11910 1ad6 2305     		.word	0x523
 11911 1ad8 97000000 		.long	0x97
 11912 1adc 98220000 		.secrel32	LLST115
GAS LISTING /cygdrive/c/Users/THESCI~1/AppData/Local/Temp/ccH1olGy.s 			page 275


 11913 1ae0 2E       		.uleb128 0x2e
 11914 1ae1 7900     		.ascii "y\0"
 11915 1ae3 01       		.byte	0x1
 11916 1ae4 2405     		.word	0x524
 11917 1ae6 97000000 		.long	0x97
 11918 1aea E1220000 		.secrel32	LLST116
 11919 1aee 2F       		.uleb128 0x2f
 11920 1aef 636F7264 		.ascii "cord\0"
 11920      00
 11921 1af4 01       		.byte	0x1
 11922 1af5 2505     		.word	0x525
 11923 1af7 8C1B0000 		.long	0x1b8c
 11924 1afb 30       		.uleb128 0x30
 11925 1afc 58000000 		.secrel32	LASF3
 11926 1b00 01       		.byte	0x1
 11927 1b01 2605     		.word	0x526
 11928 1b03 37150000 		.long	0x1537
 11929 1b07 20230000 		.secrel32	LLST117
 11930 1b0b 32       		.uleb128 0x32
 11931 1b0c 696E745F 		.ascii "int_pixel\0"
 11931      70697865 
 11931      6C00
 11932 1b16 01       		.byte	0x1
 11933 1b17 2705     		.word	0x527
 11934 1b19 8C130000 		.long	0x138c
 11935 1b1d 02       		.byte	0x2
 11936 1b1e 91       		.byte	0x91
 11937 1b1f 5C       		.sleb128 -36
 11938 1b20 2E       		.uleb128 0x2e
 11939 1b21 6E65775F 		.ascii "new_i\0"
 11939      6900
 11940 1b27 01       		.byte	0x1
 11941 1b28 2805     		.word	0x528
 11942 1b2a 97000000 		.long	0x97
 11943 1b2e 69230000 		.secrel32	LLST118
 11944 1b32 36       		.uleb128 0x36
 11945 1b33 5B0F0000 		.long	0xf5b
 11946 1b37 58020000 		.secrel32	Ldebug_ranges0+0x258
 11947 1b3b 01       		.byte	0x1
 11948 1b3c 4005     		.word	0x540
 11949 1b3e 531B0000 		.long	0x1b53
 11950 1b42 2B       		.uleb128 0x2b
 11951 1b43 AA0F0000 		.long	0xfaa
 11952 1b47 2C       		.uleb128 0x2c
 11953 1b48 90020000 		.secrel32	Ldebug_ranges0+0x290
 11954 1b4c 2D       		.uleb128 0x2d
 11955 1b4d 890F0000 		.long	0xf89
 11956 1b51 00       		.byte	0x0
 11957 1b52 00       		.byte	0x0
 11958 1b53 36       		.uleb128 0x36
 11959 1b54 EE0F0000 		.long	0xfee
 11960 1b58 C8020000 		.secrel32	Ldebug_ranges0+0x2c8
 11961 1b5c 01       		.byte	0x1
 11962 1b5d 6C05     		.word	0x56c
 11963 1b5f 731B0000 		.long	0x1b73
 11964 1b63 2B       		.uleb128 0x2b
 11965 1b64 68100000 		.long	0x1068
GAS LISTING /cygdrive/c/Users/THESCI~1/AppData/Local/Temp/ccH1olGy.s 			page 276


 11966 1b68 2B       		.uleb128 0x2b
 11967 1b69 5F100000 		.long	0x105f
 11968 1b6d 2B       		.uleb128 0x2b
 11969 1b6e 56100000 		.long	0x1056
 11970 1b72 00       		.byte	0x0
 11971 1b73 37       		.uleb128 0x37
 11972 1b74 120F0000 		.long	0xf12
 11973 1b78 E8020000 		.secrel32	Ldebug_ranges0+0x2e8
 11974 1b7c 01       		.byte	0x1
 11975 1b7d 7305     		.word	0x573
 11976 1b7f 00       		.byte	0x0
 11977 1b80 0E       		.uleb128 0xe
 11978 1b81 04       		.byte	0x4
 11979 1b82 861B0000 		.long	0x1b86
 11980 1b86 0E       		.uleb128 0xe
 11981 1b87 04       		.byte	0x4
 11982 1b88 37150000 		.long	0x1537
 11983 1b8c 38       		.uleb128 0x38
 11984 1b8d 97000000 		.long	0x97
 11985 1b91 09       		.uleb128 0x9
 11986 1b92 BC010000 		.long	0x1bc
 11987 1b96 01       		.byte	0x1
 11988 1b97 00       		.byte	0x0
 11989 1b98 00       		.byte	0x0
 11990              		.section	.debug_abbrev,"dr"
 11991 0000 01       		.uleb128 0x1
 11992 0001 11       		.uleb128 0x11
 11993 0002 01       		.byte	0x1
 11994 0003 25       		.uleb128 0x25
 11995 0004 08       		.uleb128 0x8
 11996 0005 13       		.uleb128 0x13
 11997 0006 0B       		.uleb128 0xb
 11998 0007 03       		.uleb128 0x3
 11999 0008 08       		.uleb128 0x8
 12000 0009 1B       		.uleb128 0x1b
 12001 000a 08       		.uleb128 0x8
 12002 000b 11       		.uleb128 0x11
 12003 000c 01       		.uleb128 0x1
 12004 000d 12       		.uleb128 0x12
 12005 000e 01       		.uleb128 0x1
 12006 000f 10       		.uleb128 0x10
 12007 0010 06       		.uleb128 0x6
 12008 0011 00       		.byte	0x0
 12009 0012 00       		.byte	0x0
 12010 0013 02       		.uleb128 0x2
 12011 0014 24       		.uleb128 0x24
 12012 0015 00       		.byte	0x0
 12013 0016 0B       		.uleb128 0xb
 12014 0017 0B       		.uleb128 0xb
 12015 0018 3E       		.uleb128 0x3e
 12016 0019 0B       		.uleb128 0xb
 12017 001a 03       		.uleb128 0x3
 12018 001b 08       		.uleb128 0x8
 12019 001c 00       		.byte	0x0
 12020 001d 00       		.byte	0x0
 12021 001e 03       		.uleb128 0x3
 12022 001f 16       		.uleb128 0x16
GAS LISTING /cygdrive/c/Users/THESCI~1/AppData/Local/Temp/ccH1olGy.s 			page 277


 12023 0020 00       		.byte	0x0
 12024 0021 03       		.uleb128 0x3
 12025 0022 08       		.uleb128 0x8
 12026 0023 3A       		.uleb128 0x3a
 12027 0024 0B       		.uleb128 0xb
 12028 0025 3B       		.uleb128 0x3b
 12029 0026 0B       		.uleb128 0xb
 12030 0027 49       		.uleb128 0x49
 12031 0028 13       		.uleb128 0x13
 12032 0029 00       		.byte	0x0
 12033 002a 00       		.byte	0x0
 12034 002b 04       		.uleb128 0x4
 12035 002c 0F       		.uleb128 0xf
 12036 002d 00       		.byte	0x0
 12037 002e 0B       		.uleb128 0xb
 12038 002f 0B       		.uleb128 0xb
 12039 0030 00       		.byte	0x0
 12040 0031 00       		.byte	0x0
 12041 0032 05       		.uleb128 0x5
 12042 0033 16       		.uleb128 0x16
 12043 0034 00       		.byte	0x0
 12044 0035 03       		.uleb128 0x3
 12045 0036 08       		.uleb128 0x8
 12046 0037 3A       		.uleb128 0x3a
 12047 0038 0B       		.uleb128 0xb
 12048 0039 3B       		.uleb128 0x3b
 12049 003a 05       		.uleb128 0x5
 12050 003b 49       		.uleb128 0x49
 12051 003c 13       		.uleb128 0x13
 12052 003d 00       		.byte	0x0
 12053 003e 00       		.byte	0x0
 12054 003f 06       		.uleb128 0x6
 12055 0040 17       		.uleb128 0x17
 12056 0041 01       		.byte	0x1
 12057 0042 0B       		.uleb128 0xb
 12058 0043 0B       		.uleb128 0xb
 12059 0044 3A       		.uleb128 0x3a
 12060 0045 0B       		.uleb128 0xb
 12061 0046 3B       		.uleb128 0x3b
 12062 0047 0B       		.uleb128 0xb
 12063 0048 01       		.uleb128 0x1
 12064 0049 13       		.uleb128 0x13
 12065 004a 00       		.byte	0x0
 12066 004b 00       		.byte	0x0
 12067 004c 07       		.uleb128 0x7
 12068 004d 0D       		.uleb128 0xd
 12069 004e 00       		.byte	0x0
 12070 004f 03       		.uleb128 0x3
 12071 0050 08       		.uleb128 0x8
 12072 0051 3A       		.uleb128 0x3a
 12073 0052 0B       		.uleb128 0xb
 12074 0053 3B       		.uleb128 0x3b
 12075 0054 0B       		.uleb128 0xb
 12076 0055 49       		.uleb128 0x49
 12077 0056 13       		.uleb128 0x13
 12078 0057 00       		.byte	0x0
 12079 0058 00       		.byte	0x0
GAS LISTING /cygdrive/c/Users/THESCI~1/AppData/Local/Temp/ccH1olGy.s 			page 278


 12080 0059 08       		.uleb128 0x8
 12081 005a 01       		.uleb128 0x1
 12082 005b 01       		.byte	0x1
 12083 005c 49       		.uleb128 0x49
 12084 005d 13       		.uleb128 0x13
 12085 005e 01       		.uleb128 0x1
 12086 005f 13       		.uleb128 0x13
 12087 0060 00       		.byte	0x0
 12088 0061 00       		.byte	0x0
 12089 0062 09       		.uleb128 0x9
 12090 0063 21       		.uleb128 0x21
 12091 0064 00       		.byte	0x0
 12092 0065 49       		.uleb128 0x49
 12093 0066 13       		.uleb128 0x13
 12094 0067 2F       		.uleb128 0x2f
 12095 0068 0B       		.uleb128 0xb
 12096 0069 00       		.byte	0x0
 12097 006a 00       		.byte	0x0
 12098 006b 0A       		.uleb128 0xa
 12099 006c 24       		.uleb128 0x24
 12100 006d 00       		.byte	0x0
 12101 006e 0B       		.uleb128 0xb
 12102 006f 0B       		.uleb128 0xb
 12103 0070 3E       		.uleb128 0x3e
 12104 0071 0B       		.uleb128 0xb
 12105 0072 00       		.byte	0x0
 12106 0073 00       		.byte	0x0
 12107 0074 0B       		.uleb128 0xb
 12108 0075 13       		.uleb128 0x13
 12109 0076 01       		.byte	0x1
 12110 0077 0B       		.uleb128 0xb
 12111 0078 0B       		.uleb128 0xb
 12112 0079 3A       		.uleb128 0x3a
 12113 007a 0B       		.uleb128 0xb
 12114 007b 3B       		.uleb128 0x3b
 12115 007c 0B       		.uleb128 0xb
 12116 007d 01       		.uleb128 0x1
 12117 007e 13       		.uleb128 0x13
 12118 007f 00       		.byte	0x0
 12119 0080 00       		.byte	0x0
 12120 0081 0C       		.uleb128 0xc
 12121 0082 0D       		.uleb128 0xd
 12122 0083 00       		.byte	0x0
 12123 0084 03       		.uleb128 0x3
 12124 0085 08       		.uleb128 0x8
 12125 0086 3A       		.uleb128 0x3a
 12126 0087 0B       		.uleb128 0xb
 12127 0088 3B       		.uleb128 0x3b
 12128 0089 0B       		.uleb128 0xb
 12129 008a 49       		.uleb128 0x49
 12130 008b 13       		.uleb128 0x13
 12131 008c 38       		.uleb128 0x38
 12132 008d 0A       		.uleb128 0xa
 12133 008e 00       		.byte	0x0
 12134 008f 00       		.byte	0x0
 12135 0090 0D       		.uleb128 0xd
 12136 0091 13       		.uleb128 0x13
GAS LISTING /cygdrive/c/Users/THESCI~1/AppData/Local/Temp/ccH1olGy.s 			page 279


 12137 0092 01       		.byte	0x1
 12138 0093 03       		.uleb128 0x3
 12139 0094 08       		.uleb128 0x8
 12140 0095 0B       		.uleb128 0xb
 12141 0096 0B       		.uleb128 0xb
 12142 0097 3A       		.uleb128 0x3a
 12143 0098 0B       		.uleb128 0xb
 12144 0099 3B       		.uleb128 0x3b
 12145 009a 0B       		.uleb128 0xb
 12146 009b 01       		.uleb128 0x1
 12147 009c 13       		.uleb128 0x13
 12148 009d 00       		.byte	0x0
 12149 009e 00       		.byte	0x0
 12150 009f 0E       		.uleb128 0xe
 12151 00a0 0F       		.uleb128 0xf
 12152 00a1 00       		.byte	0x0
 12153 00a2 0B       		.uleb128 0xb
 12154 00a3 0B       		.uleb128 0xb
 12155 00a4 49       		.uleb128 0x49
 12156 00a5 13       		.uleb128 0x13
 12157 00a6 00       		.byte	0x0
 12158 00a7 00       		.byte	0x0
 12159 00a8 0F       		.uleb128 0xf
 12160 00a9 13       		.uleb128 0x13
 12161 00aa 01       		.byte	0x1
 12162 00ab 03       		.uleb128 0x3
 12163 00ac 0E       		.uleb128 0xe
 12164 00ad 0B       		.uleb128 0xb
 12165 00ae 05       		.uleb128 0x5
 12166 00af 3A       		.uleb128 0x3a
 12167 00b0 0B       		.uleb128 0xb
 12168 00b1 3B       		.uleb128 0x3b
 12169 00b2 0B       		.uleb128 0xb
 12170 00b3 01       		.uleb128 0x1
 12171 00b4 13       		.uleb128 0x13
 12172 00b5 00       		.byte	0x0
 12173 00b6 00       		.byte	0x0
 12174 00b7 10       		.uleb128 0x10
 12175 00b8 13       		.uleb128 0x13
 12176 00b9 01       		.byte	0x1
 12177 00ba 03       		.uleb128 0x3
 12178 00bb 08       		.uleb128 0x8
 12179 00bc 0B       		.uleb128 0xb
 12180 00bd 05       		.uleb128 0x5
 12181 00be 3A       		.uleb128 0x3a
 12182 00bf 0B       		.uleb128 0xb
 12183 00c0 3B       		.uleb128 0x3b
 12184 00c1 0B       		.uleb128 0xb
 12185 00c2 01       		.uleb128 0x1
 12186 00c3 13       		.uleb128 0x13
 12187 00c4 00       		.byte	0x0
 12188 00c5 00       		.byte	0x0
 12189 00c6 11       		.uleb128 0x11
 12190 00c7 0D       		.uleb128 0xd
 12191 00c8 00       		.byte	0x0
 12192 00c9 03       		.uleb128 0x3
 12193 00ca 0E       		.uleb128 0xe
GAS LISTING /cygdrive/c/Users/THESCI~1/AppData/Local/Temp/ccH1olGy.s 			page 280


 12194 00cb 3A       		.uleb128 0x3a
 12195 00cc 0B       		.uleb128 0xb
 12196 00cd 3B       		.uleb128 0x3b
 12197 00ce 0B       		.uleb128 0xb
 12198 00cf 49       		.uleb128 0x49
 12199 00d0 13       		.uleb128 0x13
 12200 00d1 38       		.uleb128 0x38
 12201 00d2 0A       		.uleb128 0xa
 12202 00d3 00       		.byte	0x0
 12203 00d4 00       		.byte	0x0
 12204 00d5 12       		.uleb128 0x12
 12205 00d6 15       		.uleb128 0x15
 12206 00d7 00       		.byte	0x0
 12207 00d8 27       		.uleb128 0x27
 12208 00d9 0C       		.uleb128 0xc
 12209 00da 00       		.byte	0x0
 12210 00db 00       		.byte	0x0
 12211 00dc 13       		.uleb128 0x13
 12212 00dd 15       		.uleb128 0x15
 12213 00de 01       		.byte	0x1
 12214 00df 27       		.uleb128 0x27
 12215 00e0 0C       		.uleb128 0xc
 12216 00e1 49       		.uleb128 0x49
 12217 00e2 13       		.uleb128 0x13
 12218 00e3 01       		.uleb128 0x1
 12219 00e4 13       		.uleb128 0x13
 12220 00e5 00       		.byte	0x0
 12221 00e6 00       		.byte	0x0
 12222 00e7 14       		.uleb128 0x14
 12223 00e8 05       		.uleb128 0x5
 12224 00e9 00       		.byte	0x0
 12225 00ea 49       		.uleb128 0x49
 12226 00eb 13       		.uleb128 0x13
 12227 00ec 00       		.byte	0x0
 12228 00ed 00       		.byte	0x0
 12229 00ee 15       		.uleb128 0x15
 12230 00ef 0D       		.uleb128 0xd
 12231 00f0 00       		.byte	0x0
 12232 00f1 03       		.uleb128 0x3
 12233 00f2 08       		.uleb128 0x8
 12234 00f3 3A       		.uleb128 0x3a
 12235 00f4 0B       		.uleb128 0xb
 12236 00f5 3B       		.uleb128 0x3b
 12237 00f6 05       		.uleb128 0x5
 12238 00f7 49       		.uleb128 0x49
 12239 00f8 13       		.uleb128 0x13
 12240 00f9 38       		.uleb128 0x38
 12241 00fa 0A       		.uleb128 0xa
 12242 00fb 00       		.byte	0x0
 12243 00fc 00       		.byte	0x0
 12244 00fd 16       		.uleb128 0x16
 12245 00fe 26       		.uleb128 0x26
 12246 00ff 00       		.byte	0x0
 12247 0100 49       		.uleb128 0x49
 12248 0101 13       		.uleb128 0x13
 12249 0102 00       		.byte	0x0
 12250 0103 00       		.byte	0x0
GAS LISTING /cygdrive/c/Users/THESCI~1/AppData/Local/Temp/ccH1olGy.s 			page 281


 12251 0104 17       		.uleb128 0x17
 12252 0105 13       		.uleb128 0x13
 12253 0106 01       		.byte	0x1
 12254 0107 03       		.uleb128 0x3
 12255 0108 08       		.uleb128 0x8
 12256 0109 0B       		.uleb128 0xb
 12257 010a 0B       		.uleb128 0xb
 12258 010b 3A       		.uleb128 0x3a
 12259 010c 0B       		.uleb128 0xb
 12260 010d 3B       		.uleb128 0x3b
 12261 010e 05       		.uleb128 0x5
 12262 010f 01       		.uleb128 0x1
 12263 0110 13       		.uleb128 0x13
 12264 0111 00       		.byte	0x0
 12265 0112 00       		.byte	0x0
 12266 0113 18       		.uleb128 0x18
 12267 0114 13       		.uleb128 0x13
 12268 0115 01       		.byte	0x1
 12269 0116 0B       		.uleb128 0xb
 12270 0117 0B       		.uleb128 0xb
 12271 0118 3A       		.uleb128 0x3a
 12272 0119 0B       		.uleb128 0xb
 12273 011a 3B       		.uleb128 0x3b
 12274 011b 05       		.uleb128 0x5
 12275 011c 01       		.uleb128 0x1
 12276 011d 13       		.uleb128 0x13
 12277 011e 00       		.byte	0x0
 12278 011f 00       		.byte	0x0
 12279 0120 19       		.uleb128 0x19
 12280 0121 17       		.uleb128 0x17
 12281 0122 01       		.byte	0x1
 12282 0123 0B       		.uleb128 0xb
 12283 0124 0B       		.uleb128 0xb
 12284 0125 3A       		.uleb128 0x3a
 12285 0126 0B       		.uleb128 0xb
 12286 0127 3B       		.uleb128 0x3b
 12287 0128 05       		.uleb128 0x5
 12288 0129 01       		.uleb128 0x1
 12289 012a 13       		.uleb128 0x13
 12290 012b 00       		.byte	0x0
 12291 012c 00       		.byte	0x0
 12292 012d 1A       		.uleb128 0x1a
 12293 012e 0D       		.uleb128 0xd
 12294 012f 00       		.byte	0x0
 12295 0130 03       		.uleb128 0x3
 12296 0131 08       		.uleb128 0x8
 12297 0132 3A       		.uleb128 0x3a
 12298 0133 0B       		.uleb128 0xb
 12299 0134 3B       		.uleb128 0x3b
 12300 0135 05       		.uleb128 0x5
 12301 0136 49       		.uleb128 0x49
 12302 0137 13       		.uleb128 0x13
 12303 0138 00       		.byte	0x0
 12304 0139 00       		.byte	0x0
 12305 013a 1B       		.uleb128 0x1b
 12306 013b 15       		.uleb128 0x15
 12307 013c 01       		.byte	0x1
GAS LISTING /cygdrive/c/Users/THESCI~1/AppData/Local/Temp/ccH1olGy.s 			page 282


 12308 013d 27       		.uleb128 0x27
 12309 013e 0C       		.uleb128 0xc
 12310 013f 01       		.uleb128 0x1
 12311 0140 13       		.uleb128 0x13
 12312 0141 00       		.byte	0x0
 12313 0142 00       		.byte	0x0
 12314 0143 1C       		.uleb128 0x1c
 12315 0144 17       		.uleb128 0x17
 12316 0145 01       		.byte	0x1
 12317 0146 03       		.uleb128 0x3
 12318 0147 08       		.uleb128 0x8
 12319 0148 0B       		.uleb128 0xb
 12320 0149 0B       		.uleb128 0xb
 12321 014a 3A       		.uleb128 0x3a
 12322 014b 0B       		.uleb128 0xb
 12323 014c 3B       		.uleb128 0x3b
 12324 014d 0B       		.uleb128 0xb
 12325 014e 01       		.uleb128 0x1
 12326 014f 13       		.uleb128 0x13
 12327 0150 00       		.byte	0x0
 12328 0151 00       		.byte	0x0
 12329 0152 1D       		.uleb128 0x1d
 12330 0153 2E       		.uleb128 0x2e
 12331 0154 01       		.byte	0x1
 12332 0155 3F       		.uleb128 0x3f
 12333 0156 0C       		.uleb128 0xc
 12334 0157 03       		.uleb128 0x3
 12335 0158 08       		.uleb128 0x8
 12336 0159 3A       		.uleb128 0x3a
 12337 015a 0B       		.uleb128 0xb
 12338 015b 3B       		.uleb128 0x3b
 12339 015c 0B       		.uleb128 0xb
 12340 015d 27       		.uleb128 0x27
 12341 015e 0C       		.uleb128 0xc
 12342 015f 49       		.uleb128 0x49
 12343 0160 13       		.uleb128 0x13
 12344 0161 20       		.uleb128 0x20
 12345 0162 0B       		.uleb128 0xb
 12346 0163 01       		.uleb128 0x1
 12347 0164 13       		.uleb128 0x13
 12348 0165 00       		.byte	0x0
 12349 0166 00       		.byte	0x0
 12350 0167 1E       		.uleb128 0x1e
 12351 0168 05       		.uleb128 0x5
 12352 0169 00       		.byte	0x0
 12353 016a 03       		.uleb128 0x3
 12354 016b 08       		.uleb128 0x8
 12355 016c 3A       		.uleb128 0x3a
 12356 016d 0B       		.uleb128 0xb
 12357 016e 3B       		.uleb128 0x3b
 12358 016f 0B       		.uleb128 0xb
 12359 0170 49       		.uleb128 0x49
 12360 0171 13       		.uleb128 0x13
 12361 0172 00       		.byte	0x0
 12362 0173 00       		.byte	0x0
 12363 0174 1F       		.uleb128 0x1f
 12364 0175 05       		.uleb128 0x5
GAS LISTING /cygdrive/c/Users/THESCI~1/AppData/Local/Temp/ccH1olGy.s 			page 283


 12365 0176 00       		.byte	0x0
 12366 0177 03       		.uleb128 0x3
 12367 0178 0E       		.uleb128 0xe
 12368 0179 3A       		.uleb128 0x3a
 12369 017a 0B       		.uleb128 0xb
 12370 017b 3B       		.uleb128 0x3b
 12371 017c 0B       		.uleb128 0xb
 12372 017d 49       		.uleb128 0x49
 12373 017e 13       		.uleb128 0x13
 12374 017f 00       		.byte	0x0
 12375 0180 00       		.byte	0x0
 12376 0181 20       		.uleb128 0x20
 12377 0182 34       		.uleb128 0x34
 12378 0183 00       		.byte	0x0
 12379 0184 03       		.uleb128 0x3
 12380 0185 08       		.uleb128 0x8
 12381 0186 3A       		.uleb128 0x3a
 12382 0187 0B       		.uleb128 0xb
 12383 0188 3B       		.uleb128 0x3b
 12384 0189 0B       		.uleb128 0xb
 12385 018a 49       		.uleb128 0x49
 12386 018b 13       		.uleb128 0x13
 12387 018c 00       		.byte	0x0
 12388 018d 00       		.byte	0x0
 12389 018e 21       		.uleb128 0x21
 12390 018f 2E       		.uleb128 0x2e
 12391 0190 01       		.byte	0x1
 12392 0191 31       		.uleb128 0x31
 12393 0192 13       		.uleb128 0x13
 12394 0193 11       		.uleb128 0x11
 12395 0194 01       		.uleb128 0x1
 12396 0195 12       		.uleb128 0x12
 12397 0196 01       		.uleb128 0x1
 12398 0197 40       		.uleb128 0x40
 12399 0198 06       		.uleb128 0x6
 12400 0199 01       		.uleb128 0x1
 12401 019a 13       		.uleb128 0x13
 12402 019b 00       		.byte	0x0
 12403 019c 00       		.byte	0x0
 12404 019d 22       		.uleb128 0x22
 12405 019e 05       		.uleb128 0x5
 12406 019f 00       		.byte	0x0
 12407 01a0 31       		.uleb128 0x31
 12408 01a1 13       		.uleb128 0x13
 12409 01a2 02       		.uleb128 0x2
 12410 01a3 06       		.uleb128 0x6
 12411 01a4 00       		.byte	0x0
 12412 01a5 00       		.byte	0x0
 12413 01a6 23       		.uleb128 0x23
 12414 01a7 34       		.uleb128 0x34
 12415 01a8 00       		.byte	0x0
 12416 01a9 31       		.uleb128 0x31
 12417 01aa 13       		.uleb128 0x13
 12418 01ab 02       		.uleb128 0x2
 12419 01ac 06       		.uleb128 0x6
 12420 01ad 00       		.byte	0x0
 12421 01ae 00       		.byte	0x0
GAS LISTING /cygdrive/c/Users/THESCI~1/AppData/Local/Temp/ccH1olGy.s 			page 284


 12422 01af 24       		.uleb128 0x24
 12423 01b0 2E       		.uleb128 0x2e
 12424 01b1 01       		.byte	0x1
 12425 01b2 3F       		.uleb128 0x3f
 12426 01b3 0C       		.uleb128 0xc
 12427 01b4 03       		.uleb128 0x3
 12428 01b5 08       		.uleb128 0x8
 12429 01b6 3A       		.uleb128 0x3a
 12430 01b7 0B       		.uleb128 0xb
 12431 01b8 3B       		.uleb128 0x3b
 12432 01b9 05       		.uleb128 0x5
 12433 01ba 27       		.uleb128 0x27
 12434 01bb 0C       		.uleb128 0xc
 12435 01bc 49       		.uleb128 0x49
 12436 01bd 13       		.uleb128 0x13
 12437 01be 11       		.uleb128 0x11
 12438 01bf 01       		.uleb128 0x1
 12439 01c0 12       		.uleb128 0x12
 12440 01c1 01       		.uleb128 0x1
 12441 01c2 40       		.uleb128 0x40
 12442 01c3 06       		.uleb128 0x6
 12443 01c4 01       		.uleb128 0x1
 12444 01c5 13       		.uleb128 0x13
 12445 01c6 00       		.byte	0x0
 12446 01c7 00       		.byte	0x0
 12447 01c8 25       		.uleb128 0x25
 12448 01c9 05       		.uleb128 0x5
 12449 01ca 00       		.byte	0x0
 12450 01cb 03       		.uleb128 0x3
 12451 01cc 0E       		.uleb128 0xe
 12452 01cd 3A       		.uleb128 0x3a
 12453 01ce 0B       		.uleb128 0xb
 12454 01cf 3B       		.uleb128 0x3b
 12455 01d0 05       		.uleb128 0x5
 12456 01d1 49       		.uleb128 0x49
 12457 01d2 13       		.uleb128 0x13
 12458 01d3 02       		.uleb128 0x2
 12459 01d4 06       		.uleb128 0x6
 12460 01d5 00       		.byte	0x0
 12461 01d6 00       		.byte	0x0
 12462 01d7 26       		.uleb128 0x26
 12463 01d8 2E       		.uleb128 0x2e
 12464 01d9 01       		.byte	0x1
 12465 01da 3F       		.uleb128 0x3f
 12466 01db 0C       		.uleb128 0xc
 12467 01dc 03       		.uleb128 0x3
 12468 01dd 08       		.uleb128 0x8
 12469 01de 3A       		.uleb128 0x3a
 12470 01df 0B       		.uleb128 0xb
 12471 01e0 3B       		.uleb128 0x3b
 12472 01e1 0B       		.uleb128 0xb
 12473 01e2 27       		.uleb128 0x27
 12474 01e3 0C       		.uleb128 0xc
 12475 01e4 49       		.uleb128 0x49
 12476 01e5 13       		.uleb128 0x13
 12477 01e6 11       		.uleb128 0x11
 12478 01e7 01       		.uleb128 0x1
GAS LISTING /cygdrive/c/Users/THESCI~1/AppData/Local/Temp/ccH1olGy.s 			page 285


 12479 01e8 12       		.uleb128 0x12
 12480 01e9 01       		.uleb128 0x1
 12481 01ea 40       		.uleb128 0x40
 12482 01eb 06       		.uleb128 0x6
 12483 01ec 01       		.uleb128 0x1
 12484 01ed 13       		.uleb128 0x13
 12485 01ee 00       		.byte	0x0
 12486 01ef 00       		.byte	0x0
 12487 01f0 27       		.uleb128 0x27
 12488 01f1 05       		.uleb128 0x5
 12489 01f2 00       		.byte	0x0
 12490 01f3 03       		.uleb128 0x3
 12491 01f4 0E       		.uleb128 0xe
 12492 01f5 3A       		.uleb128 0x3a
 12493 01f6 0B       		.uleb128 0xb
 12494 01f7 3B       		.uleb128 0x3b
 12495 01f8 0B       		.uleb128 0xb
 12496 01f9 49       		.uleb128 0x49
 12497 01fa 13       		.uleb128 0x13
 12498 01fb 02       		.uleb128 0x2
 12499 01fc 06       		.uleb128 0x6
 12500 01fd 00       		.byte	0x0
 12501 01fe 00       		.byte	0x0
 12502 01ff 28       		.uleb128 0x28
 12503 0200 34       		.uleb128 0x34
 12504 0201 00       		.byte	0x0
 12505 0202 03       		.uleb128 0x3
 12506 0203 08       		.uleb128 0x8
 12507 0204 3A       		.uleb128 0x3a
 12508 0205 0B       		.uleb128 0xb
 12509 0206 3B       		.uleb128 0x3b
 12510 0207 0B       		.uleb128 0xb
 12511 0208 49       		.uleb128 0x49
 12512 0209 13       		.uleb128 0x13
 12513 020a 02       		.uleb128 0x2
 12514 020b 06       		.uleb128 0x6
 12515 020c 00       		.byte	0x0
 12516 020d 00       		.byte	0x0
 12517 020e 29       		.uleb128 0x29
 12518 020f 05       		.uleb128 0x5
 12519 0210 00       		.byte	0x0
 12520 0211 03       		.uleb128 0x3
 12521 0212 08       		.uleb128 0x8
 12522 0213 3A       		.uleb128 0x3a
 12523 0214 0B       		.uleb128 0xb
 12524 0215 3B       		.uleb128 0x3b
 12525 0216 0B       		.uleb128 0xb
 12526 0217 49       		.uleb128 0x49
 12527 0218 13       		.uleb128 0x13
 12528 0219 02       		.uleb128 0x2
 12529 021a 06       		.uleb128 0x6
 12530 021b 00       		.byte	0x0
 12531 021c 00       		.byte	0x0
 12532 021d 2A       		.uleb128 0x2a
 12533 021e 1D       		.uleb128 0x1d
 12534 021f 01       		.byte	0x1
 12535 0220 31       		.uleb128 0x31
GAS LISTING /cygdrive/c/Users/THESCI~1/AppData/Local/Temp/ccH1olGy.s 			page 286


 12536 0221 13       		.uleb128 0x13
 12537 0222 55       		.uleb128 0x55
 12538 0223 06       		.uleb128 0x6
 12539 0224 58       		.uleb128 0x58
 12540 0225 0B       		.uleb128 0xb
 12541 0226 59       		.uleb128 0x59
 12542 0227 0B       		.uleb128 0xb
 12543 0228 00       		.byte	0x0
 12544 0229 00       		.byte	0x0
 12545 022a 2B       		.uleb128 0x2b
 12546 022b 05       		.uleb128 0x5
 12547 022c 00       		.byte	0x0
 12548 022d 31       		.uleb128 0x31
 12549 022e 13       		.uleb128 0x13
 12550 022f 00       		.byte	0x0
 12551 0230 00       		.byte	0x0
 12552 0231 2C       		.uleb128 0x2c
 12553 0232 0B       		.uleb128 0xb
 12554 0233 01       		.byte	0x1
 12555 0234 55       		.uleb128 0x55
 12556 0235 06       		.uleb128 0x6
 12557 0236 00       		.byte	0x0
 12558 0237 00       		.byte	0x0
 12559 0238 2D       		.uleb128 0x2d
 12560 0239 34       		.uleb128 0x34
 12561 023a 00       		.byte	0x0
 12562 023b 31       		.uleb128 0x31
 12563 023c 13       		.uleb128 0x13
 12564 023d 00       		.byte	0x0
 12565 023e 00       		.byte	0x0
 12566 023f 2E       		.uleb128 0x2e
 12567 0240 34       		.uleb128 0x34
 12568 0241 00       		.byte	0x0
 12569 0242 03       		.uleb128 0x3
 12570 0243 08       		.uleb128 0x8
 12571 0244 3A       		.uleb128 0x3a
 12572 0245 0B       		.uleb128 0xb
 12573 0246 3B       		.uleb128 0x3b
 12574 0247 05       		.uleb128 0x5
 12575 0248 49       		.uleb128 0x49
 12576 0249 13       		.uleb128 0x13
 12577 024a 02       		.uleb128 0x2
 12578 024b 06       		.uleb128 0x6
 12579 024c 00       		.byte	0x0
 12580 024d 00       		.byte	0x0
 12581 024e 2F       		.uleb128 0x2f
 12582 024f 34       		.uleb128 0x34
 12583 0250 00       		.byte	0x0
 12584 0251 03       		.uleb128 0x3
 12585 0252 08       		.uleb128 0x8
 12586 0253 3A       		.uleb128 0x3a
 12587 0254 0B       		.uleb128 0xb
 12588 0255 3B       		.uleb128 0x3b
 12589 0256 05       		.uleb128 0x5
 12590 0257 49       		.uleb128 0x49
 12591 0258 13       		.uleb128 0x13
 12592 0259 00       		.byte	0x0
GAS LISTING /cygdrive/c/Users/THESCI~1/AppData/Local/Temp/ccH1olGy.s 			page 287


 12593 025a 00       		.byte	0x0
 12594 025b 30       		.uleb128 0x30
 12595 025c 34       		.uleb128 0x34
 12596 025d 00       		.byte	0x0
 12597 025e 03       		.uleb128 0x3
 12598 025f 0E       		.uleb128 0xe
 12599 0260 3A       		.uleb128 0x3a
 12600 0261 0B       		.uleb128 0xb
 12601 0262 3B       		.uleb128 0x3b
 12602 0263 05       		.uleb128 0x5
 12603 0264 49       		.uleb128 0x49
 12604 0265 13       		.uleb128 0x13
 12605 0266 02       		.uleb128 0x2
 12606 0267 06       		.uleb128 0x6
 12607 0268 00       		.byte	0x0
 12608 0269 00       		.byte	0x0
 12609 026a 31       		.uleb128 0x31
 12610 026b 1D       		.uleb128 0x1d
 12611 026c 01       		.byte	0x1
 12612 026d 31       		.uleb128 0x31
 12613 026e 13       		.uleb128 0x13
 12614 026f 55       		.uleb128 0x55
 12615 0270 06       		.uleb128 0x6
 12616 0271 58       		.uleb128 0x58
 12617 0272 0B       		.uleb128 0xb
 12618 0273 59       		.uleb128 0x59
 12619 0274 05       		.uleb128 0x5
 12620 0275 00       		.byte	0x0
 12621 0276 00       		.byte	0x0
 12622 0277 32       		.uleb128 0x32
 12623 0278 34       		.uleb128 0x34
 12624 0279 00       		.byte	0x0
 12625 027a 03       		.uleb128 0x3
 12626 027b 08       		.uleb128 0x8
 12627 027c 3A       		.uleb128 0x3a
 12628 027d 0B       		.uleb128 0xb
 12629 027e 3B       		.uleb128 0x3b
 12630 027f 05       		.uleb128 0x5
 12631 0280 49       		.uleb128 0x49
 12632 0281 13       		.uleb128 0x13
 12633 0282 02       		.uleb128 0x2
 12634 0283 0A       		.uleb128 0xa
 12635 0284 00       		.byte	0x0
 12636 0285 00       		.byte	0x0
 12637 0286 33       		.uleb128 0x33
 12638 0287 05       		.uleb128 0x5
 12639 0288 00       		.byte	0x0
 12640 0289 03       		.uleb128 0x3
 12641 028a 08       		.uleb128 0x8
 12642 028b 3A       		.uleb128 0x3a
 12643 028c 0B       		.uleb128 0xb
 12644 028d 3B       		.uleb128 0x3b
 12645 028e 05       		.uleb128 0x5
 12646 028f 49       		.uleb128 0x49
 12647 0290 13       		.uleb128 0x13
 12648 0291 02       		.uleb128 0x2
 12649 0292 06       		.uleb128 0x6
GAS LISTING /cygdrive/c/Users/THESCI~1/AppData/Local/Temp/ccH1olGy.s 			page 288


 12650 0293 00       		.byte	0x0
 12651 0294 00       		.byte	0x0
 12652 0295 34       		.uleb128 0x34
 12653 0296 0B       		.uleb128 0xb
 12654 0297 01       		.byte	0x1
 12655 0298 55       		.uleb128 0x55
 12656 0299 06       		.uleb128 0x6
 12657 029a 01       		.uleb128 0x1
 12658 029b 13       		.uleb128 0x13
 12659 029c 00       		.byte	0x0
 12660 029d 00       		.byte	0x0
 12661 029e 35       		.uleb128 0x35
 12662 029f 34       		.uleb128 0x34
 12663 02a0 00       		.byte	0x0
 12664 02a1 03       		.uleb128 0x3
 12665 02a2 0E       		.uleb128 0xe
 12666 02a3 3A       		.uleb128 0x3a
 12667 02a4 0B       		.uleb128 0xb
 12668 02a5 3B       		.uleb128 0x3b
 12669 02a6 05       		.uleb128 0x5
 12670 02a7 49       		.uleb128 0x49
 12671 02a8 13       		.uleb128 0x13
 12672 02a9 02       		.uleb128 0x2
 12673 02aa 0A       		.uleb128 0xa
 12674 02ab 00       		.byte	0x0
 12675 02ac 00       		.byte	0x0
 12676 02ad 36       		.uleb128 0x36
 12677 02ae 1D       		.uleb128 0x1d
 12678 02af 01       		.byte	0x1
 12679 02b0 31       		.uleb128 0x31
 12680 02b1 13       		.uleb128 0x13
 12681 02b2 55       		.uleb128 0x55
 12682 02b3 06       		.uleb128 0x6
 12683 02b4 58       		.uleb128 0x58
 12684 02b5 0B       		.uleb128 0xb
 12685 02b6 59       		.uleb128 0x59
 12686 02b7 05       		.uleb128 0x5
 12687 02b8 01       		.uleb128 0x1
 12688 02b9 13       		.uleb128 0x13
 12689 02ba 00       		.byte	0x0
 12690 02bb 00       		.byte	0x0
 12691 02bc 37       		.uleb128 0x37
 12692 02bd 1D       		.uleb128 0x1d
 12693 02be 00       		.byte	0x0
 12694 02bf 31       		.uleb128 0x31
 12695 02c0 13       		.uleb128 0x13
 12696 02c1 55       		.uleb128 0x55
 12697 02c2 06       		.uleb128 0x6
 12698 02c3 58       		.uleb128 0x58
 12699 02c4 0B       		.uleb128 0xb
 12700 02c5 59       		.uleb128 0x59
 12701 02c6 05       		.uleb128 0x5
 12702 02c7 00       		.byte	0x0
 12703 02c8 00       		.byte	0x0
 12704 02c9 38       		.uleb128 0x38
 12705 02ca 01       		.uleb128 0x1
 12706 02cb 01       		.byte	0x1
GAS LISTING /cygdrive/c/Users/THESCI~1/AppData/Local/Temp/ccH1olGy.s 			page 289


 12707 02cc 49       		.uleb128 0x49
 12708 02cd 13       		.uleb128 0x13
 12709 02ce 00       		.byte	0x0
 12710 02cf 00       		.byte	0x0
 12711 02d0 00       		.byte	0x0
 12712              		.section	.debug_pubnames,"dr"
 12713 0000 90010000 		.long	0x190
 12714 0004 0200     		.word	0x2
 12715 0006 00000000 		.secrel32	Ldebug_info0
 12716 000a 991B0000 		.long	0x1b99
 12717 000e 950F0000 		.long	0xf95
 12718 0012 64657465 		.ascii "determine_multiplier\0"
 12718      726D696E 
 12718      655F6D75 
 12718      6C746970 
 12718      6C696572 
 12719 0027 BD0F0000 		.long	0xfbd
 12720 002b 636F6F72 		.ascii "coordinate_to_linear_address\0"
 12720      64696E61 
 12720      74655F74 
 12720      6F5F6C69 
 12720      6E656172 
 12721 0048 41100000 		.long	0x1041
 12722 004c 6C696E65 		.ascii "linear_to_coordinate_address\0"
 12722      61725F74 
 12722      6F5F636F 
 12722      6F726469 
 12722      6E617465 
 12723 0069 72100000 		.long	0x1072
 12724 006d 636F6E76 		.ascii "convert_ppm_to_cs229\0"
 12724      6572745F 
 12724      70706D5F 
 12724      746F5F63 
 12724      73323239 
 12725 0082 C2100000 		.long	0x10c2
 12726 0086 636F6E76 		.ascii "convert_cs229_to_ppm\0"
 12726      6572745F 
 12726      63733232 
 12726      395F746F 
 12726      5F70706D 
 12727 009b 12110000 		.long	0x1112
 12728 009f 72656164 		.ascii "read_cs229picture\0"
 12728      5F637332 
 12728      32397069 
 12728      63747572 
 12728      6500
 12729 00b1 8D110000 		.long	0x118d
 12730 00b5 77726974 		.ascii "write_cs229_image\0"
 12730      655F6373 
 12730      3232395F 
 12730      696D6167 
 12730      6500
 12731 00c7 1E120000 		.long	0x121e
 12732 00cb 6765745F 		.ascii "get_pixel\0"
 12732      70697865 
 12732      6C00
 12733 00d5 E3120000 		.long	0x12e3
GAS LISTING /cygdrive/c/Users/THESCI~1/AppData/Local/Temp/ccH1olGy.s 			page 290


 12734 00d9 636F756E 		.ascii "count_pixels_of_color\0"
 12734      745F7069 
 12734      78656C73 
 12734      5F6F665F 
 12734      636F6C6F 
 12735 00ef 9C130000 		.long	0x139c
 12736 00f3 63686563 		.ascii "check_average_error\0"
 12736      6B5F6176 
 12736      65726167 
 12736      655F6572 
 12736      726F7200 
 12737 0107 4F150000 		.long	0x154f
 12738 010b 73746974 		.ascii "stitch_images\0"
 12738      63685F69 
 12738      6D616765 
 12738      7300
 12739 0119 B3160000 		.long	0x16b3
 12740 011d 7365745F 		.ascii "set_pixel\0"
 12740      70697865 
 12740      6C00
 12741 0127 78170000 		.long	0x1778
 12742 012b 6461726B 		.ascii "darken_cs229_image\0"
 12742      656E5F63 
 12742      73323239 
 12742      5F696D61 
 12742      676500
 12743 013e 07180000 		.long	0x1807
 12744 0142 6C696768 		.ascii "lighten_cs229_image\0"
 12744      74656E5F 
 12744      63733232 
 12744      395F696D 
 12744      61676500 
 12745 0156 A7180000 		.long	0x18a7
 12746 015a 666C6970 		.ascii "flip_cs229_image\0"
 12746      5F637332 
 12746      32395F69 
 12746      6D616765 
 12746      00
 12747 016b 55190000 		.long	0x1955
 12748 016f 726F7461 		.ascii "rotate_cs229_image\0"
 12748      74655F63 
 12748      73323239 
 12748      5F696D61 
 12748      676500
 12749 0182 2B1A0000 		.long	0x1a2b
 12750 0186 636F6E76 		.ascii "convolute\0"
 12750      6F6C7574 
 12750      6500
 12751 0190 00000000 		.long	0x0
 12752              		.section	.debug_aranges,"dr"
 12753 0000 1C000000 		.long	0x1c
 12754 0004 0200     		.word	0x2
 12755 0006 00000000 		.secrel32	Ldebug_info0
 12756 000a 04       		.byte	0x4
 12757 000b 00       		.byte	0x0
 12758 000c 0000     		.word	0x0
 12759 000e 0000     		.word	0x0
GAS LISTING /cygdrive/c/Users/THESCI~1/AppData/Local/Temp/ccH1olGy.s 			page 291


 12760 0010 00000000 		.long	Ltext0
 12761 0014 FF270000 		.long	Letext0-Ltext0
 12762 0018 00000000 		.long	0x0
 12763 001c 00000000 		.long	0x0
 12764              		.section	.debug_ranges,"dr"
 12765              	Ldebug_ranges0:
 12766 0000 06060000 		.long	LBB6-Ltext0
 12767 0004 0A060000 		.long	LBE6-Ltext0
 12768 0008 77060000 		.long	LBB15-Ltext0
 12769 000c B6070000 		.long	LBE15-Ltext0
 12770 0010 36060000 		.long	LBB14-Ltext0
 12771 0014 40060000 		.long	LBE14-Ltext0
 12772 0018 25060000 		.long	LBB13-Ltext0
 12773 001c 31060000 		.long	LBE13-Ltext0
 12774 0020 10060000 		.long	LBB12-Ltext0
 12775 0024 18060000 		.long	LBE12-Ltext0
 12776 0028 00000000 		.long	0x0
 12777 002c 00000000 		.long	0x0
 12778 0030 06060000 		.long	LBB9-Ltext0
 12779 0034 0A060000 		.long	LBE9-Ltext0
 12780 0038 77060000 		.long	LBB11-Ltext0
 12781 003c B6070000 		.long	LBE11-Ltext0
 12782 0040 36060000 		.long	LBB7-Ltext0
 12783 0044 40060000 		.long	LBE7-Ltext0
 12784 0048 25060000 		.long	LBB10-Ltext0
 12785 004c 31060000 		.long	LBE10-Ltext0
 12786 0050 10060000 		.long	LBB8-Ltext0
 12787 0054 18060000 		.long	LBE8-Ltext0
 12788 0058 00000000 		.long	0x0
 12789 005c 00000000 		.long	0x0
 12790 0060 1C080000 		.long	LBB18-Ltext0
 12791 0064 3D080000 		.long	LBE18-Ltext0
 12792 0068 5E0B0000 		.long	LBB23-Ltext0
 12793 006c 080C0000 		.long	LBE23-Ltext0
 12794 0070 30090000 		.long	LBB22-Ltext0
 12795 0074 D4090000 		.long	LBE22-Ltext0
 12796 0078 00000000 		.long	0x0
 12797 007c 00000000 		.long	0x0
 12798 0080 1C080000 		.long	LBB20-Ltext0
 12799 0084 3D080000 		.long	LBE20-Ltext0
 12800 0088 5E0B0000 		.long	LBB21-Ltext0
 12801 008c 080C0000 		.long	LBE21-Ltext0
 12802 0090 30090000 		.long	LBB19-Ltext0
 12803 0094 D4090000 		.long	LBE19-Ltext0
 12804 0098 00000000 		.long	0x0
 12805 009c 00000000 		.long	0x0
 12806 00a0 F50C0000 		.long	LBB24-Ltext0
 12807 00a4 060D0000 		.long	LBE24-Ltext0
 12808 00a8 0D0D0000 		.long	LBB25-Ltext0
 12809 00ac 500D0000 		.long	LBE25-Ltext0
 12810 00b0 00000000 		.long	0x0
 12811 00b4 00000000 		.long	0x0
 12812 00b8 C00E0000 		.long	LBB26-Ltext0
 12813 00bc CB0E0000 		.long	LBE26-Ltext0
 12814 00c0 80110000 		.long	LBB39-Ltext0
 12815 00c4 E0110000 		.long	LBE39-Ltext0
 12816 00c8 68110000 		.long	LBB38-Ltext0
GAS LISTING /cygdrive/c/Users/THESCI~1/AppData/Local/Temp/ccH1olGy.s 			page 292


 12817 00cc 77110000 		.long	LBE38-Ltext0
 12818 00d0 64110000 		.long	LBB37-Ltext0
 12819 00d4 65110000 		.long	LBE37-Ltext0
 12820 00d8 40110000 		.long	LBB36-Ltext0
 12821 00dc 61110000 		.long	LBE36-Ltext0
 12822 00e0 B7100000 		.long	LBB35-Ltext0
 12823 00e4 28110000 		.long	LBE35-Ltext0
 12824 00e8 9E100000 		.long	LBB34-Ltext0
 12825 00ec AE100000 		.long	LBE34-Ltext0
 12826 00f0 3A100000 		.long	LBB33-Ltext0
 12827 00f4 9B100000 		.long	LBE33-Ltext0
 12828 00f8 25100000 		.long	LBB32-Ltext0
 12829 00fc 35100000 		.long	LBE32-Ltext0
 12830 0100 01100000 		.long	LBB31-Ltext0
 12831 0104 22100000 		.long	LBE31-Ltext0
 12832 0108 F50F0000 		.long	LBB30-Ltext0
 12833 010c F80F0000 		.long	LBE30-Ltext0
 12834 0110 EA0E0000 		.long	LBB29-Ltext0
 12835 0114 540F0000 		.long	LBE29-Ltext0
 12836 0118 D20E0000 		.long	LBB28-Ltext0
 12837 011c E10E0000 		.long	LBE28-Ltext0
 12838 0120 CE0E0000 		.long	LBB27-Ltext0
 12839 0124 CF0E0000 		.long	LBE27-Ltext0
 12840 0128 00000000 		.long	0x0
 12841 012c 00000000 		.long	0x0
 12842 0130 69120000 		.long	LBB40-Ltext0
 12843 0134 6E120000 		.long	LBE40-Ltext0
 12844 0138 85150000 		.long	LBB48-Ltext0
 12845 013c 95150000 		.long	LBE48-Ltext0
 12846 0140 67140000 		.long	LBB47-Ltext0
 12847 0144 76150000 		.long	LBE47-Ltext0
 12848 0148 CA120000 		.long	LBB42-Ltext0
 12849 014c F7120000 		.long	LBE42-Ltext0
 12850 0150 8E120000 		.long	LBB41-Ltext0
 12851 0154 A0120000 		.long	LBE41-Ltext0
 12852 0158 00000000 		.long	0x0
 12853 015c 00000000 		.long	0x0
 12854 0160 8A130000 		.long	LBB43-Ltext0
 12855 0164 98130000 		.long	LBE43-Ltext0
 12856 0168 A5130000 		.long	LBB44-Ltext0
 12857 016c F8130000 		.long	LBE44-Ltext0
 12858 0170 00000000 		.long	0x0
 12859 0174 00000000 		.long	0x0
 12860 0178 2B140000 		.long	LBB45-Ltext0
 12861 017c 31140000 		.long	LBE45-Ltext0
 12862 0180 34140000 		.long	LBB46-Ltext0
 12863 0184 67140000 		.long	LBE46-Ltext0
 12864 0188 00000000 		.long	0x0
 12865 018c 00000000 		.long	0x0
 12866 0190 FC150000 		.long	LBB51-Ltext0
 12867 0194 1A160000 		.long	LBE51-Ltext0
 12868 0198 3C190000 		.long	LBB56-Ltext0
 12869 019c E8190000 		.long	LBE56-Ltext0
 12870 01a0 F2160000 		.long	LBB55-Ltext0
 12871 01a4 92170000 		.long	LBE55-Ltext0
 12872 01a8 00000000 		.long	0x0
 12873 01ac 00000000 		.long	0x0
GAS LISTING /cygdrive/c/Users/THESCI~1/AppData/Local/Temp/ccH1olGy.s 			page 293


 12874 01b0 FC150000 		.long	LBB53-Ltext0
 12875 01b4 1A160000 		.long	LBE53-Ltext0
 12876 01b8 3C190000 		.long	LBB54-Ltext0
 12877 01bc E8190000 		.long	LBE54-Ltext0
 12878 01c0 F2160000 		.long	LBB52-Ltext0
 12879 01c4 92170000 		.long	LBE52-Ltext0
 12880 01c8 00000000 		.long	0x0
 12881 01cc 00000000 		.long	0x0
 12882 01d0 CA200000 		.long	LBB60-Ltext0
 12883 01d4 CC200000 		.long	LBE60-Ltext0
 12884 01d8 E1220000 		.long	LBB73-Ltext0
 12885 01dc 75230000 		.long	LBE73-Ltext0
 12886 01e0 F0210000 		.long	LBB72-Ltext0
 12887 01e4 94220000 		.long	LBE72-Ltext0
 12888 01e8 D4210000 		.long	LBB71-Ltext0
 12889 01ec E0210000 		.long	LBE71-Ltext0
 12890 01f0 C0210000 		.long	LBB70-Ltext0
 12891 01f4 C5210000 		.long	LBE70-Ltext0
 12892 01f8 E1200000 		.long	LBB67-Ltext0
 12893 01fc 10210000 		.long	LBE67-Ltext0
 12894 0200 00000000 		.long	0x0
 12895 0204 00000000 		.long	0x0
 12896 0208 CA200000 		.long	LBB63-Ltext0
 12897 020c CC200000 		.long	LBE63-Ltext0
 12898 0210 E1220000 		.long	LBB66-Ltext0
 12899 0214 75230000 		.long	LBE66-Ltext0
 12900 0218 F0210000 		.long	LBB61-Ltext0
 12901 021c 94220000 		.long	LBE61-Ltext0
 12902 0220 D4210000 		.long	LBB65-Ltext0
 12903 0224 E0210000 		.long	LBE65-Ltext0
 12904 0228 C0210000 		.long	LBB62-Ltext0
 12905 022c C5210000 		.long	LBE62-Ltext0
 12906 0230 E1200000 		.long	LBB64-Ltext0
 12907 0234 10210000 		.long	LBE64-Ltext0
 12908 0238 00000000 		.long	0x0
 12909 023c 00000000 		.long	0x0
 12910 0240 2D210000 		.long	LBB68-Ltext0
 12911 0244 39210000 		.long	LBE68-Ltext0
 12912 0248 3C210000 		.long	LBB69-Ltext0
 12913 024c C0210000 		.long	LBE69-Ltext0
 12914 0250 00000000 		.long	0x0
 12915 0254 00000000 		.long	0x0
 12916 0258 DF230000 		.long	LBB80-Ltext0
 12917 025c E1230000 		.long	LBE80-Ltext0
 12918 0260 E0260000 		.long	LBB105-Ltext0
 12919 0264 78270000 		.long	LBE105-Ltext0
 12920 0268 20260000 		.long	LBB104-Ltext0
 12921 026c C0260000 		.long	LBE104-Ltext0
 12922 0270 F0250000 		.long	LBB103-Ltext0
 12923 0274 00260000 		.long	LBE103-Ltext0
 12924 0278 E0250000 		.long	LBB102-Ltext0
 12925 027c E5250000 		.long	LBE102-Ltext0
 12926 0280 F3230000 		.long	LBB87-Ltext0
 12927 0284 20240000 		.long	LBE87-Ltext0
 12928 0288 00000000 		.long	0x0
 12929 028c 00000000 		.long	0x0
 12930 0290 DF230000 		.long	LBB83-Ltext0
GAS LISTING /cygdrive/c/Users/THESCI~1/AppData/Local/Temp/ccH1olGy.s 			page 294


 12931 0294 E1230000 		.long	LBE83-Ltext0
 12932 0298 E0260000 		.long	LBB86-Ltext0
 12933 029c 78270000 		.long	LBE86-Ltext0
 12934 02a0 20260000 		.long	LBB81-Ltext0
 12935 02a4 C0260000 		.long	LBE81-Ltext0
 12936 02a8 F0250000 		.long	LBB85-Ltext0
 12937 02ac 00260000 		.long	LBE85-Ltext0
 12938 02b0 E0250000 		.long	LBB82-Ltext0
 12939 02b4 E5250000 		.long	LBE82-Ltext0
 12940 02b8 F3230000 		.long	LBB84-Ltext0
 12941 02bc 20240000 		.long	LBE84-Ltext0
 12942 02c0 00000000 		.long	0x0
 12943 02c4 00000000 		.long	0x0
 12944 02c8 F9240000 		.long	LBB88-Ltext0
 12945 02cc 15250000 		.long	LBE88-Ltext0
 12946 02d0 9E250000 		.long	LBB101-Ltext0
 12947 02d4 B5250000 		.long	LBE101-Ltext0
 12948 02d8 18250000 		.long	LBB97-Ltext0
 12949 02dc 1A250000 		.long	LBE97-Ltext0
 12950 02e0 00000000 		.long	0x0
 12951 02e4 00000000 		.long	0x0
 12952 02e8 15250000 		.long	LBB92-Ltext0
 12953 02ec 18250000 		.long	LBE92-Ltext0
 12954 02f0 30250000 		.long	LBB100-Ltext0
 12955 02f4 32250000 		.long	LBE100-Ltext0
 12956 02f8 23250000 		.long	LBB99-Ltext0
 12957 02fc 2D250000 		.long	LBE99-Ltext0
 12958 0300 1D250000 		.long	LBB98-Ltext0
 12959 0304 21250000 		.long	LBE98-Ltext0
 12960 0308 00000000 		.long	0x0
 12961 030c 00000000 		.long	0x0
 12962              		.section	.debug_str,"dr"
 12963              	LASF0:
 12964 0000 5F6F6E5F 		.ascii "_on_exit_args\0"
 12964      65786974 
 12964      5F617267 
 12964      7300
 12965              	LASF1:
 12966 000e 6D616769 		.ascii "magic_number\0"
 12966      635F6E75 
 12966      6D626572 
 12966      00
 12967              	LASF9:
 12968 001b 6F766572 		.ascii "overlap_height\0"
 12968      6C61705F 
 12968      68656967 
 12968      687400
 12969              	LASF2:
 12970 002a 64657374 		.ascii "dest\0"
 12970      00
 12971              	LASF7:
 12972 002f 636F6C6F 		.ascii "color\0"
 12972      7200
 12973              	LASF5:
 12974 0035 70696374 		.ascii "picture\0"
 12974      75726500 
 12975              	LASF6:
GAS LISTING /cygdrive/c/Users/THESCI~1/AppData/Local/Temp/ccH1olGy.s 			page 295


 12976 003d 70697865 		.ascii "pixel_number\0"
 12976      6C5F6E75 
 12976      6D626572 
 12976      00
 12977              	LASF8:
 12978 004a 6F766572 		.ascii "overlap_width\0"
 12978      6C61705F 
 12978      77696474 
 12978      6800
 12979              	LASF3:
 12980 0058 70697865 		.ascii "pixel\0"
 12980      6C00
 12981              	LASF4:
 12982 005e 736F7572 		.ascii "source\0"
 12982      636500
GAS LISTING /cygdrive/c/Users/THESCI~1/AppData/Local/Temp/ccH1olGy.s 			page 296


DEFINED SYMBOLS
                            *ABS*:00000000 CS229Image.c
/cygdrive/c/Users/THESCI~1/AppData/Local/Temp/ccH1olGy.s:13     .text:00000000 _determine_multiplier
/cygdrive/c/Users/THESCI~1/AppData/Local/Temp/ccH1olGy.s:203    .text:00000190 _coordinate_to_linear_address
/cygdrive/c/Users/THESCI~1/AppData/Local/Temp/ccH1olGy.s:248    .text:000001c0 _linear_to_coordinate_address
/cygdrive/c/Users/THESCI~1/AppData/Local/Temp/ccH1olGy.s:314    .text:00000220 _convert_ppm_to_cs229
/cygdrive/c/Users/THESCI~1/AppData/Local/Temp/ccH1olGy.s:412    .text:000002b0 _convert_cs229_to_ppm
/cygdrive/c/Users/THESCI~1/AppData/Local/Temp/ccH1olGy.s:552    .text:00000390 _read_cs229picture
/cygdrive/c/Users/THESCI~1/AppData/Local/Temp/ccH1olGy.s:750    .text:00000570 _write_cs229_image
/cygdrive/c/Users/THESCI~1/AppData/Local/Temp/ccH1olGy.s:1035   .text:000007c0 _get_pixel
/cygdrive/c/Users/THESCI~1/AppData/Local/Temp/ccH1olGy.s:1597   .text:00000c90 _count_pixels_of_color
/cygdrive/c/Users/THESCI~1/AppData/Local/Temp/ccH1olGy.s:1740   .text:00000d70 _check_average_error
/cygdrive/c/Users/THESCI~1/AppData/Local/Temp/ccH1olGy.s:2370   .text:00001240 _stitch_images
/cygdrive/c/Users/THESCI~1/AppData/Local/Temp/ccH1olGy.s:2834   .text:000015a0 _set_pixel
/cygdrive/c/Users/THESCI~1/AppData/Local/Temp/ccH1olGy.s:3445   .text:00001a60 _darken_cs229_image
/cygdrive/c/Users/THESCI~1/AppData/Local/Temp/ccH1olGy.s:3632   .text:00001b90 _lighten_cs229_image
/cygdrive/c/Users/THESCI~1/AppData/Local/Temp/ccH1olGy.s:3925   .text:00001e10 _flip_cs229_image
/cygdrive/c/Users/THESCI~1/AppData/Local/Temp/ccH1olGy.s:4199   .text:00002020 _rotate_cs229_image
/cygdrive/c/Users/THESCI~1/AppData/Local/Temp/ccH1olGy.s:4658   .text:00002380 _convolute

UNDEFINED SYMBOLS
_fscanf
_fprintf
_fputc
_roundf
_free
_malloc
_memcpy
