GAS LISTING /cygdrive/c/Users/THESCI~1/AppData/Local/Temp/ccu2GGTU.s 			page 1


   1              		.file	"CS229_Image.c"
   2              		.section	.debug_abbrev,"dr"
   3              	Ldebug_abbrev0:
   4              		.section	.debug_info,"dr"
   5              	Ldebug_info0:
   6              		.section	.debug_line,"dr"
   7              	Ldebug_line0:
   8 0000 B7020000 		.text
   8      02000B01 
   8      00000101 
   8      FB0E0D00 
   8      01010101 
   9              	Ltext0:
  10              		.p2align 4,,15
  11              	.globl _Java_CS229_1Image_ReportError
  13              	_Java_CS229_1Image_ReportError:
  14              	LFB11:
  15              		.file 1 "./Source/CS229_Image.c"
   1:./Source/CS229_Image.c **** /*
   2:./Source/CS229_Image.c **** ///////////////////////////////////////////////////////////////////////////////////
   3:./Source/CS229_Image.c **** ////////////////////////////////// CS229_Image.c //////////////////////////////////
   4:./Source/CS229_Image.c **** ///////////////////////////////////////////////////////////////////////////////////
   5:./Source/CS229_Image.c **** /// Attempts to interact with java in a way that doesn't destroy the minds of   ///
   6:./Source/CS229_Image.c **** /// all mortals within ten feet and thus do some image stuff.                   ///
   7:./Source/CS229_Image.c **** ///////////////////////////////////////////////////////////////////////////////////
   8:./Source/CS229_Image.c **** ///////////////////////////////////////////////////////////////////////////////////
   9:./Source/CS229_Image.c **** */
  10:./Source/CS229_Image.c **** #ifndef _MATRIX_C
  11:./Source/CS229_Image.c **** #define	_MATRIX_C
  12:./Source/CS229_Image.c **** 
  13:./Source/CS229_Image.c **** #include <jni.h>
  14:./Source/CS229_Image.c **** #include <stdlib.h>
  15:./Source/CS229_Image.c **** #include "../Headers/CS229Image.h"
  16:./Source/CS229_Image.c **** #include "../Headers/CS229_Image.h"
  17:./Source/CS229_Image.c **** #include "../Headers/Error.h"
  18:./Source/CS229_Image.c **** #include "../Headers/Defines.h"
  19:./Source/CS229_Image.c **** 
  20:./Source/CS229_Image.c **** /* Convolutes an image. See convolute.c, but slightly modified.
  21:./Source/CS229_Image.c ****  */
  22:./Source/CS229_Image.c **** uint32_t convolute_this(uint8_t*,PCSPIC);
  23:./Source/CS229_Image.c **** 
  24:./Source/CS229_Image.c **** /* Loads an image named file into memory.
  25:./Source/CS229_Image.c ****  */
  26:./Source/CS229_Image.c **** JNIEXPORT jint JNICALL Java_CS229_1Image_Load(JNIEnv* env, jobject this, jcharArray file)
  27:./Source/CS229_Image.c **** {
  28:./Source/CS229_Image.c ****     /* Create some local variables */
  29:./Source/CS229_Image.c ****     PCSPIC pic;
  30:./Source/CS229_Image.c ****     PFILE f;
  31:./Source/CS229_Image.c ****     jsize len;
  32:./Source/CS229_Image.c ****     jchar* arr;
  33:./Source/CS229_Image.c ****     uint32_t i;
  34:./Source/CS229_Image.c ****     uint8_t loc[258]; /* File names don't exceed 256 characters */
  35:./Source/CS229_Image.c **** 
  36:./Source/CS229_Image.c ****     /* Figure our where our image is */
  37:./Source/CS229_Image.c ****     len = (*env)->GetArrayLength(env,file);
  38:./Source/CS229_Image.c ****     arr = (*env)->GetCharArrayElements(env,file,0);
  39:./Source/CS229_Image.c ****     
GAS LISTING /cygdrive/c/Users/THESCI~1/AppData/Local/Temp/ccu2GGTU.s 			page 2


  40:./Source/CS229_Image.c ****     /* Copy the file name into a useful form */
  41:./Source/CS229_Image.c ****     for(i = 0;i < len;i++)
  42:./Source/CS229_Image.c ****         loc[i] = arr[i];
  43:./Source/CS229_Image.c **** 
  44:./Source/CS229_Image.c ****     /* Just to be safe */
  45:./Source/CS229_Image.c ****     loc[i] = '\0';
  46:./Source/CS229_Image.c **** 
  47:./Source/CS229_Image.c ****     /* Release the array */
  48:./Source/CS229_Image.c ****     (*env)->ReleaseCharArrayElements(env,file,arr,0);
  49:./Source/CS229_Image.c **** 
  50:./Source/CS229_Image.c ****     /* Open the file */
  51:./Source/CS229_Image.c ****     f = fopen((const char*)loc,"r");
  52:./Source/CS229_Image.c **** 
  53:./Source/CS229_Image.c ****     /* Make sure the file was found */
  54:./Source/CS229_Image.c ****     if(f == NULL)
  55:./Source/CS229_Image.c ****         return FILE_NOT_FOUND;
  56:./Source/CS229_Image.c **** 
  57:./Source/CS229_Image.c ****     /* Initialize our picture */
  58:./Source/CS229_Image.c ****     pic = (PCSPIC)malloc((size_t)sizeof(CSPIC));
  59:./Source/CS229_Image.c **** 
  60:./Source/CS229_Image.c ****     /* Load our image */
  61:./Source/CS229_Image.c ****     i = read_cs229picture(pic,f);
  62:./Source/CS229_Image.c **** 
  63:./Source/CS229_Image.c ****     /* Error check */
  64:./Source/CS229_Image.c ****     if(i)
  65:./Source/CS229_Image.c ****     {
  66:./Source/CS229_Image.c ****         if(pic->data != NULL)
  67:./Source/CS229_Image.c ****             free((void*)pic->data);
  68:./Source/CS229_Image.c ****         free((void*)pic);
  69:./Source/CS229_Image.c ****         return i;
  70:./Source/CS229_Image.c ****     }
  71:./Source/CS229_Image.c **** 
  72:./Source/CS229_Image.c ****     /* Set the class values */
  73:./Source/CS229_Image.c ****     {
  74:./Source/CS229_Image.c ****         /* Create some local variables */
  75:./Source/CS229_Image.c ****         jclass cls;
  76:./Source/CS229_Image.c ****         jfieldID fid;
  77:./Source/CS229_Image.c **** 
  78:./Source/CS229_Image.c ****         /* Do some magic and set magic_number*/
  79:./Source/CS229_Image.c ****         cls = (*env)->GetObjectClass(env,this);
  80:./Source/CS229_Image.c ****         fid = (*env)->GetFieldID(env,cls,"magic_number","I");
  81:./Source/CS229_Image.c **** 
  82:./Source/CS229_Image.c ****         if(!fid)
  83:./Source/CS229_Image.c ****         {
  84:./Source/CS229_Image.c ****             free((void*)pic->data);
  85:./Source/CS229_Image.c ****             free((void*)pic);
  86:./Source/CS229_Image.c ****             return FAIL;
  87:./Source/CS229_Image.c ****         }
  88:./Source/CS229_Image.c **** 
  89:./Source/CS229_Image.c ****         (*env)->SetIntField(env,this,fid,(jint)pic->magic_number);
  90:./Source/CS229_Image.c **** 
  91:./Source/CS229_Image.c ****         /* Do some magic and set color_mode*/
  92:./Source/CS229_Image.c ****         fid = (*env)->GetFieldID(env,cls,"color_mode","I");
  93:./Source/CS229_Image.c **** 
  94:./Source/CS229_Image.c ****         if(!fid)
  95:./Source/CS229_Image.c ****         {
  96:./Source/CS229_Image.c ****             free((void*)pic->data);
GAS LISTING /cygdrive/c/Users/THESCI~1/AppData/Local/Temp/ccu2GGTU.s 			page 3


  97:./Source/CS229_Image.c ****             free((void*)pic);
  98:./Source/CS229_Image.c ****             return FAIL;
  99:./Source/CS229_Image.c ****         }
 100:./Source/CS229_Image.c **** 
 101:./Source/CS229_Image.c ****         (*env)->SetIntField(env,this,fid,(jint)pic->color_mode);
 102:./Source/CS229_Image.c **** 
 103:./Source/CS229_Image.c ****         /* Do some magic and set first_channel_size*/
 104:./Source/CS229_Image.c ****         fid = (*env)->GetFieldID(env,cls,"first_channel_size","I");
 105:./Source/CS229_Image.c **** 
 106:./Source/CS229_Image.c ****         if(!fid)
 107:./Source/CS229_Image.c ****         {
 108:./Source/CS229_Image.c ****             free((void*)pic->data);
 109:./Source/CS229_Image.c ****             free((void*)pic);
 110:./Source/CS229_Image.c ****             return FAIL;
 111:./Source/CS229_Image.c ****         }
 112:./Source/CS229_Image.c **** 
 113:./Source/CS229_Image.c ****         (*env)->SetIntField(env,this,fid,(jint)pic->first_channel.blackwhite_channel_size);
 114:./Source/CS229_Image.c **** 
 115:./Source/CS229_Image.c ****         /* Do some magic and set second_channel_size*/
 116:./Source/CS229_Image.c ****         fid = (*env)->GetFieldID(env,cls,"second_channel_size","I");
 117:./Source/CS229_Image.c **** 
 118:./Source/CS229_Image.c ****         if(!fid)
 119:./Source/CS229_Image.c ****         {
 120:./Source/CS229_Image.c ****             free((void*)pic->data);
 121:./Source/CS229_Image.c ****             free((void*)pic);
 122:./Source/CS229_Image.c ****             return FAIL;
 123:./Source/CS229_Image.c ****         }
 124:./Source/CS229_Image.c **** 
 125:./Source/CS229_Image.c ****         (*env)->SetIntField(env,this,fid,(jint)pic->green_channel_size);
 126:./Source/CS229_Image.c **** 
 127:./Source/CS229_Image.c ****         /* Do some magic and set third_channel_size*/
 128:./Source/CS229_Image.c ****         fid = (*env)->GetFieldID(env,cls,"third_channel_size","I");
 129:./Source/CS229_Image.c **** 
 130:./Source/CS229_Image.c ****         if(!fid)
 131:./Source/CS229_Image.c ****         {
 132:./Source/CS229_Image.c ****             free((void*)pic->data);
 133:./Source/CS229_Image.c ****             free((void*)pic);
 134:./Source/CS229_Image.c ****             return FAIL;
 135:./Source/CS229_Image.c ****         }
 136:./Source/CS229_Image.c **** 
 137:./Source/CS229_Image.c ****         (*env)->SetIntField(env,this,fid,(jint)pic->blue_channel_size);
 138:./Source/CS229_Image.c **** 
 139:./Source/CS229_Image.c ****         /* Do some magic and set width*/
 140:./Source/CS229_Image.c ****         fid = (*env)->GetFieldID(env,cls,"width","I");
 141:./Source/CS229_Image.c **** 
 142:./Source/CS229_Image.c ****         if(!fid)
 143:./Source/CS229_Image.c ****         {
 144:./Source/CS229_Image.c ****             free((void*)pic->data);
 145:./Source/CS229_Image.c ****             free((void*)pic);
 146:./Source/CS229_Image.c ****             return FAIL;
 147:./Source/CS229_Image.c ****         }
 148:./Source/CS229_Image.c **** 
 149:./Source/CS229_Image.c ****         (*env)->SetIntField(env,this,fid,(jint)pic->width.value);
 150:./Source/CS229_Image.c ****         
 151:./Source/CS229_Image.c ****         /* Do some magic and set height*/
 152:./Source/CS229_Image.c ****         fid = (*env)->GetFieldID(env,cls,"height","I");
 153:./Source/CS229_Image.c **** 
GAS LISTING /cygdrive/c/Users/THESCI~1/AppData/Local/Temp/ccu2GGTU.s 			page 4


 154:./Source/CS229_Image.c ****         if(!fid)
 155:./Source/CS229_Image.c ****         {
 156:./Source/CS229_Image.c ****             free((void*)pic->data);
 157:./Source/CS229_Image.c ****             free((void*)pic);
 158:./Source/CS229_Image.c ****             return FAIL;
 159:./Source/CS229_Image.c ****         }
 160:./Source/CS229_Image.c **** 
 161:./Source/CS229_Image.c ****         (*env)->SetIntField(env,this,fid,(jint)pic->height.value);
 162:./Source/CS229_Image.c **** 
 163:./Source/CS229_Image.c ****         /* Do some magic and set data*/
 164:./Source/CS229_Image.c ****         fid = (*env)->GetFieldID(env,cls,"data","I");
 165:./Source/CS229_Image.c **** 
 166:./Source/CS229_Image.c ****         if(!fid)
 167:./Source/CS229_Image.c ****         {
 168:./Source/CS229_Image.c ****             free((void*)pic->data);
 169:./Source/CS229_Image.c ****             free((void*)pic);
 170:./Source/CS229_Image.c ****             return FAIL;
 171:./Source/CS229_Image.c ****         }
 172:./Source/CS229_Image.c **** 
 173:./Source/CS229_Image.c ****         (*env)->SetIntField(env,this,fid,(jint)pic->data);
 174:./Source/CS229_Image.c ****     }
 175:./Source/CS229_Image.c **** 
 176:./Source/CS229_Image.c ****     /* Close the file */
 177:./Source/CS229_Image.c ****     if(!fclose(f))
 178:./Source/CS229_Image.c ****         ReportError(FILE_NOT_CLOSED);
 179:./Source/CS229_Image.c **** 
 180:./Source/CS229_Image.c ****     /* Free the data we don't need to keep around */
 181:./Source/CS229_Image.c ****     free((void*)pic);
 182:./Source/CS229_Image.c **** 
 183:./Source/CS229_Image.c ****     /* We loaded successfully */
 184:./Source/CS229_Image.c ****     /* We don't free memory, this is not a leak */
 185:./Source/CS229_Image.c ****     return SUCCESS;
 186:./Source/CS229_Image.c **** }
 187:./Source/CS229_Image.c **** 
 188:./Source/CS229_Image.c **** /* Saves an image to disk.
 189:./Source/CS229_Image.c ****  */
 190:./Source/CS229_Image.c **** JNIEXPORT jint JNICALL Java_CS229_1Image_Save(JNIEnv* env, jobject this, jcharArray file)
 191:./Source/CS229_Image.c **** {
 192:./Source/CS229_Image.c ****     /* Create some local variables */
 193:./Source/CS229_Image.c ****     CSPIC pic;
 194:./Source/CS229_Image.c ****     PFILE f;
 195:./Source/CS229_Image.c ****     jsize len;
 196:./Source/CS229_Image.c ****     jchar* arr;
 197:./Source/CS229_Image.c ****     uint32_t i;
 198:./Source/CS229_Image.c ****     uint8_t loc[258]; /* File names don't exceed 256 characters */
 199:./Source/CS229_Image.c **** 
 200:./Source/CS229_Image.c ****     /* Figure our where our image is */
 201:./Source/CS229_Image.c ****     len = (*env)->GetArrayLength(env,file);
 202:./Source/CS229_Image.c ****     arr = (*env)->GetCharArrayElements(env,file,0);
 203:./Source/CS229_Image.c **** 
 204:./Source/CS229_Image.c ****     /* Copy the file name into a useful form */
 205:./Source/CS229_Image.c ****     for(i = 0;i < len;i++)
 206:./Source/CS229_Image.c ****         loc[i] = arr[i];
 207:./Source/CS229_Image.c **** 
 208:./Source/CS229_Image.c ****     /* Just to be safe */
 209:./Source/CS229_Image.c ****     loc[i] = '\0';
 210:./Source/CS229_Image.c **** 
GAS LISTING /cygdrive/c/Users/THESCI~1/AppData/Local/Temp/ccu2GGTU.s 			page 5


 211:./Source/CS229_Image.c ****     /* Release the array */
 212:./Source/CS229_Image.c ****     (*env)->ReleaseCharArrayElements(env,file,arr,0);
 213:./Source/CS229_Image.c **** 
 214:./Source/CS229_Image.c ****     /* Get the class values */
 215:./Source/CS229_Image.c ****     {
 216:./Source/CS229_Image.c ****         /* Create some local variables */
 217:./Source/CS229_Image.c ****         jclass cls;
 218:./Source/CS229_Image.c ****         jfieldID fid;
 219:./Source/CS229_Image.c **** 
 220:./Source/CS229_Image.c ****         /* Do some magic and get magic_number*/
 221:./Source/CS229_Image.c ****         cls = (*env)->GetObjectClass(env,this);
 222:./Source/CS229_Image.c ****         fid = (*env)->GetFieldID(env,cls,"magic_number","I");
 223:./Source/CS229_Image.c ****         pic.magic_number = (uint8_t)(*env)->GetIntField(env,this,fid);
 224:./Source/CS229_Image.c **** 
 225:./Source/CS229_Image.c ****         /* Do some magic and get color_mode*/
 226:./Source/CS229_Image.c ****         fid = (*env)->GetFieldID(env,cls,"color_mode","I");
 227:./Source/CS229_Image.c ****         pic.color_mode = (uint8_t)(*env)->GetIntField(env,this,fid);
 228:./Source/CS229_Image.c **** 
 229:./Source/CS229_Image.c ****         /* Do some magic and get first_channel_size*/
 230:./Source/CS229_Image.c ****         fid = (*env)->GetFieldID(env,cls,"first_channel_size","I");
 231:./Source/CS229_Image.c ****         pic.first_channel.blackwhite_channel_size = (uint8_t)(*env)->GetIntField(env,this,fid);
 232:./Source/CS229_Image.c **** 
 233:./Source/CS229_Image.c ****         /* Do some magic and get second_channel_size*/
 234:./Source/CS229_Image.c ****         fid = (*env)->GetFieldID(env,cls,"second_channel_size","I");
 235:./Source/CS229_Image.c ****         pic.green_channel_size = (uint8_t)(*env)->GetIntField(env,this,fid);
 236:./Source/CS229_Image.c **** 
 237:./Source/CS229_Image.c ****         /* Do some magic and get third_channel_size*/
 238:./Source/CS229_Image.c ****         fid = (*env)->GetFieldID(env,cls,"third_channel_size","I");
 239:./Source/CS229_Image.c ****         pic.blue_channel_size = (uint8_t)(*env)->GetIntField(env,this,fid);
 240:./Source/CS229_Image.c **** 
 241:./Source/CS229_Image.c ****         /* Do some magic and get width*/
 242:./Source/CS229_Image.c ****         fid = (*env)->GetFieldID(env,cls,"width","I");
 243:./Source/CS229_Image.c ****         pic.width.value = (uint32_t)(*env)->GetIntField(env,this,fid);
 244:./Source/CS229_Image.c **** 
 245:./Source/CS229_Image.c ****         /* Do some magic and get height*/
 246:./Source/CS229_Image.c ****         fid = (*env)->GetFieldID(env,cls,"height","I");
 247:./Source/CS229_Image.c ****         pic.height.value = (uint32_t)(*env)->GetIntField(env,this,fid);
 248:./Source/CS229_Image.c **** 
 249:./Source/CS229_Image.c ****         /* Do some magic and get data*/
 250:./Source/CS229_Image.c ****         fid = (*env)->GetFieldID(env,cls,"data","I");
 251:./Source/CS229_Image.c ****         pic.data = (uint8_t*)(*env)->GetIntField(env,this,fid);
 252:./Source/CS229_Image.c ****     }
 253:./Source/CS229_Image.c **** 
 254:./Source/CS229_Image.c ****     /* Open the file */
 255:./Source/CS229_Image.c ****     f = fopen((const char*)loc,"w");
 256:./Source/CS229_Image.c **** 
 257:./Source/CS229_Image.c ****     /* Make sure the file was found */
 258:./Source/CS229_Image.c ****     if(f == NULL)
 259:./Source/CS229_Image.c ****         return FILE_NOT_FOUND;
 260:./Source/CS229_Image.c **** 
 261:./Source/CS229_Image.c ****     /* Attempt to write the image */
 262:./Source/CS229_Image.c ****     i = write_cs229_image(&pic,f);
 263:./Source/CS229_Image.c ****     
 264:./Source/CS229_Image.c ****     /* Error check */
 265:./Source/CS229_Image.c ****     if(i)
 266:./Source/CS229_Image.c ****         return i;
 267:./Source/CS229_Image.c **** 
GAS LISTING /cygdrive/c/Users/THESCI~1/AppData/Local/Temp/ccu2GGTU.s 			page 6


 268:./Source/CS229_Image.c ****     /* Close the file */
 269:./Source/CS229_Image.c ****     if(!fclose(f))
 270:./Source/CS229_Image.c ****         ReportError(FILE_NOT_CLOSED);
 271:./Source/CS229_Image.c **** 
 272:./Source/CS229_Image.c ****     /* Image successfully saved */
 273:./Source/CS229_Image.c ****     return SUCCESS;
 274:./Source/CS229_Image.c **** }
 275:./Source/CS229_Image.c **** 
 276:./Source/CS229_Image.c **** /* Convolutes the image. No changes are made to the image class.
 277:./Source/CS229_Image.c ****  */
 278:./Source/CS229_Image.c **** JNIEXPORT jint JNICALL Java_CS229_1Image_Convolute(JNIEnv* env, jobject this, jcharArray file)
 279:./Source/CS229_Image.c **** {
 280:./Source/CS229_Image.c ****     /* Create some local variables */
 281:./Source/CS229_Image.c ****     CSPIC pic;
 282:./Source/CS229_Image.c ****     jsize len;
 283:./Source/CS229_Image.c ****     jchar* arr;
 284:./Source/CS229_Image.c ****     uint32_t i;
 285:./Source/CS229_Image.c ****     uint8_t loc[258]; /* File names don't exceed 256 characters */
 286:./Source/CS229_Image.c **** 
 287:./Source/CS229_Image.c ****     /* Figure our where our image is */
 288:./Source/CS229_Image.c ****     len = (*env)->GetArrayLength(env,file);
 289:./Source/CS229_Image.c ****     arr = (*env)->GetCharArrayElements(env,file,0);
 290:./Source/CS229_Image.c **** 
 291:./Source/CS229_Image.c ****     /* Copy the file name into a useful form */
 292:./Source/CS229_Image.c ****     for(i = 0;i < len;i++)
 293:./Source/CS229_Image.c ****         loc[i] = arr[i];
 294:./Source/CS229_Image.c **** 
 295:./Source/CS229_Image.c ****     /* Just to be safe */
 296:./Source/CS229_Image.c ****     loc[i] = '\0';
 297:./Source/CS229_Image.c **** 
 298:./Source/CS229_Image.c ****     /* Release the array */
 299:./Source/CS229_Image.c ****     (*env)->ReleaseCharArrayElements(env,file,arr,0);
 300:./Source/CS229_Image.c **** 
 301:./Source/CS229_Image.c ****     /* Get the class values */
 302:./Source/CS229_Image.c ****     {
 303:./Source/CS229_Image.c ****         /* Create some local variables */
 304:./Source/CS229_Image.c ****         jclass cls;
 305:./Source/CS229_Image.c ****         jfieldID fid;
 306:./Source/CS229_Image.c **** 
 307:./Source/CS229_Image.c ****         /* Do some magic and get magic_number*/
 308:./Source/CS229_Image.c ****         cls = (*env)->GetObjectClass(env,this);
 309:./Source/CS229_Image.c ****         fid = (*env)->GetFieldID(env,cls,"magic_number","I");
 310:./Source/CS229_Image.c ****         pic.magic_number = (uint8_t)(*env)->GetIntField(env,this,fid);
 311:./Source/CS229_Image.c **** 
 312:./Source/CS229_Image.c ****         /* Do some magic and get color_mode*/
 313:./Source/CS229_Image.c ****         fid = (*env)->GetFieldID(env,cls,"color_mode","I");
 314:./Source/CS229_Image.c ****         pic.color_mode = (uint8_t)(*env)->GetIntField(env,this,fid);
 315:./Source/CS229_Image.c **** 
 316:./Source/CS229_Image.c ****         /* Do some magic and get first_channel_size*/
 317:./Source/CS229_Image.c ****         fid = (*env)->GetFieldID(env,cls,"first_channel_size","I");
 318:./Source/CS229_Image.c ****         pic.first_channel.blackwhite_channel_size = (uint8_t)(*env)->GetIntField(env,this,fid);
 319:./Source/CS229_Image.c **** 
 320:./Source/CS229_Image.c ****         /* Do some magic and get second_channel_size*/
 321:./Source/CS229_Image.c ****         fid = (*env)->GetFieldID(env,cls,"second_channel_size","I");
 322:./Source/CS229_Image.c ****         pic.green_channel_size = (uint8_t)(*env)->GetIntField(env,this,fid);
 323:./Source/CS229_Image.c **** 
 324:./Source/CS229_Image.c ****         /* Do some magic and get third_channel_size*/
GAS LISTING /cygdrive/c/Users/THESCI~1/AppData/Local/Temp/ccu2GGTU.s 			page 7


 325:./Source/CS229_Image.c ****         fid = (*env)->GetFieldID(env,cls,"third_channel_size","I");
 326:./Source/CS229_Image.c ****         pic.blue_channel_size = (uint8_t)(*env)->GetIntField(env,this,fid);
 327:./Source/CS229_Image.c **** 
 328:./Source/CS229_Image.c ****         /* Do some magic and get width*/
 329:./Source/CS229_Image.c ****         fid = (*env)->GetFieldID(env,cls,"width","I");
 330:./Source/CS229_Image.c ****         pic.width.value = (uint32_t)(*env)->GetIntField(env,this,fid);
 331:./Source/CS229_Image.c **** 
 332:./Source/CS229_Image.c ****         /* Do some magic and get height*/
 333:./Source/CS229_Image.c ****         fid = (*env)->GetFieldID(env,cls,"height","I");
 334:./Source/CS229_Image.c ****         pic.height.value = (uint32_t)(*env)->GetIntField(env,this,fid);
 335:./Source/CS229_Image.c **** 
 336:./Source/CS229_Image.c ****         /* Do some magic and get data*/
 337:./Source/CS229_Image.c ****         fid = (*env)->GetFieldID(env,cls,"data","I");
 338:./Source/CS229_Image.c ****         pic.data = (uint8_t*)(*env)->GetIntField(env,this,fid);
 339:./Source/CS229_Image.c ****     }
 340:./Source/CS229_Image.c **** 
 341:./Source/CS229_Image.c ****     /* Try to convlute the image */
 342:./Source/CS229_Image.c ****     i = convolute_this(loc,&pic);
 343:./Source/CS229_Image.c **** 
 344:./Source/CS229_Image.c ****     /* Error check */
 345:./Source/CS229_Image.c ****     if(i)
 346:./Source/CS229_Image.c ****         return i;
 347:./Source/CS229_Image.c **** 
 348:./Source/CS229_Image.c ****     /* Image successfully convoluted */
 349:./Source/CS229_Image.c ****     return SUCCESS;
 350:./Source/CS229_Image.c **** }
 351:./Source/CS229_Image.c **** 
 352:./Source/CS229_Image.c **** /* Gets the value of a pixel at (x,y).
 353:./Source/CS229_Image.c ****  */
 354:./Source/CS229_Image.c **** JNIEXPORT jint JNICALL Java_CS229_1Image_GetPixel(JNIEnv* env, jobject this, jint x, jint y, jintAr
 355:./Source/CS229_Image.c **** {
 356:./Source/CS229_Image.c ****     /* Create some local variables */
 357:./Source/CS229_Image.c ****     CSPIC pic;
 358:./Source/CS229_Image.c ****     uint32_t err;
 359:./Source/CS229_Image.c ****     uint32_t ret_color[3];
 360:./Source/CS229_Image.c ****     uint32_t pos;
 361:./Source/CS229_Image.c **** 
 362:./Source/CS229_Image.c ****     /* Get the class values */
 363:./Source/CS229_Image.c ****     {
 364:./Source/CS229_Image.c ****         /* Create some local variables */
 365:./Source/CS229_Image.c ****         jclass cls;
 366:./Source/CS229_Image.c ****         jfieldID fid;
 367:./Source/CS229_Image.c ****         jsize len;
 368:./Source/CS229_Image.c **** 
 369:./Source/CS229_Image.c ****         /* Do some magic and get magic_number*/
 370:./Source/CS229_Image.c ****         cls = (*env)->GetObjectClass(env,this);
 371:./Source/CS229_Image.c ****         fid = (*env)->GetFieldID(env,cls,"magic_number","I");
 372:./Source/CS229_Image.c ****         pic.magic_number = (uint8_t)(*env)->GetIntField(env,this,fid);
 373:./Source/CS229_Image.c **** 
 374:./Source/CS229_Image.c ****         /* Do some magic and get color_mode*/
 375:./Source/CS229_Image.c ****         fid = (*env)->GetFieldID(env,cls,"color_mode","I");
 376:./Source/CS229_Image.c ****         pic.color_mode = (uint8_t)(*env)->GetIntField(env,this,fid);
 377:./Source/CS229_Image.c **** 
 378:./Source/CS229_Image.c ****         /* Figure our where our image is */
 379:./Source/CS229_Image.c ****         len = (*env)->GetArrayLength(env,color);
 380:./Source/CS229_Image.c **** 
 381:./Source/CS229_Image.c ****         /* Error check */
GAS LISTING /cygdrive/c/Users/THESCI~1/AppData/Local/Temp/ccu2GGTU.s 			page 8


 382:./Source/CS229_Image.c ****         if(len < (pic.color_mode == MODE_COLOR ? 3 : 1))
 383:./Source/CS229_Image.c ****             return INVALID_IMAGE_COLOR_FORMAT;
 384:./Source/CS229_Image.c **** 
 385:./Source/CS229_Image.c ****         /* Do some magic and get first_channel_size*/
 386:./Source/CS229_Image.c ****         fid = (*env)->GetFieldID(env,cls,"first_channel_size","I");
 387:./Source/CS229_Image.c ****         pic.first_channel.blackwhite_channel_size = (uint8_t)(*env)->GetIntField(env,this,fid);
 388:./Source/CS229_Image.c **** 
 389:./Source/CS229_Image.c ****         /* Do some magic and get second_channel_size*/
 390:./Source/CS229_Image.c ****         fid = (*env)->GetFieldID(env,cls,"second_channel_size","I");
 391:./Source/CS229_Image.c ****         pic.green_channel_size = (uint8_t)(*env)->GetIntField(env,this,fid);
 392:./Source/CS229_Image.c **** 
 393:./Source/CS229_Image.c ****         /* Do some magic and get third_channel_size*/
 394:./Source/CS229_Image.c ****         fid = (*env)->GetFieldID(env,cls,"third_channel_size","I");
 395:./Source/CS229_Image.c ****         pic.blue_channel_size = (uint8_t)(*env)->GetIntField(env,this,fid);
 396:./Source/CS229_Image.c **** 
 397:./Source/CS229_Image.c ****         /* Do some magic and get width*/
 398:./Source/CS229_Image.c ****         fid = (*env)->GetFieldID(env,cls,"width","I");
 399:./Source/CS229_Image.c ****         pic.width.value = (uint32_t)(*env)->GetIntField(env,this,fid);
 400:./Source/CS229_Image.c **** 
 401:./Source/CS229_Image.c ****         /* Do some magic and get height*/
 402:./Source/CS229_Image.c ****         fid = (*env)->GetFieldID(env,cls,"height","I");
 403:./Source/CS229_Image.c ****         pic.height.value = (uint32_t)(*env)->GetIntField(env,this,fid);
 404:./Source/CS229_Image.c **** 
 405:./Source/CS229_Image.c ****         /* Do some magic and get data*/
 406:./Source/CS229_Image.c ****         fid = (*env)->GetFieldID(env,cls,"data","I");
 407:./Source/CS229_Image.c ****         pic.data = (uint8_t*)(*env)->GetIntField(env,this,fid);
 408:./Source/CS229_Image.c ****     }
 409:./Source/CS229_Image.c **** 
 410:./Source/CS229_Image.c ****     /* Figure out where our pixel is */
 411:./Source/CS229_Image.c ****     pos = coordinate_to_linear_address(&pic,(uint32_t)x,(uint32_t)y);
 412:./Source/CS229_Image.c **** 
 413:./Source/CS229_Image.c ****     /* Get our pixel */
 414:./Source/CS229_Image.c ****     err = get_pixel(&pic,pos,ret_color);
 415:./Source/CS229_Image.c **** 
 416:./Source/CS229_Image.c ****     /* Error check */
 417:./Source/CS229_Image.c ****     if(err)
 418:./Source/CS229_Image.c ****         return err;
 419:./Source/CS229_Image.c **** 
 420:./Source/CS229_Image.c ****     /* Set our return values */
 421:./Source/CS229_Image.c ****     {
 422:./Source/CS229_Image.c ****         /* Create some local variables */
 423:./Source/CS229_Image.c ****         jint* orig;
 424:./Source/CS229_Image.c ****         uint32_t i;
 425:./Source/CS229_Image.c **** 
 426:./Source/CS229_Image.c ****         /* Get the internal int* */
 427:./Source/CS229_Image.c ****         orig = (*env)->GetIntArrayElements(env,color,0);
 428:./Source/CS229_Image.c **** 
 429:./Source/CS229_Image.c ****         /* Set the array elements */
 430:./Source/CS229_Image.c ****         for(i = 0;i < (pic.color_mode == MODE_COLOR ? 3 : 1);i++)
 431:./Source/CS229_Image.c ****             orig[i] = ret_color[i];
 432:./Source/CS229_Image.c **** 
 433:./Source/CS229_Image.c ****         /* Release the array */
 434:./Source/CS229_Image.c ****         (*env)->ReleaseIntArrayElements(env,color,orig,0);
 435:./Source/CS229_Image.c ****     }
 436:./Source/CS229_Image.c **** 
 437:./Source/CS229_Image.c ****     /* We successfully got the pixel */
 438:./Source/CS229_Image.c ****     return SUCCESS;
GAS LISTING /cygdrive/c/Users/THESCI~1/AppData/Local/Temp/ccu2GGTU.s 			page 9


 439:./Source/CS229_Image.c **** }
 440:./Source/CS229_Image.c **** 
 441:./Source/CS229_Image.c **** /* Frees data used by this picture.
 442:./Source/CS229_Image.c ****  */
 443:./Source/CS229_Image.c **** JNIEXPORT jint JNICALL Java_CS229_1Image_Free(JNIEnv* env, jobject this)
 444:./Source/CS229_Image.c **** {
 445:./Source/CS229_Image.c ****     /* Create some local varaibles */
 446:./Source/CS229_Image.c ****     uint8_t* data;
 447:./Source/CS229_Image.c **** 
 448:./Source/CS229_Image.c ****     /* Get the class values */
 449:./Source/CS229_Image.c ****     {
 450:./Source/CS229_Image.c ****         /* Create some local variables */
 451:./Source/CS229_Image.c ****         jclass cls;
 452:./Source/CS229_Image.c ****         jfieldID fid;
 453:./Source/CS229_Image.c **** 
 454:./Source/CS229_Image.c ****         /* Do some magic */
 455:./Source/CS229_Image.c ****         cls = (*env)->GetObjectClass(env,this);
 456:./Source/CS229_Image.c **** 
 457:./Source/CS229_Image.c ****         /* Do some magic and get data*/
 458:./Source/CS229_Image.c ****         fid = (*env)->GetFieldID(env,cls,"data","I");
 459:./Source/CS229_Image.c ****         data = (uint8_t*)(*env)->GetIntField(env,this,fid);
 460:./Source/CS229_Image.c ****     }
 461:./Source/CS229_Image.c **** 
 462:./Source/CS229_Image.c ****     /* Free the data */
 463:./Source/CS229_Image.c ****     free((void*)data);
 464:./Source/CS229_Image.c **** 
 465:./Source/CS229_Image.c ****     return SUCCESS;
 466:./Source/CS229_Image.c **** }
 467:./Source/CS229_Image.c **** 
 468:./Source/CS229_Image.c **** /* Reports an error using our C error library.
 469:./Source/CS229_Image.c ****  */
 470:./Source/CS229_Image.c **** JNIEXPORT jint JNICALL Java_CS229_1Image_ReportError(JNIEnv* env, jobject this, jint err)
 471:./Source/CS229_Image.c **** {
  16              		.loc 1 471 0
  17              	LVL0:
  18 0000 55       		pushl	%ebp
  19              	LCFI0:
  20 0001 89E5     		movl	%esp, %ebp
  21              	LCFI1:
  22 0003 83EC08   		subl	$8, %esp
  23              	LCFI2:
 472:./Source/CS229_Image.c ****     ReportError(err);
  24              		.loc 1 472 0
  25 0006 8B4510   		movl	16(%ebp), %eax
  26 0009 890424   		movl	%eax, (%esp)
  27 000c E8000000 		call	_ReportError
  27      00
 473:./Source/CS229_Image.c ****     return SUCCESS;
 474:./Source/CS229_Image.c **** }
  28              		.loc 1 474 0
  29 0011 31C0     		xorl	%eax, %eax
  30 0013 C9       		leave
  31 0014 C3       		ret
  32              	LFE11:
  33              		.section .rdata,"dr"
  34              	LC0:
  35 0000 7200     		.ascii "r\0"
GAS LISTING /cygdrive/c/Users/THESCI~1/AppData/Local/Temp/ccu2GGTU.s 			page 10


  36              	LC1:
  37 0002 256900   		.ascii "%i\0"
  38              	LC2:
  39 0005 256600   		.ascii "%f\0"
  40              		.text
  41 0015 8D742600 		.p2align 4,,15
  41      8DBC2700 
  41      000000
  42              	.globl _convolute_this
  44              	_convolute_this:
  45              	LFB12:
 475:./Source/CS229_Image.c **** 
 476:./Source/CS229_Image.c **** /* Convolutes an image. See convolute.c, but slightly modified.
 477:./Source/CS229_Image.c ****  */
 478:./Source/CS229_Image.c **** uint32_t convolute_this(uint8_t* file, PCSPIC picture)
 479:./Source/CS229_Image.c **** {
  46              		.loc 1 479 0
  47              	LVL1:
  48 0020 55       		pushl	%ebp
  49              	LCFI3:
  50 0021 89E5     		movl	%esp, %ebp
  51              	LCFI4:
  52 0023 57       		pushl	%edi
  53              	LCFI5:
  54 0024 56       		pushl	%esi
  55              	LCFI6:
  56 0025 53       		pushl	%ebx
  57              	LCFI7:
  58 0026 83EC2C   		subl	$44, %esp
  59              	LCFI8:
 480:./Source/CS229_Image.c ****     /* Create some local variables */
 481:./Source/CS229_Image.c ****     uint32_t err;
 482:./Source/CS229_Image.c ****     uint32_t i;
 483:./Source/CS229_Image.c ****     uint32_t j;
 484:./Source/CS229_Image.c ****     uint32_t end;
 485:./Source/CS229_Image.c ****     int32_t* n;
 486:./Source/CS229_Image.c ****     float** kernel;
 487:./Source/CS229_Image.c ****     PFILE f;
 488:./Source/CS229_Image.c **** 
 489:./Source/CS229_Image.c ****     /* Open the kernel file */
 490:./Source/CS229_Image.c ****     f = fopen((const char*)file,"r");
  60              		.loc 1 490 0
  61 0029 8B4508   		movl	8(%ebp), %eax
  62 002c C7442404 		movl	$LC0, 4(%esp)
  62      00000000 
  63 0034 890424   		movl	%eax, (%esp)
  64 0037 E8000000 		call	_fopen
  64      00
 491:./Source/CS229_Image.c **** 
 492:./Source/CS229_Image.c ****     /* Check that we opened our kernel file successfully */
 493:./Source/CS229_Image.c ****     if(f == NULL)
  65              		.loc 1 493 0
  66 003c C745E80D 		movl	$13, -24(%ebp)
  66      000000
  67              	LVL2:
  68 0043 85C0     		testl	%eax, %eax
  69              	LVL3:
GAS LISTING /cygdrive/c/Users/THESCI~1/AppData/Local/Temp/ccu2GGTU.s 			page 11


 490:./Source/CS229_Image.c ****     f = fopen((const char*)file,"r");
  70              		.loc 1 490 0
  71 0045 89C7     		movl	%eax, %edi
  72              	LVL4:
  73              		.loc 1 493 0
  74 0047 0F84D000 		je	L5
  74      0000
  75              	LVL5:
 494:./Source/CS229_Image.c ****         return FILE_NOT_FOUND;
 495:./Source/CS229_Image.c **** 
 496:./Source/CS229_Image.c ****     /* Check how many kernels we need */
 497:./Source/CS229_Image.c ****     end = (picture->color_mode == MODE_COLOR ? 3 : 1);
  76              		.loc 1 497 0
  77 004d 8B450C   		movl	12(%ebp), %eax
  78 0050 31D2     		xorl	%edx, %edx
  79 0052 807801FF 		cmpb	$-1, 1(%eax)
  80 0056 0F94C2   		sete	%dl
 498:./Source/CS229_Image.c **** 
 499:./Source/CS229_Image.c ****     /* Create our outer kernel */
 500:./Source/CS229_Image.c ****     kernel = (float**)malloc((size_t)(sizeof(float*) * end));
 501:./Source/CS229_Image.c **** 
 502:./Source/CS229_Image.c ****     /* Create the size pointer for the kernels */
 503:./Source/CS229_Image.c ****     n = (int32_t*)malloc((size_t)(sizeof(uint32_t) * end));
  81              		.loc 1 503 0
  82 0059 31F6     		xorl	%esi, %esi
  83              	LVL6:
 497:./Source/CS229_Image.c ****     end = (picture->color_mode == MODE_COLOR ? 3 : 1);
  84              		.loc 1 497 0
  85 005b 89D3     		movl	%edx, %ebx
  86 005d 89D0     		movl	%edx, %eax
  87 005f 8D4C1201 		leal	1(%edx,%edx), %ecx
  88 0063 01C0     		addl	%eax, %eax
  89 0065 8D1CDD04 		leal	4(,%ebx,8), %ebx
  89      000000
  90 006c 894DEC   		movl	%ecx, -20(%ebp)
  91              	LVL7:
  92 006f 8945F0   		movl	%eax, -16(%ebp)
 500:./Source/CS229_Image.c ****     kernel = (float**)malloc((size_t)(sizeof(float*) * end));
  93              		.loc 1 500 0
  94 0072 891C24   		movl	%ebx, (%esp)
  95 0075 E8000000 		call	_malloc
  95      00
  96              		.loc 1 503 0
  97 007a 891C24   		movl	%ebx, (%esp)
 500:./Source/CS229_Image.c ****     kernel = (float**)malloc((size_t)(sizeof(float*) * end));
  98              		.loc 1 500 0
  99 007d 8945E0   		movl	%eax, -32(%ebp)
 100              		.loc 1 503 0
 101 0080 E8000000 		call	_malloc
 101      00
 102 0085 8945E4   		movl	%eax, -28(%ebp)
 103              	LVL8:
 104              	L14:
 504:./Source/CS229_Image.c **** 
 505:./Source/CS229_Image.c ****     /* Read in the kernels */
 506:./Source/CS229_Image.c ****     for(i = 0;i < end;i++)
 507:./Source/CS229_Image.c ****     {
GAS LISTING /cygdrive/c/Users/THESCI~1/AppData/Local/Temp/ccu2GGTU.s 			page 12


 508:./Source/CS229_Image.c ****         /* Read in the size of the kernel */
 509:./Source/CS229_Image.c ****         if(fscanf(f,"%i",&(n[i])) != 1)
 105              		.loc 1 509 0
 106 0088 8B55E4   		movl	-28(%ebp), %edx
 107 008b C7442404 		movl	$LC1, 4(%esp)
 107      02000000 
 108 0093 893C24   		movl	%edi, (%esp)
 109 0096 8D04B2   		leal	(%edx,%esi,4), %eax
 110 0099 89442408 		movl	%eax, 8(%esp)
 111 009d E8000000 		call	_fscanf
 111      00
 112 00a2 83E801   		subl	$1, %eax
 113 00a5 756F     		jne	L8
 510:./Source/CS229_Image.c ****         {
 511:./Source/CS229_Image.c ****             /* Don't worry about freeing memory since it will be gone anyways */
 512:./Source/CS229_Image.c ****             return KERNEL_FORMAT_ERROR;
 513:./Source/CS229_Image.c ****         }
 514:./Source/CS229_Image.c **** 
 515:./Source/CS229_Image.c ****         /* Check that the kernel is of good size. */
 516:./Source/CS229_Image.c ****         if(!(n[i] & 0x1) || n[i] < 1)
 114              		.loc 1 516 0
 115 00a7 8B4DE4   		movl	-28(%ebp), %ecx
 116 00aa 8B04B1   		movl	(%ecx,%esi,4), %eax
 117 00ad A801     		testb	$1, %al
 118 00af 0F840B01 		je	L9
 118      0000
 119 00b5 85C0     		testl	%eax, %eax
 120 00b7 0F8E0301 		jle	L9
 120      0000
 517:./Source/CS229_Image.c ****         {
 518:./Source/CS229_Image.c ****             return INVALID_KERNEL_SIZE;
 519:./Source/CS229_Image.c ****         }
 520:./Source/CS229_Image.c **** 
 521:./Source/CS229_Image.c ****         /* Create the sub-kernel */
 522:./Source/CS229_Image.c ****         kernel[i] = (float*)malloc((size_t)(sizeof(float) * n[i] * n[i]));
 121              		.loc 1 522 0
 122 00bd 0FAFC0   		imull	%eax, %eax
 123 00c0 C1E002   		sall	$2, %eax
 124 00c3 890424   		movl	%eax, (%esp)
 125 00c6 E8000000 		call	_malloc
 125      00
 523:./Source/CS229_Image.c **** 
 524:./Source/CS229_Image.c ****         /* Read in each kernel value */
 525:./Source/CS229_Image.c ****         for(j = 0;j < n[i] * n[i];j++)
 126              		.loc 1 525 0
 127 00cb 8B4DE4   		movl	-28(%ebp), %ecx
 522:./Source/CS229_Image.c ****         kernel[i] = (float*)malloc((size_t)(sizeof(float) * n[i] * n[i]));
 128              		.loc 1 522 0
 129 00ce 89C2     		movl	%eax, %edx
 130 00d0 8B45E0   		movl	-32(%ebp), %eax
 131 00d3 8914B0   		movl	%edx, (%eax,%esi,4)
 132              		.loc 1 525 0
 133 00d6 8B04B1   		movl	(%ecx,%esi,4), %eax
 134 00d9 0FAFC0   		imull	%eax, %eax
 135 00dc 85C0     		testl	%eax, %eax
 136 00de 7448     		je	L10
 137 00e0 31DB     		xorl	%ebx, %ebx
GAS LISTING /cygdrive/c/Users/THESCI~1/AppData/Local/Temp/ccu2GGTU.s 			page 13


 138 00e2 EB16     		jmp	L11
 139              		.p2align 4,,7
 140              	L21:
 141 00e4 8B55E4   		movl	-28(%ebp), %edx
 142 00e7 83C301   		addl	$1, %ebx
 143 00ea 8B04B2   		movl	(%edx,%esi,4), %eax
 144 00ed 0FAFC0   		imull	%eax, %eax
 145 00f0 39D8     		cmpl	%ebx, %eax
 146 00f2 7634     		jbe	L10
 147 00f4 8B4DE0   		movl	-32(%ebp), %ecx
 148 00f7 8B14B1   		movl	(%ecx,%esi,4), %edx
 149              	L11:
 526:./Source/CS229_Image.c ****             if(fscanf(f,"%f",&(kernel[i][j])) != 1)
 150              		.loc 1 526 0
 151 00fa 8D049A   		leal	(%edx,%ebx,4), %eax
 152 00fd 89442408 		movl	%eax, 8(%esp)
 153 0101 C7442404 		movl	$LC2, 4(%esp)
 153      05000000 
 154 0109 893C24   		movl	%edi, (%esp)
 155 010c E8000000 		call	_fscanf
 155      00
 156 0111 83E801   		subl	$1, %eax
 157 0114 74CE     		je	L21
 158              	L8:
 527:./Source/CS229_Image.c ****             {
 528:./Source/CS229_Image.c ****                 return KERNEL_FORMAT_ERROR;
 529:./Source/CS229_Image.c ****             }
 530:./Source/CS229_Image.c **** 
 531:./Source/CS229_Image.c ****         /* Check if we have an invalid kernel */
 532:./Source/CS229_Image.c ****         if(i == end - 1)
 533:./Source/CS229_Image.c ****         {
 534:./Source/CS229_Image.c ****             if(!feof(f))
 535:./Source/CS229_Image.c ****                 return (end == 3 ? KERNEL_FORMAT_ERROR : BLACKWHITE_KERNEL_EXPECTED);
 536:./Source/CS229_Image.c ****         }
 537:./Source/CS229_Image.c ****         else if(feof(f))
 538:./Source/CS229_Image.c ****             return (end == 3 ? (i == 0 ? COLOR_KERNEL_EXPECTED : KERNEL_FORMAT_ERROR) : KERNEL_FORM
 539:./Source/CS229_Image.c ****     }
 540:./Source/CS229_Image.c **** 
 541:./Source/CS229_Image.c ****     /* Close the file */
 542:./Source/CS229_Image.c ****     if(fclose(f))
 543:./Source/CS229_Image.c ****         ReportError(FILE_NOT_CLOSED);
 544:./Source/CS229_Image.c **** 
 545:./Source/CS229_Image.c ****     /* Convolute the image */
 546:./Source/CS229_Image.c ****     err = convolute(picture,kernel,(uint32_t*)n);
 547:./Source/CS229_Image.c **** 
 548:./Source/CS229_Image.c ****     /* Free the kernel memory */
 549:./Source/CS229_Image.c ****     for(i = 0;i < end;i++)
 550:./Source/CS229_Image.c ****         free((void*)kernel[i]);
 551:./Source/CS229_Image.c **** 
 552:./Source/CS229_Image.c ****     /* Free some arrays */
 553:./Source/CS229_Image.c ****     free((void*)kernel);
 554:./Source/CS229_Image.c ****     free((void*)n);
 159              		.loc 1 554 0
 160 0116 C745E810 		movl	$16, -24(%ebp)
 160      000000
 161              	LVL9:
 162              	L5:
GAS LISTING /cygdrive/c/Users/THESCI~1/AppData/Local/Temp/ccu2GGTU.s 			page 14


 555:./Source/CS229_Image.c **** 
 556:./Source/CS229_Image.c ****     /* If we got an error then report it and abandon the program */
 557:./Source/CS229_Image.c ****     if(err)
 558:./Source/CS229_Image.c ****         return err;
 559:./Source/CS229_Image.c **** 
 560:./Source/CS229_Image.c ****     /* Image successfully convoluted */
 561:./Source/CS229_Image.c ****     /* Don't worry about freeing memory since it will be gone anyways */
 562:./Source/CS229_Image.c ****     return SUCCESS;
 563:./Source/CS229_Image.c **** }
 163              		.loc 1 563 0
 164 011d 8B45E8   		movl	-24(%ebp), %eax
 165 0120 83C42C   		addl	$44, %esp
 166 0123 5B       		popl	%ebx
 167              	LVL10:
 168 0124 5E       		popl	%esi
 169              	LVL11:
 170 0125 5F       		popl	%edi
 171              	LVL12:
 172 0126 5D       		popl	%ebp
 173 0127 C3       		ret
 174              	LVL13:
 175              		.p2align 4,,7
 176              	L10:
 532:./Source/CS229_Image.c ****         if(i == end - 1)
 177              		.loc 1 532 0
 178 0128 3975F0   		cmpl	%esi, -16(%ebp)
 179 012b 7474     		je	L22
 537:./Source/CS229_Image.c ****         else if(feof(f))
 180              		.loc 1 537 0
 181 012d F6470C20 		testb	$32, 12(%edi)
 182 0131 0F85A600 		jne	L23
 182      0000
 183              	L13:
 506:./Source/CS229_Image.c ****     for(i = 0;i < end;i++)
 184              		.loc 1 506 0
 185 0137 83C601   		addl	$1, %esi
 186 013a 3975EC   		cmpl	%esi, -20(%ebp)
 187 013d 8D7600   		.p2align 4,,3
 188 0140 0F8742FF 		ja	L14
 188      FFFF
 542:./Source/CS229_Image.c ****     if(fclose(f))
 189              		.loc 1 542 0
 190 0146 893C24   		movl	%edi, (%esp)
 191 0149 E8000000 		call	_fclose
 191      00
 192 014e 85C0     		testl	%eax, %eax
 193 0150 757A     		jne	L24
 194              	L15:
 546:./Source/CS229_Image.c ****     err = convolute(picture,kernel,(uint32_t*)n);
 195              		.loc 1 546 0
 196 0152 8B45E4   		movl	-28(%ebp), %eax
 197 0155 31DB     		xorl	%ebx, %ebx
 198              	LVL14:
 199 0157 8B55E0   		movl	-32(%ebp), %edx
 200 015a 8B4D0C   		movl	12(%ebp), %ecx
 201 015d 89442408 		movl	%eax, 8(%esp)
 202 0161 89542404 		movl	%edx, 4(%esp)
GAS LISTING /cygdrive/c/Users/THESCI~1/AppData/Local/Temp/ccu2GGTU.s 			page 15


 203 0165 890C24   		movl	%ecx, (%esp)
 204 0168 E8000000 		call	_convolute
 204      00
 205 016d 8945E8   		movl	%eax, -24(%ebp)
 206              	LVL15:
 207              		.p2align 4,,7
 208              	L16:
 550:./Source/CS229_Image.c ****         free((void*)kernel[i]);
 209              		.loc 1 550 0
 210 0170 8B55E0   		movl	-32(%ebp), %edx
 211 0173 8B049A   		movl	(%edx,%ebx,4), %eax
 549:./Source/CS229_Image.c ****     for(i = 0;i < end;i++)
 212              		.loc 1 549 0
 213 0176 83C301   		addl	$1, %ebx
 550:./Source/CS229_Image.c ****         free((void*)kernel[i]);
 214              		.loc 1 550 0
 215 0179 890424   		movl	%eax, (%esp)
 216 017c E8000000 		call	_free
 216      00
 549:./Source/CS229_Image.c ****     for(i = 0;i < end;i++)
 217              		.loc 1 549 0
 218 0181 395DEC   		cmpl	%ebx, -20(%ebp)
 219 0184 77EA     		ja	L16
 553:./Source/CS229_Image.c ****     free((void*)kernel);
 220              		.loc 1 553 0
 221 0186 8B4DE0   		movl	-32(%ebp), %ecx
 222 0189 890C24   		movl	%ecx, (%esp)
 223 018c E8000000 		call	_free
 223      00
 554:./Source/CS229_Image.c ****     free((void*)n);
 224              		.loc 1 554 0
 225 0191 8B45E4   		movl	-28(%ebp), %eax
 226 0194 890424   		movl	%eax, (%esp)
 227 0197 E8000000 		call	_free
 227      00
 228 019c E97CFFFF 		jmp	L5
 228      FF
 229              	LVL16:
 230              		.p2align 4,,7
 231              	L22:
 534:./Source/CS229_Image.c ****             if(!feof(f))
 232              		.loc 1 534 0
 233 01a1 F6470C20 		testb	$32, 12(%edi)
 234              		.p2align 4,,2
 235 01a5 7590     		jne	L13
 535:./Source/CS229_Image.c ****                 return (end == 3 ? KERNEL_FORMAT_ERROR : BLACKWHITE_KERNEL_EXPECTED);
 236              		.loc 1 535 0
 237 01a7 837DEC03 		cmpl	$3, -20(%ebp)
 238 01ab C745E812 		movl	$18, -24(%ebp)
 238      000000
 239              	LVL17:
 240              		.p2align 4,,5
 241 01b2 0F8565FF 		jne	L5
 241      FFFF
 242              		.p2align 4,,5
 243 01b8 E959FFFF 		jmp	L8
 243      FF
GAS LISTING /cygdrive/c/Users/THESCI~1/AppData/Local/Temp/ccu2GGTU.s 			page 16


 244 01bd 8D7600   		.p2align 4,,7
 245              	L9:
 554:./Source/CS229_Image.c ****     free((void*)n);
 246              		.loc 1 554 0
 247 01c0 C745E813 		movl	$19, -24(%ebp)
 247      000000
 248              	LVL18:
 249              		.p2align 4,,5
 250 01c7 E951FFFF 		jmp	L5
 250      FF
 251              	L24:
 543:./Source/CS229_Image.c ****         ReportError(FILE_NOT_CLOSED);
 252              		.loc 1 543 0
 253 01cc C704240E 		movl	$14, (%esp)
 253      000000
 254              		.p2align 4,,7
 255 01d3 E8000000 		call	_ReportError
 255      00
 256              		.p2align 4,,4
 257 01d8 E975FFFF 		jmp	L15
 257      FF
 258              	L23:
 538:./Source/CS229_Image.c ****             return (end == 3 ? (i == 0 ? COLOR_KERNEL_EXPECTED : KERNEL_FORMAT_ERROR) : KERNEL_FORM
 259              		.loc 1 538 0
 260 01dd 837DEC03 		cmpl	$3, -20(%ebp)
 261              		.p2align 4,,4
 262 01e1 0F852FFF 		jne	L8
 262      FFFF
 263 01e7 85F6     		testl	%esi, %esi
 264 01e9 C745E811 		movl	$17, -24(%ebp)
 264      000000
 265              	LVL19:
 266              		.p2align 4,,5
 267 01f0 0F8427FF 		je	L5
 267      FFFF
 268              		.p2align 4,,5
 269 01f6 E91BFFFF 		jmp	L8
 269      FF
 270              	LFE12:
 271              		.section .rdata,"dr"
 272              	LC3:
 273 0008 4900     		.ascii "I\0"
 274              	LC4:
 275 000a 6D616769 		.ascii "magic_number\0"
 275      635F6E75 
 275      6D626572 
 275      00
 276              	LC5:
 277 0017 636F6C6F 		.ascii "color_mode\0"
 277      725F6D6F 
 277      646500
 278              	LC6:
 279 0022 66697273 		.ascii "first_channel_size\0"
 279      745F6368 
 279      616E6E65 
 279      6C5F7369 
 279      7A6500
GAS LISTING /cygdrive/c/Users/THESCI~1/AppData/Local/Temp/ccu2GGTU.s 			page 17


 280              	LC7:
 281 0035 7365636F 		.ascii "second_channel_size\0"
 281      6E645F63 
 281      68616E6E 
 281      656C5F73 
 281      697A6500 
 282              	LC8:
 283 0049 74686972 		.ascii "third_channel_size\0"
 283      645F6368 
 283      616E6E65 
 283      6C5F7369 
 283      7A6500
 284              	LC9:
 285 005c 77696474 		.ascii "width\0"
 285      6800
 286              	LC10:
 287 0062 68656967 		.ascii "height\0"
 287      687400
 288              	LC11:
 289 0069 64617461 		.ascii "data\0"
 289      00
 290              		.text
 291 01fb 908D7426 		.p2align 4,,15
 291      00
 292              	.globl _Java_CS229_1Image_Convolute
 294              	_Java_CS229_1Image_Convolute:
 295              	LFB8:
 279:./Source/CS229_Image.c **** {
 296              		.loc 1 279 0
 297              	LVL20:
 298 0200 55       		pushl	%ebp
 299              	LCFI9:
 300 0201 89E5     		movl	%esp, %ebp
 301              	LCFI10:
 302 0203 57       		pushl	%edi
 303              	LCFI11:
 304 0204 56       		pushl	%esi
 305              	LCFI12:
 306 0205 53       		pushl	%ebx
 307              	LCFI13:
 308 0206 81EC3C01 		subl	$316, %esp
 308      0000
 309              	LCFI14:
 279:./Source/CS229_Image.c **** {
 310              		.loc 1 279 0
 311 020c 8B7508   		movl	8(%ebp), %esi
 288:./Source/CS229_Image.c ****     len = (*env)->GetArrayLength(env,file);
 312              		.loc 1 288 0
 313 020f 8B5510   		movl	16(%ebp), %edx
 314 0212 8DBDDCFE 		leal	-292(%ebp), %edi
 314      FFFF
 315 0218 8B06     		movl	(%esi), %eax
 316 021a 89542404 		movl	%edx, 4(%esp)
 317 021e 893424   		movl	%esi, (%esp)
 318 0221 FF90AC02 		call	*684(%eax)
 318      0000
 289:./Source/CS229_Image.c ****     arr = (*env)->GetCharArrayElements(env,file,0);
GAS LISTING /cygdrive/c/Users/THESCI~1/AppData/Local/Temp/ccu2GGTU.s 			page 18


 319              		.loc 1 289 0
 320 0227 8B5510   		movl	16(%ebp), %edx
 288:./Source/CS229_Image.c ****     len = (*env)->GetArrayLength(env,file);
 321              		.loc 1 288 0
 322 022a 89C3     		movl	%eax, %ebx
 323              	LVL21:
 289:./Source/CS229_Image.c ****     arr = (*env)->GetCharArrayElements(env,file,0);
 324              		.loc 1 289 0
 325 022c 8B06     		movl	(%esi), %eax
 326 022e C7442408 		movl	$0, 8(%esp)
 326      00000000 
 327 0236 89542404 		movl	%edx, 4(%esp)
 328 023a 893424   		movl	%esi, (%esp)
 329 023d FF90E402 		call	*740(%eax)
 329      0000
 292:./Source/CS229_Image.c ****     for(i = 0;i < len;i++)
 330              		.loc 1 292 0
 331 0243 85DB     		testl	%ebx, %ebx
 289:./Source/CS229_Image.c ****     arr = (*env)->GetCharArrayElements(env,file,0);
 332              		.loc 1 289 0
 333 0245 89C1     		movl	%eax, %ecx
 334              	LVL22:
 292:./Source/CS229_Image.c ****     for(i = 0;i < len;i++)
 335              		.loc 1 292 0
 336 0247 7415     		je	L26
 337              	LVL23:
 338 0249 31D2     		xorl	%edx, %edx
 339              	LVL24:
 340 024b 908D7426 		.p2align 4,,7
 340      00
 341              	L27:
 293:./Source/CS229_Image.c ****         loc[i] = arr[i];
 342              		.loc 1 293 0
 343 0250 0FB70451 		movzwl	(%ecx,%edx,2), %eax
 344 0254 880417   		movb	%al, (%edi,%edx)
 292:./Source/CS229_Image.c ****     for(i = 0;i < len;i++)
 345              		.loc 1 292 0
 346 0257 83C201   		addl	$1, %edx
 347 025a 39DA     		cmpl	%ebx, %edx
 348 025c 72F2     		jb	L27
 349              	L26:
 296:./Source/CS229_Image.c ****     loc[i] = '\0';
 350              		.loc 1 296 0
 351 025e C6841DDC 		movb	$0, -292(%ebp,%ebx)
 351      FEFFFF00 
 299:./Source/CS229_Image.c ****     (*env)->ReleaseCharArrayElements(env,file,arr,0);
 352              		.loc 1 299 0
 353 0266 8B06     		movl	(%esi), %eax
 354 0268 8B5510   		movl	16(%ebp), %edx
 355              	LVL25:
 356 026b 894C2408 		movl	%ecx, 8(%esp)
 357 026f 893424   		movl	%esi, (%esp)
 358 0272 C744240C 		movl	$0, 12(%esp)
 358      00000000 
 359 027a 89542404 		movl	%edx, 4(%esp)
 360 027e FF900403 		call	*772(%eax)
 360      0000
GAS LISTING /cygdrive/c/Users/THESCI~1/AppData/Local/Temp/ccu2GGTU.s 			page 19


 361              	LVL26:
 362              	LBB2:
 308:./Source/CS229_Image.c ****         cls = (*env)->GetObjectClass(env,this);
 363              		.loc 1 308 0
 364 0284 8B550C   		movl	12(%ebp), %edx
 365 0287 8B06     		movl	(%esi), %eax
 366 0289 893424   		movl	%esi, (%esp)
 367 028c 89542404 		movl	%edx, 4(%esp)
 368 0290 FF507C   		call	*124(%eax)
 369 0293 89C3     		movl	%eax, %ebx
 370              	LVL27:
 309:./Source/CS229_Image.c ****         fid = (*env)->GetFieldID(env,cls,"magic_number","I");
 371              		.loc 1 309 0
 372 0295 8B06     		movl	(%esi), %eax
 373 0297 895C2404 		movl	%ebx, 4(%esp)
 374 029b 893424   		movl	%esi, (%esp)
 375 029e C744240C 		movl	$LC3, 12(%esp)
 375      08000000 
 376 02a6 C7442408 		movl	$LC4, 8(%esp)
 376      0A000000 
 377 02ae FF907801 		call	*376(%eax)
 377      0000
 310:./Source/CS229_Image.c ****         pic.magic_number = (uint8_t)(*env)->GetIntField(env,this,fid);
 378              		.loc 1 310 0
 379 02b4 8B16     		movl	(%esi), %edx
 380 02b6 893424   		movl	%esi, (%esp)
 381 02b9 89442408 		movl	%eax, 8(%esp)
 382              	LVL28:
 383 02bd 8B450C   		movl	12(%ebp), %eax
 384              	LVL29:
 385 02c0 89442404 		movl	%eax, 4(%esp)
 386 02c4 FF929001 		call	*400(%edx)
 386      0000
 387 02ca 8845E0   		movb	%al, -32(%ebp)
 313:./Source/CS229_Image.c ****         fid = (*env)->GetFieldID(env,cls,"color_mode","I");
 388              		.loc 1 313 0
 389 02cd 8B06     		movl	(%esi), %eax
 390 02cf 895C2404 		movl	%ebx, 4(%esp)
 391 02d3 893424   		movl	%esi, (%esp)
 392 02d6 C744240C 		movl	$LC3, 12(%esp)
 392      08000000 
 393 02de C7442408 		movl	$LC5, 8(%esp)
 393      17000000 
 394 02e6 FF907801 		call	*376(%eax)
 394      0000
 314:./Source/CS229_Image.c ****         pic.color_mode = (uint8_t)(*env)->GetIntField(env,this,fid);
 395              		.loc 1 314 0
 396 02ec 8B16     		movl	(%esi), %edx
 397 02ee 893424   		movl	%esi, (%esp)
 398 02f1 89442408 		movl	%eax, 8(%esp)
 399              	LVL30:
 400 02f5 8B450C   		movl	12(%ebp), %eax
 401              	LVL31:
 402 02f8 89442404 		movl	%eax, 4(%esp)
 403 02fc FF929001 		call	*400(%edx)
 403      0000
 404 0302 8845E1   		movb	%al, -31(%ebp)
GAS LISTING /cygdrive/c/Users/THESCI~1/AppData/Local/Temp/ccu2GGTU.s 			page 20


 317:./Source/CS229_Image.c ****         fid = (*env)->GetFieldID(env,cls,"first_channel_size","I");
 405              		.loc 1 317 0
 406 0305 8B06     		movl	(%esi), %eax
 407 0307 895C2404 		movl	%ebx, 4(%esp)
 408 030b 893424   		movl	%esi, (%esp)
 409 030e C744240C 		movl	$LC3, 12(%esp)
 409      08000000 
 410 0316 C7442408 		movl	$LC6, 8(%esp)
 410      22000000 
 411 031e FF907801 		call	*376(%eax)
 411      0000
 318:./Source/CS229_Image.c ****         pic.first_channel.blackwhite_channel_size = (uint8_t)(*env)->GetIntField(env,this,fid);
 412              		.loc 1 318 0
 413 0324 8B16     		movl	(%esi), %edx
 414 0326 893424   		movl	%esi, (%esp)
 415 0329 89442408 		movl	%eax, 8(%esp)
 416              	LVL32:
 417 032d 8B450C   		movl	12(%ebp), %eax
 418              	LVL33:
 419 0330 89442404 		movl	%eax, 4(%esp)
 420 0334 FF929001 		call	*400(%edx)
 420      0000
 421 033a 8845E2   		movb	%al, -30(%ebp)
 321:./Source/CS229_Image.c ****         fid = (*env)->GetFieldID(env,cls,"second_channel_size","I");
 422              		.loc 1 321 0
 423 033d 8B06     		movl	(%esi), %eax
 424 033f 895C2404 		movl	%ebx, 4(%esp)
 425 0343 893424   		movl	%esi, (%esp)
 426 0346 C744240C 		movl	$LC3, 12(%esp)
 426      08000000 
 427 034e C7442408 		movl	$LC7, 8(%esp)
 427      35000000 
 428 0356 FF907801 		call	*376(%eax)
 428      0000
 322:./Source/CS229_Image.c ****         pic.green_channel_size = (uint8_t)(*env)->GetIntField(env,this,fid);
 429              		.loc 1 322 0
 430 035c 8B16     		movl	(%esi), %edx
 431 035e 893424   		movl	%esi, (%esp)
 432 0361 89442408 		movl	%eax, 8(%esp)
 433              	LVL34:
 434 0365 8B450C   		movl	12(%ebp), %eax
 435              	LVL35:
 436 0368 89442404 		movl	%eax, 4(%esp)
 437 036c FF929001 		call	*400(%edx)
 437      0000
 438 0372 8845E3   		movb	%al, -29(%ebp)
 325:./Source/CS229_Image.c ****         fid = (*env)->GetFieldID(env,cls,"third_channel_size","I");
 439              		.loc 1 325 0
 440 0375 8B06     		movl	(%esi), %eax
 441 0377 895C2404 		movl	%ebx, 4(%esp)
 442 037b 893424   		movl	%esi, (%esp)
 443 037e C744240C 		movl	$LC3, 12(%esp)
 443      08000000 
 444 0386 C7442408 		movl	$LC8, 8(%esp)
 444      49000000 
 445 038e FF907801 		call	*376(%eax)
 445      0000
GAS LISTING /cygdrive/c/Users/THESCI~1/AppData/Local/Temp/ccu2GGTU.s 			page 21


 326:./Source/CS229_Image.c ****         pic.blue_channel_size = (uint8_t)(*env)->GetIntField(env,this,fid);
 446              		.loc 1 326 0
 447 0394 8B16     		movl	(%esi), %edx
 448 0396 893424   		movl	%esi, (%esp)
 449 0399 89442408 		movl	%eax, 8(%esp)
 450              	LVL36:
 451 039d 8B450C   		movl	12(%ebp), %eax
 452              	LVL37:
 453 03a0 89442404 		movl	%eax, 4(%esp)
 454 03a4 FF929001 		call	*400(%edx)
 454      0000
 455 03aa 8845E4   		movb	%al, -28(%ebp)
 329:./Source/CS229_Image.c ****         fid = (*env)->GetFieldID(env,cls,"width","I");
 456              		.loc 1 329 0
 457 03ad 8B06     		movl	(%esi), %eax
 458 03af 895C2404 		movl	%ebx, 4(%esp)
 459 03b3 893424   		movl	%esi, (%esp)
 460 03b6 C744240C 		movl	$LC3, 12(%esp)
 460      08000000 
 461 03be C7442408 		movl	$LC9, 8(%esp)
 461      5C000000 
 462 03c6 FF907801 		call	*376(%eax)
 462      0000
 330:./Source/CS229_Image.c ****         pic.width.value = (uint32_t)(*env)->GetIntField(env,this,fid);
 463              		.loc 1 330 0
 464 03cc 8B16     		movl	(%esi), %edx
 465 03ce 893424   		movl	%esi, (%esp)
 466 03d1 89442408 		movl	%eax, 8(%esp)
 467              	LVL38:
 468 03d5 8B450C   		movl	12(%ebp), %eax
 469              	LVL39:
 470 03d8 89442404 		movl	%eax, 4(%esp)
 471 03dc FF929001 		call	*400(%edx)
 471      0000
 472 03e2 8945EC   		movl	%eax, -20(%ebp)
 333:./Source/CS229_Image.c ****         fid = (*env)->GetFieldID(env,cls,"height","I");
 473              		.loc 1 333 0
 474 03e5 8B06     		movl	(%esi), %eax
 475 03e7 895C2404 		movl	%ebx, 4(%esp)
 476 03eb 893424   		movl	%esi, (%esp)
 477 03ee C744240C 		movl	$LC3, 12(%esp)
 477      08000000 
 478 03f6 C7442408 		movl	$LC10, 8(%esp)
 478      62000000 
 479 03fe FF907801 		call	*376(%eax)
 479      0000
 334:./Source/CS229_Image.c ****         pic.height.value = (uint32_t)(*env)->GetIntField(env,this,fid);
 480              		.loc 1 334 0
 481 0404 8B16     		movl	(%esi), %edx
 482 0406 893424   		movl	%esi, (%esp)
 483 0409 89442408 		movl	%eax, 8(%esp)
 484              	LVL40:
 485 040d 8B450C   		movl	12(%ebp), %eax
 486              	LVL41:
 487 0410 89442404 		movl	%eax, 4(%esp)
 488 0414 FF929001 		call	*400(%edx)
 488      0000
GAS LISTING /cygdrive/c/Users/THESCI~1/AppData/Local/Temp/ccu2GGTU.s 			page 22


 489 041a 8945E8   		movl	%eax, -24(%ebp)
 337:./Source/CS229_Image.c ****         fid = (*env)->GetFieldID(env,cls,"data","I");
 490              		.loc 1 337 0
 491 041d 8B06     		movl	(%esi), %eax
 492 041f 895C2404 		movl	%ebx, 4(%esp)
 493 0423 893424   		movl	%esi, (%esp)
 494 0426 C744240C 		movl	$LC3, 12(%esp)
 494      08000000 
 495 042e C7442408 		movl	$LC11, 8(%esp)
 495      69000000 
 496 0436 FF907801 		call	*376(%eax)
 496      0000
 338:./Source/CS229_Image.c ****         pic.data = (uint8_t*)(*env)->GetIntField(env,this,fid);
 497              		.loc 1 338 0
 498 043c 8B16     		movl	(%esi), %edx
 499 043e 893424   		movl	%esi, (%esp)
 500 0441 89442408 		movl	%eax, 8(%esp)
 501              	LVL42:
 502 0445 8B450C   		movl	12(%ebp), %eax
 503              	LVL43:
 504 0448 89442404 		movl	%eax, 4(%esp)
 505 044c FF929001 		call	*400(%edx)
 505      0000
 506              	LBE2:
 342:./Source/CS229_Image.c ****     i = convolute_this(loc,&pic);
 507              		.loc 1 342 0
 508 0452 893C24   		movl	%edi, (%esp)
 509              	LBB3:
 338:./Source/CS229_Image.c ****         pic.data = (uint8_t*)(*env)->GetIntField(env,this,fid);
 510              		.loc 1 338 0
 511 0455 8945F0   		movl	%eax, -16(%ebp)
 512              	LBE3:
 342:./Source/CS229_Image.c ****     i = convolute_this(loc,&pic);
 513              		.loc 1 342 0
 514 0458 8D45E0   		leal	-32(%ebp), %eax
 515 045b 89442404 		movl	%eax, 4(%esp)
 516 045f E8BCFBFF 		call	_convolute_this
 516      FF
 350:./Source/CS229_Image.c **** }
 517              		.loc 1 350 0
 518 0464 81C43C01 		addl	$316, %esp
 518      0000
 519 046a 5B       		popl	%ebx
 520              	LVL44:
 521 046b 5E       		popl	%esi
 522              	LVL45:
 523 046c 5F       		popl	%edi
 524 046d 5D       		popl	%ebp
 525 046e C3       		ret
 526              	LFE8:
 527 046f 90       		.p2align 4,,15
 528              	.globl _Java_CS229_1Image_Free
 530              	_Java_CS229_1Image_Free:
 531              	LFB10:
 444:./Source/CS229_Image.c **** {
 532              		.loc 1 444 0
 533              	LVL46:
GAS LISTING /cygdrive/c/Users/THESCI~1/AppData/Local/Temp/ccu2GGTU.s 			page 23


 534 0470 55       		pushl	%ebp
 535              	LCFI15:
 536 0471 89E5     		movl	%esp, %ebp
 537              	LCFI16:
 538 0473 56       		pushl	%esi
 539              	LCFI17:
 540 0474 53       		pushl	%ebx
 541              	LCFI18:
 542 0475 83EC10   		subl	$16, %esp
 543              	LCFI19:
 444:./Source/CS229_Image.c **** {
 544              		.loc 1 444 0
 545 0478 8B5D08   		movl	8(%ebp), %ebx
 546 047b 8B750C   		movl	12(%ebp), %esi
 547              	LBB4:
 455:./Source/CS229_Image.c ****         cls = (*env)->GetObjectClass(env,this);
 548              		.loc 1 455 0
 549 047e 8B03     		movl	(%ebx), %eax
 550 0480 89742404 		movl	%esi, 4(%esp)
 551 0484 891C24   		movl	%ebx, (%esp)
 552 0487 FF507C   		call	*124(%eax)
 458:./Source/CS229_Image.c ****         fid = (*env)->GetFieldID(env,cls,"data","I");
 553              		.loc 1 458 0
 554 048a 8B13     		movl	(%ebx), %edx
 555 048c 891C24   		movl	%ebx, (%esp)
 556 048f C744240C 		movl	$LC3, 12(%esp)
 556      08000000 
 557 0497 C7442408 		movl	$LC11, 8(%esp)
 557      69000000 
 558 049f 89442404 		movl	%eax, 4(%esp)
 559              	LVL47:
 560 04a3 FF927801 		call	*376(%edx)
 560      0000
 561              	LVL48:
 459:./Source/CS229_Image.c ****         data = (uint8_t*)(*env)->GetIntField(env,this,fid);
 562              		.loc 1 459 0
 563 04a9 8B13     		movl	(%ebx), %edx
 564 04ab 89742404 		movl	%esi, 4(%esp)
 565 04af 891C24   		movl	%ebx, (%esp)
 566 04b2 89442408 		movl	%eax, 8(%esp)
 567              	LVL49:
 568 04b6 FF929001 		call	*400(%edx)
 568      0000
 569              	LVL50:
 570              	LBE4:
 463:./Source/CS229_Image.c ****     free((void*)data);
 571              		.loc 1 463 0
 572 04bc 890424   		movl	%eax, (%esp)
 573 04bf E8000000 		call	_free
 573      00
 466:./Source/CS229_Image.c **** }
 574              		.loc 1 466 0
 575 04c4 83C410   		addl	$16, %esp
 576 04c7 31C0     		xorl	%eax, %eax
 577 04c9 5B       		popl	%ebx
 578 04ca 5E       		popl	%esi
 579 04cb 5D       		popl	%ebp
GAS LISTING /cygdrive/c/Users/THESCI~1/AppData/Local/Temp/ccu2GGTU.s 			page 24


 580 04cc C3       		ret
 581              	LFE10:
 582 04cd 8D7600   		.p2align 4,,15
 583              	.globl _Java_CS229_1Image_GetPixel
 585              	_Java_CS229_1Image_GetPixel:
 586              	LFB9:
 355:./Source/CS229_Image.c **** {
 587              		.loc 1 355 0
 588              	LVL51:
 589 04d0 55       		pushl	%ebp
 590              	LCFI20:
 591 04d1 89E5     		movl	%esp, %ebp
 592              	LCFI21:
 593 04d3 57       		pushl	%edi
 594              	LCFI22:
 595 04d4 56       		pushl	%esi
 596              	LCFI23:
 597 04d5 53       		pushl	%ebx
 598              	LCFI24:
 599 04d6 83EC3C   		subl	$60, %esp
 600              	LCFI25:
 355:./Source/CS229_Image.c **** {
 601              		.loc 1 355 0
 602 04d9 8B7508   		movl	8(%ebp), %esi
 603 04dc 8B7D0C   		movl	12(%ebp), %edi
 604              	LBB5:
 370:./Source/CS229_Image.c ****         cls = (*env)->GetObjectClass(env,this);
 605              		.loc 1 370 0
 606 04df 8B06     		movl	(%esi), %eax
 607 04e1 897C2404 		movl	%edi, 4(%esp)
 608 04e5 893424   		movl	%esi, (%esp)
 609 04e8 FF507C   		call	*124(%eax)
 610 04eb 89C3     		movl	%eax, %ebx
 611              	LVL52:
 371:./Source/CS229_Image.c ****         fid = (*env)->GetFieldID(env,cls,"magic_number","I");
 612              		.loc 1 371 0
 613 04ed 8B06     		movl	(%esi), %eax
 614 04ef C744240C 		movl	$LC3, 12(%esp)
 614      08000000 
 615 04f7 C7442408 		movl	$LC4, 8(%esp)
 615      0A000000 
 616 04ff 895C2404 		movl	%ebx, 4(%esp)
 617 0503 893424   		movl	%esi, (%esp)
 618 0506 FF907801 		call	*376(%eax)
 618      0000
 372:./Source/CS229_Image.c ****         pic.magic_number = (uint8_t)(*env)->GetIntField(env,this,fid);
 619              		.loc 1 372 0
 620 050c 8B16     		movl	(%esi), %edx
 621 050e 897C2404 		movl	%edi, 4(%esp)
 622 0512 893424   		movl	%esi, (%esp)
 623 0515 89442408 		movl	%eax, 8(%esp)
 624              	LVL53:
 625 0519 FF929001 		call	*400(%edx)
 625      0000
 626              	LVL54:
 627 051f 8845D4   		movb	%al, -44(%ebp)
 375:./Source/CS229_Image.c ****         fid = (*env)->GetFieldID(env,cls,"color_mode","I");
GAS LISTING /cygdrive/c/Users/THESCI~1/AppData/Local/Temp/ccu2GGTU.s 			page 25


 628              		.loc 1 375 0
 629 0522 8B06     		movl	(%esi), %eax
 630 0524 C744240C 		movl	$LC3, 12(%esp)
 630      08000000 
 631 052c C7442408 		movl	$LC5, 8(%esp)
 631      17000000 
 632 0534 895C2404 		movl	%ebx, 4(%esp)
 633 0538 893424   		movl	%esi, (%esp)
 634 053b FF907801 		call	*376(%eax)
 634      0000
 376:./Source/CS229_Image.c ****         pic.color_mode = (uint8_t)(*env)->GetIntField(env,this,fid);
 635              		.loc 1 376 0
 636 0541 8B16     		movl	(%esi), %edx
 637 0543 897C2404 		movl	%edi, 4(%esp)
 638 0547 893424   		movl	%esi, (%esp)
 639 054a 89442408 		movl	%eax, 8(%esp)
 640              	LVL55:
 641 054e FF929001 		call	*400(%edx)
 641      0000
 642              	LVL56:
 379:./Source/CS229_Image.c ****         len = (*env)->GetArrayLength(env,color);
 643              		.loc 1 379 0
 644 0554 8B5518   		movl	24(%ebp), %edx
 376:./Source/CS229_Image.c ****         pic.color_mode = (uint8_t)(*env)->GetIntField(env,this,fid);
 645              		.loc 1 376 0
 646 0557 8845D5   		movb	%al, -43(%ebp)
 379:./Source/CS229_Image.c ****         len = (*env)->GetArrayLength(env,color);
 647              		.loc 1 379 0
 648 055a 8B06     		movl	(%esi), %eax
 649 055c 89542404 		movl	%edx, 4(%esp)
 650 0560 893424   		movl	%esi, (%esp)
 651 0563 FF90AC02 		call	*684(%eax)
 651      0000
 382:./Source/CS229_Image.c ****         if(len < (pic.color_mode == MODE_COLOR ? 3 : 1))
 652              		.loc 1 382 0
 653 0569 31D2     		xorl	%edx, %edx
 654 056b B9040000 		movl	$4, %ecx
 654      00
 655 0570 807DD5FF 		cmpb	$-1, -43(%ebp)
 656 0574 0F94C2   		sete	%dl
 657 0577 8D541201 		leal	1(%edx,%edx), %edx
 658 057b 39C2     		cmpl	%eax, %edx
 659              	LVL57:
 660 057d 7E11     		jle	L46
 661              	LVL58:
 662              	L39:
 663              	LBE5:
 439:./Source/CS229_Image.c **** }
 664              		.loc 1 439 0
 665 057f 83C43C   		addl	$60, %esp
 666 0582 89C8     		movl	%ecx, %eax
 667              	LVL59:
 668 0584 5B       		popl	%ebx
 669              	LVL60:
 670 0585 5E       		popl	%esi
 671              	LVL61:
 672 0586 5F       		popl	%edi
GAS LISTING /cygdrive/c/Users/THESCI~1/AppData/Local/Temp/ccu2GGTU.s 			page 26


 673 0587 5D       		popl	%ebp
 674 0588 C3       		ret
 675              	LVL62:
 676 0589 8DB42600 		.p2align 4,,7
 676      000000
 677              	L46:
 678              	LBB6:
 386:./Source/CS229_Image.c ****         fid = (*env)->GetFieldID(env,cls,"first_channel_size","I");
 679              		.loc 1 386 0
 680 0590 8B06     		movl	(%esi), %eax
 681              	LVL63:
 682 0592 895C2404 		movl	%ebx, 4(%esp)
 683 0596 C744240C 		movl	$LC3, 12(%esp)
 683      08000000 
 684 059e C7442408 		movl	$LC6, 8(%esp)
 684      22000000 
 685 05a6 893424   		movl	%esi, (%esp)
 686 05a9 FF907801 		call	*376(%eax)
 686      0000
 387:./Source/CS229_Image.c ****         pic.first_channel.blackwhite_channel_size = (uint8_t)(*env)->GetIntField(env,this,fid);
 687              		.loc 1 387 0
 688 05af 8B16     		movl	(%esi), %edx
 689 05b1 897C2404 		movl	%edi, 4(%esp)
 690 05b5 893424   		movl	%esi, (%esp)
 691 05b8 89442408 		movl	%eax, 8(%esp)
 692              	LVL64:
 693 05bc FF929001 		call	*400(%edx)
 693      0000
 694              	LVL65:
 695 05c2 8845D6   		movb	%al, -42(%ebp)
 390:./Source/CS229_Image.c ****         fid = (*env)->GetFieldID(env,cls,"second_channel_size","I");
 696              		.loc 1 390 0
 697 05c5 8B06     		movl	(%esi), %eax
 698 05c7 895C2404 		movl	%ebx, 4(%esp)
 699 05cb C744240C 		movl	$LC3, 12(%esp)
 699      08000000 
 700 05d3 C7442408 		movl	$LC7, 8(%esp)
 700      35000000 
 701 05db 893424   		movl	%esi, (%esp)
 702 05de FF907801 		call	*376(%eax)
 702      0000
 391:./Source/CS229_Image.c ****         pic.green_channel_size = (uint8_t)(*env)->GetIntField(env,this,fid);
 703              		.loc 1 391 0
 704 05e4 8B16     		movl	(%esi), %edx
 705 05e6 897C2404 		movl	%edi, 4(%esp)
 706 05ea 893424   		movl	%esi, (%esp)
 707 05ed 89442408 		movl	%eax, 8(%esp)
 708              	LVL66:
 709 05f1 FF929001 		call	*400(%edx)
 709      0000
 710              	LVL67:
 711 05f7 8845D7   		movb	%al, -41(%ebp)
 394:./Source/CS229_Image.c ****         fid = (*env)->GetFieldID(env,cls,"third_channel_size","I");
 712              		.loc 1 394 0
 713 05fa 8B06     		movl	(%esi), %eax
 714 05fc 895C2404 		movl	%ebx, 4(%esp)
 715 0600 C744240C 		movl	$LC3, 12(%esp)
GAS LISTING /cygdrive/c/Users/THESCI~1/AppData/Local/Temp/ccu2GGTU.s 			page 27


 715      08000000 
 716 0608 C7442408 		movl	$LC8, 8(%esp)
 716      49000000 
 717 0610 893424   		movl	%esi, (%esp)
 718 0613 FF907801 		call	*376(%eax)
 718      0000
 395:./Source/CS229_Image.c ****         pic.blue_channel_size = (uint8_t)(*env)->GetIntField(env,this,fid);
 719              		.loc 1 395 0
 720 0619 8B16     		movl	(%esi), %edx
 721 061b 897C2404 		movl	%edi, 4(%esp)
 722 061f 893424   		movl	%esi, (%esp)
 723 0622 89442408 		movl	%eax, 8(%esp)
 724              	LVL68:
 725 0626 FF929001 		call	*400(%edx)
 725      0000
 726              	LVL69:
 727 062c 8845D8   		movb	%al, -40(%ebp)
 398:./Source/CS229_Image.c ****         fid = (*env)->GetFieldID(env,cls,"width","I");
 728              		.loc 1 398 0
 729 062f 8B06     		movl	(%esi), %eax
 730 0631 895C2404 		movl	%ebx, 4(%esp)
 731 0635 C744240C 		movl	$LC3, 12(%esp)
 731      08000000 
 732 063d C7442408 		movl	$LC9, 8(%esp)
 732      5C000000 
 733 0645 893424   		movl	%esi, (%esp)
 734 0648 FF907801 		call	*376(%eax)
 734      0000
 399:./Source/CS229_Image.c ****         pic.width.value = (uint32_t)(*env)->GetIntField(env,this,fid);
 735              		.loc 1 399 0
 736 064e 8B16     		movl	(%esi), %edx
 737 0650 897C2404 		movl	%edi, 4(%esp)
 738 0654 893424   		movl	%esi, (%esp)
 739 0657 89442408 		movl	%eax, 8(%esp)
 740              	LVL70:
 741 065b FF929001 		call	*400(%edx)
 741      0000
 742              	LVL71:
 743 0661 8945E0   		movl	%eax, -32(%ebp)
 402:./Source/CS229_Image.c ****         fid = (*env)->GetFieldID(env,cls,"height","I");
 744              		.loc 1 402 0
 745 0664 8B06     		movl	(%esi), %eax
 746 0666 895C2404 		movl	%ebx, 4(%esp)
 747 066a C744240C 		movl	$LC3, 12(%esp)
 747      08000000 
 748 0672 C7442408 		movl	$LC10, 8(%esp)
 748      62000000 
 749 067a 893424   		movl	%esi, (%esp)
 750 067d FF907801 		call	*376(%eax)
 750      0000
 403:./Source/CS229_Image.c ****         pic.height.value = (uint32_t)(*env)->GetIntField(env,this,fid);
 751              		.loc 1 403 0
 752 0683 8B16     		movl	(%esi), %edx
 753 0685 897C2404 		movl	%edi, 4(%esp)
 754 0689 893424   		movl	%esi, (%esp)
 755 068c 89442408 		movl	%eax, 8(%esp)
 756              	LVL72:
GAS LISTING /cygdrive/c/Users/THESCI~1/AppData/Local/Temp/ccu2GGTU.s 			page 28


 757 0690 FF929001 		call	*400(%edx)
 757      0000
 758              	LVL73:
 759 0696 8945DC   		movl	%eax, -36(%ebp)
 406:./Source/CS229_Image.c ****         fid = (*env)->GetFieldID(env,cls,"data","I");
 760              		.loc 1 406 0
 761 0699 8B06     		movl	(%esi), %eax
 762 069b 895C2404 		movl	%ebx, 4(%esp)
 763              	LBE6:
 411:./Source/CS229_Image.c ****     pos = coordinate_to_linear_address(&pic,(uint32_t)x,(uint32_t)y);
 764              		.loc 1 411 0
 765 069f 8D5DD4   		leal	-44(%ebp), %ebx
 766              	LVL74:
 767              	LBB7:
 406:./Source/CS229_Image.c ****         fid = (*env)->GetFieldID(env,cls,"data","I");
 768              		.loc 1 406 0
 769 06a2 C744240C 		movl	$LC3, 12(%esp)
 769      08000000 
 770 06aa C7442408 		movl	$LC11, 8(%esp)
 770      69000000 
 771 06b2 893424   		movl	%esi, (%esp)
 772 06b5 FF907801 		call	*376(%eax)
 772      0000
 407:./Source/CS229_Image.c ****         pic.data = (uint8_t*)(*env)->GetIntField(env,this,fid);
 773              		.loc 1 407 0
 774 06bb 8B16     		movl	(%esi), %edx
 775 06bd 897C2404 		movl	%edi, 4(%esp)
 776              	LBE7:
 414:./Source/CS229_Image.c ****     err = get_pixel(&pic,pos,ret_color);
 777              		.loc 1 414 0
 778 06c1 8D7DE8   		leal	-24(%ebp), %edi
 779              	LVL75:
 780              	LBB8:
 407:./Source/CS229_Image.c ****         pic.data = (uint8_t*)(*env)->GetIntField(env,this,fid);
 781              		.loc 1 407 0
 782 06c4 893424   		movl	%esi, (%esp)
 783 06c7 89442408 		movl	%eax, 8(%esp)
 784              	LVL76:
 785 06cb FF929001 		call	*400(%edx)
 785      0000
 786              	LVL77:
 787 06d1 8945E4   		movl	%eax, -28(%ebp)
 788              	LBE8:
 411:./Source/CS229_Image.c ****     pos = coordinate_to_linear_address(&pic,(uint32_t)x,(uint32_t)y);
 789              		.loc 1 411 0
 790 06d4 8B4514   		movl	20(%ebp), %eax
 791 06d7 89442408 		movl	%eax, 8(%esp)
 792 06db 8B5510   		movl	16(%ebp), %edx
 793 06de 891C24   		movl	%ebx, (%esp)
 794 06e1 89542404 		movl	%edx, 4(%esp)
 795 06e5 E8000000 		call	_coordinate_to_linear_address
 795      00
 414:./Source/CS229_Image.c ****     err = get_pixel(&pic,pos,ret_color);
 796              		.loc 1 414 0
 797 06ea 897C2408 		movl	%edi, 8(%esp)
 798 06ee 891C24   		movl	%ebx, (%esp)
 799 06f1 89442404 		movl	%eax, 4(%esp)
GAS LISTING /cygdrive/c/Users/THESCI~1/AppData/Local/Temp/ccu2GGTU.s 			page 29


 800              	LVL78:
 801 06f5 E8000000 		call	_get_pixel
 801      00
 802              	LVL79:
 417:./Source/CS229_Image.c ****     if(err)
 803              		.loc 1 417 0
 804 06fa 85C0     		testl	%eax, %eax
 418:./Source/CS229_Image.c ****         return err;
 805              		.loc 1 418 0
 806 06fc 89C1     		movl	%eax, %ecx
 807              	LVL80:
 417:./Source/CS229_Image.c ****     if(err)
 808              		.loc 1 417 0
 809 06fe 0F857BFE 		jne	L39
 809      FFFF
 810              	LVL81:
 811              	LBB9:
 427:./Source/CS229_Image.c ****         orig = (*env)->GetIntArrayElements(env,color,0);
 812              		.loc 1 427 0
 813 0704 8B06     		movl	(%esi), %eax
 814              	LVL82:
 815 0706 C7442408 		movl	$0, 8(%esp)
 815      00000000 
 816 070e 8B5518   		movl	24(%ebp), %edx
 817 0711 893424   		movl	%esi, (%esp)
 818 0714 89542404 		movl	%edx, 4(%esp)
 819 0718 FF90EC02 		call	*748(%eax)
 819      0000
 820 071e 31D2     		xorl	%edx, %edx
 821              	LVL83:
 822 0720 89C1     		movl	%eax, %ecx
 823              	LVL84:
 824              	L41:
 430:./Source/CS229_Image.c ****         for(i = 0;i < (pic.color_mode == MODE_COLOR ? 3 : 1);i++)
 825              		.loc 1 430 0
 826 0722 31C0     		xorl	%eax, %eax
 827 0724 807DD5FF 		cmpb	$-1, -43(%ebp)
 828 0728 0F94C0   		sete	%al
 829 072b 8D440001 		leal	1(%eax,%eax), %eax
 830 072f 39C2     		cmpl	%eax, %edx
 831 0731 730D     		jae	L47
 431:./Source/CS229_Image.c ****             orig[i] = ret_color[i];
 832              		.loc 1 431 0
 833 0733 8B0497   		movl	(%edi,%edx,4), %eax
 834 0736 890491   		movl	%eax, (%ecx,%edx,4)
 430:./Source/CS229_Image.c ****         for(i = 0;i < (pic.color_mode == MODE_COLOR ? 3 : 1);i++)
 835              		.loc 1 430 0
 836 0739 83C201   		addl	$1, %edx
 837 073c EBE4     		jmp	L41
 838 073e 6690     		.p2align 4,,7
 839              	L47:
 434:./Source/CS229_Image.c ****         (*env)->ReleaseIntArrayElements(env,color,orig,0);
 840              		.loc 1 434 0
 841 0740 8B06     		movl	(%esi), %eax
 842 0742 894C2408 		movl	%ecx, 8(%esp)
 843 0746 C744240C 		movl	$0, 12(%esp)
 843      00000000 
GAS LISTING /cygdrive/c/Users/THESCI~1/AppData/Local/Temp/ccu2GGTU.s 			page 30


 844 074e 8B5518   		movl	24(%ebp), %edx
 845              	LVL85:
 846 0751 893424   		movl	%esi, (%esp)
 847 0754 89542404 		movl	%edx, 4(%esp)
 848 0758 FF900C03 		call	*780(%eax)
 848      0000
 849              	LVL86:
 850 075e 31C9     		xorl	%ecx, %ecx
 851              	LBE9:
 439:./Source/CS229_Image.c **** }
 852              		.loc 1 439 0
 853 0760 83C43C   		addl	$60, %esp
 854 0763 89C8     		movl	%ecx, %eax
 855 0765 5B       		popl	%ebx
 856 0766 5E       		popl	%esi
 857              	LVL87:
 858 0767 5F       		popl	%edi
 859 0768 5D       		popl	%ebp
 860 0769 C3       		ret
 861              	LFE9:
 862              		.section .rdata,"dr"
 863              	LC12:
 864 006e 7700     		.ascii "w\0"
 865              		.text
 866 076a 8DB60000 		.p2align 4,,15
 866      0000
 867              	.globl _Java_CS229_1Image_Save
 869              	_Java_CS229_1Image_Save:
 870              	LFB7:
 191:./Source/CS229_Image.c **** {
 871              		.loc 1 191 0
 872              	LVL88:
 873 0770 55       		pushl	%ebp
 874              	LCFI26:
 875 0771 89E5     		movl	%esp, %ebp
 876              	LCFI27:
 877 0773 57       		pushl	%edi
 878              	LCFI28:
 879 0774 56       		pushl	%esi
 880              	LCFI29:
 881 0775 53       		pushl	%ebx
 882              	LCFI30:
 883 0776 81EC3C01 		subl	$316, %esp
 883      0000
 884              	LCFI31:
 191:./Source/CS229_Image.c **** {
 885              		.loc 1 191 0
 886 077c 8B7508   		movl	8(%ebp), %esi
 201:./Source/CS229_Image.c ****     len = (*env)->GetArrayLength(env,file);
 887              		.loc 1 201 0
 888 077f 8B5510   		movl	16(%ebp), %edx
 889 0782 8DBDDCFE 		leal	-292(%ebp), %edi
 889      FFFF
 890 0788 8B06     		movl	(%esi), %eax
 891 078a 89542404 		movl	%edx, 4(%esp)
 892 078e 893424   		movl	%esi, (%esp)
 893 0791 FF90AC02 		call	*684(%eax)
GAS LISTING /cygdrive/c/Users/THESCI~1/AppData/Local/Temp/ccu2GGTU.s 			page 31


 893      0000
 202:./Source/CS229_Image.c ****     arr = (*env)->GetCharArrayElements(env,file,0);
 894              		.loc 1 202 0
 895 0797 8B5510   		movl	16(%ebp), %edx
 201:./Source/CS229_Image.c ****     len = (*env)->GetArrayLength(env,file);
 896              		.loc 1 201 0
 897 079a 89C3     		movl	%eax, %ebx
 898              	LVL89:
 202:./Source/CS229_Image.c ****     arr = (*env)->GetCharArrayElements(env,file,0);
 899              		.loc 1 202 0
 900 079c 8B06     		movl	(%esi), %eax
 901 079e C7442408 		movl	$0, 8(%esp)
 901      00000000 
 902 07a6 89542404 		movl	%edx, 4(%esp)
 903 07aa 893424   		movl	%esi, (%esp)
 904 07ad FF90E402 		call	*740(%eax)
 904      0000
 205:./Source/CS229_Image.c ****     for(i = 0;i < len;i++)
 905              		.loc 1 205 0
 906 07b3 85DB     		testl	%ebx, %ebx
 202:./Source/CS229_Image.c ****     arr = (*env)->GetCharArrayElements(env,file,0);
 907              		.loc 1 202 0
 908 07b5 89C1     		movl	%eax, %ecx
 909              	LVL90:
 205:./Source/CS229_Image.c ****     for(i = 0;i < len;i++)
 910              		.loc 1 205 0
 911 07b7 7415     		je	L49
 912              	LVL91:
 913 07b9 31D2     		xorl	%edx, %edx
 914              	LVL92:
 915 07bb 908D7426 		.p2align 4,,7
 915      00
 916              	L50:
 206:./Source/CS229_Image.c ****         loc[i] = arr[i];
 917              		.loc 1 206 0
 918 07c0 0FB70451 		movzwl	(%ecx,%edx,2), %eax
 919 07c4 880417   		movb	%al, (%edi,%edx)
 205:./Source/CS229_Image.c ****     for(i = 0;i < len;i++)
 920              		.loc 1 205 0
 921 07c7 83C201   		addl	$1, %edx
 922 07ca 39DA     		cmpl	%ebx, %edx
 923 07cc 72F2     		jb	L50
 924              	L49:
 209:./Source/CS229_Image.c ****     loc[i] = '\0';
 925              		.loc 1 209 0
 926 07ce C6841DDC 		movb	$0, -292(%ebp,%ebx)
 926      FEFFFF00 
 212:./Source/CS229_Image.c ****     (*env)->ReleaseCharArrayElements(env,file,arr,0);
 927              		.loc 1 212 0
 928 07d6 8B06     		movl	(%esi), %eax
 929 07d8 8B5510   		movl	16(%ebp), %edx
 930              	LVL93:
 931 07db 894C2408 		movl	%ecx, 8(%esp)
 932 07df C744240C 		movl	$0, 12(%esp)
 932      00000000 
 933 07e7 893424   		movl	%esi, (%esp)
 934 07ea 89542404 		movl	%edx, 4(%esp)
GAS LISTING /cygdrive/c/Users/THESCI~1/AppData/Local/Temp/ccu2GGTU.s 			page 32


 935 07ee FF900403 		call	*772(%eax)
 935      0000
 936              	LVL94:
 937              	LBB10:
 221:./Source/CS229_Image.c ****         cls = (*env)->GetObjectClass(env,this);
 938              		.loc 1 221 0
 939 07f4 8B550C   		movl	12(%ebp), %edx
 940 07f7 8B06     		movl	(%esi), %eax
 941 07f9 893424   		movl	%esi, (%esp)
 942 07fc 89542404 		movl	%edx, 4(%esp)
 943 0800 FF507C   		call	*124(%eax)
 944 0803 89C3     		movl	%eax, %ebx
 945              	LVL95:
 222:./Source/CS229_Image.c ****         fid = (*env)->GetFieldID(env,cls,"magic_number","I");
 946              		.loc 1 222 0
 947 0805 8B06     		movl	(%esi), %eax
 948 0807 895C2404 		movl	%ebx, 4(%esp)
 949 080b C744240C 		movl	$LC3, 12(%esp)
 949      08000000 
 950 0813 C7442408 		movl	$LC4, 8(%esp)
 950      0A000000 
 951 081b 893424   		movl	%esi, (%esp)
 952 081e FF907801 		call	*376(%eax)
 952      0000
 223:./Source/CS229_Image.c ****         pic.magic_number = (uint8_t)(*env)->GetIntField(env,this,fid);
 953              		.loc 1 223 0
 954 0824 8B16     		movl	(%esi), %edx
 955 0826 893424   		movl	%esi, (%esp)
 956 0829 89442408 		movl	%eax, 8(%esp)
 957              	LVL96:
 958 082d 8B450C   		movl	12(%ebp), %eax
 959              	LVL97:
 960 0830 89442404 		movl	%eax, 4(%esp)
 961 0834 FF929001 		call	*400(%edx)
 961      0000
 962 083a 8845E0   		movb	%al, -32(%ebp)
 226:./Source/CS229_Image.c ****         fid = (*env)->GetFieldID(env,cls,"color_mode","I");
 963              		.loc 1 226 0
 964 083d 8B06     		movl	(%esi), %eax
 965 083f 895C2404 		movl	%ebx, 4(%esp)
 966 0843 C744240C 		movl	$LC3, 12(%esp)
 966      08000000 
 967 084b C7442408 		movl	$LC5, 8(%esp)
 967      17000000 
 968 0853 893424   		movl	%esi, (%esp)
 969 0856 FF907801 		call	*376(%eax)
 969      0000
 227:./Source/CS229_Image.c ****         pic.color_mode = (uint8_t)(*env)->GetIntField(env,this,fid);
 970              		.loc 1 227 0
 971 085c 8B16     		movl	(%esi), %edx
 972 085e 893424   		movl	%esi, (%esp)
 973 0861 89442408 		movl	%eax, 8(%esp)
 974              	LVL98:
 975 0865 8B450C   		movl	12(%ebp), %eax
 976              	LVL99:
 977 0868 89442404 		movl	%eax, 4(%esp)
 978 086c FF929001 		call	*400(%edx)
GAS LISTING /cygdrive/c/Users/THESCI~1/AppData/Local/Temp/ccu2GGTU.s 			page 33


 978      0000
 979 0872 8845E1   		movb	%al, -31(%ebp)
 230:./Source/CS229_Image.c ****         fid = (*env)->GetFieldID(env,cls,"first_channel_size","I");
 980              		.loc 1 230 0
 981 0875 8B06     		movl	(%esi), %eax
 982 0877 895C2404 		movl	%ebx, 4(%esp)
 983 087b C744240C 		movl	$LC3, 12(%esp)
 983      08000000 
 984 0883 C7442408 		movl	$LC6, 8(%esp)
 984      22000000 
 985 088b 893424   		movl	%esi, (%esp)
 986 088e FF907801 		call	*376(%eax)
 986      0000
 231:./Source/CS229_Image.c ****         pic.first_channel.blackwhite_channel_size = (uint8_t)(*env)->GetIntField(env,this,fid);
 987              		.loc 1 231 0
 988 0894 8B16     		movl	(%esi), %edx
 989 0896 893424   		movl	%esi, (%esp)
 990 0899 89442408 		movl	%eax, 8(%esp)
 991              	LVL100:
 992 089d 8B450C   		movl	12(%ebp), %eax
 993              	LVL101:
 994 08a0 89442404 		movl	%eax, 4(%esp)
 995 08a4 FF929001 		call	*400(%edx)
 995      0000
 996 08aa 8845E2   		movb	%al, -30(%ebp)
 234:./Source/CS229_Image.c ****         fid = (*env)->GetFieldID(env,cls,"second_channel_size","I");
 997              		.loc 1 234 0
 998 08ad 8B06     		movl	(%esi), %eax
 999 08af 895C2404 		movl	%ebx, 4(%esp)
 1000 08b3 C744240C 		movl	$LC3, 12(%esp)
 1000      08000000 
 1001 08bb C7442408 		movl	$LC7, 8(%esp)
 1001      35000000 
 1002 08c3 893424   		movl	%esi, (%esp)
 1003 08c6 FF907801 		call	*376(%eax)
 1003      0000
 235:./Source/CS229_Image.c ****         pic.green_channel_size = (uint8_t)(*env)->GetIntField(env,this,fid);
 1004              		.loc 1 235 0
 1005 08cc 8B16     		movl	(%esi), %edx
 1006 08ce 893424   		movl	%esi, (%esp)
 1007 08d1 89442408 		movl	%eax, 8(%esp)
 1008              	LVL102:
 1009 08d5 8B450C   		movl	12(%ebp), %eax
 1010              	LVL103:
 1011 08d8 89442404 		movl	%eax, 4(%esp)
 1012 08dc FF929001 		call	*400(%edx)
 1012      0000
 1013 08e2 8845E3   		movb	%al, -29(%ebp)
 238:./Source/CS229_Image.c ****         fid = (*env)->GetFieldID(env,cls,"third_channel_size","I");
 1014              		.loc 1 238 0
 1015 08e5 8B06     		movl	(%esi), %eax
 1016 08e7 895C2404 		movl	%ebx, 4(%esp)
 1017 08eb C744240C 		movl	$LC3, 12(%esp)
 1017      08000000 
 1018 08f3 C7442408 		movl	$LC8, 8(%esp)
 1018      49000000 
 1019 08fb 893424   		movl	%esi, (%esp)
GAS LISTING /cygdrive/c/Users/THESCI~1/AppData/Local/Temp/ccu2GGTU.s 			page 34


 1020 08fe FF907801 		call	*376(%eax)
 1020      0000
 239:./Source/CS229_Image.c ****         pic.blue_channel_size = (uint8_t)(*env)->GetIntField(env,this,fid);
 1021              		.loc 1 239 0
 1022 0904 8B16     		movl	(%esi), %edx
 1023 0906 893424   		movl	%esi, (%esp)
 1024 0909 89442408 		movl	%eax, 8(%esp)
 1025              	LVL104:
 1026 090d 8B450C   		movl	12(%ebp), %eax
 1027              	LVL105:
 1028 0910 89442404 		movl	%eax, 4(%esp)
 1029 0914 FF929001 		call	*400(%edx)
 1029      0000
 1030 091a 8845E4   		movb	%al, -28(%ebp)
 242:./Source/CS229_Image.c ****         fid = (*env)->GetFieldID(env,cls,"width","I");
 1031              		.loc 1 242 0
 1032 091d 8B06     		movl	(%esi), %eax
 1033 091f 895C2404 		movl	%ebx, 4(%esp)
 1034 0923 C744240C 		movl	$LC3, 12(%esp)
 1034      08000000 
 1035 092b C7442408 		movl	$LC9, 8(%esp)
 1035      5C000000 
 1036 0933 893424   		movl	%esi, (%esp)
 1037 0936 FF907801 		call	*376(%eax)
 1037      0000
 243:./Source/CS229_Image.c ****         pic.width.value = (uint32_t)(*env)->GetIntField(env,this,fid);
 1038              		.loc 1 243 0
 1039 093c 8B16     		movl	(%esi), %edx
 1040 093e 893424   		movl	%esi, (%esp)
 1041 0941 89442408 		movl	%eax, 8(%esp)
 1042              	LVL106:
 1043 0945 8B450C   		movl	12(%ebp), %eax
 1044              	LVL107:
 1045 0948 89442404 		movl	%eax, 4(%esp)
 1046 094c FF929001 		call	*400(%edx)
 1046      0000
 1047 0952 8945EC   		movl	%eax, -20(%ebp)
 246:./Source/CS229_Image.c ****         fid = (*env)->GetFieldID(env,cls,"height","I");
 1048              		.loc 1 246 0
 1049 0955 8B06     		movl	(%esi), %eax
 1050 0957 895C2404 		movl	%ebx, 4(%esp)
 1051 095b C744240C 		movl	$LC3, 12(%esp)
 1051      08000000 
 1052 0963 C7442408 		movl	$LC10, 8(%esp)
 1052      62000000 
 1053 096b 893424   		movl	%esi, (%esp)
 1054 096e FF907801 		call	*376(%eax)
 1054      0000
 247:./Source/CS229_Image.c ****         pic.height.value = (uint32_t)(*env)->GetIntField(env,this,fid);
 1055              		.loc 1 247 0
 1056 0974 8B16     		movl	(%esi), %edx
 1057 0976 893424   		movl	%esi, (%esp)
 1058 0979 89442408 		movl	%eax, 8(%esp)
 1059              	LVL108:
 1060 097d 8B450C   		movl	12(%ebp), %eax
 1061              	LVL109:
 1062 0980 89442404 		movl	%eax, 4(%esp)
GAS LISTING /cygdrive/c/Users/THESCI~1/AppData/Local/Temp/ccu2GGTU.s 			page 35


 1063 0984 FF929001 		call	*400(%edx)
 1063      0000
 1064 098a 8945E8   		movl	%eax, -24(%ebp)
 250:./Source/CS229_Image.c ****         fid = (*env)->GetFieldID(env,cls,"data","I");
 1065              		.loc 1 250 0
 1066 098d 8B06     		movl	(%esi), %eax
 1067 098f 895C2404 		movl	%ebx, 4(%esp)
 1068 0993 C744240C 		movl	$LC3, 12(%esp)
 1068      08000000 
 1069 099b C7442408 		movl	$LC11, 8(%esp)
 1069      69000000 
 1070 09a3 893424   		movl	%esi, (%esp)
 1071 09a6 FF907801 		call	*376(%eax)
 1071      0000
 251:./Source/CS229_Image.c ****         pic.data = (uint8_t*)(*env)->GetIntField(env,this,fid);
 1072              		.loc 1 251 0
 1073 09ac 8B16     		movl	(%esi), %edx
 1074 09ae 893424   		movl	%esi, (%esp)
 1075 09b1 89442408 		movl	%eax, 8(%esp)
 1076              	LVL110:
 1077 09b5 8B450C   		movl	12(%ebp), %eax
 1078              	LVL111:
 1079 09b8 89442404 		movl	%eax, 4(%esp)
 1080 09bc FF929001 		call	*400(%edx)
 1080      0000
 1081              	LBE10:
 255:./Source/CS229_Image.c ****     f = fopen((const char*)loc,"w");
 1082              		.loc 1 255 0
 1083 09c2 C7442404 		movl	$LC12, 4(%esp)
 1083      6E000000 
 1084 09ca 893C24   		movl	%edi, (%esp)
 1085              	LBB11:
 251:./Source/CS229_Image.c ****         pic.data = (uint8_t*)(*env)->GetIntField(env,this,fid);
 1086              		.loc 1 251 0
 1087 09cd 8945F0   		movl	%eax, -16(%ebp)
 1088              	LBE11:
 255:./Source/CS229_Image.c ****     f = fopen((const char*)loc,"w");
 1089              		.loc 1 255 0
 1090 09d0 E8000000 		call	_fopen
 1090      00
 258:./Source/CS229_Image.c ****     if(f == NULL)
 1091              		.loc 1 258 0
 1092 09d5 BA0D0000 		movl	$13, %edx
 1092      00
 1093 09da 85C0     		testl	%eax, %eax
 1094              	LVL112:
 255:./Source/CS229_Image.c ****     f = fopen((const char*)loc,"w");
 1095              		.loc 1 255 0
 1096 09dc 89C3     		movl	%eax, %ebx
 1097              	LVL113:
 258:./Source/CS229_Image.c ****     if(f == NULL)
 1098              		.loc 1 258 0
 1099 09de 7415     		je	L52
 1100              	LVL114:
 262:./Source/CS229_Image.c ****     i = write_cs229_image(&pic,f);
 1101              		.loc 1 262 0
 1102 09e0 89442404 		movl	%eax, 4(%esp)
GAS LISTING /cygdrive/c/Users/THESCI~1/AppData/Local/Temp/ccu2GGTU.s 			page 36


 1103 09e4 8D45E0   		leal	-32(%ebp), %eax
 1104 09e7 890424   		movl	%eax, (%esp)
 1105 09ea E8000000 		call	_write_cs229_image
 1105      00
 265:./Source/CS229_Image.c ****     if(i)
 1106              		.loc 1 265 0
 1107 09ef 85C0     		testl	%eax, %eax
 266:./Source/CS229_Image.c ****         return i;
 1108              		.loc 1 266 0
 1109 09f1 89C2     		movl	%eax, %edx
 1110              	LVL115:
 265:./Source/CS229_Image.c ****     if(i)
 1111              		.loc 1 265 0
 1112 09f3 740D     		je	L58
 1113              	L52:
 274:./Source/CS229_Image.c **** }
 1114              		.loc 1 274 0
 1115 09f5 81C43C01 		addl	$316, %esp
 1115      0000
 1116 09fb 89D0     		movl	%edx, %eax
 1117              	LVL116:
 1118 09fd 5B       		popl	%ebx
 1119              	LVL117:
 1120 09fe 5E       		popl	%esi
 1121              	LVL118:
 1122 09ff 5F       		popl	%edi
 1123 0a00 5D       		popl	%ebp
 1124 0a01 C3       		ret
 1125              	LVL119:
 1126              	L58:
 269:./Source/CS229_Image.c ****     if(!fclose(f))
 1127              		.loc 1 269 0
 1128 0a02 891C24   		movl	%ebx, (%esp)
 1129 0a05 E8000000 		call	_fclose
 1129      00
 1130              	LVL120:
 1131 0a0a 31D2     		xorl	%edx, %edx
 1132 0a0c 85C0     		testl	%eax, %eax
 1133 0a0e 75E5     		jne	L52
 270:./Source/CS229_Image.c ****         ReportError(FILE_NOT_CLOSED);
 1134              		.loc 1 270 0
 1135 0a10 C704240E 		movl	$14, (%esp)
 1135      000000
 1136 0a17 E8000000 		call	_ReportError
 1136      00
 1137 0a1c 31D2     		xorl	%edx, %edx
 1138 0a1e EBD5     		jmp	L52
 1139              	LFE7:
 1140              		.p2align 4,,15
 1141              	.globl _Java_CS229_1Image_Load
 1143              	_Java_CS229_1Image_Load:
 1144              	LFB6:
  27:./Source/CS229_Image.c **** {
 1145              		.loc 1 27 0
 1146              	LVL121:
 1147 0a20 55       		pushl	%ebp
 1148              	LCFI32:
GAS LISTING /cygdrive/c/Users/THESCI~1/AppData/Local/Temp/ccu2GGTU.s 			page 37


 1149 0a21 89E5     		movl	%esp, %ebp
 1150              	LCFI33:
 1151 0a23 57       		pushl	%edi
 1152              	LCFI34:
 1153 0a24 56       		pushl	%esi
 1154              	LCFI35:
 1155 0a25 53       		pushl	%ebx
 1156              	LCFI36:
 1157 0a26 81EC2C01 		subl	$300, %esp
 1157      0000
 1158              	LCFI37:
  27:./Source/CS229_Image.c **** {
 1159              		.loc 1 27 0
 1160 0a2c 8B7D08   		movl	8(%ebp), %edi
  37:./Source/CS229_Image.c ****     len = (*env)->GetArrayLength(env,file);
 1161              		.loc 1 37 0
 1162 0a2f 8B5510   		movl	16(%ebp), %edx
 1163 0a32 8DB5F0FE 		leal	-272(%ebp), %esi
 1163      FFFF
 1164 0a38 8B07     		movl	(%edi), %eax
 1165 0a3a 89542404 		movl	%edx, 4(%esp)
 1166 0a3e 893C24   		movl	%edi, (%esp)
 1167 0a41 FF90AC02 		call	*684(%eax)
 1167      0000
 1168 0a47 89C3     		movl	%eax, %ebx
 1169              	LVL122:
  38:./Source/CS229_Image.c ****     arr = (*env)->GetCharArrayElements(env,file,0);
 1170              		.loc 1 38 0
 1171 0a49 8B07     		movl	(%edi), %eax
 1172 0a4b C7442408 		movl	$0, 8(%esp)
 1172      00000000 
 1173 0a53 8B5510   		movl	16(%ebp), %edx
 1174 0a56 893C24   		movl	%edi, (%esp)
 1175 0a59 89542404 		movl	%edx, 4(%esp)
 1176 0a5d FF90E402 		call	*740(%eax)
 1176      0000
  41:./Source/CS229_Image.c ****     for(i = 0;i < len;i++)
 1177              		.loc 1 41 0
 1178 0a63 85DB     		testl	%ebx, %ebx
  38:./Source/CS229_Image.c ****     arr = (*env)->GetCharArrayElements(env,file,0);
 1179              		.loc 1 38 0
 1180 0a65 89C1     		movl	%eax, %ecx
 1181              	LVL123:
  41:./Source/CS229_Image.c ****     for(i = 0;i < len;i++)
 1182              		.loc 1 41 0
 1183 0a67 7415     		je	L60
 1184              	LVL124:
 1185 0a69 31D2     		xorl	%edx, %edx
 1186              	LVL125:
 1187 0a6b 908D7426 		.p2align 4,,7
 1187      00
 1188              	L61:
  42:./Source/CS229_Image.c ****         loc[i] = arr[i];
 1189              		.loc 1 42 0
 1190 0a70 0FB70451 		movzwl	(%ecx,%edx,2), %eax
 1191 0a74 880416   		movb	%al, (%esi,%edx)
  41:./Source/CS229_Image.c ****     for(i = 0;i < len;i++)
GAS LISTING /cygdrive/c/Users/THESCI~1/AppData/Local/Temp/ccu2GGTU.s 			page 38


 1192              		.loc 1 41 0
 1193 0a77 83C201   		addl	$1, %edx
 1194 0a7a 39DA     		cmpl	%ebx, %edx
 1195 0a7c 72F2     		jb	L61
 1196              	L60:
  45:./Source/CS229_Image.c ****     loc[i] = '\0';
 1197              		.loc 1 45 0
 1198 0a7e C6841DF0 		movb	$0, -272(%ebp,%ebx)
 1198      FEFFFF00 
  48:./Source/CS229_Image.c ****     (*env)->ReleaseCharArrayElements(env,file,arr,0);
 1199              		.loc 1 48 0
 1200 0a86 8B07     		movl	(%edi), %eax
 1201 0a88 894C2408 		movl	%ecx, 8(%esp)
 1202 0a8c C744240C 		movl	$0, 12(%esp)
 1202      00000000 
 1203 0a94 8B5510   		movl	16(%ebp), %edx
 1204              	LVL126:
 1205 0a97 893C24   		movl	%edi, (%esp)
 1206 0a9a 89542404 		movl	%edx, 4(%esp)
 1207 0a9e FF900403 		call	*772(%eax)
 1207      0000
 1208              	LVL127:
  51:./Source/CS229_Image.c ****     f = fopen((const char*)loc,"r");
 1209              		.loc 1 51 0
 1210 0aa4 C7442404 		movl	$LC0, 4(%esp)
 1210      00000000 
 1211 0aac 893424   		movl	%esi, (%esp)
 1212 0aaf E8000000 		call	_fopen
 1212      00
 1213 0ab4 8985E0FE 		movl	%eax, -288(%ebp)
 1213      FFFF
 1214              	LVL128:
  54:./Source/CS229_Image.c ****     if(f == NULL)
 1215              		.loc 1 54 0
 1216 0aba 8B95E0FE 		movl	-288(%ebp), %edx
 1216      FFFF
 1217 0ac0 B80D0000 		movl	$13, %eax
 1217      00
 1218 0ac5 85D2     		testl	%edx, %edx
 1219 0ac7 743F     		je	L63
  58:./Source/CS229_Image.c ****     pic = (PCSPIC)malloc((size_t)sizeof(CSPIC));
 1220              		.loc 1 58 0
 1221 0ac9 C7042414 		movl	$20, (%esp)
 1221      000000
 1222 0ad0 E8000000 		call	_malloc
 1222      00
 1223 0ad5 89C6     		movl	%eax, %esi
  61:./Source/CS229_Image.c ****     i = read_cs229picture(pic,f);
 1224              		.loc 1 61 0
 1225 0ad7 8B85E0FE 		movl	-288(%ebp), %eax
 1225      FFFF
 1226 0add 893424   		movl	%esi, (%esp)
 1227 0ae0 89442404 		movl	%eax, 4(%esp)
 1228 0ae4 E8000000 		call	_read_cs229picture
 1228      00
  64:./Source/CS229_Image.c ****     if(i)
 1229              		.loc 1 64 0
GAS LISTING /cygdrive/c/Users/THESCI~1/AppData/Local/Temp/ccu2GGTU.s 			page 39


 1230 0ae9 85C0     		testl	%eax, %eax
 1231              	LVL129:
  61:./Source/CS229_Image.c ****     i = read_cs229picture(pic,f);
 1232              		.loc 1 61 0
 1233 0aeb 89C3     		movl	%eax, %ebx
 1234              	LVL130:
  64:./Source/CS229_Image.c ****     if(i)
 1235              		.loc 1 64 0
 1236 0aed 7424     		je	L64
  66:./Source/CS229_Image.c ****         if(pic->data != NULL)
 1237              		.loc 1 66 0
 1238 0aef 8B4610   		movl	16(%esi), %eax
 1239 0af2 85C0     		testl	%eax, %eax
 1240 0af4 7408     		je	L65
  67:./Source/CS229_Image.c ****             free((void*)pic->data);
 1241              		.loc 1 67 0
 1242 0af6 890424   		movl	%eax, (%esp)
 1243 0af9 E8000000 		call	_free
 1243      00
 1244              	L65:
  68:./Source/CS229_Image.c ****         free((void*)pic);
 1245              		.loc 1 68 0
 1246 0afe 893424   		movl	%esi, (%esp)
 1247 0b01 E8000000 		call	_free
 1247      00
  69:./Source/CS229_Image.c ****         return i;
 1248              		.loc 1 69 0
 1249 0b06 89D8     		movl	%ebx, %eax
 1250              	LVL131:
 1251              	L63:
 186:./Source/CS229_Image.c **** }
 1252              		.loc 1 186 0
 1253 0b08 81C42C01 		addl	$300, %esp
 1253      0000
 1254 0b0e 5B       		popl	%ebx
 1255              	LVL132:
 1256 0b0f 5E       		popl	%esi
 1257 0b10 5F       		popl	%edi
 1258              	LVL133:
 1259 0b11 5D       		popl	%ebp
 1260 0b12 C3       		ret
 1261              	LVL134:
 1262              	L64:
 1263              	LBB12:
  79:./Source/CS229_Image.c ****         cls = (*env)->GetObjectClass(env,this);
 1264              		.loc 1 79 0
 1265 0b13 8B550C   		movl	12(%ebp), %edx
 1266 0b16 8B07     		movl	(%edi), %eax
 1267 0b18 893C24   		movl	%edi, (%esp)
 1268 0b1b 89542404 		movl	%edx, 4(%esp)
 1269 0b1f FF507C   		call	*124(%eax)
 1270 0b22 89C3     		movl	%eax, %ebx
 1271              	LVL135:
  80:./Source/CS229_Image.c ****         fid = (*env)->GetFieldID(env,cls,"magic_number","I");
 1272              		.loc 1 80 0
 1273 0b24 8B07     		movl	(%edi), %eax
 1274 0b26 C744240C 		movl	$LC3, 12(%esp)
GAS LISTING /cygdrive/c/Users/THESCI~1/AppData/Local/Temp/ccu2GGTU.s 			page 40


 1274      08000000 
 1275 0b2e C7442408 		movl	$LC4, 8(%esp)
 1275      0A000000 
 1276 0b36 895C2404 		movl	%ebx, 4(%esp)
 1277 0b3a 893C24   		movl	%edi, (%esp)
 1278 0b3d FF907801 		call	*376(%eax)
 1278      0000
  82:./Source/CS229_Image.c ****         if(!fid)
 1279              		.loc 1 82 0
 1280 0b43 85C0     		testl	%eax, %eax
 1281              	LVL136:
  80:./Source/CS229_Image.c ****         fid = (*env)->GetFieldID(env,cls,"magic_number","I");
 1282              		.loc 1 80 0
 1283 0b45 89C1     		movl	%eax, %ecx
 1284              	LVL137:
  82:./Source/CS229_Image.c ****         if(!fid)
 1285              		.loc 1 82 0
 1286 0b47 0F842802 		je	L79
 1286      0000
 1287              	LVL138:
  89:./Source/CS229_Image.c ****         (*env)->SetIntField(env,this,fid,(jint)pic->magic_number);
 1288              		.loc 1 89 0
 1289 0b4d 0FB616   		movzbl	(%esi), %edx
 1290 0b50 8B07     		movl	(%edi), %eax
 1291 0b52 894C2408 		movl	%ecx, 8(%esp)
 1292 0b56 8954240C 		movl	%edx, 12(%esp)
 1293 0b5a 8B550C   		movl	12(%ebp), %edx
 1294 0b5d 893C24   		movl	%edi, (%esp)
 1295 0b60 89542404 		movl	%edx, 4(%esp)
 1296 0b64 FF90B401 		call	*436(%eax)
 1296      0000
 1297              	LVL139:
  92:./Source/CS229_Image.c ****         fid = (*env)->GetFieldID(env,cls,"color_mode","I");
 1298              		.loc 1 92 0
 1299 0b6a 8B07     		movl	(%edi), %eax
 1300 0b6c C744240C 		movl	$LC3, 12(%esp)
 1300      08000000 
 1301 0b74 C7442408 		movl	$LC5, 8(%esp)
 1301      17000000 
 1302 0b7c 895C2404 		movl	%ebx, 4(%esp)
 1303 0b80 893C24   		movl	%edi, (%esp)
 1304 0b83 FF907801 		call	*376(%eax)
 1304      0000
  94:./Source/CS229_Image.c ****         if(!fid)
 1305              		.loc 1 94 0
 1306 0b89 85C0     		testl	%eax, %eax
 1307              	LVL140:
  92:./Source/CS229_Image.c ****         fid = (*env)->GetFieldID(env,cls,"color_mode","I");
 1308              		.loc 1 92 0
 1309 0b8b 89C1     		movl	%eax, %ecx
 1310              	LVL141:
  94:./Source/CS229_Image.c ****         if(!fid)
 1311              		.loc 1 94 0
 1312 0b8d 0F84E201 		je	L79
 1312      0000
 101:./Source/CS229_Image.c ****         (*env)->SetIntField(env,this,fid,(jint)pic->color_mode);
 1313              		.loc 1 101 0
GAS LISTING /cygdrive/c/Users/THESCI~1/AppData/Local/Temp/ccu2GGTU.s 			page 41


 1314 0b93 0FB65601 		movzbl	1(%esi), %edx
 1315 0b97 8B07     		movl	(%edi), %eax
 1316 0b99 894C2408 		movl	%ecx, 8(%esp)
 1317 0b9d 8954240C 		movl	%edx, 12(%esp)
 1318 0ba1 8B550C   		movl	12(%ebp), %edx
 1319 0ba4 893C24   		movl	%edi, (%esp)
 1320 0ba7 89542404 		movl	%edx, 4(%esp)
 1321 0bab FF90B401 		call	*436(%eax)
 1321      0000
 1322              	LVL142:
 104:./Source/CS229_Image.c ****         fid = (*env)->GetFieldID(env,cls,"first_channel_size","I");
 1323              		.loc 1 104 0
 1324 0bb1 8B07     		movl	(%edi), %eax
 1325 0bb3 C744240C 		movl	$LC3, 12(%esp)
 1325      08000000 
 1326 0bbb C7442408 		movl	$LC6, 8(%esp)
 1326      22000000 
 1327 0bc3 895C2404 		movl	%ebx, 4(%esp)
 1328 0bc7 893C24   		movl	%edi, (%esp)
 1329 0bca FF907801 		call	*376(%eax)
 1329      0000
 106:./Source/CS229_Image.c ****         if(!fid)
 1330              		.loc 1 106 0
 1331 0bd0 85C0     		testl	%eax, %eax
 1332              	LVL143:
 104:./Source/CS229_Image.c ****         fid = (*env)->GetFieldID(env,cls,"first_channel_size","I");
 1333              		.loc 1 104 0
 1334 0bd2 89C1     		movl	%eax, %ecx
 1335              	LVL144:
 106:./Source/CS229_Image.c ****         if(!fid)
 1336              		.loc 1 106 0
 1337 0bd4 0F849B01 		je	L79
 1337      0000
 113:./Source/CS229_Image.c ****         (*env)->SetIntField(env,this,fid,(jint)pic->first_channel.blackwhite_channel_size);
 1338              		.loc 1 113 0
 1339 0bda 0FB65602 		movzbl	2(%esi), %edx
 1340 0bde 8B07     		movl	(%edi), %eax
 1341 0be0 894C2408 		movl	%ecx, 8(%esp)
 1342 0be4 8954240C 		movl	%edx, 12(%esp)
 1343 0be8 8B550C   		movl	12(%ebp), %edx
 1344 0beb 893C24   		movl	%edi, (%esp)
 1345 0bee 89542404 		movl	%edx, 4(%esp)
 1346 0bf2 FF90B401 		call	*436(%eax)
 1346      0000
 1347              	LVL145:
 116:./Source/CS229_Image.c ****         fid = (*env)->GetFieldID(env,cls,"second_channel_size","I");
 1348              		.loc 1 116 0
 1349 0bf8 8B07     		movl	(%edi), %eax
 1350 0bfa C744240C 		movl	$LC3, 12(%esp)
 1350      08000000 
 1351 0c02 C7442408 		movl	$LC7, 8(%esp)
 1351      35000000 
 1352 0c0a 895C2404 		movl	%ebx, 4(%esp)
 1353 0c0e 893C24   		movl	%edi, (%esp)
 1354 0c11 FF907801 		call	*376(%eax)
 1354      0000
 118:./Source/CS229_Image.c ****         if(!fid)
GAS LISTING /cygdrive/c/Users/THESCI~1/AppData/Local/Temp/ccu2GGTU.s 			page 42


 1355              		.loc 1 118 0
 1356 0c17 85C0     		testl	%eax, %eax
 1357              	LVL146:
 116:./Source/CS229_Image.c ****         fid = (*env)->GetFieldID(env,cls,"second_channel_size","I");
 1358              		.loc 1 116 0
 1359 0c19 89C1     		movl	%eax, %ecx
 1360              	LVL147:
 118:./Source/CS229_Image.c ****         if(!fid)
 1361              		.loc 1 118 0
 1362 0c1b 0F845401 		je	L79
 1362      0000
 125:./Source/CS229_Image.c ****         (*env)->SetIntField(env,this,fid,(jint)pic->green_channel_size);
 1363              		.loc 1 125 0
 1364 0c21 0FB65603 		movzbl	3(%esi), %edx
 1365 0c25 8B07     		movl	(%edi), %eax
 1366 0c27 894C2408 		movl	%ecx, 8(%esp)
 1367 0c2b 8954240C 		movl	%edx, 12(%esp)
 1368 0c2f 8B550C   		movl	12(%ebp), %edx
 1369 0c32 893C24   		movl	%edi, (%esp)
 1370 0c35 89542404 		movl	%edx, 4(%esp)
 1371 0c39 FF90B401 		call	*436(%eax)
 1371      0000
 1372              	LVL148:
 128:./Source/CS229_Image.c ****         fid = (*env)->GetFieldID(env,cls,"third_channel_size","I");
 1373              		.loc 1 128 0
 1374 0c3f 8B07     		movl	(%edi), %eax
 1375 0c41 C744240C 		movl	$LC3, 12(%esp)
 1375      08000000 
 1376 0c49 C7442408 		movl	$LC8, 8(%esp)
 1376      49000000 
 1377 0c51 895C2404 		movl	%ebx, 4(%esp)
 1378 0c55 893C24   		movl	%edi, (%esp)
 1379 0c58 FF907801 		call	*376(%eax)
 1379      0000
 130:./Source/CS229_Image.c ****         if(!fid)
 1380              		.loc 1 130 0
 1381 0c5e 85C0     		testl	%eax, %eax
 1382              	LVL149:
 128:./Source/CS229_Image.c ****         fid = (*env)->GetFieldID(env,cls,"third_channel_size","I");
 1383              		.loc 1 128 0
 1384 0c60 89C1     		movl	%eax, %ecx
 1385              	LVL150:
 130:./Source/CS229_Image.c ****         if(!fid)
 1386              		.loc 1 130 0
 1387 0c62 0F840D01 		je	L79
 1387      0000
 137:./Source/CS229_Image.c ****         (*env)->SetIntField(env,this,fid,(jint)pic->blue_channel_size);
 1388              		.loc 1 137 0
 1389 0c68 0FB65604 		movzbl	4(%esi), %edx
 1390 0c6c 8B07     		movl	(%edi), %eax
 1391 0c6e 894C2408 		movl	%ecx, 8(%esp)
 1392 0c72 8954240C 		movl	%edx, 12(%esp)
 1393 0c76 8B550C   		movl	12(%ebp), %edx
 1394 0c79 893C24   		movl	%edi, (%esp)
 1395 0c7c 89542404 		movl	%edx, 4(%esp)
 1396 0c80 FF90B401 		call	*436(%eax)
 1396      0000
GAS LISTING /cygdrive/c/Users/THESCI~1/AppData/Local/Temp/ccu2GGTU.s 			page 43


 1397              	LVL151:
 140:./Source/CS229_Image.c ****         fid = (*env)->GetFieldID(env,cls,"width","I");
 1398              		.loc 1 140 0
 1399 0c86 8B07     		movl	(%edi), %eax
 1400 0c88 C744240C 		movl	$LC3, 12(%esp)
 1400      08000000 
 1401 0c90 C7442408 		movl	$LC9, 8(%esp)
 1401      5C000000 
 1402 0c98 895C2404 		movl	%ebx, 4(%esp)
 1403 0c9c 893C24   		movl	%edi, (%esp)
 1404 0c9f FF907801 		call	*376(%eax)
 1404      0000
 142:./Source/CS229_Image.c ****         if(!fid)
 1405              		.loc 1 142 0
 1406 0ca5 85C0     		testl	%eax, %eax
 1407              	LVL152:
 140:./Source/CS229_Image.c ****         fid = (*env)->GetFieldID(env,cls,"width","I");
 1408              		.loc 1 140 0
 1409 0ca7 89C1     		movl	%eax, %ecx
 1410              	LVL153:
 142:./Source/CS229_Image.c ****         if(!fid)
 1411              		.loc 1 142 0
 1412 0ca9 0F84C600 		je	L79
 1412      0000
 149:./Source/CS229_Image.c ****         (*env)->SetIntField(env,this,fid,(jint)pic->width.value);
 1413              		.loc 1 149 0
 1414 0caf 8B560C   		movl	12(%esi), %edx
 1415 0cb2 8B07     		movl	(%edi), %eax
 1416 0cb4 894C2408 		movl	%ecx, 8(%esp)
 1417 0cb8 8954240C 		movl	%edx, 12(%esp)
 1418 0cbc 8B550C   		movl	12(%ebp), %edx
 1419 0cbf 893C24   		movl	%edi, (%esp)
 1420 0cc2 89542404 		movl	%edx, 4(%esp)
 1421 0cc6 FF90B401 		call	*436(%eax)
 1421      0000
 1422              	LVL154:
 152:./Source/CS229_Image.c ****         fid = (*env)->GetFieldID(env,cls,"height","I");
 1423              		.loc 1 152 0
 1424 0ccc 8B07     		movl	(%edi), %eax
 1425 0cce C744240C 		movl	$LC3, 12(%esp)
 1425      08000000 
 1426 0cd6 C7442408 		movl	$LC10, 8(%esp)
 1426      62000000 
 1427 0cde 895C2404 		movl	%ebx, 4(%esp)
 1428 0ce2 893C24   		movl	%edi, (%esp)
 1429 0ce5 FF907801 		call	*376(%eax)
 1429      0000
 154:./Source/CS229_Image.c ****         if(!fid)
 1430              		.loc 1 154 0
 1431 0ceb 85C0     		testl	%eax, %eax
 1432              	LVL155:
 152:./Source/CS229_Image.c ****         fid = (*env)->GetFieldID(env,cls,"height","I");
 1433              		.loc 1 152 0
 1434 0ced 89C1     		movl	%eax, %ecx
 1435              	LVL156:
 154:./Source/CS229_Image.c ****         if(!fid)
 1436              		.loc 1 154 0
GAS LISTING /cygdrive/c/Users/THESCI~1/AppData/Local/Temp/ccu2GGTU.s 			page 44


 1437 0cef 0F848000 		je	L79
 1437      0000
 161:./Source/CS229_Image.c ****         (*env)->SetIntField(env,this,fid,(jint)pic->height.value);
 1438              		.loc 1 161 0
 1439 0cf5 8B5608   		movl	8(%esi), %edx
 1440 0cf8 8B07     		movl	(%edi), %eax
 1441 0cfa 894C2408 		movl	%ecx, 8(%esp)
 1442 0cfe 8954240C 		movl	%edx, 12(%esp)
 1443 0d02 8B550C   		movl	12(%ebp), %edx
 1444 0d05 893C24   		movl	%edi, (%esp)
 1445 0d08 89542404 		movl	%edx, 4(%esp)
 1446 0d0c FF90B401 		call	*436(%eax)
 1446      0000
 1447              	LVL157:
 164:./Source/CS229_Image.c ****         fid = (*env)->GetFieldID(env,cls,"data","I");
 1448              		.loc 1 164 0
 1449 0d12 8B07     		movl	(%edi), %eax
 1450 0d14 C744240C 		movl	$LC3, 12(%esp)
 1450      08000000 
 1451 0d1c C7442408 		movl	$LC11, 8(%esp)
 1451      69000000 
 1452 0d24 895C2404 		movl	%ebx, 4(%esp)
 1453 0d28 893C24   		movl	%edi, (%esp)
 1454 0d2b FF907801 		call	*376(%eax)
 1454      0000
 166:./Source/CS229_Image.c ****         if(!fid)
 1455              		.loc 1 166 0
 1456 0d31 85C0     		testl	%eax, %eax
 1457              	LVL158:
 164:./Source/CS229_Image.c ****         fid = (*env)->GetFieldID(env,cls,"data","I");
 1458              		.loc 1 164 0
 1459 0d33 89C1     		movl	%eax, %ecx
 1460              	LVL159:
 166:./Source/CS229_Image.c ****         if(!fid)
 1461              		.loc 1 166 0
 1462 0d35 743E     		je	L79
 173:./Source/CS229_Image.c ****         (*env)->SetIntField(env,this,fid,(jint)pic->data);
 1463              		.loc 1 173 0
 1464 0d37 8B5610   		movl	16(%esi), %edx
 1465 0d3a 8B07     		movl	(%edi), %eax
 1466 0d3c 894C2408 		movl	%ecx, 8(%esp)
 1467 0d40 8954240C 		movl	%edx, 12(%esp)
 1468 0d44 8B550C   		movl	12(%ebp), %edx
 1469 0d47 893C24   		movl	%edi, (%esp)
 1470 0d4a 89542404 		movl	%edx, 4(%esp)
 1471 0d4e FF90B401 		call	*436(%eax)
 1471      0000
 1472              	LVL160:
 1473              	LBE12:
 177:./Source/CS229_Image.c ****     if(!fclose(f))
 1474              		.loc 1 177 0
 1475 0d54 8B85E0FE 		movl	-288(%ebp), %eax
 1475      FFFF
 1476 0d5a 890424   		movl	%eax, (%esp)
 1477 0d5d E8000000 		call	_fclose
 1477      00
 1478 0d62 85C0     		testl	%eax, %eax
GAS LISTING /cygdrive/c/Users/THESCI~1/AppData/Local/Temp/ccu2GGTU.s 			page 45


 1479 0d64 7432     		je	L80
 1480              	L74:
 181:./Source/CS229_Image.c ****     free((void*)pic);
 1481              		.loc 1 181 0
 1482 0d66 893424   		movl	%esi, (%esp)
 1483 0d69 E8000000 		call	_free
 1483      00
 1484 0d6e 31C0     		xorl	%eax, %eax
 1485              		.p2align 4,,2
 1486 0d70 E993FDFF 		jmp	L63
 1486      FF
 1487              	LVL161:
 1488              	L79:
 1489              	LBB13:
 168:./Source/CS229_Image.c ****             free((void*)pic->data);
 1490              		.loc 1 168 0
 1491 0d75 8B4610   		movl	16(%esi), %eax
 1492 0d78 890424   		movl	%eax, (%esp)
 1493 0d7b E8000000 		call	_free
 1493      00
 1494              	LVL162:
 169:./Source/CS229_Image.c ****             free((void*)pic);
 1495              		.loc 1 169 0
 1496 0d80 893424   		movl	%esi, (%esp)
 1497 0d83 E8000000 		call	_free
 1497      00
 1498              	LBE13:
 186:./Source/CS229_Image.c **** }
 1499              		.loc 1 186 0
 1500 0d88 81C42C01 		addl	$300, %esp
 1500      0000
 1501              	LBB14:
 169:./Source/CS229_Image.c ****             free((void*)pic);
 1502              		.loc 1 169 0
 1503 0d8e B8010000 		movl	$1, %eax
 1503      00
 1504              	LBE14:
 186:./Source/CS229_Image.c **** }
 1505              		.loc 1 186 0
 1506 0d93 5B       		popl	%ebx
 1507              	LVL163:
 1508 0d94 5E       		popl	%esi
 1509 0d95 5F       		popl	%edi
 1510              	LVL164:
 1511 0d96 5D       		popl	%ebp
 1512 0d97 C3       		ret
 1513              	LVL165:
 1514              	L80:
 178:./Source/CS229_Image.c ****         ReportError(FILE_NOT_CLOSED);
 1515              		.loc 1 178 0
 1516 0d98 C704240E 		movl	$14, (%esp)
 1516      000000
 1517 0d9f E8000000 		call	_ReportError
 1517      00
 1518 0da4 EBC0     		jmp	L74
 1519              	LFE6:
 1520              		.section	.debug_frame,"dr"
GAS LISTING /cygdrive/c/Users/THESCI~1/AppData/Local/Temp/ccu2GGTU.s 			page 46


 1521              	Lframe0:
 1522 0000 10000000 		.long	LECIE0-LSCIE0
 1523              	LSCIE0:
 1524 0004 FFFFFFFF 		.long	0xffffffff
 1525 0008 01       		.byte	0x1
 1526 0009 00       		.ascii "\0"
 1527 000a 01       		.uleb128 0x1
 1528 000b 7C       		.sleb128 -4
 1529 000c 08       		.byte	0x8
 1530 000d 0C       		.byte	0xc
 1531 000e 04       		.uleb128 0x4
 1532 000f 04       		.uleb128 0x4
 1533 0010 88       		.byte	0x88
 1534 0011 01       		.uleb128 0x1
 1535 0012 0000     		.align 4
 1536              	LECIE0:
 1537              	LSFDE0:
 1538 0014 14000000 		.long	LEFDE0-LASFDE0
 1539              	LASFDE0:
 1540 0018 00000000 		.secrel32	Lframe0
 1541 001c 00000000 		.long	LFB11
 1542 0020 15000000 		.long	LFE11-LFB11
 1543 0024 41       		.byte	0x4
 1544              		.long	LCFI0-LFB11
 1545 0025 0E       		.byte	0xe
 1546 0026 08       		.uleb128 0x8
 1547 0027 85       		.byte	0x85
 1548 0028 02       		.uleb128 0x2
 1549 0029 42       		.byte	0x4
 1550              		.long	LCFI1-LCFI0
 1551 002a 0D       		.byte	0xd
 1552 002b 05       		.uleb128 0x5
 1553              		.align 4
 1554              	LEFDE0:
 1555              	LSFDE2:
 1556 002c 1C000000 		.long	LEFDE2-LASFDE2
 1557              	LASFDE2:
 1558 0030 00000000 		.secrel32	Lframe0
 1559 0034 20000000 		.long	LFB12
 1560 0038 DB010000 		.long	LFE12-LFB12
 1561 003c 41       		.byte	0x4
 1562              		.long	LCFI3-LFB12
 1563 003d 0E       		.byte	0xe
 1564 003e 08       		.uleb128 0x8
 1565 003f 85       		.byte	0x85
 1566 0040 02       		.uleb128 0x2
 1567 0041 42       		.byte	0x4
 1568              		.long	LCFI4-LCFI3
 1569 0042 0D       		.byte	0xd
 1570 0043 05       		.uleb128 0x5
 1571 0044 46       		.byte	0x4
 1572              		.long	LCFI8-LCFI4
 1573 0045 83       		.byte	0x83
 1574 0046 05       		.uleb128 0x5
 1575 0047 86       		.byte	0x86
 1576 0048 04       		.uleb128 0x4
 1577 0049 87       		.byte	0x87
GAS LISTING /cygdrive/c/Users/THESCI~1/AppData/Local/Temp/ccu2GGTU.s 			page 47


 1578 004a 03       		.uleb128 0x3
 1579 004b 00       		.align 4
 1580              	LEFDE2:
 1581              	LSFDE4:
 1582 004c 1C000000 		.long	LEFDE4-LASFDE4
 1583              	LASFDE4:
 1584 0050 00000000 		.secrel32	Lframe0
 1585 0054 00020000 		.long	LFB8
 1586 0058 6F020000 		.long	LFE8-LFB8
 1587 005c 41       		.byte	0x4
 1588              		.long	LCFI9-LFB8
 1589 005d 0E       		.byte	0xe
 1590 005e 08       		.uleb128 0x8
 1591 005f 85       		.byte	0x85
 1592 0060 02       		.uleb128 0x2
 1593 0061 42       		.byte	0x4
 1594              		.long	LCFI10-LCFI9
 1595 0062 0D       		.byte	0xd
 1596 0063 05       		.uleb128 0x5
 1597 0064 49       		.byte	0x4
 1598              		.long	LCFI14-LCFI10
 1599 0065 83       		.byte	0x83
 1600 0066 05       		.uleb128 0x5
 1601 0067 86       		.byte	0x86
 1602 0068 04       		.uleb128 0x4
 1603 0069 87       		.byte	0x87
 1604 006a 03       		.uleb128 0x3
 1605 006b 00       		.align 4
 1606              	LEFDE4:
 1607              	LSFDE6:
 1608 006c 1C000000 		.long	LEFDE6-LASFDE6
 1609              	LASFDE6:
 1610 0070 00000000 		.secrel32	Lframe0
 1611 0074 70040000 		.long	LFB10
 1612 0078 5D000000 		.long	LFE10-LFB10
 1613 007c 41       		.byte	0x4
 1614              		.long	LCFI15-LFB10
 1615 007d 0E       		.byte	0xe
 1616 007e 08       		.uleb128 0x8
 1617 007f 85       		.byte	0x85
 1618 0080 02       		.uleb128 0x2
 1619 0081 42       		.byte	0x4
 1620              		.long	LCFI16-LCFI15
 1621 0082 0D       		.byte	0xd
 1622 0083 05       		.uleb128 0x5
 1623 0084 45       		.byte	0x4
 1624              		.long	LCFI19-LCFI16
 1625 0085 83       		.byte	0x83
 1626 0086 04       		.uleb128 0x4
 1627 0087 86       		.byte	0x86
 1628 0088 03       		.uleb128 0x3
 1629 0089 000000   		.align 4
 1630              	LEFDE6:
 1631              	LSFDE8:
 1632 008c 1C000000 		.long	LEFDE8-LASFDE8
 1633              	LASFDE8:
 1634 0090 00000000 		.secrel32	Lframe0
GAS LISTING /cygdrive/c/Users/THESCI~1/AppData/Local/Temp/ccu2GGTU.s 			page 48


 1635 0094 D0040000 		.long	LFB9
 1636 0098 9A020000 		.long	LFE9-LFB9
 1637 009c 41       		.byte	0x4
 1638              		.long	LCFI20-LFB9
 1639 009d 0E       		.byte	0xe
 1640 009e 08       		.uleb128 0x8
 1641 009f 85       		.byte	0x85
 1642 00a0 02       		.uleb128 0x2
 1643 00a1 42       		.byte	0x4
 1644              		.long	LCFI21-LCFI20
 1645 00a2 0D       		.byte	0xd
 1646 00a3 05       		.uleb128 0x5
 1647 00a4 46       		.byte	0x4
 1648              		.long	LCFI25-LCFI21
 1649 00a5 83       		.byte	0x83
 1650 00a6 05       		.uleb128 0x5
 1651 00a7 86       		.byte	0x86
 1652 00a8 04       		.uleb128 0x4
 1653 00a9 87       		.byte	0x87
 1654 00aa 03       		.uleb128 0x3
 1655 00ab 00       		.align 4
 1656              	LEFDE8:
 1657              	LSFDE10:
 1658 00ac 1C000000 		.long	LEFDE10-LASFDE10
 1659              	LASFDE10:
 1660 00b0 00000000 		.secrel32	Lframe0
 1661 00b4 70070000 		.long	LFB7
 1662 00b8 B0020000 		.long	LFE7-LFB7
 1663 00bc 41       		.byte	0x4
 1664              		.long	LCFI26-LFB7
 1665 00bd 0E       		.byte	0xe
 1666 00be 08       		.uleb128 0x8
 1667 00bf 85       		.byte	0x85
 1668 00c0 02       		.uleb128 0x2
 1669 00c1 42       		.byte	0x4
 1670              		.long	LCFI27-LCFI26
 1671 00c2 0D       		.byte	0xd
 1672 00c3 05       		.uleb128 0x5
 1673 00c4 49       		.byte	0x4
 1674              		.long	LCFI31-LCFI27
 1675 00c5 83       		.byte	0x83
 1676 00c6 05       		.uleb128 0x5
 1677 00c7 86       		.byte	0x86
 1678 00c8 04       		.uleb128 0x4
 1679 00c9 87       		.byte	0x87
 1680 00ca 03       		.uleb128 0x3
 1681 00cb 00       		.align 4
 1682              	LEFDE10:
 1683              	LSFDE12:
 1684 00cc 1C000000 		.long	LEFDE12-LASFDE12
 1685              	LASFDE12:
 1686 00d0 00000000 		.secrel32	Lframe0
 1687 00d4 200A0000 		.long	LFB6
 1688 00d8 86030000 		.long	LFE6-LFB6
 1689 00dc 41       		.byte	0x4
 1690              		.long	LCFI32-LFB6
 1691 00dd 0E       		.byte	0xe
GAS LISTING /cygdrive/c/Users/THESCI~1/AppData/Local/Temp/ccu2GGTU.s 			page 49


 1692 00de 08       		.uleb128 0x8
 1693 00df 85       		.byte	0x85
 1694 00e0 02       		.uleb128 0x2
 1695 00e1 42       		.byte	0x4
 1696              		.long	LCFI33-LCFI32
 1697 00e2 0D       		.byte	0xd
 1698 00e3 05       		.uleb128 0x5
 1699 00e4 49       		.byte	0x4
 1700              		.long	LCFI37-LCFI33
 1701 00e5 83       		.byte	0x83
 1702 00e6 05       		.uleb128 0x5
 1703 00e7 86       		.byte	0x86
 1704 00e8 04       		.uleb128 0x4
 1705 00e9 87       		.byte	0x87
 1706 00ea 03       		.uleb128 0x3
 1707 00eb 00       		.align 4
 1708              	LEFDE12:
 1709              		.text
 1710              	Letext0:
 1711 0da6 90909090 		.section	.debug_loc,"dr"
 1711      90909090 
 1711      9090
 1712              	Ldebug_loc0:
 1713              	LLST0:
 1714 0000 00000000 		.long	LFB11-Ltext0
 1715 0004 01000000 		.long	LCFI0-Ltext0
 1716 0008 0200     		.word	0x2
 1717 000a 74       		.byte	0x74
 1718 000b 04       		.sleb128 4
 1719 000c 01000000 		.long	LCFI0-Ltext0
 1720 0010 03000000 		.long	LCFI1-Ltext0
 1721 0014 0200     		.word	0x2
 1722 0016 74       		.byte	0x74
 1723 0017 08       		.sleb128 8
 1724 0018 03000000 		.long	LCFI1-Ltext0
 1725 001c 15000000 		.long	LFE11-Ltext0
 1726 0020 0200     		.word	0x2
 1727 0022 75       		.byte	0x75
 1728 0023 08       		.sleb128 8
 1729 0024 00000000 		.long	0x0
 1730 0028 00000000 		.long	0x0
 1731              	LLST1:
 1732 002c 20000000 		.long	LFB12-Ltext0
 1733 0030 21000000 		.long	LCFI3-Ltext0
 1734 0034 0200     		.word	0x2
 1735 0036 74       		.byte	0x74
 1736 0037 04       		.sleb128 4
 1737 0038 21000000 		.long	LCFI3-Ltext0
 1738 003c 23000000 		.long	LCFI4-Ltext0
 1739 0040 0200     		.word	0x2
 1740 0042 74       		.byte	0x74
 1741 0043 08       		.sleb128 8
 1742 0044 23000000 		.long	LCFI4-Ltext0
 1743 0048 FB010000 		.long	LFE12-Ltext0
 1744 004c 0200     		.word	0x2
 1745 004e 75       		.byte	0x75
 1746 004f 08       		.sleb128 8
GAS LISTING /cygdrive/c/Users/THESCI~1/AppData/Local/Temp/ccu2GGTU.s 			page 50


 1747 0050 00000000 		.long	0x0
 1748 0054 00000000 		.long	0x0
 1749              	LLST2:
 1750 0058 20000000 		.long	LVL1-Ltext0
 1751 005c 4D000000 		.long	LVL5-Ltext0
 1752 0060 0200     		.word	0x2
 1753 0062 91       		.byte	0x91
 1754 0063 00       		.sleb128 0
 1755 0064 4D000000 		.long	LVL5-Ltext0
 1756 0068 FB010000 		.long	LFE12-Ltext0
 1757 006c 0200     		.word	0x2
 1758 006e 75       		.byte	0x75
 1759 006f 08       		.sleb128 8
 1760 0070 00000000 		.long	0x0
 1761 0074 00000000 		.long	0x0
 1762              	LLST3:
 1763 0078 20000000 		.long	LVL1-Ltext0
 1764 007c 88000000 		.long	LVL8-Ltext0
 1765 0080 0200     		.word	0x2
 1766 0082 91       		.byte	0x91
 1767 0083 04       		.sleb128 4
 1768 0084 88000000 		.long	LVL8-Ltext0
 1769 0088 1D010000 		.long	LVL9-Ltext0
 1770 008c 0200     		.word	0x2
 1771 008e 75       		.byte	0x75
 1772 008f 0C       		.sleb128 12
 1773 0090 1D010000 		.long	LVL9-Ltext0
 1774 0094 28010000 		.long	LVL13-Ltext0
 1775 0098 0200     		.word	0x2
 1776 009a 91       		.byte	0x91
 1777 009b 04       		.sleb128 4
 1778 009c 28010000 		.long	LVL13-Ltext0
 1779 00a0 FB010000 		.long	LFE12-Ltext0
 1780 00a4 0200     		.word	0x2
 1781 00a6 75       		.byte	0x75
 1782 00a7 0C       		.sleb128 12
 1783 00a8 00000000 		.long	0x0
 1784 00ac 00000000 		.long	0x0
 1785              	LLST4:
 1786 00b0 5B000000 		.long	LVL6-Ltext0
 1787 00b4 25010000 		.long	LVL11-Ltext0
 1788 00b8 0100     		.word	0x1
 1789 00ba 56       		.byte	0x56
 1790 00bb 28010000 		.long	LVL13-Ltext0
 1791 00bf 57010000 		.long	LVL14-Ltext0
 1792 00c3 0100     		.word	0x1
 1793 00c5 56       		.byte	0x56
 1794 00c6 57010000 		.long	LVL14-Ltext0
 1795 00ca A1010000 		.long	LVL16-Ltext0
 1796 00ce 0100     		.word	0x1
 1797 00d0 53       		.byte	0x53
 1798 00d1 A1010000 		.long	LVL16-Ltext0
 1799 00d5 FB010000 		.long	LFE12-Ltext0
 1800 00d9 0100     		.word	0x1
 1801 00db 56       		.byte	0x56
 1802 00dc 00000000 		.long	0x0
 1803 00e0 00000000 		.long	0x0
GAS LISTING /cygdrive/c/Users/THESCI~1/AppData/Local/Temp/ccu2GGTU.s 			page 51


 1804              	LLST5:
 1805 00e4 88000000 		.long	LVL8-Ltext0
 1806 00e8 24010000 		.long	LVL10-Ltext0
 1807 00ec 0100     		.word	0x1
 1808 00ee 53       		.byte	0x53
 1809 00ef 28010000 		.long	LVL13-Ltext0
 1810 00f3 57010000 		.long	LVL14-Ltext0
 1811 00f7 0100     		.word	0x1
 1812 00f9 53       		.byte	0x53
 1813 00fa A1010000 		.long	LVL16-Ltext0
 1814 00fe FB010000 		.long	LFE12-Ltext0
 1815 0102 0100     		.word	0x1
 1816 0104 53       		.byte	0x53
 1817 0105 00000000 		.long	0x0
 1818 0109 00000000 		.long	0x0
 1819              	LLST6:
 1820 010d 45000000 		.long	LVL3-Ltext0
 1821 0111 47000000 		.long	LVL4-Ltext0
 1822 0115 0100     		.word	0x1
 1823 0117 50       		.byte	0x50
 1824 0118 28010000 		.long	LVL13-Ltext0
 1825 011c FB010000 		.long	LFE12-Ltext0
 1826 0120 0100     		.word	0x1
 1827 0122 57       		.byte	0x57
 1828 0123 00000000 		.long	0x0
 1829 0127 00000000 		.long	0x0
 1830              	LLST7:
 1831 012b 00020000 		.long	LFB8-Ltext0
 1832 012f 01020000 		.long	LCFI9-Ltext0
 1833 0133 0200     		.word	0x2
 1834 0135 74       		.byte	0x74
 1835 0136 04       		.sleb128 4
 1836 0137 01020000 		.long	LCFI9-Ltext0
 1837 013b 03020000 		.long	LCFI10-Ltext0
 1838 013f 0200     		.word	0x2
 1839 0141 74       		.byte	0x74
 1840 0142 08       		.sleb128 8
 1841 0143 03020000 		.long	LCFI10-Ltext0
 1842 0147 6F040000 		.long	LFE8-Ltext0
 1843 014b 0200     		.word	0x2
 1844 014d 75       		.byte	0x75
 1845 014e 08       		.sleb128 8
 1846 014f 00000000 		.long	0x0
 1847 0153 00000000 		.long	0x0
 1848              	LLST8:
 1849 0157 00020000 		.long	LVL20-Ltext0
 1850 015b 49020000 		.long	LVL23-Ltext0
 1851 015f 0200     		.word	0x2
 1852 0161 91       		.byte	0x91
 1853 0162 00       		.sleb128 0
 1854 0163 49020000 		.long	LVL23-Ltext0
 1855 0167 6C040000 		.long	LVL45-Ltext0
 1856 016b 0100     		.word	0x1
 1857 016d 56       		.byte	0x56
 1858 016e 6C040000 		.long	LVL45-Ltext0
 1859 0172 6F040000 		.long	LFE8-Ltext0
 1860 0176 0200     		.word	0x2
GAS LISTING /cygdrive/c/Users/THESCI~1/AppData/Local/Temp/ccu2GGTU.s 			page 52


 1861 0178 75       		.byte	0x75
 1862 0179 08       		.sleb128 8
 1863 017a 00000000 		.long	0x0
 1864 017e 00000000 		.long	0x0
 1865              	LLST9:
 1866 0182 00020000 		.long	LVL20-Ltext0
 1867 0186 49020000 		.long	LVL23-Ltext0
 1868 018a 0200     		.word	0x2
 1869 018c 91       		.byte	0x91
 1870 018d 08       		.sleb128 8
 1871 018e 49020000 		.long	LVL23-Ltext0
 1872 0192 6F040000 		.long	LFE8-Ltext0
 1873 0196 0200     		.word	0x2
 1874 0198 75       		.byte	0x75
 1875 0199 10       		.sleb128 16
 1876 019a 00000000 		.long	0x0
 1877 019e 00000000 		.long	0x0
 1878              	LLST10:
 1879 01a2 2C020000 		.long	LVL21-Ltext0
 1880 01a6 95020000 		.long	LVL27-Ltext0
 1881 01aa 0100     		.word	0x1
 1882 01ac 53       		.byte	0x53
 1883 01ad 00000000 		.long	0x0
 1884 01b1 00000000 		.long	0x0
 1885              	LLST11:
 1886 01b5 47020000 		.long	LVL22-Ltext0
 1887 01b9 84020000 		.long	LVL26-Ltext0
 1888 01bd 0100     		.word	0x1
 1889 01bf 51       		.byte	0x51
 1890 01c0 00000000 		.long	0x0
 1891 01c4 00000000 		.long	0x0
 1892              	LLST12:
 1893 01c8 4B020000 		.long	LVL24-Ltext0
 1894 01cc 6B020000 		.long	LVL25-Ltext0
 1895 01d0 0100     		.word	0x1
 1896 01d2 52       		.byte	0x52
 1897 01d3 00000000 		.long	0x0
 1898 01d7 00000000 		.long	0x0
 1899              	LLST13:
 1900 01db 95020000 		.long	LVL27-Ltext0
 1901 01df 6B040000 		.long	LVL44-Ltext0
 1902 01e3 0100     		.word	0x1
 1903 01e5 53       		.byte	0x53
 1904 01e6 00000000 		.long	0x0
 1905 01ea 00000000 		.long	0x0
 1906              	LLST14:
 1907 01ee BD020000 		.long	LVL28-Ltext0
 1908 01f2 C0020000 		.long	LVL29-Ltext0
 1909 01f6 0100     		.word	0x1
 1910 01f8 50       		.byte	0x50
 1911 01f9 F5020000 		.long	LVL30-Ltext0
 1912 01fd F8020000 		.long	LVL31-Ltext0
 1913 0201 0100     		.word	0x1
 1914 0203 50       		.byte	0x50
 1915 0204 2D030000 		.long	LVL32-Ltext0
 1916 0208 30030000 		.long	LVL33-Ltext0
 1917 020c 0100     		.word	0x1
GAS LISTING /cygdrive/c/Users/THESCI~1/AppData/Local/Temp/ccu2GGTU.s 			page 53


 1918 020e 50       		.byte	0x50
 1919 020f 65030000 		.long	LVL34-Ltext0
 1920 0213 68030000 		.long	LVL35-Ltext0
 1921 0217 0100     		.word	0x1
 1922 0219 50       		.byte	0x50
 1923 021a 9D030000 		.long	LVL36-Ltext0
 1924 021e A0030000 		.long	LVL37-Ltext0
 1925 0222 0100     		.word	0x1
 1926 0224 50       		.byte	0x50
 1927 0225 D5030000 		.long	LVL38-Ltext0
 1928 0229 D8030000 		.long	LVL39-Ltext0
 1929 022d 0100     		.word	0x1
 1930 022f 50       		.byte	0x50
 1931 0230 0D040000 		.long	LVL40-Ltext0
 1932 0234 10040000 		.long	LVL41-Ltext0
 1933 0238 0100     		.word	0x1
 1934 023a 50       		.byte	0x50
 1935 023b 45040000 		.long	LVL42-Ltext0
 1936 023f 48040000 		.long	LVL43-Ltext0
 1937 0243 0100     		.word	0x1
 1938 0245 50       		.byte	0x50
 1939 0246 00000000 		.long	0x0
 1940 024a 00000000 		.long	0x0
 1941              	LLST15:
 1942 024e 70040000 		.long	LFB10-Ltext0
 1943 0252 71040000 		.long	LCFI15-Ltext0
 1944 0256 0200     		.word	0x2
 1945 0258 74       		.byte	0x74
 1946 0259 04       		.sleb128 4
 1947 025a 71040000 		.long	LCFI15-Ltext0
 1948 025e 73040000 		.long	LCFI16-Ltext0
 1949 0262 0200     		.word	0x2
 1950 0264 74       		.byte	0x74
 1951 0265 08       		.sleb128 8
 1952 0266 73040000 		.long	LCFI16-Ltext0
 1953 026a CD040000 		.long	LFE10-Ltext0
 1954 026e 0200     		.word	0x2
 1955 0270 75       		.byte	0x75
 1956 0271 08       		.sleb128 8
 1957 0272 00000000 		.long	0x0
 1958 0276 00000000 		.long	0x0
 1959              	LLST16:
 1960 027a A3040000 		.long	LVL47-Ltext0
 1961 027e A9040000 		.long	LVL48-Ltext0
 1962 0282 0100     		.word	0x1
 1963 0284 50       		.byte	0x50
 1964 0285 00000000 		.long	0x0
 1965 0289 00000000 		.long	0x0
 1966              	LLST17:
 1967 028d B6040000 		.long	LVL49-Ltext0
 1968 0291 BC040000 		.long	LVL50-Ltext0
 1969 0295 0100     		.word	0x1
 1970 0297 50       		.byte	0x50
 1971 0298 00000000 		.long	0x0
 1972 029c 00000000 		.long	0x0
 1973              	LLST18:
 1974 02a0 D0040000 		.long	LFB9-Ltext0
GAS LISTING /cygdrive/c/Users/THESCI~1/AppData/Local/Temp/ccu2GGTU.s 			page 54


 1975 02a4 D1040000 		.long	LCFI20-Ltext0
 1976 02a8 0200     		.word	0x2
 1977 02aa 74       		.byte	0x74
 1978 02ab 04       		.sleb128 4
 1979 02ac D1040000 		.long	LCFI20-Ltext0
 1980 02b0 D3040000 		.long	LCFI21-Ltext0
 1981 02b4 0200     		.word	0x2
 1982 02b6 74       		.byte	0x74
 1983 02b7 08       		.sleb128 8
 1984 02b8 D3040000 		.long	LCFI21-Ltext0
 1985 02bc 6A070000 		.long	LFE9-Ltext0
 1986 02c0 0200     		.word	0x2
 1987 02c2 75       		.byte	0x75
 1988 02c3 08       		.sleb128 8
 1989 02c4 00000000 		.long	0x0
 1990 02c8 00000000 		.long	0x0
 1991              	LLST19:
 1992 02cc D0040000 		.long	LVL51-Ltext0
 1993 02d0 7F050000 		.long	LVL58-Ltext0
 1994 02d4 0200     		.word	0x2
 1995 02d6 91       		.byte	0x91
 1996 02d7 00       		.sleb128 0
 1997 02d8 7F050000 		.long	LVL58-Ltext0
 1998 02dc 86050000 		.long	LVL61-Ltext0
 1999 02e0 0100     		.word	0x1
 2000 02e2 56       		.byte	0x56
 2001 02e3 86050000 		.long	LVL61-Ltext0
 2002 02e7 89050000 		.long	LVL62-Ltext0
 2003 02eb 0200     		.word	0x2
 2004 02ed 75       		.byte	0x75
 2005 02ee 08       		.sleb128 8
 2006 02ef 89050000 		.long	LVL62-Ltext0
 2007 02f3 67070000 		.long	LVL87-Ltext0
 2008 02f7 0100     		.word	0x1
 2009 02f9 56       		.byte	0x56
 2010 02fa 67070000 		.long	LVL87-Ltext0
 2011 02fe 6A070000 		.long	LFE9-Ltext0
 2012 0302 0200     		.word	0x2
 2013 0304 75       		.byte	0x75
 2014 0305 08       		.sleb128 8
 2015 0306 00000000 		.long	0x0
 2016 030a 00000000 		.long	0x0
 2017              	LLST20:
 2018 030e D0040000 		.long	LVL51-Ltext0
 2019 0312 7F050000 		.long	LVL58-Ltext0
 2020 0316 0200     		.word	0x2
 2021 0318 91       		.byte	0x91
 2022 0319 04       		.sleb128 4
 2023 031a 7F050000 		.long	LVL58-Ltext0
 2024 031e 89050000 		.long	LVL62-Ltext0
 2025 0322 0200     		.word	0x2
 2026 0324 75       		.byte	0x75
 2027 0325 0C       		.sleb128 12
 2028 0326 89050000 		.long	LVL62-Ltext0
 2029 032a C4060000 		.long	LVL75-Ltext0
 2030 032e 0100     		.word	0x1
 2031 0330 57       		.byte	0x57
GAS LISTING /cygdrive/c/Users/THESCI~1/AppData/Local/Temp/ccu2GGTU.s 			page 55


 2032 0331 C4060000 		.long	LVL75-Ltext0
 2033 0335 6A070000 		.long	LFE9-Ltext0
 2034 0339 0200     		.word	0x2
 2035 033b 75       		.byte	0x75
 2036 033c 0C       		.sleb128 12
 2037 033d 00000000 		.long	0x0
 2038 0341 00000000 		.long	0x0
 2039              	LLST21:
 2040 0345 D0040000 		.long	LVL51-Ltext0
 2041 0349 04070000 		.long	LVL81-Ltext0
 2042 034d 0200     		.word	0x2
 2043 034f 91       		.byte	0x91
 2044 0350 08       		.sleb128 8
 2045 0351 04070000 		.long	LVL81-Ltext0
 2046 0355 6A070000 		.long	LFE9-Ltext0
 2047 0359 0200     		.word	0x2
 2048 035b 75       		.byte	0x75
 2049 035c 10       		.sleb128 16
 2050 035d 00000000 		.long	0x0
 2051 0361 00000000 		.long	0x0
 2052              	LLST22:
 2053 0365 D0040000 		.long	LVL51-Ltext0
 2054 0369 04070000 		.long	LVL81-Ltext0
 2055 036d 0200     		.word	0x2
 2056 036f 91       		.byte	0x91
 2057 0370 0C       		.sleb128 12
 2058 0371 04070000 		.long	LVL81-Ltext0
 2059 0375 6A070000 		.long	LFE9-Ltext0
 2060 0379 0200     		.word	0x2
 2061 037b 75       		.byte	0x75
 2062 037c 14       		.sleb128 20
 2063 037d 00000000 		.long	0x0
 2064 0381 00000000 		.long	0x0
 2065              	LLST23:
 2066 0385 D0040000 		.long	LVL51-Ltext0
 2067 0389 7F050000 		.long	LVL58-Ltext0
 2068 038d 0200     		.word	0x2
 2069 038f 91       		.byte	0x91
 2070 0390 10       		.sleb128 16
 2071 0391 7F050000 		.long	LVL58-Ltext0
 2072 0395 6A070000 		.long	LFE9-Ltext0
 2073 0399 0200     		.word	0x2
 2074 039b 75       		.byte	0x75
 2075 039c 18       		.sleb128 24
 2076 039d 00000000 		.long	0x0
 2077 03a1 00000000 		.long	0x0
 2078              	LLST24:
 2079 03a5 7F050000 		.long	LVL58-Ltext0
 2080 03a9 84050000 		.long	LVL59-Ltext0
 2081 03ad 0100     		.word	0x1
 2082 03af 50       		.byte	0x50
 2083 03b0 FE060000 		.long	LVL80-Ltext0
 2084 03b4 06070000 		.long	LVL82-Ltext0
 2085 03b8 0100     		.word	0x1
 2086 03ba 50       		.byte	0x50
 2087 03bb 00000000 		.long	0x0
 2088 03bf 00000000 		.long	0x0
GAS LISTING /cygdrive/c/Users/THESCI~1/AppData/Local/Temp/ccu2GGTU.s 			page 56


 2089              	LLST25:
 2090 03c3 F5060000 		.long	LVL78-Ltext0
 2091 03c7 FA060000 		.long	LVL79-Ltext0
 2092 03cb 0100     		.word	0x1
 2093 03cd 50       		.byte	0x50
 2094 03ce 00000000 		.long	0x0
 2095 03d2 00000000 		.long	0x0
 2096              	LLST26:
 2097 03d6 ED040000 		.long	LVL52-Ltext0
 2098 03da 85050000 		.long	LVL60-Ltext0
 2099 03de 0100     		.word	0x1
 2100 03e0 53       		.byte	0x53
 2101 03e1 89050000 		.long	LVL62-Ltext0
 2102 03e5 A2060000 		.long	LVL74-Ltext0
 2103 03e9 0100     		.word	0x1
 2104 03eb 53       		.byte	0x53
 2105 03ec 00000000 		.long	0x0
 2106 03f0 00000000 		.long	0x0
 2107              	LLST27:
 2108 03f4 19050000 		.long	LVL53-Ltext0
 2109 03f8 1F050000 		.long	LVL54-Ltext0
 2110 03fc 0100     		.word	0x1
 2111 03fe 50       		.byte	0x50
 2112 03ff 4E050000 		.long	LVL55-Ltext0
 2113 0403 54050000 		.long	LVL56-Ltext0
 2114 0407 0100     		.word	0x1
 2115 0409 50       		.byte	0x50
 2116 040a BC050000 		.long	LVL64-Ltext0
 2117 040e C2050000 		.long	LVL65-Ltext0
 2118 0412 0100     		.word	0x1
 2119 0414 50       		.byte	0x50
 2120 0415 F1050000 		.long	LVL66-Ltext0
 2121 0419 F7050000 		.long	LVL67-Ltext0
 2122 041d 0100     		.word	0x1
 2123 041f 50       		.byte	0x50
 2124 0420 26060000 		.long	LVL68-Ltext0
 2125 0424 2C060000 		.long	LVL69-Ltext0
 2126 0428 0100     		.word	0x1
 2127 042a 50       		.byte	0x50
 2128 042b 5B060000 		.long	LVL70-Ltext0
 2129 042f 61060000 		.long	LVL71-Ltext0
 2130 0433 0100     		.word	0x1
 2131 0435 50       		.byte	0x50
 2132 0436 90060000 		.long	LVL72-Ltext0
 2133 043a 96060000 		.long	LVL73-Ltext0
 2134 043e 0100     		.word	0x1
 2135 0440 50       		.byte	0x50
 2136 0441 CB060000 		.long	LVL76-Ltext0
 2137 0445 D1060000 		.long	LVL77-Ltext0
 2138 0449 0100     		.word	0x1
 2139 044b 50       		.byte	0x50
 2140 044c 00000000 		.long	0x0
 2141 0450 00000000 		.long	0x0
 2142              	LLST28:
 2143 0454 7D050000 		.long	LVL57-Ltext0
 2144 0458 84050000 		.long	LVL59-Ltext0
 2145 045c 0100     		.word	0x1
GAS LISTING /cygdrive/c/Users/THESCI~1/AppData/Local/Temp/ccu2GGTU.s 			page 57


 2146 045e 50       		.byte	0x50
 2147 045f 89050000 		.long	LVL62-Ltext0
 2148 0463 92050000 		.long	LVL63-Ltext0
 2149 0467 0100     		.word	0x1
 2150 0469 50       		.byte	0x50
 2151 046a 00000000 		.long	0x0
 2152 046e 00000000 		.long	0x0
 2153              	LLST29:
 2154 0472 22070000 		.long	LVL84-Ltext0
 2155 0476 5E070000 		.long	LVL86-Ltext0
 2156 047a 0100     		.word	0x1
 2157 047c 51       		.byte	0x51
 2158 047d 00000000 		.long	0x0
 2159 0481 00000000 		.long	0x0
 2160              	LLST30:
 2161 0485 20070000 		.long	LVL83-Ltext0
 2162 0489 51070000 		.long	LVL85-Ltext0
 2163 048d 0100     		.word	0x1
 2164 048f 52       		.byte	0x52
 2165 0490 00000000 		.long	0x0
 2166 0494 00000000 		.long	0x0
 2167              	LLST31:
 2168 0498 70070000 		.long	LFB7-Ltext0
 2169 049c 71070000 		.long	LCFI26-Ltext0
 2170 04a0 0200     		.word	0x2
 2171 04a2 74       		.byte	0x74
 2172 04a3 04       		.sleb128 4
 2173 04a4 71070000 		.long	LCFI26-Ltext0
 2174 04a8 73070000 		.long	LCFI27-Ltext0
 2175 04ac 0200     		.word	0x2
 2176 04ae 74       		.byte	0x74
 2177 04af 08       		.sleb128 8
 2178 04b0 73070000 		.long	LCFI27-Ltext0
 2179 04b4 200A0000 		.long	LFE7-Ltext0
 2180 04b8 0200     		.word	0x2
 2181 04ba 75       		.byte	0x75
 2182 04bb 08       		.sleb128 8
 2183 04bc 00000000 		.long	0x0
 2184 04c0 00000000 		.long	0x0
 2185              	LLST32:
 2186 04c4 70070000 		.long	LVL88-Ltext0
 2187 04c8 B9070000 		.long	LVL91-Ltext0
 2188 04cc 0200     		.word	0x2
 2189 04ce 91       		.byte	0x91
 2190 04cf 00       		.sleb128 0
 2191 04d0 B9070000 		.long	LVL91-Ltext0
 2192 04d4 FF090000 		.long	LVL118-Ltext0
 2193 04d8 0100     		.word	0x1
 2194 04da 56       		.byte	0x56
 2195 04db FF090000 		.long	LVL118-Ltext0
 2196 04df 020A0000 		.long	LVL119-Ltext0
 2197 04e3 0200     		.word	0x2
 2198 04e5 75       		.byte	0x75
 2199 04e6 08       		.sleb128 8
 2200 04e7 020A0000 		.long	LVL119-Ltext0
 2201 04eb 200A0000 		.long	LFE7-Ltext0
 2202 04ef 0100     		.word	0x1
GAS LISTING /cygdrive/c/Users/THESCI~1/AppData/Local/Temp/ccu2GGTU.s 			page 58


 2203 04f1 56       		.byte	0x56
 2204 04f2 00000000 		.long	0x0
 2205 04f6 00000000 		.long	0x0
 2206              	LLST33:
 2207 04fa 70070000 		.long	LVL88-Ltext0
 2208 04fe E0090000 		.long	LVL114-Ltext0
 2209 0502 0200     		.word	0x2
 2210 0504 91       		.byte	0x91
 2211 0505 04       		.sleb128 4
 2212 0506 E0090000 		.long	LVL114-Ltext0
 2213 050a 200A0000 		.long	LFE7-Ltext0
 2214 050e 0200     		.word	0x2
 2215 0510 75       		.byte	0x75
 2216 0511 0C       		.sleb128 12
 2217 0512 00000000 		.long	0x0
 2218 0516 00000000 		.long	0x0
 2219              	LLST34:
 2220 051a 70070000 		.long	LVL88-Ltext0
 2221 051e B9070000 		.long	LVL91-Ltext0
 2222 0522 0200     		.word	0x2
 2223 0524 91       		.byte	0x91
 2224 0525 08       		.sleb128 8
 2225 0526 B9070000 		.long	LVL91-Ltext0
 2226 052a 200A0000 		.long	LFE7-Ltext0
 2227 052e 0200     		.word	0x2
 2228 0530 75       		.byte	0x75
 2229 0531 10       		.sleb128 16
 2230 0532 00000000 		.long	0x0
 2231 0536 00000000 		.long	0x0
 2232              	LLST35:
 2233 053a DC090000 		.long	LVL112-Ltext0
 2234 053e DE090000 		.long	LVL113-Ltext0
 2235 0542 0100     		.word	0x1
 2236 0544 50       		.byte	0x50
 2237 0545 020A0000 		.long	LVL119-Ltext0
 2238 0549 200A0000 		.long	LFE7-Ltext0
 2239 054d 0100     		.word	0x1
 2240 054f 53       		.byte	0x53
 2241 0550 00000000 		.long	0x0
 2242 0554 00000000 		.long	0x0
 2243              	LLST36:
 2244 0558 9C070000 		.long	LVL89-Ltext0
 2245 055c 05080000 		.long	LVL95-Ltext0
 2246 0560 0100     		.word	0x1
 2247 0562 53       		.byte	0x53
 2248 0563 00000000 		.long	0x0
 2249 0567 00000000 		.long	0x0
 2250              	LLST37:
 2251 056b B7070000 		.long	LVL90-Ltext0
 2252 056f F4070000 		.long	LVL94-Ltext0
 2253 0573 0100     		.word	0x1
 2254 0575 51       		.byte	0x51
 2255 0576 00000000 		.long	0x0
 2256 057a 00000000 		.long	0x0
 2257              	LLST38:
 2258 057e BB070000 		.long	LVL92-Ltext0
 2259 0582 DB070000 		.long	LVL93-Ltext0
GAS LISTING /cygdrive/c/Users/THESCI~1/AppData/Local/Temp/ccu2GGTU.s 			page 59


 2260 0586 0100     		.word	0x1
 2261 0588 52       		.byte	0x52
 2262 0589 F3090000 		.long	LVL115-Ltext0
 2263 058d FD090000 		.long	LVL116-Ltext0
 2264 0591 0100     		.word	0x1
 2265 0593 50       		.byte	0x50
 2266 0594 020A0000 		.long	LVL119-Ltext0
 2267 0598 0A0A0000 		.long	LVL120-Ltext0
 2268 059c 0100     		.word	0x1
 2269 059e 50       		.byte	0x50
 2270 059f 00000000 		.long	0x0
 2271 05a3 00000000 		.long	0x0
 2272              	LLST39:
 2273 05a7 05080000 		.long	LVL95-Ltext0
 2274 05ab DE090000 		.long	LVL113-Ltext0
 2275 05af 0100     		.word	0x1
 2276 05b1 53       		.byte	0x53
 2277 05b2 00000000 		.long	0x0
 2278 05b6 00000000 		.long	0x0
 2279              	LLST40:
 2280 05ba 2D080000 		.long	LVL96-Ltext0
 2281 05be 30080000 		.long	LVL97-Ltext0
 2282 05c2 0100     		.word	0x1
 2283 05c4 50       		.byte	0x50
 2284 05c5 65080000 		.long	LVL98-Ltext0
 2285 05c9 68080000 		.long	LVL99-Ltext0
 2286 05cd 0100     		.word	0x1
 2287 05cf 50       		.byte	0x50
 2288 05d0 9D080000 		.long	LVL100-Ltext0
 2289 05d4 A0080000 		.long	LVL101-Ltext0
 2290 05d8 0100     		.word	0x1
 2291 05da 50       		.byte	0x50
 2292 05db D5080000 		.long	LVL102-Ltext0
 2293 05df D8080000 		.long	LVL103-Ltext0
 2294 05e3 0100     		.word	0x1
 2295 05e5 50       		.byte	0x50
 2296 05e6 0D090000 		.long	LVL104-Ltext0
 2297 05ea 10090000 		.long	LVL105-Ltext0
 2298 05ee 0100     		.word	0x1
 2299 05f0 50       		.byte	0x50
 2300 05f1 45090000 		.long	LVL106-Ltext0
 2301 05f5 48090000 		.long	LVL107-Ltext0
 2302 05f9 0100     		.word	0x1
 2303 05fb 50       		.byte	0x50
 2304 05fc 7D090000 		.long	LVL108-Ltext0
 2305 0600 80090000 		.long	LVL109-Ltext0
 2306 0604 0100     		.word	0x1
 2307 0606 50       		.byte	0x50
 2308 0607 B5090000 		.long	LVL110-Ltext0
 2309 060b B8090000 		.long	LVL111-Ltext0
 2310 060f 0100     		.word	0x1
 2311 0611 50       		.byte	0x50
 2312 0612 00000000 		.long	0x0
 2313 0616 00000000 		.long	0x0
 2314              	LLST41:
 2315 061a 200A0000 		.long	LFB6-Ltext0
 2316 061e 210A0000 		.long	LCFI32-Ltext0
GAS LISTING /cygdrive/c/Users/THESCI~1/AppData/Local/Temp/ccu2GGTU.s 			page 60


 2317 0622 0200     		.word	0x2
 2318 0624 74       		.byte	0x74
 2319 0625 04       		.sleb128 4
 2320 0626 210A0000 		.long	LCFI32-Ltext0
 2321 062a 230A0000 		.long	LCFI33-Ltext0
 2322 062e 0200     		.word	0x2
 2323 0630 74       		.byte	0x74
 2324 0631 08       		.sleb128 8
 2325 0632 230A0000 		.long	LCFI33-Ltext0
 2326 0636 A60D0000 		.long	LFE6-Ltext0
 2327 063a 0200     		.word	0x2
 2328 063c 75       		.byte	0x75
 2329 063d 08       		.sleb128 8
 2330 063e 00000000 		.long	0x0
 2331 0642 00000000 		.long	0x0
 2332              	LLST42:
 2333 0646 200A0000 		.long	LVL121-Ltext0
 2334 064a 690A0000 		.long	LVL124-Ltext0
 2335 064e 0200     		.word	0x2
 2336 0650 91       		.byte	0x91
 2337 0651 00       		.sleb128 0
 2338 0652 690A0000 		.long	LVL124-Ltext0
 2339 0656 110B0000 		.long	LVL133-Ltext0
 2340 065a 0100     		.word	0x1
 2341 065c 57       		.byte	0x57
 2342 065d 110B0000 		.long	LVL133-Ltext0
 2343 0661 130B0000 		.long	LVL134-Ltext0
 2344 0665 0200     		.word	0x2
 2345 0667 75       		.byte	0x75
 2346 0668 08       		.sleb128 8
 2347 0669 130B0000 		.long	LVL134-Ltext0
 2348 066d 960D0000 		.long	LVL164-Ltext0
 2349 0671 0100     		.word	0x1
 2350 0673 57       		.byte	0x57
 2351 0674 960D0000 		.long	LVL164-Ltext0
 2352 0678 980D0000 		.long	LVL165-Ltext0
 2353 067c 0200     		.word	0x2
 2354 067e 75       		.byte	0x75
 2355 067f 08       		.sleb128 8
 2356 0680 980D0000 		.long	LVL165-Ltext0
 2357 0684 A60D0000 		.long	LFE6-Ltext0
 2358 0688 0100     		.word	0x1
 2359 068a 57       		.byte	0x57
 2360 068b 00000000 		.long	0x0
 2361 068f 00000000 		.long	0x0
 2362              	LLST43:
 2363 0693 200A0000 		.long	LVL121-Ltext0
 2364 0697 4D0B0000 		.long	LVL138-Ltext0
 2365 069b 0200     		.word	0x2
 2366 069d 91       		.byte	0x91
 2367 069e 04       		.sleb128 4
 2368 069f 4D0B0000 		.long	LVL138-Ltext0
 2369 06a3 A60D0000 		.long	LFE6-Ltext0
 2370 06a7 0200     		.word	0x2
 2371 06a9 75       		.byte	0x75
 2372 06aa 0C       		.sleb128 12
 2373 06ab 00000000 		.long	0x0
GAS LISTING /cygdrive/c/Users/THESCI~1/AppData/Local/Temp/ccu2GGTU.s 			page 61


 2374 06af 00000000 		.long	0x0
 2375              	LLST44:
 2376 06b3 200A0000 		.long	LVL121-Ltext0
 2377 06b7 690A0000 		.long	LVL124-Ltext0
 2378 06bb 0200     		.word	0x2
 2379 06bd 91       		.byte	0x91
 2380 06be 08       		.sleb128 8
 2381 06bf 690A0000 		.long	LVL124-Ltext0
 2382 06c3 A60D0000 		.long	LFE6-Ltext0
 2383 06c7 0200     		.word	0x2
 2384 06c9 75       		.byte	0x75
 2385 06ca 10       		.sleb128 16
 2386 06cb 00000000 		.long	0x0
 2387 06cf 00000000 		.long	0x0
 2388              	LLST45:
 2389 06d3 490A0000 		.long	LVL122-Ltext0
 2390 06d7 ED0A0000 		.long	LVL130-Ltext0
 2391 06db 0100     		.word	0x1
 2392 06dd 53       		.byte	0x53
 2393 06de 080B0000 		.long	LVL131-Ltext0
 2394 06e2 0F0B0000 		.long	LVL132-Ltext0
 2395 06e6 0100     		.word	0x1
 2396 06e8 53       		.byte	0x53
 2397 06e9 00000000 		.long	0x0
 2398 06ed 00000000 		.long	0x0
 2399              	LLST46:
 2400 06f1 670A0000 		.long	LVL123-Ltext0
 2401 06f5 A40A0000 		.long	LVL127-Ltext0
 2402 06f9 0100     		.word	0x1
 2403 06fb 51       		.byte	0x51
 2404 06fc 00000000 		.long	0x0
 2405 0700 00000000 		.long	0x0
 2406              	LLST47:
 2407 0704 6B0A0000 		.long	LVL125-Ltext0
 2408 0708 970A0000 		.long	LVL126-Ltext0
 2409 070c 0100     		.word	0x1
 2410 070e 52       		.byte	0x52
 2411 070f EB0A0000 		.long	LVL129-Ltext0
 2412 0713 ED0A0000 		.long	LVL130-Ltext0
 2413 0717 0100     		.word	0x1
 2414 0719 50       		.byte	0x50
 2415 071a 130B0000 		.long	LVL134-Ltext0
 2416 071e 240B0000 		.long	LVL135-Ltext0
 2417 0722 0100     		.word	0x1
 2418 0724 53       		.byte	0x53
 2419 0725 00000000 		.long	0x0
 2420 0729 00000000 		.long	0x0
 2421              	LLST48:
 2422 072d 080B0000 		.long	LVL131-Ltext0
 2423 0731 0F0B0000 		.long	LVL132-Ltext0
 2424 0735 0100     		.word	0x1
 2425 0737 53       		.byte	0x53
 2426 0738 240B0000 		.long	LVL135-Ltext0
 2427 073c 940D0000 		.long	LVL163-Ltext0
 2428 0740 0100     		.word	0x1
 2429 0742 53       		.byte	0x53
 2430 0743 980D0000 		.long	LVL165-Ltext0
GAS LISTING /cygdrive/c/Users/THESCI~1/AppData/Local/Temp/ccu2GGTU.s 			page 62


 2431 0747 A60D0000 		.long	LFE6-Ltext0
 2432 074b 0100     		.word	0x1
 2433 074d 53       		.byte	0x53
 2434 074e 00000000 		.long	0x0
 2435 0752 00000000 		.long	0x0
 2436              	LLST49:
 2437 0756 450B0000 		.long	LVL136-Ltext0
 2438 075a 470B0000 		.long	LVL137-Ltext0
 2439 075e 0100     		.word	0x1
 2440 0760 50       		.byte	0x50
 2441 0761 8B0B0000 		.long	LVL140-Ltext0
 2442 0765 8D0B0000 		.long	LVL141-Ltext0
 2443 0769 0100     		.word	0x1
 2444 076b 50       		.byte	0x50
 2445 076c D20B0000 		.long	LVL143-Ltext0
 2446 0770 D40B0000 		.long	LVL144-Ltext0
 2447 0774 0100     		.word	0x1
 2448 0776 50       		.byte	0x50
 2449 0777 190C0000 		.long	LVL146-Ltext0
 2450 077b 1B0C0000 		.long	LVL147-Ltext0
 2451 077f 0100     		.word	0x1
 2452 0781 50       		.byte	0x50
 2453 0782 600C0000 		.long	LVL149-Ltext0
 2454 0786 620C0000 		.long	LVL150-Ltext0
 2455 078a 0100     		.word	0x1
 2456 078c 50       		.byte	0x50
 2457 078d A70C0000 		.long	LVL152-Ltext0
 2458 0791 A90C0000 		.long	LVL153-Ltext0
 2459 0795 0100     		.word	0x1
 2460 0797 50       		.byte	0x50
 2461 0798 ED0C0000 		.long	LVL155-Ltext0
 2462 079c EF0C0000 		.long	LVL156-Ltext0
 2463 07a0 0100     		.word	0x1
 2464 07a2 50       		.byte	0x50
 2465 07a3 330D0000 		.long	LVL158-Ltext0
 2466 07a7 350D0000 		.long	LVL159-Ltext0
 2467 07ab 0100     		.word	0x1
 2468 07ad 50       		.byte	0x50
 2469 07ae 750D0000 		.long	LVL161-Ltext0
 2470 07b2 800D0000 		.long	LVL162-Ltext0
 2471 07b6 0100     		.word	0x1
 2472 07b8 51       		.byte	0x51
 2473 07b9 00000000 		.long	0x0
 2474 07bd 00000000 		.long	0x0
 2475              		.file 2 "/usr/lib/gcc/i686-pc-cygwin/4.3.4/include/stdarg.h"
 2476              		.file 3 "/usr/include/sys/lock.h"
 2477              		.file 4 "/usr/include/sys/_types.h"
 2478              		.file 5 "/usr/lib/gcc/i686-pc-cygwin/4.3.4/include/stddef.h"
 2479              		.file 6 "/usr/include/sys/reent.h"
 2480              		.file 7 "/usr/include/stdint.h"
 2481              		.file 8 "/usr/include/stdio.h"
 2482              		.file 9 "/usr/lib/gcc/i686-pc-cygwin/4.3.4/include/jni_md.h"
 2483              		.file 10 "/usr/lib/gcc/i686-pc-cygwin/4.3.4/include/jni.h"
 2484              		.file 11 "./Source/../Headers/Defines.h"
 2485              		.file 12 "./Source/../Headers/CS229Image.h"
 2486              		.section	.debug_info,"dr"
 2487 0000 D9500000 		.long	0x50d9
GAS LISTING /cygdrive/c/Users/THESCI~1/AppData/Local/Temp/ccu2GGTU.s 			page 63


 2488 0004 0200     		.word	0x2
 2489 0006 00000000 		.secrel32	Ldebug_abbrev0
 2490 000a 04       		.byte	0x4
 2491 000b 01       		.uleb128 0x1
 2492 000c 474E5520 		.ascii "GNU C 4.3.4 20090804 (release) 1\0"
 2492      4320342E 
 2492      332E3420 
 2492      32303039 
 2492      30383034 
 2493 002d 01       		.byte	0x1
 2494 002e 2E2F536F 		.ascii "./Source/CS229_Image.c\0"
 2494      75726365 
 2494      2F435332 
 2494      32395F49 
 2494      6D616765 
 2495 0045 2F637967 		.ascii "/cygdrive/c/Users/The Science Guy/Documents/NetBeansProjects/C Project\0"
 2495      64726976 
 2495      652F632F 
 2495      55736572 
 2495      732F5468 
 2496 008c 00000000 		.long	Ltext0
 2497 0090 A60D0000 		.long	Letext0
 2498 0094 00000000 		.secrel32	Ldebug_line0
 2499 0098 02       		.uleb128 0x2
 2500 0099 04       		.byte	0x4
 2501 009a 07       		.byte	0x7
 2502 009b 756E7369 		.ascii "unsigned int\0"
 2502      676E6564 
 2502      20696E74 
 2502      00
 2503 00a8 03       		.uleb128 0x3
 2504 00a9 5F5F676E 		.ascii "__gnuc_va_list\0"
 2504      75635F76 
 2504      615F6C69 
 2504      737400
 2505 00b8 02       		.byte	0x2
 2506 00b9 2B       		.byte	0x2b
 2507 00ba BE000000 		.long	0xbe
 2508 00be 04       		.uleb128 0x4
 2509 00bf 04       		.byte	0x4
 2510 00c0 5F5F6275 		.ascii "__builtin_va_list\0"
 2510      696C7469 
 2510      6E5F7661 
 2510      5F6C6973 
 2510      7400
 2511 00d2 D6000000 		.long	0xd6
 2512 00d6 02       		.uleb128 0x2
 2513 00d7 01       		.byte	0x1
 2514 00d8 06       		.byte	0x6
 2515 00d9 63686172 		.ascii "char\0"
 2515      00
 2516 00de 02       		.uleb128 0x2
 2517 00df 01       		.byte	0x1
 2518 00e0 06       		.byte	0x6
 2519 00e1 7369676E 		.ascii "signed char\0"
 2519      65642063 
 2519      68617200 
GAS LISTING /cygdrive/c/Users/THESCI~1/AppData/Local/Temp/ccu2GGTU.s 			page 64


 2520 00ed 02       		.uleb128 0x2
 2521 00ee 01       		.byte	0x1
 2522 00ef 08       		.byte	0x8
 2523 00f0 756E7369 		.ascii "unsigned char\0"
 2523      676E6564 
 2523      20636861 
 2523      7200
 2524 00fe 02       		.uleb128 0x2
 2525 00ff 02       		.byte	0x2
 2526 0100 05       		.byte	0x5
 2527 0101 73686F72 		.ascii "short int\0"
 2527      7420696E 
 2527      7400
 2528 010b 02       		.uleb128 0x2
 2529 010c 02       		.byte	0x2
 2530 010d 07       		.byte	0x7
 2531 010e 73686F72 		.ascii "short unsigned int\0"
 2531      7420756E 
 2531      7369676E 
 2531      65642069 
 2531      6E7400
 2532 0121 02       		.uleb128 0x2
 2533 0122 04       		.byte	0x4
 2534 0123 05       		.byte	0x5
 2535 0124 696E7400 		.ascii "int\0"
 2536 0128 02       		.uleb128 0x2
 2537 0129 08       		.byte	0x8
 2538 012a 05       		.byte	0x5
 2539 012b 6C6F6E67 		.ascii "long long int\0"
 2539      206C6F6E 
 2539      6720696E 
 2539      7400
 2540 0139 02       		.uleb128 0x2
 2541 013a 08       		.byte	0x8
 2542 013b 07       		.byte	0x7
 2543 013c 6C6F6E67 		.ascii "long long unsigned int\0"
 2543      206C6F6E 
 2543      6720756E 
 2543      7369676E 
 2543      65642069 
 2544 0153 03       		.uleb128 0x3
 2545 0154 5F4C4F43 		.ascii "_LOCK_T\0"
 2545      4B5F5400 
 2546 015c 03       		.byte	0x3
 2547 015d 0E       		.byte	0xe
 2548 015e 62010000 		.long	0x162
 2549 0162 05       		.uleb128 0x5
 2550 0163 04       		.byte	0x4
 2551 0164 02       		.uleb128 0x2
 2552 0165 04       		.byte	0x4
 2553 0166 05       		.byte	0x5
 2554 0167 6C6F6E67 		.ascii "long int\0"
 2554      20696E74 
 2554      00
 2555 0170 03       		.uleb128 0x3
 2556 0171 5F6F6666 		.ascii "_off64_t\0"
 2556      36345F74 
GAS LISTING /cygdrive/c/Users/THESCI~1/AppData/Local/Temp/ccu2GGTU.s 			page 65


 2556      00
 2557 017a 04       		.byte	0x4
 2558 017b 24       		.byte	0x24
 2559 017c 28010000 		.long	0x128
 2560 0180 03       		.uleb128 0x3
 2561 0181 5F66706F 		.ascii "_fpos_t\0"
 2561      735F7400 
 2562 0189 04       		.byte	0x4
 2563 018a 2C       		.byte	0x2c
 2564 018b 64010000 		.long	0x164
 2565 018f 03       		.uleb128 0x3
 2566 0190 5F66706F 		.ascii "_fpos64_t\0"
 2566      7336345F 
 2566      7400
 2567 019a 04       		.byte	0x4
 2568 019b 32       		.byte	0x32
 2569 019c 70010000 		.long	0x170
 2570 01a0 03       		.uleb128 0x3
 2571 01a1 5F737369 		.ascii "_ssize_t\0"
 2571      7A655F74 
 2571      00
 2572 01aa 04       		.byte	0x4
 2573 01ab 38       		.byte	0x38
 2574 01ac 21010000 		.long	0x121
 2575 01b0 06       		.uleb128 0x6
 2576 01b1 77696E74 		.ascii "wint_t\0"
 2576      5F7400
 2577 01b8 05       		.byte	0x5
 2578 01b9 6301     		.word	0x163
 2579 01bb 98000000 		.long	0x98
 2580 01bf 07       		.uleb128 0x7
 2581 01c0 04       		.byte	0x4
 2582 01c1 04       		.byte	0x4
 2583 01c2 47       		.byte	0x47
 2584 01c3 E3010000 		.long	0x1e3
 2585 01c7 08       		.uleb128 0x8
 2586 01c8 5F5F7763 		.ascii "__wch\0"
 2586      6800
 2587 01ce 04       		.byte	0x4
 2588 01cf 48       		.byte	0x48
 2589 01d0 B0010000 		.long	0x1b0
 2590 01d4 08       		.uleb128 0x8
 2591 01d5 5F5F7763 		.ascii "__wchb\0"
 2591      686200
 2592 01dc 04       		.byte	0x4
 2593 01dd 49       		.byte	0x49
 2594 01de E3010000 		.long	0x1e3
 2595 01e2 00       		.byte	0x0
 2596 01e3 09       		.uleb128 0x9
 2597 01e4 ED000000 		.long	0xed
 2598 01e8 F3010000 		.long	0x1f3
 2599 01ec 0A       		.uleb128 0xa
 2600 01ed F3010000 		.long	0x1f3
 2601 01f1 03       		.byte	0x3
 2602 01f2 00       		.byte	0x0
 2603 01f3 0B       		.uleb128 0xb
 2604 01f4 04       		.byte	0x4
GAS LISTING /cygdrive/c/Users/THESCI~1/AppData/Local/Temp/ccu2GGTU.s 			page 66


 2605 01f5 07       		.byte	0x7
 2606 01f6 0C       		.uleb128 0xc
 2607 01f7 08       		.byte	0x8
 2608 01f8 04       		.byte	0x4
 2609 01f9 44       		.byte	0x44
 2610 01fa 23020000 		.long	0x223
 2611 01fe 0D       		.uleb128 0xd
 2612 01ff 5F5F636F 		.ascii "__count\0"
 2612      756E7400 
 2613 0207 04       		.byte	0x4
 2614 0208 45       		.byte	0x45
 2615 0209 21010000 		.long	0x121
 2616 020d 02       		.byte	0x2
 2617 020e 23       		.byte	0x23
 2618 020f 00       		.uleb128 0x0
 2619 0210 0D       		.uleb128 0xd
 2620 0211 5F5F7661 		.ascii "__value\0"
 2620      6C756500 
 2621 0219 04       		.byte	0x4
 2622 021a 4A       		.byte	0x4a
 2623 021b BF010000 		.long	0x1bf
 2624 021f 02       		.byte	0x2
 2625 0220 23       		.byte	0x23
 2626 0221 04       		.uleb128 0x4
 2627 0222 00       		.byte	0x0
 2628 0223 03       		.uleb128 0x3
 2629 0224 5F6D6273 		.ascii "_mbstate_t\0"
 2629      74617465 
 2629      5F7400
 2630 022f 04       		.byte	0x4
 2631 0230 4B       		.byte	0x4b
 2632 0231 F6010000 		.long	0x1f6
 2633 0235 03       		.uleb128 0x3
 2634 0236 5F666C6F 		.ascii "_flock_t\0"
 2634      636B5F74 
 2634      00
 2635 023f 04       		.byte	0x4
 2636 0240 4F       		.byte	0x4f
 2637 0241 53010000 		.long	0x153
 2638 0245 03       		.uleb128 0x3
 2639 0246 5F5F554C 		.ascii "__ULong\0"
 2639      6F6E6700 
 2640 024e 06       		.byte	0x6
 2641 024f 15       		.byte	0x15
 2642 0250 54020000 		.long	0x254
 2643 0254 02       		.uleb128 0x2
 2644 0255 04       		.byte	0x4
 2645 0256 07       		.byte	0x7
 2646 0257 6C6F6E67 		.ascii "long unsigned int\0"
 2646      20756E73 
 2646      69676E65 
 2646      6420696E 
 2646      7400
 2647 0269 0E       		.uleb128 0xe
 2648 026a 5F426967 		.ascii "_Bigint\0"
 2648      696E7400 
 2649 0272 18       		.byte	0x18
GAS LISTING /cygdrive/c/Users/THESCI~1/AppData/Local/Temp/ccu2GGTU.s 			page 67


 2650 0273 06       		.byte	0x6
 2651 0274 2D       		.byte	0x2d
 2652 0275 D5020000 		.long	0x2d5
 2653 0279 0D       		.uleb128 0xd
 2654 027a 5F6E6578 		.ascii "_next\0"
 2654      7400
 2655 0280 06       		.byte	0x6
 2656 0281 2E       		.byte	0x2e
 2657 0282 D5020000 		.long	0x2d5
 2658 0286 02       		.byte	0x2
 2659 0287 23       		.byte	0x23
 2660 0288 00       		.uleb128 0x0
 2661 0289 0D       		.uleb128 0xd
 2662 028a 5F6B00   		.ascii "_k\0"
 2663 028d 06       		.byte	0x6
 2664 028e 2F       		.byte	0x2f
 2665 028f 21010000 		.long	0x121
 2666 0293 02       		.byte	0x2
 2667 0294 23       		.byte	0x23
 2668 0295 04       		.uleb128 0x4
 2669 0296 0D       		.uleb128 0xd
 2670 0297 5F6D6178 		.ascii "_maxwds\0"
 2670      77647300 
 2671 029f 06       		.byte	0x6
 2672 02a0 2F       		.byte	0x2f
 2673 02a1 21010000 		.long	0x121
 2674 02a5 02       		.byte	0x2
 2675 02a6 23       		.byte	0x23
 2676 02a7 08       		.uleb128 0x8
 2677 02a8 0D       		.uleb128 0xd
 2678 02a9 5F736967 		.ascii "_sign\0"
 2678      6E00
 2679 02af 06       		.byte	0x6
 2680 02b0 2F       		.byte	0x2f
 2681 02b1 21010000 		.long	0x121
 2682 02b5 02       		.byte	0x2
 2683 02b6 23       		.byte	0x23
 2684 02b7 0C       		.uleb128 0xc
 2685 02b8 0D       		.uleb128 0xd
 2686 02b9 5F776473 		.ascii "_wds\0"
 2686      00
 2687 02be 06       		.byte	0x6
 2688 02bf 2F       		.byte	0x2f
 2689 02c0 21010000 		.long	0x121
 2690 02c4 02       		.byte	0x2
 2691 02c5 23       		.byte	0x23
 2692 02c6 10       		.uleb128 0x10
 2693 02c7 0D       		.uleb128 0xd
 2694 02c8 5F7800   		.ascii "_x\0"
 2695 02cb 06       		.byte	0x6
 2696 02cc 30       		.byte	0x30
 2697 02cd DB020000 		.long	0x2db
 2698 02d1 02       		.byte	0x2
 2699 02d2 23       		.byte	0x23
 2700 02d3 14       		.uleb128 0x14
 2701 02d4 00       		.byte	0x0
 2702 02d5 0F       		.uleb128 0xf
GAS LISTING /cygdrive/c/Users/THESCI~1/AppData/Local/Temp/ccu2GGTU.s 			page 68


 2703 02d6 04       		.byte	0x4
 2704 02d7 69020000 		.long	0x269
 2705 02db 09       		.uleb128 0x9
 2706 02dc 45020000 		.long	0x245
 2707 02e0 EB020000 		.long	0x2eb
 2708 02e4 0A       		.uleb128 0xa
 2709 02e5 F3010000 		.long	0x1f3
 2710 02e9 00       		.byte	0x0
 2711 02ea 00       		.byte	0x0
 2712 02eb 0E       		.uleb128 0xe
 2713 02ec 5F5F746D 		.ascii "__tm\0"
 2713      00
 2714 02f1 24       		.byte	0x24
 2715 02f2 06       		.byte	0x6
 2716 02f3 35       		.byte	0x35
 2717 02f4 AB030000 		.long	0x3ab
 2718 02f8 0D       		.uleb128 0xd
 2719 02f9 5F5F746D 		.ascii "__tm_sec\0"
 2719      5F736563 
 2719      00
 2720 0302 06       		.byte	0x6
 2721 0303 36       		.byte	0x36
 2722 0304 21010000 		.long	0x121
 2723 0308 02       		.byte	0x2
 2724 0309 23       		.byte	0x23
 2725 030a 00       		.uleb128 0x0
 2726 030b 0D       		.uleb128 0xd
 2727 030c 5F5F746D 		.ascii "__tm_min\0"
 2727      5F6D696E 
 2727      00
 2728 0315 06       		.byte	0x6
 2729 0316 37       		.byte	0x37
 2730 0317 21010000 		.long	0x121
 2731 031b 02       		.byte	0x2
 2732 031c 23       		.byte	0x23
 2733 031d 04       		.uleb128 0x4
 2734 031e 0D       		.uleb128 0xd
 2735 031f 5F5F746D 		.ascii "__tm_hour\0"
 2735      5F686F75 
 2735      7200
 2736 0329 06       		.byte	0x6
 2737 032a 38       		.byte	0x38
 2738 032b 21010000 		.long	0x121
 2739 032f 02       		.byte	0x2
 2740 0330 23       		.byte	0x23
 2741 0331 08       		.uleb128 0x8
 2742 0332 0D       		.uleb128 0xd
 2743 0333 5F5F746D 		.ascii "__tm_mday\0"
 2743      5F6D6461 
 2743      7900
 2744 033d 06       		.byte	0x6
 2745 033e 39       		.byte	0x39
 2746 033f 21010000 		.long	0x121
 2747 0343 02       		.byte	0x2
 2748 0344 23       		.byte	0x23
 2749 0345 0C       		.uleb128 0xc
 2750 0346 0D       		.uleb128 0xd
GAS LISTING /cygdrive/c/Users/THESCI~1/AppData/Local/Temp/ccu2GGTU.s 			page 69


 2751 0347 5F5F746D 		.ascii "__tm_mon\0"
 2751      5F6D6F6E 
 2751      00
 2752 0350 06       		.byte	0x6
 2753 0351 3A       		.byte	0x3a
 2754 0352 21010000 		.long	0x121
 2755 0356 02       		.byte	0x2
 2756 0357 23       		.byte	0x23
 2757 0358 10       		.uleb128 0x10
 2758 0359 0D       		.uleb128 0xd
 2759 035a 5F5F746D 		.ascii "__tm_year\0"
 2759      5F796561 
 2759      7200
 2760 0364 06       		.byte	0x6
 2761 0365 3B       		.byte	0x3b
 2762 0366 21010000 		.long	0x121
 2763 036a 02       		.byte	0x2
 2764 036b 23       		.byte	0x23
 2765 036c 14       		.uleb128 0x14
 2766 036d 0D       		.uleb128 0xd
 2767 036e 5F5F746D 		.ascii "__tm_wday\0"
 2767      5F776461 
 2767      7900
 2768 0378 06       		.byte	0x6
 2769 0379 3C       		.byte	0x3c
 2770 037a 21010000 		.long	0x121
 2771 037e 02       		.byte	0x2
 2772 037f 23       		.byte	0x23
 2773 0380 18       		.uleb128 0x18
 2774 0381 0D       		.uleb128 0xd
 2775 0382 5F5F746D 		.ascii "__tm_yday\0"
 2775      5F796461 
 2775      7900
 2776 038c 06       		.byte	0x6
 2777 038d 3D       		.byte	0x3d
 2778 038e 21010000 		.long	0x121
 2779 0392 02       		.byte	0x2
 2780 0393 23       		.byte	0x23
 2781 0394 1C       		.uleb128 0x1c
 2782 0395 0D       		.uleb128 0xd
 2783 0396 5F5F746D 		.ascii "__tm_isdst\0"
 2783      5F697364 
 2783      737400
 2784 03a1 06       		.byte	0x6
 2785 03a2 3E       		.byte	0x3e
 2786 03a3 21010000 		.long	0x121
 2787 03a7 02       		.byte	0x2
 2788 03a8 23       		.byte	0x23
 2789 03a9 20       		.uleb128 0x20
 2790 03aa 00       		.byte	0x0
 2791 03ab 10       		.uleb128 0x10
 2792 03ac 41000000 		.secrel32	LASF0
 2793 03b0 0801     		.word	0x108
 2794 03b2 06       		.byte	0x6
 2795 03b3 47       		.byte	0x47
 2796 03b4 09040000 		.long	0x409
 2797 03b8 0D       		.uleb128 0xd
GAS LISTING /cygdrive/c/Users/THESCI~1/AppData/Local/Temp/ccu2GGTU.s 			page 70


 2798 03b9 5F666E61 		.ascii "_fnargs\0"
 2798      72677300 
 2799 03c1 06       		.byte	0x6
 2800 03c2 48       		.byte	0x48
 2801 03c3 09040000 		.long	0x409
 2802 03c7 02       		.byte	0x2
 2803 03c8 23       		.byte	0x23
 2804 03c9 00       		.uleb128 0x0
 2805 03ca 0D       		.uleb128 0xd
 2806 03cb 5F64736F 		.ascii "_dso_handle\0"
 2806      5F68616E 
 2806      646C6500 
 2807 03d7 06       		.byte	0x6
 2808 03d8 49       		.byte	0x49
 2809 03d9 09040000 		.long	0x409
 2810 03dd 03       		.byte	0x3
 2811 03de 23       		.byte	0x23
 2812 03df 8001     		.uleb128 0x80
 2813 03e1 0D       		.uleb128 0xd
 2814 03e2 5F666E74 		.ascii "_fntypes\0"
 2814      79706573 
 2814      00
 2815 03eb 06       		.byte	0x6
 2816 03ec 4B       		.byte	0x4b
 2817 03ed 45020000 		.long	0x245
 2818 03f1 03       		.byte	0x3
 2819 03f2 23       		.byte	0x23
 2820 03f3 8002     		.uleb128 0x100
 2821 03f5 0D       		.uleb128 0xd
 2822 03f6 5F69735F 		.ascii "_is_cxa\0"
 2822      63786100 
 2823 03fe 06       		.byte	0x6
 2824 03ff 4E       		.byte	0x4e
 2825 0400 45020000 		.long	0x245
 2826 0404 03       		.byte	0x3
 2827 0405 23       		.byte	0x23
 2828 0406 8402     		.uleb128 0x104
 2829 0408 00       		.byte	0x0
 2830 0409 09       		.uleb128 0x9
 2831 040a 62010000 		.long	0x162
 2832 040e 19040000 		.long	0x419
 2833 0412 0A       		.uleb128 0xa
 2834 0413 F3010000 		.long	0x1f3
 2835 0417 1F       		.byte	0x1f
 2836 0418 00       		.byte	0x0
 2837 0419 11       		.uleb128 0x11
 2838 041a 5F617465 		.ascii "_atexit\0"
 2838      78697400 
 2839 0422 9001     		.word	0x190
 2840 0424 06       		.byte	0x6
 2841 0425 59       		.byte	0x59
 2842 0426 68040000 		.long	0x468
 2843 042a 0D       		.uleb128 0xd
 2844 042b 5F6E6578 		.ascii "_next\0"
 2844      7400
 2845 0431 06       		.byte	0x6
 2846 0432 5A       		.byte	0x5a
GAS LISTING /cygdrive/c/Users/THESCI~1/AppData/Local/Temp/ccu2GGTU.s 			page 71


 2847 0433 68040000 		.long	0x468
 2848 0437 02       		.byte	0x2
 2849 0438 23       		.byte	0x23
 2850 0439 00       		.uleb128 0x0
 2851 043a 0D       		.uleb128 0xd
 2852 043b 5F696E64 		.ascii "_ind\0"
 2852      00
 2853 0440 06       		.byte	0x6
 2854 0441 5B       		.byte	0x5b
 2855 0442 21010000 		.long	0x121
 2856 0446 02       		.byte	0x2
 2857 0447 23       		.byte	0x23
 2858 0448 04       		.uleb128 0x4
 2859 0449 0D       		.uleb128 0xd
 2860 044a 5F666E73 		.ascii "_fns\0"
 2860      00
 2861 044f 06       		.byte	0x6
 2862 0450 5D       		.byte	0x5d
 2863 0451 6E040000 		.long	0x46e
 2864 0455 02       		.byte	0x2
 2865 0456 23       		.byte	0x23
 2866 0457 08       		.uleb128 0x8
 2867 0458 12       		.uleb128 0x12
 2868 0459 41000000 		.secrel32	LASF0
 2869 045d 06       		.byte	0x6
 2870 045e 5E       		.byte	0x5e
 2871 045f AB030000 		.long	0x3ab
 2872 0463 03       		.byte	0x3
 2873 0464 23       		.byte	0x23
 2874 0465 8801     		.uleb128 0x88
 2875 0467 00       		.byte	0x0
 2876 0468 0F       		.uleb128 0xf
 2877 0469 04       		.byte	0x4
 2878 046a 19040000 		.long	0x419
 2879 046e 09       		.uleb128 0x9
 2880 046f 80040000 		.long	0x480
 2881 0473 7E040000 		.long	0x47e
 2882 0477 0A       		.uleb128 0xa
 2883 0478 F3010000 		.long	0x1f3
 2884 047c 1F       		.byte	0x1f
 2885 047d 00       		.byte	0x0
 2886 047e 13       		.uleb128 0x13
 2887 047f 01       		.byte	0x1
 2888 0480 0F       		.uleb128 0xf
 2889 0481 04       		.byte	0x4
 2890 0482 7E040000 		.long	0x47e
 2891 0486 0E       		.uleb128 0xe
 2892 0487 5F5F7362 		.ascii "__sbuf\0"
 2892      756600
 2893 048e 08       		.byte	0x8
 2894 048f 06       		.byte	0x6
 2895 0490 69       		.byte	0x69
 2896 0491 B6040000 		.long	0x4b6
 2897 0495 0D       		.uleb128 0xd
 2898 0496 5F626173 		.ascii "_base\0"
 2898      6500
 2899 049c 06       		.byte	0x6
GAS LISTING /cygdrive/c/Users/THESCI~1/AppData/Local/Temp/ccu2GGTU.s 			page 72


 2900 049d 6A       		.byte	0x6a
 2901 049e B6040000 		.long	0x4b6
 2902 04a2 02       		.byte	0x2
 2903 04a3 23       		.byte	0x23
 2904 04a4 00       		.uleb128 0x0
 2905 04a5 0D       		.uleb128 0xd
 2906 04a6 5F73697A 		.ascii "_size\0"
 2906      6500
 2907 04ac 06       		.byte	0x6
 2908 04ad 6B       		.byte	0x6b
 2909 04ae 21010000 		.long	0x121
 2910 04b2 02       		.byte	0x2
 2911 04b3 23       		.byte	0x23
 2912 04b4 04       		.uleb128 0x4
 2913 04b5 00       		.byte	0x0
 2914 04b6 0F       		.uleb128 0xf
 2915 04b7 04       		.byte	0x4
 2916 04b8 ED000000 		.long	0xed
 2917 04bc 14       		.uleb128 0x14
 2918 04bd 01       		.byte	0x1
 2919 04be A0010000 		.long	0x1a0
 2920 04c2 DB040000 		.long	0x4db
 2921 04c6 15       		.uleb128 0x15
 2922 04c7 DB040000 		.long	0x4db
 2923 04cb 15       		.uleb128 0x15
 2924 04cc 62010000 		.long	0x162
 2925 04d0 15       		.uleb128 0x15
 2926 04d1 AC060000 		.long	0x6ac
 2927 04d5 15       		.uleb128 0x15
 2928 04d6 21010000 		.long	0x121
 2929 04da 00       		.byte	0x0
 2930 04db 0F       		.uleb128 0xf
 2931 04dc 04       		.byte	0x4
 2932 04dd E1040000 		.long	0x4e1
 2933 04e1 11       		.uleb128 0x11
 2934 04e2 5F726565 		.ascii "_reent\0"
 2934      6E7400
 2935 04e9 4004     		.word	0x440
 2936 04eb 06       		.byte	0x6
 2937 04ec 25       		.byte	0x25
 2938 04ed AC060000 		.long	0x6ac
 2939 04f1 16       		.uleb128 0x16
 2940 04f2 5F657272 		.ascii "_errno\0"
 2940      6E6F00
 2941 04f9 06       		.byte	0x6
 2942 04fa 4602     		.word	0x246
 2943 04fc 21010000 		.long	0x121
 2944 0500 02       		.byte	0x2
 2945 0501 23       		.byte	0x23
 2946 0502 00       		.uleb128 0x0
 2947 0503 16       		.uleb128 0x16
 2948 0504 5F737464 		.ascii "_stdin\0"
 2948      696E00
 2949 050b 06       		.byte	0x6
 2950 050c 4B02     		.word	0x24b
 2951 050e 71090000 		.long	0x971
 2952 0512 02       		.byte	0x2
GAS LISTING /cygdrive/c/Users/THESCI~1/AppData/Local/Temp/ccu2GGTU.s 			page 73


 2953 0513 23       		.byte	0x23
 2954 0514 04       		.uleb128 0x4
 2955 0515 16       		.uleb128 0x16
 2956 0516 5F737464 		.ascii "_stdout\0"
 2956      6F757400 
 2957 051e 06       		.byte	0x6
 2958 051f 4B02     		.word	0x24b
 2959 0521 71090000 		.long	0x971
 2960 0525 02       		.byte	0x2
 2961 0526 23       		.byte	0x23
 2962 0527 08       		.uleb128 0x8
 2963 0528 16       		.uleb128 0x16
 2964 0529 5F737464 		.ascii "_stderr\0"
 2964      65727200 
 2965 0531 06       		.byte	0x6
 2966 0532 4B02     		.word	0x24b
 2967 0534 71090000 		.long	0x971
 2968 0538 02       		.byte	0x2
 2969 0539 23       		.byte	0x23
 2970 053a 0C       		.uleb128 0xc
 2971 053b 16       		.uleb128 0x16
 2972 053c 5F696E63 		.ascii "_inc\0"
 2972      00
 2973 0541 06       		.byte	0x6
 2974 0542 4D02     		.word	0x24d
 2975 0544 21010000 		.long	0x121
 2976 0548 02       		.byte	0x2
 2977 0549 23       		.byte	0x23
 2978 054a 10       		.uleb128 0x10
 2979 054b 16       		.uleb128 0x16
 2980 054c 5F656D65 		.ascii "_emergency\0"
 2980      7267656E 
 2980      637900
 2981 0557 06       		.byte	0x6
 2982 0558 4E02     		.word	0x24e
 2983 055a 500C0000 		.long	0xc50
 2984 055e 02       		.byte	0x2
 2985 055f 23       		.byte	0x23
 2986 0560 14       		.uleb128 0x14
 2987 0561 16       		.uleb128 0x16
 2988 0562 5F637572 		.ascii "_current_category\0"
 2988      72656E74 
 2988      5F636174 
 2988      65676F72 
 2988      7900
 2989 0574 06       		.byte	0x6
 2990 0575 5002     		.word	0x250
 2991 0577 21010000 		.long	0x121
 2992 057b 02       		.byte	0x2
 2993 057c 23       		.byte	0x23
 2994 057d 30       		.uleb128 0x30
 2995 057e 16       		.uleb128 0x16
 2996 057f 5F637572 		.ascii "_current_locale\0"
 2996      72656E74 
 2996      5F6C6F63 
 2996      616C6500 
 2997 058f 06       		.byte	0x6
GAS LISTING /cygdrive/c/Users/THESCI~1/AppData/Local/Temp/ccu2GGTU.s 			page 74


 2998 0590 5102     		.word	0x251
 2999 0592 D7060000 		.long	0x6d7
 3000 0596 02       		.byte	0x2
 3001 0597 23       		.byte	0x23
 3002 0598 34       		.uleb128 0x34
 3003 0599 16       		.uleb128 0x16
 3004 059a 5F5F7364 		.ascii "__sdidinit\0"
 3004      6964696E 
 3004      697400
 3005 05a5 06       		.byte	0x6
 3006 05a6 5302     		.word	0x253
 3007 05a8 21010000 		.long	0x121
 3008 05ac 02       		.byte	0x2
 3009 05ad 23       		.byte	0x23
 3010 05ae 38       		.uleb128 0x38
 3011 05af 16       		.uleb128 0x16
 3012 05b0 5F5F636C 		.ascii "__cleanup\0"
 3012      65616E75 
 3012      7000
 3013 05ba 06       		.byte	0x6
 3014 05bb 5502     		.word	0x255
 3015 05bd 6C0C0000 		.long	0xc6c
 3016 05c1 02       		.byte	0x2
 3017 05c2 23       		.byte	0x23
 3018 05c3 3C       		.uleb128 0x3c
 3019 05c4 16       		.uleb128 0x16
 3020 05c5 5F726573 		.ascii "_result\0"
 3020      756C7400 
 3021 05cd 06       		.byte	0x6
 3022 05ce 5802     		.word	0x258
 3023 05d0 D5020000 		.long	0x2d5
 3024 05d4 02       		.byte	0x2
 3025 05d5 23       		.byte	0x23
 3026 05d6 40       		.uleb128 0x40
 3027 05d7 16       		.uleb128 0x16
 3028 05d8 5F726573 		.ascii "_result_k\0"
 3028      756C745F 
 3028      6B00
 3029 05e2 06       		.byte	0x6
 3030 05e3 5902     		.word	0x259
 3031 05e5 21010000 		.long	0x121
 3032 05e9 02       		.byte	0x2
 3033 05ea 23       		.byte	0x23
 3034 05eb 44       		.uleb128 0x44
 3035 05ec 16       		.uleb128 0x16
 3036 05ed 5F703573 		.ascii "_p5s\0"
 3036      00
 3037 05f2 06       		.byte	0x6
 3038 05f3 5A02     		.word	0x25a
 3039 05f5 D5020000 		.long	0x2d5
 3040 05f9 02       		.byte	0x2
 3041 05fa 23       		.byte	0x23
 3042 05fb 48       		.uleb128 0x48
 3043 05fc 16       		.uleb128 0x16
 3044 05fd 5F667265 		.ascii "_freelist\0"
 3044      656C6973 
 3044      7400
GAS LISTING /cygdrive/c/Users/THESCI~1/AppData/Local/Temp/ccu2GGTU.s 			page 75


 3045 0607 06       		.byte	0x6
 3046 0608 5B02     		.word	0x25b
 3047 060a 720C0000 		.long	0xc72
 3048 060e 02       		.byte	0x2
 3049 060f 23       		.byte	0x23
 3050 0610 4C       		.uleb128 0x4c
 3051 0611 16       		.uleb128 0x16
 3052 0612 5F637674 		.ascii "_cvtlen\0"
 3052      6C656E00 
 3053 061a 06       		.byte	0x6
 3054 061b 5E02     		.word	0x25e
 3055 061d 21010000 		.long	0x121
 3056 0621 02       		.byte	0x2
 3057 0622 23       		.byte	0x23
 3058 0623 50       		.uleb128 0x50
 3059 0624 16       		.uleb128 0x16
 3060 0625 5F637674 		.ascii "_cvtbuf\0"
 3060      62756600 
 3061 062d 06       		.byte	0x6
 3062 062e 5F02     		.word	0x25f
 3063 0630 AC060000 		.long	0x6ac
 3064 0634 02       		.byte	0x2
 3065 0635 23       		.byte	0x23
 3066 0636 54       		.uleb128 0x54
 3067 0637 16       		.uleb128 0x16
 3068 0638 5F6E6577 		.ascii "_new\0"
 3068      00
 3069 063d 06       		.byte	0x6
 3070 063e 8202     		.word	0x282
 3071 0640 270C0000 		.long	0xc27
 3072 0644 02       		.byte	0x2
 3073 0645 23       		.byte	0x23
 3074 0646 58       		.uleb128 0x58
 3075 0647 16       		.uleb128 0x16
 3076 0648 5F617465 		.ascii "_atexit\0"
 3076      78697400 
 3077 0650 06       		.byte	0x6
 3078 0651 8502     		.word	0x285
 3079 0653 68040000 		.long	0x468
 3080 0657 03       		.byte	0x3
 3081 0658 23       		.byte	0x23
 3082 0659 C802     		.uleb128 0x148
 3083 065b 16       		.uleb128 0x16
 3084 065c 5F617465 		.ascii "_atexit0\0"
 3084      78697430 
 3084      00
 3085 0665 06       		.byte	0x6
 3086 0666 8602     		.word	0x286
 3087 0668 19040000 		.long	0x419
 3088 066c 03       		.byte	0x3
 3089 066d 23       		.byte	0x23
 3090 066e CC02     		.uleb128 0x14c
 3091 0670 16       		.uleb128 0x16
 3092 0671 5F736967 		.ascii "_sig_func\0"
 3092      5F66756E 
 3092      6300
 3093 067b 06       		.byte	0x6
GAS LISTING /cygdrive/c/Users/THESCI~1/AppData/Local/Temp/ccu2GGTU.s 			page 76


 3094 067c 8902     		.word	0x289
 3095 067e 840C0000 		.long	0xc84
 3096 0682 03       		.byte	0x3
 3097 0683 23       		.byte	0x23
 3098 0684 DC05     		.uleb128 0x2dc
 3099 0686 16       		.uleb128 0x16
 3100 0687 5F5F7367 		.ascii "__sglue\0"
 3100      6C756500 
 3101 068f 06       		.byte	0x6
 3102 0690 8E02     		.word	0x28e
 3103 0692 27090000 		.long	0x927
 3104 0696 03       		.byte	0x3
 3105 0697 23       		.byte	0x23
 3106 0698 E005     		.uleb128 0x2e0
 3107 069a 16       		.uleb128 0x16
 3108 069b 5F5F7366 		.ascii "__sf\0"
 3108      00
 3109 06a0 06       		.byte	0x6
 3110 06a1 8F02     		.word	0x28f
 3111 06a3 900C0000 		.long	0xc90
 3112 06a7 03       		.byte	0x3
 3113 06a8 23       		.byte	0x23
 3114 06a9 F005     		.uleb128 0x2f0
 3115 06ab 00       		.byte	0x0
 3116 06ac 0F       		.uleb128 0xf
 3117 06ad 04       		.byte	0x4
 3118 06ae D6000000 		.long	0xd6
 3119 06b2 0F       		.uleb128 0xf
 3120 06b3 04       		.byte	0x4
 3121 06b4 BC040000 		.long	0x4bc
 3122 06b8 14       		.uleb128 0x14
 3123 06b9 01       		.byte	0x1
 3124 06ba A0010000 		.long	0x1a0
 3125 06be D7060000 		.long	0x6d7
 3126 06c2 15       		.uleb128 0x15
 3127 06c3 DB040000 		.long	0x4db
 3128 06c7 15       		.uleb128 0x15
 3129 06c8 62010000 		.long	0x162
 3130 06cc 15       		.uleb128 0x15
 3131 06cd D7060000 		.long	0x6d7
 3132 06d1 15       		.uleb128 0x15
 3133 06d2 21010000 		.long	0x121
 3134 06d6 00       		.byte	0x0
 3135 06d7 0F       		.uleb128 0xf
 3136 06d8 04       		.byte	0x4
 3137 06d9 DD060000 		.long	0x6dd
 3138 06dd 17       		.uleb128 0x17
 3139 06de D6000000 		.long	0xd6
 3140 06e2 0F       		.uleb128 0xf
 3141 06e3 04       		.byte	0x4
 3142 06e4 B8060000 		.long	0x6b8
 3143 06e8 14       		.uleb128 0x14
 3144 06e9 01       		.byte	0x1
 3145 06ea 80010000 		.long	0x180
 3146 06ee 07070000 		.long	0x707
 3147 06f2 15       		.uleb128 0x15
 3148 06f3 DB040000 		.long	0x4db
GAS LISTING /cygdrive/c/Users/THESCI~1/AppData/Local/Temp/ccu2GGTU.s 			page 77


 3149 06f7 15       		.uleb128 0x15
 3150 06f8 62010000 		.long	0x162
 3151 06fc 15       		.uleb128 0x15
 3152 06fd 80010000 		.long	0x180
 3153 0701 15       		.uleb128 0x15
 3154 0702 21010000 		.long	0x121
 3155 0706 00       		.byte	0x0
 3156 0707 0F       		.uleb128 0xf
 3157 0708 04       		.byte	0x4
 3158 0709 E8060000 		.long	0x6e8
 3159 070d 14       		.uleb128 0x14
 3160 070e 01       		.byte	0x1
 3161 070f 21010000 		.long	0x121
 3162 0713 22070000 		.long	0x722
 3163 0717 15       		.uleb128 0x15
 3164 0718 DB040000 		.long	0x4db
 3165 071c 15       		.uleb128 0x15
 3166 071d 62010000 		.long	0x162
 3167 0721 00       		.byte	0x0
 3168 0722 0F       		.uleb128 0xf
 3169 0723 04       		.byte	0x4
 3170 0724 0D070000 		.long	0x70d
 3171 0728 09       		.uleb128 0x9
 3172 0729 ED000000 		.long	0xed
 3173 072d 38070000 		.long	0x738
 3174 0731 0A       		.uleb128 0xa
 3175 0732 F3010000 		.long	0x1f3
 3176 0736 02       		.byte	0x2
 3177 0737 00       		.byte	0x0
 3178 0738 09       		.uleb128 0x9
 3179 0739 ED000000 		.long	0xed
 3180 073d 48070000 		.long	0x748
 3181 0741 0A       		.uleb128 0xa
 3182 0742 F3010000 		.long	0x1f3
 3183 0746 00       		.byte	0x0
 3184 0747 00       		.byte	0x0
 3185 0748 0E       		.uleb128 0xe
 3186 0749 5F5F7346 		.ascii "__sFILE64\0"
 3186      494C4536 
 3186      3400
 3187 0753 70       		.byte	0x70
 3188 0754 06       		.byte	0x6
 3189 0755 E2       		.byte	0xe2
 3190 0756 F3080000 		.long	0x8f3
 3191 075a 0D       		.uleb128 0xd
 3192 075b 5F7000   		.ascii "_p\0"
 3193 075e 06       		.byte	0x6
 3194 075f E3       		.byte	0xe3
 3195 0760 B6040000 		.long	0x4b6
 3196 0764 02       		.byte	0x2
 3197 0765 23       		.byte	0x23
 3198 0766 00       		.uleb128 0x0
 3199 0767 0D       		.uleb128 0xd
 3200 0768 5F7200   		.ascii "_r\0"
 3201 076b 06       		.byte	0x6
 3202 076c E4       		.byte	0xe4
 3203 076d 21010000 		.long	0x121
GAS LISTING /cygdrive/c/Users/THESCI~1/AppData/Local/Temp/ccu2GGTU.s 			page 78


 3204 0771 02       		.byte	0x2
 3205 0772 23       		.byte	0x23
 3206 0773 04       		.uleb128 0x4
 3207 0774 0D       		.uleb128 0xd
 3208 0775 5F7700   		.ascii "_w\0"
 3209 0778 06       		.byte	0x6
 3210 0779 E5       		.byte	0xe5
 3211 077a 21010000 		.long	0x121
 3212 077e 02       		.byte	0x2
 3213 077f 23       		.byte	0x23
 3214 0780 08       		.uleb128 0x8
 3215 0781 0D       		.uleb128 0xd
 3216 0782 5F666C61 		.ascii "_flags\0"
 3216      677300
 3217 0789 06       		.byte	0x6
 3218 078a E6       		.byte	0xe6
 3219 078b FE000000 		.long	0xfe
 3220 078f 02       		.byte	0x2
 3221 0790 23       		.byte	0x23
 3222 0791 0C       		.uleb128 0xc
 3223 0792 0D       		.uleb128 0xd
 3224 0793 5F66696C 		.ascii "_file\0"
 3224      6500
 3225 0799 06       		.byte	0x6
 3226 079a E7       		.byte	0xe7
 3227 079b FE000000 		.long	0xfe
 3228 079f 02       		.byte	0x2
 3229 07a0 23       		.byte	0x23
 3230 07a1 0E       		.uleb128 0xe
 3231 07a2 0D       		.uleb128 0xd
 3232 07a3 5F626600 		.ascii "_bf\0"
 3233 07a7 06       		.byte	0x6
 3234 07a8 E8       		.byte	0xe8
 3235 07a9 86040000 		.long	0x486
 3236 07ad 02       		.byte	0x2
 3237 07ae 23       		.byte	0x23
 3238 07af 10       		.uleb128 0x10
 3239 07b0 0D       		.uleb128 0xd
 3240 07b1 5F6C6266 		.ascii "_lbfsize\0"
 3240      73697A65 
 3240      00
 3241 07ba 06       		.byte	0x6
 3242 07bb E9       		.byte	0xe9
 3243 07bc 21010000 		.long	0x121
 3244 07c0 02       		.byte	0x2
 3245 07c1 23       		.byte	0x23
 3246 07c2 18       		.uleb128 0x18
 3247 07c3 0D       		.uleb128 0xd
 3248 07c4 5F646174 		.ascii "_data\0"
 3248      6100
 3249 07ca 06       		.byte	0x6
 3250 07cb EB       		.byte	0xeb
 3251 07cc DB040000 		.long	0x4db
 3252 07d0 02       		.byte	0x2
 3253 07d1 23       		.byte	0x23
 3254 07d2 1C       		.uleb128 0x1c
 3255 07d3 0D       		.uleb128 0xd
GAS LISTING /cygdrive/c/Users/THESCI~1/AppData/Local/Temp/ccu2GGTU.s 			page 79


 3256 07d4 5F636F6F 		.ascii "_cookie\0"
 3256      6B696500 
 3257 07dc 06       		.byte	0x6
 3258 07dd EE       		.byte	0xee
 3259 07de 62010000 		.long	0x162
 3260 07e2 02       		.byte	0x2
 3261 07e3 23       		.byte	0x23
 3262 07e4 20       		.uleb128 0x20
 3263 07e5 0D       		.uleb128 0xd
 3264 07e6 5F726561 		.ascii "_read\0"
 3264      6400
 3265 07ec 06       		.byte	0x6
 3266 07ed F0       		.byte	0xf0
 3267 07ee B2060000 		.long	0x6b2
 3268 07f2 02       		.byte	0x2
 3269 07f3 23       		.byte	0x23
 3270 07f4 24       		.uleb128 0x24
 3271 07f5 0D       		.uleb128 0xd
 3272 07f6 5F777269 		.ascii "_write\0"
 3272      746500
 3273 07fd 06       		.byte	0x6
 3274 07fe F2       		.byte	0xf2
 3275 07ff E2060000 		.long	0x6e2
 3276 0803 02       		.byte	0x2
 3277 0804 23       		.byte	0x23
 3278 0805 28       		.uleb128 0x28
 3279 0806 0D       		.uleb128 0xd
 3280 0807 5F736565 		.ascii "_seek\0"
 3280      6B00
 3281 080d 06       		.byte	0x6
 3282 080e F4       		.byte	0xf4
 3283 080f 07070000 		.long	0x707
 3284 0813 02       		.byte	0x2
 3285 0814 23       		.byte	0x23
 3286 0815 2C       		.uleb128 0x2c
 3287 0816 0D       		.uleb128 0xd
 3288 0817 5F636C6F 		.ascii "_close\0"
 3288      736500
 3289 081e 06       		.byte	0x6
 3290 081f F5       		.byte	0xf5
 3291 0820 22070000 		.long	0x722
 3292 0824 02       		.byte	0x2
 3293 0825 23       		.byte	0x23
 3294 0826 30       		.uleb128 0x30
 3295 0827 0D       		.uleb128 0xd
 3296 0828 5F756200 		.ascii "_ub\0"
 3297 082c 06       		.byte	0x6
 3298 082d F8       		.byte	0xf8
 3299 082e 86040000 		.long	0x486
 3300 0832 02       		.byte	0x2
 3301 0833 23       		.byte	0x23
 3302 0834 34       		.uleb128 0x34
 3303 0835 0D       		.uleb128 0xd
 3304 0836 5F757000 		.ascii "_up\0"
 3305 083a 06       		.byte	0x6
 3306 083b F9       		.byte	0xf9
 3307 083c B6040000 		.long	0x4b6
GAS LISTING /cygdrive/c/Users/THESCI~1/AppData/Local/Temp/ccu2GGTU.s 			page 80


 3308 0840 02       		.byte	0x2
 3309 0841 23       		.byte	0x23
 3310 0842 3C       		.uleb128 0x3c
 3311 0843 0D       		.uleb128 0xd
 3312 0844 5F757200 		.ascii "_ur\0"
 3313 0848 06       		.byte	0x6
 3314 0849 FA       		.byte	0xfa
 3315 084a 21010000 		.long	0x121
 3316 084e 02       		.byte	0x2
 3317 084f 23       		.byte	0x23
 3318 0850 40       		.uleb128 0x40
 3319 0851 0D       		.uleb128 0xd
 3320 0852 5F756275 		.ascii "_ubuf\0"
 3320      6600
 3321 0858 06       		.byte	0x6
 3322 0859 FD       		.byte	0xfd
 3323 085a 28070000 		.long	0x728
 3324 085e 02       		.byte	0x2
 3325 085f 23       		.byte	0x23
 3326 0860 44       		.uleb128 0x44
 3327 0861 0D       		.uleb128 0xd
 3328 0862 5F6E6275 		.ascii "_nbuf\0"
 3328      6600
 3329 0868 06       		.byte	0x6
 3330 0869 FE       		.byte	0xfe
 3331 086a 38070000 		.long	0x738
 3332 086e 02       		.byte	0x2
 3333 086f 23       		.byte	0x23
 3334 0870 47       		.uleb128 0x47
 3335 0871 16       		.uleb128 0x16
 3336 0872 5F6C6200 		.ascii "_lb\0"
 3337 0876 06       		.byte	0x6
 3338 0877 0101     		.word	0x101
 3339 0879 86040000 		.long	0x486
 3340 087d 02       		.byte	0x2
 3341 087e 23       		.byte	0x23
 3342 087f 48       		.uleb128 0x48
 3343 0880 16       		.uleb128 0x16
 3344 0881 5F626C6B 		.ascii "_blksize\0"
 3344      73697A65 
 3344      00
 3345 088a 06       		.byte	0x6
 3346 088b 0401     		.word	0x104
 3347 088d 21010000 		.long	0x121
 3348 0891 02       		.byte	0x2
 3349 0892 23       		.byte	0x23
 3350 0893 50       		.uleb128 0x50
 3351 0894 16       		.uleb128 0x16
 3352 0895 5F666C61 		.ascii "_flags2\0"
 3352      67733200 
 3353 089d 06       		.byte	0x6
 3354 089e 0501     		.word	0x105
 3355 08a0 21010000 		.long	0x121
 3356 08a4 02       		.byte	0x2
 3357 08a5 23       		.byte	0x23
 3358 08a6 54       		.uleb128 0x54
 3359 08a7 16       		.uleb128 0x16
GAS LISTING /cygdrive/c/Users/THESCI~1/AppData/Local/Temp/ccu2GGTU.s 			page 81


 3360 08a8 5F6F6666 		.ascii "_offset\0"
 3360      73657400 
 3361 08b0 06       		.byte	0x6
 3362 08b1 0701     		.word	0x107
 3363 08b3 70010000 		.long	0x170
 3364 08b7 02       		.byte	0x2
 3365 08b8 23       		.byte	0x23
 3366 08b9 58       		.uleb128 0x58
 3367 08ba 16       		.uleb128 0x16
 3368 08bb 5F736565 		.ascii "_seek64\0"
 3368      6B363400 
 3369 08c3 06       		.byte	0x6
 3370 08c4 0801     		.word	0x108
 3371 08c6 12090000 		.long	0x912
 3372 08ca 02       		.byte	0x2
 3373 08cb 23       		.byte	0x23
 3374 08cc 60       		.uleb128 0x60
 3375 08cd 16       		.uleb128 0x16
 3376 08ce 5F6C6F63 		.ascii "_lock\0"
 3376      6B00
 3377 08d4 06       		.byte	0x6
 3378 08d5 0B01     		.word	0x10b
 3379 08d7 35020000 		.long	0x235
 3380 08db 02       		.byte	0x2
 3381 08dc 23       		.byte	0x23
 3382 08dd 64       		.uleb128 0x64
 3383 08de 16       		.uleb128 0x16
 3384 08df 5F6D6273 		.ascii "_mbstate\0"
 3384      74617465 
 3384      00
 3385 08e8 06       		.byte	0x6
 3386 08e9 0D01     		.word	0x10d
 3387 08eb 23020000 		.long	0x223
 3388 08ef 02       		.byte	0x2
 3389 08f0 23       		.byte	0x23
 3390 08f1 68       		.uleb128 0x68
 3391 08f2 00       		.byte	0x0
 3392 08f3 14       		.uleb128 0x14
 3393 08f4 01       		.byte	0x1
 3394 08f5 8F010000 		.long	0x18f
 3395 08f9 12090000 		.long	0x912
 3396 08fd 15       		.uleb128 0x15
 3397 08fe DB040000 		.long	0x4db
 3398 0902 15       		.uleb128 0x15
 3399 0903 62010000 		.long	0x162
 3400 0907 15       		.uleb128 0x15
 3401 0908 8F010000 		.long	0x18f
 3402 090c 15       		.uleb128 0x15
 3403 090d 21010000 		.long	0x121
 3404 0911 00       		.byte	0x0
 3405 0912 0F       		.uleb128 0xf
 3406 0913 04       		.byte	0x4
 3407 0914 F3080000 		.long	0x8f3
 3408 0918 06       		.uleb128 0x6
 3409 0919 5F5F4649 		.ascii "__FILE\0"
 3409      4C4500
 3410 0920 06       		.byte	0x6
GAS LISTING /cygdrive/c/Users/THESCI~1/AppData/Local/Temp/ccu2GGTU.s 			page 82


 3411 0921 0F01     		.word	0x10f
 3412 0923 48070000 		.long	0x748
 3413 0927 18       		.uleb128 0x18
 3414 0928 5F676C75 		.ascii "_glue\0"
 3414      6500
 3415 092e 0C       		.byte	0xc
 3416 092f 06       		.byte	0x6
 3417 0930 1601     		.word	0x116
 3418 0932 6B090000 		.long	0x96b
 3419 0936 16       		.uleb128 0x16
 3420 0937 5F6E6578 		.ascii "_next\0"
 3420      7400
 3421 093d 06       		.byte	0x6
 3422 093e 1701     		.word	0x117
 3423 0940 6B090000 		.long	0x96b
 3424 0944 02       		.byte	0x2
 3425 0945 23       		.byte	0x23
 3426 0946 00       		.uleb128 0x0
 3427 0947 16       		.uleb128 0x16
 3428 0948 5F6E696F 		.ascii "_niobs\0"
 3428      627300
 3429 094f 06       		.byte	0x6
 3430 0950 1801     		.word	0x118
 3431 0952 21010000 		.long	0x121
 3432 0956 02       		.byte	0x2
 3433 0957 23       		.byte	0x23
 3434 0958 04       		.uleb128 0x4
 3435 0959 16       		.uleb128 0x16
 3436 095a 5F696F62 		.ascii "_iobs\0"
 3436      7300
 3437 0960 06       		.byte	0x6
 3438 0961 1901     		.word	0x119
 3439 0963 71090000 		.long	0x971
 3440 0967 02       		.byte	0x2
 3441 0968 23       		.byte	0x23
 3442 0969 08       		.uleb128 0x8
 3443 096a 00       		.byte	0x0
 3444 096b 0F       		.uleb128 0xf
 3445 096c 04       		.byte	0x4
 3446 096d 27090000 		.long	0x927
 3447 0971 0F       		.uleb128 0xf
 3448 0972 04       		.byte	0x4
 3449 0973 18090000 		.long	0x918
 3450 0977 18       		.uleb128 0x18
 3451 0978 5F72616E 		.ascii "_rand48\0"
 3451      64343800 
 3452 0980 0E       		.byte	0xe
 3453 0981 06       		.byte	0x6
 3454 0982 3101     		.word	0x131
 3455 0984 BB090000 		.long	0x9bb
 3456 0988 16       		.uleb128 0x16
 3457 0989 5F736565 		.ascii "_seed\0"
 3457      6400
 3458 098f 06       		.byte	0x6
 3459 0990 3201     		.word	0x132
 3460 0992 BB090000 		.long	0x9bb
 3461 0996 02       		.byte	0x2
GAS LISTING /cygdrive/c/Users/THESCI~1/AppData/Local/Temp/ccu2GGTU.s 			page 83


 3462 0997 23       		.byte	0x23
 3463 0998 00       		.uleb128 0x0
 3464 0999 16       		.uleb128 0x16
 3465 099a 5F6D756C 		.ascii "_mult\0"
 3465      7400
 3466 09a0 06       		.byte	0x6
 3467 09a1 3301     		.word	0x133
 3468 09a3 BB090000 		.long	0x9bb
 3469 09a7 02       		.byte	0x2
 3470 09a8 23       		.byte	0x23
 3471 09a9 06       		.uleb128 0x6
 3472 09aa 16       		.uleb128 0x16
 3473 09ab 5F616464 		.ascii "_add\0"
 3473      00
 3474 09b0 06       		.byte	0x6
 3475 09b1 3401     		.word	0x134
 3476 09b3 0B010000 		.long	0x10b
 3477 09b7 02       		.byte	0x2
 3478 09b8 23       		.byte	0x23
 3479 09b9 0C       		.uleb128 0xc
 3480 09ba 00       		.byte	0x0
 3481 09bb 09       		.uleb128 0x9
 3482 09bc 0B010000 		.long	0x10b
 3483 09c0 CB090000 		.long	0x9cb
 3484 09c4 0A       		.uleb128 0xa
 3485 09c5 F3010000 		.long	0x1f3
 3486 09c9 02       		.byte	0x2
 3487 09ca 00       		.byte	0x0
 3488 09cb 19       		.uleb128 0x19
 3489 09cc D0       		.byte	0xd0
 3490 09cd 06       		.byte	0x6
 3491 09ce 6402     		.word	0x264
 3492 09d0 A70B0000 		.long	0xba7
 3493 09d4 16       		.uleb128 0x16
 3494 09d5 5F756E75 		.ascii "_unused_rand\0"
 3494      7365645F 
 3494      72616E64 
 3494      00
 3495 09e2 06       		.byte	0x6
 3496 09e3 6502     		.word	0x265
 3497 09e5 98000000 		.long	0x98
 3498 09e9 02       		.byte	0x2
 3499 09ea 23       		.byte	0x23
 3500 09eb 00       		.uleb128 0x0
 3501 09ec 16       		.uleb128 0x16
 3502 09ed 5F737472 		.ascii "_strtok_last\0"
 3502      746F6B5F 
 3502      6C617374 
 3502      00
 3503 09fa 06       		.byte	0x6
 3504 09fb 6602     		.word	0x266
 3505 09fd AC060000 		.long	0x6ac
 3506 0a01 02       		.byte	0x2
 3507 0a02 23       		.byte	0x23
 3508 0a03 04       		.uleb128 0x4
 3509 0a04 16       		.uleb128 0x16
 3510 0a05 5F617363 		.ascii "_asctime_buf\0"
GAS LISTING /cygdrive/c/Users/THESCI~1/AppData/Local/Temp/ccu2GGTU.s 			page 84


 3510      74696D65 
 3510      5F627566 
 3510      00
 3511 0a12 06       		.byte	0x6
 3512 0a13 6702     		.word	0x267
 3513 0a15 A70B0000 		.long	0xba7
 3514 0a19 02       		.byte	0x2
 3515 0a1a 23       		.byte	0x23
 3516 0a1b 08       		.uleb128 0x8
 3517 0a1c 16       		.uleb128 0x16
 3518 0a1d 5F6C6F63 		.ascii "_localtime_buf\0"
 3518      616C7469 
 3518      6D655F62 
 3518      756600
 3519 0a2c 06       		.byte	0x6
 3520 0a2d 6802     		.word	0x268
 3521 0a2f EB020000 		.long	0x2eb
 3522 0a33 02       		.byte	0x2
 3523 0a34 23       		.byte	0x23
 3524 0a35 24       		.uleb128 0x24
 3525 0a36 16       		.uleb128 0x16
 3526 0a37 5F67616D 		.ascii "_gamma_signgam\0"
 3526      6D615F73 
 3526      69676E67 
 3526      616D00
 3527 0a46 06       		.byte	0x6
 3528 0a47 6902     		.word	0x269
 3529 0a49 21010000 		.long	0x121
 3530 0a4d 02       		.byte	0x2
 3531 0a4e 23       		.byte	0x23
 3532 0a4f 48       		.uleb128 0x48
 3533 0a50 16       		.uleb128 0x16
 3534 0a51 5F72616E 		.ascii "_rand_next\0"
 3534      645F6E65 
 3534      787400
 3535 0a5c 06       		.byte	0x6
 3536 0a5d 6A02     		.word	0x26a
 3537 0a5f 39010000 		.long	0x139
 3538 0a63 02       		.byte	0x2
 3539 0a64 23       		.byte	0x23
 3540 0a65 50       		.uleb128 0x50
 3541 0a66 16       		.uleb128 0x16
 3542 0a67 5F723438 		.ascii "_r48\0"
 3542      00
 3543 0a6c 06       		.byte	0x6
 3544 0a6d 6B02     		.word	0x26b
 3545 0a6f 77090000 		.long	0x977
 3546 0a73 02       		.byte	0x2
 3547 0a74 23       		.byte	0x23
 3548 0a75 58       		.uleb128 0x58
 3549 0a76 16       		.uleb128 0x16
 3550 0a77 5F6D626C 		.ascii "_mblen_state\0"
 3550      656E5F73 
 3550      74617465 
 3550      00
 3551 0a84 06       		.byte	0x6
 3552 0a85 6C02     		.word	0x26c
GAS LISTING /cygdrive/c/Users/THESCI~1/AppData/Local/Temp/ccu2GGTU.s 			page 85


 3553 0a87 23020000 		.long	0x223
 3554 0a8b 02       		.byte	0x2
 3555 0a8c 23       		.byte	0x23
 3556 0a8d 68       		.uleb128 0x68
 3557 0a8e 16       		.uleb128 0x16
 3558 0a8f 5F6D6274 		.ascii "_mbtowc_state\0"
 3558      6F77635F 
 3558      73746174 
 3558      6500
 3559 0a9d 06       		.byte	0x6
 3560 0a9e 6D02     		.word	0x26d
 3561 0aa0 23020000 		.long	0x223
 3562 0aa4 02       		.byte	0x2
 3563 0aa5 23       		.byte	0x23
 3564 0aa6 70       		.uleb128 0x70
 3565 0aa7 16       		.uleb128 0x16
 3566 0aa8 5F776374 		.ascii "_wctomb_state\0"
 3566      6F6D625F 
 3566      73746174 
 3566      6500
 3567 0ab6 06       		.byte	0x6
 3568 0ab7 6E02     		.word	0x26e
 3569 0ab9 23020000 		.long	0x223
 3570 0abd 02       		.byte	0x2
 3571 0abe 23       		.byte	0x23
 3572 0abf 78       		.uleb128 0x78
 3573 0ac0 16       		.uleb128 0x16
 3574 0ac1 5F6C3634 		.ascii "_l64a_buf\0"
 3574      615F6275 
 3574      6600
 3575 0acb 06       		.byte	0x6
 3576 0acc 6F02     		.word	0x26f
 3577 0ace B70B0000 		.long	0xbb7
 3578 0ad2 03       		.byte	0x3
 3579 0ad3 23       		.byte	0x23
 3580 0ad4 8001     		.uleb128 0x80
 3581 0ad6 16       		.uleb128 0x16
 3582 0ad7 5F736967 		.ascii "_signal_buf\0"
 3582      6E616C5F 
 3582      62756600 
 3583 0ae3 06       		.byte	0x6
 3584 0ae4 7002     		.word	0x270
 3585 0ae6 C70B0000 		.long	0xbc7
 3586 0aea 03       		.byte	0x3
 3587 0aeb 23       		.byte	0x23
 3588 0aec 8801     		.uleb128 0x88
 3589 0aee 16       		.uleb128 0x16
 3590 0aef 5F676574 		.ascii "_getdate_err\0"
 3590      64617465 
 3590      5F657272 
 3590      00
 3591 0afc 06       		.byte	0x6
 3592 0afd 7102     		.word	0x271
 3593 0aff 21010000 		.long	0x121
 3594 0b03 03       		.byte	0x3
 3595 0b04 23       		.byte	0x23
 3596 0b05 A001     		.uleb128 0xa0
GAS LISTING /cygdrive/c/Users/THESCI~1/AppData/Local/Temp/ccu2GGTU.s 			page 86


 3597 0b07 16       		.uleb128 0x16
 3598 0b08 5F6D6272 		.ascii "_mbrlen_state\0"
 3598      6C656E5F 
 3598      73746174 
 3598      6500
 3599 0b16 06       		.byte	0x6
 3600 0b17 7202     		.word	0x272
 3601 0b19 23020000 		.long	0x223
 3602 0b1d 03       		.byte	0x3
 3603 0b1e 23       		.byte	0x23
 3604 0b1f A401     		.uleb128 0xa4
 3605 0b21 16       		.uleb128 0x16
 3606 0b22 5F6D6272 		.ascii "_mbrtowc_state\0"
 3606      746F7763 
 3606      5F737461 
 3606      746500
 3607 0b31 06       		.byte	0x6
 3608 0b32 7302     		.word	0x273
 3609 0b34 23020000 		.long	0x223
 3610 0b38 03       		.byte	0x3
 3611 0b39 23       		.byte	0x23
 3612 0b3a AC01     		.uleb128 0xac
 3613 0b3c 16       		.uleb128 0x16
 3614 0b3d 5F6D6273 		.ascii "_mbsrtowcs_state\0"
 3614      72746F77 
 3614      63735F73 
 3614      74617465 
 3614      00
 3615 0b4e 06       		.byte	0x6
 3616 0b4f 7402     		.word	0x274
 3617 0b51 23020000 		.long	0x223
 3618 0b55 03       		.byte	0x3
 3619 0b56 23       		.byte	0x23
 3620 0b57 B401     		.uleb128 0xb4
 3621 0b59 16       		.uleb128 0x16
 3622 0b5a 5F776372 		.ascii "_wcrtomb_state\0"
 3622      746F6D62 
 3622      5F737461 
 3622      746500
 3623 0b69 06       		.byte	0x6
 3624 0b6a 7502     		.word	0x275
 3625 0b6c 23020000 		.long	0x223
 3626 0b70 03       		.byte	0x3
 3627 0b71 23       		.byte	0x23
 3628 0b72 BC01     		.uleb128 0xbc
 3629 0b74 16       		.uleb128 0x16
 3630 0b75 5F776373 		.ascii "_wcsrtombs_state\0"
 3630      72746F6D 
 3630      62735F73 
 3630      74617465 
 3630      00
 3631 0b86 06       		.byte	0x6
 3632 0b87 7602     		.word	0x276
 3633 0b89 23020000 		.long	0x223
 3634 0b8d 03       		.byte	0x3
 3635 0b8e 23       		.byte	0x23
 3636 0b8f C401     		.uleb128 0xc4
GAS LISTING /cygdrive/c/Users/THESCI~1/AppData/Local/Temp/ccu2GGTU.s 			page 87


 3637 0b91 16       		.uleb128 0x16
 3638 0b92 5F685F65 		.ascii "_h_errno\0"
 3638      72726E6F 
 3638      00
 3639 0b9b 06       		.byte	0x6
 3640 0b9c 7702     		.word	0x277
 3641 0b9e 21010000 		.long	0x121
 3642 0ba2 03       		.byte	0x3
 3643 0ba3 23       		.byte	0x23
 3644 0ba4 CC01     		.uleb128 0xcc
 3645 0ba6 00       		.byte	0x0
 3646 0ba7 09       		.uleb128 0x9
 3647 0ba8 D6000000 		.long	0xd6
 3648 0bac B70B0000 		.long	0xbb7
 3649 0bb0 0A       		.uleb128 0xa
 3650 0bb1 F3010000 		.long	0x1f3
 3651 0bb5 19       		.byte	0x19
 3652 0bb6 00       		.byte	0x0
 3653 0bb7 09       		.uleb128 0x9
 3654 0bb8 D6000000 		.long	0xd6
 3655 0bbc C70B0000 		.long	0xbc7
 3656 0bc0 0A       		.uleb128 0xa
 3657 0bc1 F3010000 		.long	0x1f3
 3658 0bc5 07       		.byte	0x7
 3659 0bc6 00       		.byte	0x0
 3660 0bc7 09       		.uleb128 0x9
 3661 0bc8 D6000000 		.long	0xd6
 3662 0bcc D70B0000 		.long	0xbd7
 3663 0bd0 0A       		.uleb128 0xa
 3664 0bd1 F3010000 		.long	0x1f3
 3665 0bd5 17       		.byte	0x17
 3666 0bd6 00       		.byte	0x0
 3667 0bd7 19       		.uleb128 0x19
 3668 0bd8 F0       		.byte	0xf0
 3669 0bd9 06       		.byte	0x6
 3670 0bda 7D02     		.word	0x27d
 3671 0bdc 070C0000 		.long	0xc07
 3672 0be0 16       		.uleb128 0x16
 3673 0be1 5F6E6578 		.ascii "_nextf\0"
 3673      746600
 3674 0be8 06       		.byte	0x6
 3675 0be9 7F02     		.word	0x27f
 3676 0beb 070C0000 		.long	0xc07
 3677 0bef 02       		.byte	0x2
 3678 0bf0 23       		.byte	0x23
 3679 0bf1 00       		.uleb128 0x0
 3680 0bf2 16       		.uleb128 0x16
 3681 0bf3 5F6E6D61 		.ascii "_nmalloc\0"
 3681      6C6C6F63 
 3681      00
 3682 0bfc 06       		.byte	0x6
 3683 0bfd 8002     		.word	0x280
 3684 0bff 170C0000 		.long	0xc17
 3685 0c03 02       		.byte	0x2
 3686 0c04 23       		.byte	0x23
 3687 0c05 78       		.uleb128 0x78
 3688 0c06 00       		.byte	0x0
GAS LISTING /cygdrive/c/Users/THESCI~1/AppData/Local/Temp/ccu2GGTU.s 			page 88


 3689 0c07 09       		.uleb128 0x9
 3690 0c08 B6040000 		.long	0x4b6
 3691 0c0c 170C0000 		.long	0xc17
 3692 0c10 0A       		.uleb128 0xa
 3693 0c11 F3010000 		.long	0x1f3
 3694 0c15 1D       		.byte	0x1d
 3695 0c16 00       		.byte	0x0
 3696 0c17 09       		.uleb128 0x9
 3697 0c18 98000000 		.long	0x98
 3698 0c1c 270C0000 		.long	0xc27
 3699 0c20 0A       		.uleb128 0xa
 3700 0c21 F3010000 		.long	0x1f3
 3701 0c25 1D       		.byte	0x1d
 3702 0c26 00       		.byte	0x0
 3703 0c27 1A       		.uleb128 0x1a
 3704 0c28 F0       		.byte	0xf0
 3705 0c29 06       		.byte	0x6
 3706 0c2a 6202     		.word	0x262
 3707 0c2c 500C0000 		.long	0xc50
 3708 0c30 1B       		.uleb128 0x1b
 3709 0c31 5F726565 		.ascii "_reent\0"
 3709      6E7400
 3710 0c38 06       		.byte	0x6
 3711 0c39 7802     		.word	0x278
 3712 0c3b CB090000 		.long	0x9cb
 3713 0c3f 1B       		.uleb128 0x1b
 3714 0c40 5F756E75 		.ascii "_unused\0"
 3714      73656400 
 3715 0c48 06       		.byte	0x6
 3716 0c49 8102     		.word	0x281
 3717 0c4b D70B0000 		.long	0xbd7
 3718 0c4f 00       		.byte	0x0
 3719 0c50 09       		.uleb128 0x9
 3720 0c51 D6000000 		.long	0xd6
 3721 0c55 600C0000 		.long	0xc60
 3722 0c59 0A       		.uleb128 0xa
 3723 0c5a F3010000 		.long	0x1f3
 3724 0c5e 18       		.byte	0x18
 3725 0c5f 00       		.byte	0x0
 3726 0c60 1C       		.uleb128 0x1c
 3727 0c61 01       		.byte	0x1
 3728 0c62 6C0C0000 		.long	0xc6c
 3729 0c66 15       		.uleb128 0x15
 3730 0c67 DB040000 		.long	0x4db
 3731 0c6b 00       		.byte	0x0
 3732 0c6c 0F       		.uleb128 0xf
 3733 0c6d 04       		.byte	0x4
 3734 0c6e 600C0000 		.long	0xc60
 3735 0c72 0F       		.uleb128 0xf
 3736 0c73 04       		.byte	0x4
 3737 0c74 D5020000 		.long	0x2d5
 3738 0c78 1C       		.uleb128 0x1c
 3739 0c79 01       		.byte	0x1
 3740 0c7a 840C0000 		.long	0xc84
 3741 0c7e 15       		.uleb128 0x15
 3742 0c7f 21010000 		.long	0x121
 3743 0c83 00       		.byte	0x0
GAS LISTING /cygdrive/c/Users/THESCI~1/AppData/Local/Temp/ccu2GGTU.s 			page 89


 3744 0c84 0F       		.uleb128 0xf
 3745 0c85 04       		.byte	0x4
 3746 0c86 8A0C0000 		.long	0xc8a
 3747 0c8a 0F       		.uleb128 0xf
 3748 0c8b 04       		.byte	0x4
 3749 0c8c 780C0000 		.long	0xc78
 3750 0c90 09       		.uleb128 0x9
 3751 0c91 18090000 		.long	0x918
 3752 0c95 A00C0000 		.long	0xca0
 3753 0c99 0A       		.uleb128 0xa
 3754 0c9a F3010000 		.long	0x1f3
 3755 0c9e 02       		.byte	0x2
 3756 0c9f 00       		.byte	0x0
 3757 0ca0 03       		.uleb128 0x3
 3758 0ca1 696E7433 		.ascii "int32_t\0"
 3758      325F7400 
 3759 0ca9 07       		.byte	0x7
 3760 0caa 14       		.byte	0x14
 3761 0cab 21010000 		.long	0x121
 3762 0caf 03       		.uleb128 0x3
 3763 0cb0 46494C45 		.ascii "FILE\0"
 3763      00
 3764 0cb5 08       		.byte	0x8
 3765 0cb6 32       		.byte	0x32
 3766 0cb7 18090000 		.long	0x918
 3767 0cbb 03       		.uleb128 0x3
 3768 0cbc 76615F6C 		.ascii "va_list\0"
 3768      69737400 
 3769 0cc4 02       		.byte	0x2
 3770 0cc5 69       		.byte	0x69
 3771 0cc6 A8000000 		.long	0xa8
 3772 0cca 03       		.uleb128 0x3
 3773 0ccb 6A627974 		.ascii "jbyte\0"
 3773      6500
 3774 0cd1 09       		.byte	0x9
 3775 0cd2 4D       		.byte	0x4d
 3776 0cd3 DE000000 		.long	0xde
 3777 0cd7 03       		.uleb128 0x3
 3778 0cd8 6A73686F 		.ascii "jshort\0"
 3778      727400
 3779 0cdf 09       		.byte	0x9
 3780 0ce0 4E       		.byte	0x4e
 3781 0ce1 FE000000 		.long	0xfe
 3782 0ce5 03       		.uleb128 0x3
 3783 0ce6 6A696E74 		.ascii "jint\0"
 3783      00
 3784 0ceb 09       		.byte	0x9
 3785 0cec 4F       		.byte	0x4f
 3786 0ced 21010000 		.long	0x121
 3787 0cf1 03       		.uleb128 0x3
 3788 0cf2 6A6C6F6E 		.ascii "jlong\0"
 3788      6700
 3789 0cf8 09       		.byte	0x9
 3790 0cf9 50       		.byte	0x50
 3791 0cfa 28010000 		.long	0x128
 3792 0cfe 03       		.uleb128 0x3
 3793 0cff 6A626F6F 		.ascii "jboolean\0"
GAS LISTING /cygdrive/c/Users/THESCI~1/AppData/Local/Temp/ccu2GGTU.s 			page 90


 3793      6C65616E 
 3793      00
 3794 0d08 09       		.byte	0x9
 3795 0d09 51       		.byte	0x51
 3796 0d0a DE000000 		.long	0xde
 3797 0d0e 03       		.uleb128 0x3
 3798 0d0f 6A636861 		.ascii "jchar\0"
 3798      7200
 3799 0d15 09       		.byte	0x9
 3800 0d16 52       		.byte	0x52
 3801 0d17 0B010000 		.long	0x10b
 3802 0d1b 03       		.uleb128 0x3
 3803 0d1c 6A666C6F 		.ascii "jfloat\0"
 3803      617400
 3804 0d23 09       		.byte	0x9
 3805 0d24 53       		.byte	0x53
 3806 0d25 290D0000 		.long	0xd29
 3807 0d29 02       		.uleb128 0x2
 3808 0d2a 04       		.byte	0x4
 3809 0d2b 04       		.byte	0x4
 3810 0d2c 666C6F61 		.ascii "float\0"
 3810      7400
 3811 0d32 03       		.uleb128 0x3
 3812 0d33 6A646F75 		.ascii "jdouble\0"
 3812      626C6500 
 3813 0d3b 09       		.byte	0x9
 3814 0d3c 54       		.byte	0x54
 3815 0d3d 410D0000 		.long	0xd41
 3816 0d41 02       		.uleb128 0x2
 3817 0d42 08       		.byte	0x8
 3818 0d43 04       		.byte	0x4
 3819 0d44 646F7562 		.ascii "double\0"
 3819      6C6500
 3820 0d4b 03       		.uleb128 0x3
 3821 0d4c 6A73697A 		.ascii "jsize\0"
 3821      6500
 3822 0d52 09       		.byte	0x9
 3823 0d53 55       		.byte	0x55
 3824 0d54 E50C0000 		.long	0xce5
 3825 0d58 03       		.uleb128 0x3
 3826 0d59 6A6F626A 		.ascii "jobject\0"
 3826      65637400 
 3827 0d61 0A       		.byte	0xa
 3828 0d62 65       		.byte	0x65
 3829 0d63 62010000 		.long	0x162
 3830 0d67 03       		.uleb128 0x3
 3831 0d68 6A636C61 		.ascii "jclass\0"
 3831      737300
 3832 0d6f 0A       		.byte	0xa
 3833 0d70 66       		.byte	0x66
 3834 0d71 580D0000 		.long	0xd58
 3835 0d75 03       		.uleb128 0x3
 3836 0d76 6A737472 		.ascii "jstring\0"
 3836      696E6700 
 3837 0d7e 0A       		.byte	0xa
 3838 0d7f 67       		.byte	0x67
 3839 0d80 580D0000 		.long	0xd58
GAS LISTING /cygdrive/c/Users/THESCI~1/AppData/Local/Temp/ccu2GGTU.s 			page 91


 3840 0d84 03       		.uleb128 0x3
 3841 0d85 6A746872 		.ascii "jthrowable\0"
 3841      6F776162 
 3841      6C6500
 3842 0d90 0A       		.byte	0xa
 3843 0d91 68       		.byte	0x68
 3844 0d92 580D0000 		.long	0xd58
 3845 0d96 03       		.uleb128 0x3
 3846 0d97 6A776561 		.ascii "jweak\0"
 3846      6B00
 3847 0d9d 0A       		.byte	0xa
 3848 0d9e 69       		.byte	0x69
 3849 0d9f 580D0000 		.long	0xd58
 3850 0da3 03       		.uleb128 0x3
 3851 0da4 6A617272 		.ascii "jarray\0"
 3851      617900
 3852 0dab 0A       		.byte	0xa
 3853 0dac 6A       		.byte	0x6a
 3854 0dad 580D0000 		.long	0xd58
 3855 0db1 03       		.uleb128 0x3
 3856 0db2 6A6F626A 		.ascii "jobjectArray\0"
 3856      65637441 
 3856      72726179 
 3856      00
 3857 0dbf 0A       		.byte	0xa
 3858 0dc0 6B       		.byte	0x6b
 3859 0dc1 580D0000 		.long	0xd58
 3860 0dc5 03       		.uleb128 0x3
 3861 0dc6 6A627974 		.ascii "jbyteArray\0"
 3861      65417272 
 3861      617900
 3862 0dd1 0A       		.byte	0xa
 3863 0dd2 6C       		.byte	0x6c
 3864 0dd3 580D0000 		.long	0xd58
 3865 0dd7 03       		.uleb128 0x3
 3866 0dd8 6A73686F 		.ascii "jshortArray\0"
 3866      72744172 
 3866      72617900 
 3867 0de4 0A       		.byte	0xa
 3868 0de5 6D       		.byte	0x6d
 3869 0de6 580D0000 		.long	0xd58
 3870 0dea 03       		.uleb128 0x3
 3871 0deb 6A696E74 		.ascii "jintArray\0"
 3871      41727261 
 3871      7900
 3872 0df5 0A       		.byte	0xa
 3873 0df6 6E       		.byte	0x6e
 3874 0df7 580D0000 		.long	0xd58
 3875 0dfb 03       		.uleb128 0x3
 3876 0dfc 6A6C6F6E 		.ascii "jlongArray\0"
 3876      67417272 
 3876      617900
 3877 0e07 0A       		.byte	0xa
 3878 0e08 6F       		.byte	0x6f
 3879 0e09 580D0000 		.long	0xd58
 3880 0e0d 03       		.uleb128 0x3
 3881 0e0e 6A626F6F 		.ascii "jbooleanArray\0"
GAS LISTING /cygdrive/c/Users/THESCI~1/AppData/Local/Temp/ccu2GGTU.s 			page 92


 3881      6C65616E 
 3881      41727261 
 3881      7900
 3882 0e1c 0A       		.byte	0xa
 3883 0e1d 70       		.byte	0x70
 3884 0e1e 580D0000 		.long	0xd58
 3885 0e22 03       		.uleb128 0x3
 3886 0e23 6A636861 		.ascii "jcharArray\0"
 3886      72417272 
 3886      617900
 3887 0e2e 0A       		.byte	0xa
 3888 0e2f 71       		.byte	0x71
 3889 0e30 580D0000 		.long	0xd58
 3890 0e34 03       		.uleb128 0x3
 3891 0e35 6A666C6F 		.ascii "jfloatArray\0"
 3891      61744172 
 3891      72617900 
 3892 0e41 0A       		.byte	0xa
 3893 0e42 72       		.byte	0x72
 3894 0e43 580D0000 		.long	0xd58
 3895 0e47 03       		.uleb128 0x3
 3896 0e48 6A646F75 		.ascii "jdoubleArray\0"
 3896      626C6541 
 3896      72726179 
 3896      00
 3897 0e55 0A       		.byte	0xa
 3898 0e56 73       		.byte	0x73
 3899 0e57 580D0000 		.long	0xd58
 3900 0e5b 03       		.uleb128 0x3
 3901 0e5c 4A4E4945 		.ascii "JNIEnv\0"
 3901      6E7600
 3902 0e63 0A       		.byte	0xa
 3903 0e64 78       		.byte	0x78
 3904 0e65 690E0000 		.long	0xe69
 3905 0e69 0F       		.uleb128 0xf
 3906 0e6a 04       		.byte	0x4
 3907 0e6b 6F0E0000 		.long	0xe6f
 3908 0e6f 1D       		.uleb128 0x1d
 3909 0e70 14000000 		.secrel32	LASF1
 3910 0e74 780E0000 		.long	0xe78
 3911 0e78 10       		.uleb128 0x10
 3912 0e79 14000000 		.secrel32	LASF1
 3913 0e7d A003     		.word	0x3a0
 3914 0e7f 0A       		.byte	0xa
 3915 0e80 78       		.byte	0x78
 3916 0e81 4B2A0000 		.long	0x2a4b
 3917 0e85 12       		.uleb128 0x12
 3918 0e86 4F000000 		.secrel32	LASF2
 3919 0e8a 0A       		.byte	0xa
 3920 0e8b D3       		.byte	0xd3
 3921 0e8c 62010000 		.long	0x162
 3922 0e90 02       		.byte	0x2
 3923 0e91 23       		.byte	0x23
 3924 0e92 00       		.uleb128 0x0
 3925 0e93 12       		.uleb128 0x12
 3926 0e94 2D000000 		.secrel32	LASF3
 3927 0e98 0A       		.byte	0xa
GAS LISTING /cygdrive/c/Users/THESCI~1/AppData/Local/Temp/ccu2GGTU.s 			page 93


 3928 0e99 D4       		.byte	0xd4
 3929 0e9a 62010000 		.long	0x162
 3930 0e9e 02       		.byte	0x2
 3931 0e9f 23       		.byte	0x23
 3932 0ea0 04       		.uleb128 0x4
 3933 0ea1 12       		.uleb128 0x12
 3934 0ea2 37000000 		.secrel32	LASF4
 3935 0ea6 0A       		.byte	0xa
 3936 0ea7 D5       		.byte	0xd5
 3937 0ea8 62010000 		.long	0x162
 3938 0eac 02       		.byte	0x2
 3939 0ead 23       		.byte	0x23
 3940 0eae 08       		.uleb128 0x8
 3941 0eaf 0D       		.uleb128 0xd
 3942 0eb0 72657365 		.ascii "reserved3\0"
 3942      72766564 
 3942      3300
 3943 0eba 0A       		.byte	0xa
 3944 0ebb D6       		.byte	0xd6
 3945 0ebc 62010000 		.long	0x162
 3946 0ec0 02       		.byte	0x2
 3947 0ec1 23       		.byte	0x23
 3948 0ec2 0C       		.uleb128 0xc
 3949 0ec3 0D       		.uleb128 0xd
 3950 0ec4 47657456 		.ascii "GetVersion\0"
 3950      65727369 
 3950      6F6E00
 3951 0ecf 0A       		.byte	0xa
 3952 0ed0 D8       		.byte	0xd8
 3953 0ed1 502C0000 		.long	0x2c50
 3954 0ed5 02       		.byte	0x2
 3955 0ed6 23       		.byte	0x23
 3956 0ed7 10       		.uleb128 0x10
 3957 0ed8 0D       		.uleb128 0xd
 3958 0ed9 44656669 		.ascii "DefineClass\0"
 3958      6E65436C 
 3958      61737300 
 3959 0ee5 0A       		.byte	0xa
 3960 0ee6 D9       		.byte	0xd9
 3961 0ee7 852C0000 		.long	0x2c85
 3962 0eeb 02       		.byte	0x2
 3963 0eec 23       		.byte	0x23
 3964 0eed 14       		.uleb128 0x14
 3965 0eee 0D       		.uleb128 0xd
 3966 0eef 46696E64 		.ascii "FindClass\0"
 3966      436C6173 
 3966      7300
 3967 0ef9 0A       		.byte	0xa
 3968 0efa DC       		.byte	0xdc
 3969 0efb A02C0000 		.long	0x2ca0
 3970 0eff 02       		.byte	0x2
 3971 0f00 23       		.byte	0x23
 3972 0f01 18       		.uleb128 0x18
 3973 0f02 0D       		.uleb128 0xd
 3974 0f03 46726F6D 		.ascii "FromReflectedMethod\0"
 3974      5265666C 
 3974      65637465 
GAS LISTING /cygdrive/c/Users/THESCI~1/AppData/Local/Temp/ccu2GGTU.s 			page 94


 3974      644D6574 
 3974      686F6400 
 3975 0f17 0A       		.byte	0xa
 3976 0f18 DE       		.byte	0xde
 3977 0f19 BB2C0000 		.long	0x2cbb
 3978 0f1d 02       		.byte	0x2
 3979 0f1e 23       		.byte	0x23
 3980 0f1f 1C       		.uleb128 0x1c
 3981 0f20 0D       		.uleb128 0xd
 3982 0f21 46726F6D 		.ascii "FromReflectedField\0"
 3982      5265666C 
 3982      65637465 
 3982      64466965 
 3982      6C6400
 3983 0f34 0A       		.byte	0xa
 3984 0f35 DF       		.byte	0xdf
 3985 0f36 D62C0000 		.long	0x2cd6
 3986 0f3a 02       		.byte	0x2
 3987 0f3b 23       		.byte	0x23
 3988 0f3c 20       		.uleb128 0x20
 3989 0f3d 0D       		.uleb128 0xd
 3990 0f3e 546F5265 		.ascii "ToReflectedMethod\0"
 3990      666C6563 
 3990      7465644D 
 3990      6574686F 
 3990      6400
 3991 0f50 0A       		.byte	0xa
 3992 0f51 E0       		.byte	0xe0
 3993 0f52 FB2C0000 		.long	0x2cfb
 3994 0f56 02       		.byte	0x2
 3995 0f57 23       		.byte	0x23
 3996 0f58 24       		.uleb128 0x24
 3997 0f59 0D       		.uleb128 0xd
 3998 0f5a 47657453 		.ascii "GetSuperclass\0"
 3998      75706572 
 3998      636C6173 
 3998      7300
 3999 0f68 0A       		.byte	0xa
 4000 0f69 E3       		.byte	0xe3
 4001 0f6a 162D0000 		.long	0x2d16
 4002 0f6e 02       		.byte	0x2
 4003 0f6f 23       		.byte	0x23
 4004 0f70 28       		.uleb128 0x28
 4005 0f71 0D       		.uleb128 0xd
 4006 0f72 49734173 		.ascii "IsAssignableFrom\0"
 4006      7369676E 
 4006      61626C65 
 4006      46726F6D 
 4006      00
 4007 0f83 0A       		.byte	0xa
 4008 0f84 E4       		.byte	0xe4
 4009 0f85 362D0000 		.long	0x2d36
 4010 0f89 02       		.byte	0x2
 4011 0f8a 23       		.byte	0x23
 4012 0f8b 2C       		.uleb128 0x2c
 4013 0f8c 0D       		.uleb128 0xd
 4014 0f8d 546F5265 		.ascii "ToReflectedField\0"
GAS LISTING /cygdrive/c/Users/THESCI~1/AppData/Local/Temp/ccu2GGTU.s 			page 95


 4014      666C6563 
 4014      74656446 
 4014      69656C64 
 4014      00
 4015 0f9e 0A       		.byte	0xa
 4016 0f9f E6       		.byte	0xe6
 4017 0fa0 5B2D0000 		.long	0x2d5b
 4018 0fa4 02       		.byte	0x2
 4019 0fa5 23       		.byte	0x23
 4020 0fa6 30       		.uleb128 0x30
 4021 0fa7 0D       		.uleb128 0xd
 4022 0fa8 5468726F 		.ascii "Throw\0"
 4022      7700
 4023 0fae 0A       		.byte	0xa
 4024 0faf E9       		.byte	0xe9
 4025 0fb0 762D0000 		.long	0x2d76
 4026 0fb4 02       		.byte	0x2
 4027 0fb5 23       		.byte	0x23
 4028 0fb6 34       		.uleb128 0x34
 4029 0fb7 0D       		.uleb128 0xd
 4030 0fb8 5468726F 		.ascii "ThrowNew\0"
 4030      774E6577 
 4030      00
 4031 0fc1 0A       		.byte	0xa
 4032 0fc2 EA       		.byte	0xea
 4033 0fc3 962D0000 		.long	0x2d96
 4034 0fc7 02       		.byte	0x2
 4035 0fc8 23       		.byte	0x23
 4036 0fc9 38       		.uleb128 0x38
 4037 0fca 0D       		.uleb128 0xd
 4038 0fcb 45786365 		.ascii "ExceptionOccurred\0"
 4038      7074696F 
 4038      6E4F6363 
 4038      75727265 
 4038      6400
 4039 0fdd 0A       		.byte	0xa
 4040 0fde EC       		.byte	0xec
 4041 0fdf AC2D0000 		.long	0x2dac
 4042 0fe3 02       		.byte	0x2
 4043 0fe4 23       		.byte	0x23
 4044 0fe5 3C       		.uleb128 0x3c
 4045 0fe6 0D       		.uleb128 0xd
 4046 0fe7 45786365 		.ascii "ExceptionDescribe\0"
 4046      7074696F 
 4046      6E446573 
 4046      63726962 
 4046      6500
 4047 0ff9 0A       		.byte	0xa
 4048 0ffa ED       		.byte	0xed
 4049 0ffb BE2D0000 		.long	0x2dbe
 4050 0fff 02       		.byte	0x2
 4051 1000 23       		.byte	0x23
 4052 1001 40       		.uleb128 0x40
 4053 1002 0D       		.uleb128 0xd
 4054 1003 45786365 		.ascii "ExceptionClear\0"
 4054      7074696F 
 4054      6E436C65 
GAS LISTING /cygdrive/c/Users/THESCI~1/AppData/Local/Temp/ccu2GGTU.s 			page 96


 4054      617200
 4055 1012 0A       		.byte	0xa
 4056 1013 EE       		.byte	0xee
 4057 1014 BE2D0000 		.long	0x2dbe
 4058 1018 02       		.byte	0x2
 4059 1019 23       		.byte	0x23
 4060 101a 44       		.uleb128 0x44
 4061 101b 0D       		.uleb128 0xd
 4062 101c 46617461 		.ascii "FatalError\0"
 4062      6C457272 
 4062      6F7200
 4063 1027 0A       		.byte	0xa
 4064 1028 EF       		.byte	0xef
 4065 1029 D52D0000 		.long	0x2dd5
 4066 102d 02       		.byte	0x2
 4067 102e 23       		.byte	0x23
 4068 102f 48       		.uleb128 0x48
 4069 1030 0D       		.uleb128 0xd
 4070 1031 50757368 		.ascii "PushLocalFrame\0"
 4070      4C6F6361 
 4070      6C467261 
 4070      6D6500
 4071 1040 0A       		.byte	0xa
 4072 1041 F1       		.byte	0xf1
 4073 1042 F02D0000 		.long	0x2df0
 4074 1046 02       		.byte	0x2
 4075 1047 23       		.byte	0x23
 4076 1048 4C       		.uleb128 0x4c
 4077 1049 0D       		.uleb128 0xd
 4078 104a 506F704C 		.ascii "PopLocalFrame\0"
 4078      6F63616C 
 4078      4672616D 
 4078      6500
 4079 1058 0A       		.byte	0xa
 4080 1059 F2       		.byte	0xf2
 4081 105a 0B2E0000 		.long	0x2e0b
 4082 105e 02       		.byte	0x2
 4083 105f 23       		.byte	0x23
 4084 1060 50       		.uleb128 0x50
 4085 1061 0D       		.uleb128 0xd
 4086 1062 4E657747 		.ascii "NewGlobalRef\0"
 4086      6C6F6261 
 4086      6C526566 
 4086      00
 4087 106f 0A       		.byte	0xa
 4088 1070 F4       		.byte	0xf4
 4089 1071 0B2E0000 		.long	0x2e0b
 4090 1075 02       		.byte	0x2
 4091 1076 23       		.byte	0x23
 4092 1077 54       		.uleb128 0x54
 4093 1078 0D       		.uleb128 0xd
 4094 1079 44656C65 		.ascii "DeleteGlobalRef\0"
 4094      7465476C 
 4094      6F62616C 
 4094      52656600 
 4095 1089 0A       		.byte	0xa
 4096 108a F5       		.byte	0xf5
GAS LISTING /cygdrive/c/Users/THESCI~1/AppData/Local/Temp/ccu2GGTU.s 			page 97


 4097 108b 222E0000 		.long	0x2e22
 4098 108f 02       		.byte	0x2
 4099 1090 23       		.byte	0x23
 4100 1091 58       		.uleb128 0x58
 4101 1092 0D       		.uleb128 0xd
 4102 1093 44656C65 		.ascii "DeleteLocalRef\0"
 4102      74654C6F 
 4102      63616C52 
 4102      656600
 4103 10a2 0A       		.byte	0xa
 4104 10a3 F6       		.byte	0xf6
 4105 10a4 222E0000 		.long	0x2e22
 4106 10a8 02       		.byte	0x2
 4107 10a9 23       		.byte	0x23
 4108 10aa 5C       		.uleb128 0x5c
 4109 10ab 0D       		.uleb128 0xd
 4110 10ac 49735361 		.ascii "IsSameObject\0"
 4110      6D654F62 
 4110      6A656374 
 4110      00
 4111 10b9 0A       		.byte	0xa
 4112 10ba F7       		.byte	0xf7
 4113 10bb 422E0000 		.long	0x2e42
 4114 10bf 02       		.byte	0x2
 4115 10c0 23       		.byte	0x23
 4116 10c1 60       		.uleb128 0x60
 4117 10c2 0D       		.uleb128 0xd
 4118 10c3 4E65774C 		.ascii "NewLocalRef\0"
 4118      6F63616C 
 4118      52656600 
 4119 10cf 0A       		.byte	0xa
 4120 10d0 FA       		.byte	0xfa
 4121 10d1 0B2E0000 		.long	0x2e0b
 4122 10d5 02       		.byte	0x2
 4123 10d6 23       		.byte	0x23
 4124 10d7 64       		.uleb128 0x64
 4125 10d8 0D       		.uleb128 0xd
 4126 10d9 456E7375 		.ascii "EnsureLocalCapacity\0"
 4126      72654C6F 
 4126      63616C43 
 4126      61706163 
 4126      69747900 
 4127 10ed 0A       		.byte	0xa
 4128 10ee FB       		.byte	0xfb
 4129 10ef F02D0000 		.long	0x2df0
 4130 10f3 02       		.byte	0x2
 4131 10f4 23       		.byte	0x23
 4132 10f5 68       		.uleb128 0x68
 4133 10f6 0D       		.uleb128 0xd
 4134 10f7 416C6C6F 		.ascii "AllocObject\0"
 4134      634F626A 
 4134      65637400 
 4135 1103 0A       		.byte	0xa
 4136 1104 FD       		.byte	0xfd
 4137 1105 5D2E0000 		.long	0x2e5d
 4138 1109 02       		.byte	0x2
 4139 110a 23       		.byte	0x23
GAS LISTING /cygdrive/c/Users/THESCI~1/AppData/Local/Temp/ccu2GGTU.s 			page 98


 4140 110b 6C       		.uleb128 0x6c
 4141 110c 0D       		.uleb128 0xd
 4142 110d 4E65774F 		.ascii "NewObject\0"
 4142      626A6563 
 4142      7400
 4143 1117 0A       		.byte	0xa
 4144 1118 FE       		.byte	0xfe
 4145 1119 7E2E0000 		.long	0x2e7e
 4146 111d 02       		.byte	0x2
 4147 111e 23       		.byte	0x23
 4148 111f 70       		.uleb128 0x70
 4149 1120 16       		.uleb128 0x16
 4150 1121 4E65774F 		.ascii "NewObjectV\0"
 4150      626A6563 
 4150      745600
 4151 112c 0A       		.byte	0xa
 4152 112d 0001     		.word	0x100
 4153 112f A32E0000 		.long	0x2ea3
 4154 1133 02       		.byte	0x2
 4155 1134 23       		.byte	0x23
 4156 1135 74       		.uleb128 0x74
 4157 1136 16       		.uleb128 0x16
 4158 1137 4E65774F 		.ascii "NewObjectA\0"
 4158      626A6563 
 4158      744100
 4159 1142 0A       		.byte	0xa
 4160 1143 0201     		.word	0x102
 4161 1145 D32E0000 		.long	0x2ed3
 4162 1149 02       		.byte	0x2
 4163 114a 23       		.byte	0x23
 4164 114b 78       		.uleb128 0x78
 4165 114c 16       		.uleb128 0x16
 4166 114d 4765744F 		.ascii "GetObjectClass\0"
 4166      626A6563 
 4166      74436C61 
 4166      737300
 4167 115c 0A       		.byte	0xa
 4168 115d 0501     		.word	0x105
 4169 115f EE2E0000 		.long	0x2eee
 4170 1163 02       		.byte	0x2
 4171 1164 23       		.byte	0x23
 4172 1165 7C       		.uleb128 0x7c
 4173 1166 16       		.uleb128 0x16
 4174 1167 4973496E 		.ascii "IsInstanceOf\0"
 4174      7374616E 
 4174      63654F66 
 4174      00
 4175 1174 0A       		.byte	0xa
 4176 1175 0601     		.word	0x106
 4177 1177 0E2F0000 		.long	0x2f0e
 4178 117b 03       		.byte	0x3
 4179 117c 23       		.byte	0x23
 4180 117d 8001     		.uleb128 0x80
 4181 117f 16       		.uleb128 0x16
 4182 1180 4765744D 		.ascii "GetMethodID\0"
 4182      6574686F 
 4182      64494400 
GAS LISTING /cygdrive/c/Users/THESCI~1/AppData/Local/Temp/ccu2GGTU.s 			page 99


 4183 118c 0A       		.byte	0xa
 4184 118d 0701     		.word	0x107
 4185 118f 332F0000 		.long	0x2f33
 4186 1193 03       		.byte	0x3
 4187 1194 23       		.byte	0x23
 4188 1195 8401     		.uleb128 0x84
 4189 1197 16       		.uleb128 0x16
 4190 1198 43616C6C 		.ascii "CallObjectMethod\0"
 4190      4F626A65 
 4190      63744D65 
 4190      74686F64 
 4190      00
 4191 11a9 0A       		.byte	0xa
 4192 11aa 0A01     		.word	0x10a
 4193 11ac 542F0000 		.long	0x2f54
 4194 11b0 03       		.byte	0x3
 4195 11b1 23       		.byte	0x23
 4196 11b2 8801     		.uleb128 0x88
 4197 11b4 16       		.uleb128 0x16
 4198 11b5 43616C6C 		.ascii "CallObjectMethodV\0"
 4198      4F626A65 
 4198      63744D65 
 4198      74686F64 
 4198      5600
 4199 11c7 0A       		.byte	0xa
 4200 11c8 0B01     		.word	0x10b
 4201 11ca 792F0000 		.long	0x2f79
 4202 11ce 03       		.byte	0x3
 4203 11cf 23       		.byte	0x23
 4204 11d0 8C01     		.uleb128 0x8c
 4205 11d2 16       		.uleb128 0x16
 4206 11d3 43616C6C 		.ascii "CallObjectMethodA\0"
 4206      4F626A65 
 4206      63744D65 
 4206      74686F64 
 4206      4100
 4207 11e5 0A       		.byte	0xa
 4208 11e6 0D01     		.word	0x10d
 4209 11e8 9E2F0000 		.long	0x2f9e
 4210 11ec 03       		.byte	0x3
 4211 11ed 23       		.byte	0x23
 4212 11ee 9001     		.uleb128 0x90
 4213 11f0 16       		.uleb128 0x16
 4214 11f1 43616C6C 		.ascii "CallBooleanMethod\0"
 4214      426F6F6C 
 4214      65616E4D 
 4214      6574686F 
 4214      6400
 4215 1203 0A       		.byte	0xa
 4216 1204 0F01     		.word	0x10f
 4217 1206 BF2F0000 		.long	0x2fbf
 4218 120a 03       		.byte	0x3
 4219 120b 23       		.byte	0x23
 4220 120c 9401     		.uleb128 0x94
 4221 120e 16       		.uleb128 0x16
 4222 120f 43616C6C 		.ascii "CallBooleanMethodV\0"
 4222      426F6F6C 
GAS LISTING /cygdrive/c/Users/THESCI~1/AppData/Local/Temp/ccu2GGTU.s 			page 100


 4222      65616E4D 
 4222      6574686F 
 4222      645600
 4223 1222 0A       		.byte	0xa
 4224 1223 1101     		.word	0x111
 4225 1225 E42F0000 		.long	0x2fe4
 4226 1229 03       		.byte	0x3
 4227 122a 23       		.byte	0x23
 4228 122b 9801     		.uleb128 0x98
 4229 122d 16       		.uleb128 0x16
 4230 122e 43616C6C 		.ascii "CallBooleanMethodA\0"
 4230      426F6F6C 
 4230      65616E4D 
 4230      6574686F 
 4230      644100
 4231 1241 0A       		.byte	0xa
 4232 1242 1301     		.word	0x113
 4233 1244 09300000 		.long	0x3009
 4234 1248 03       		.byte	0x3
 4235 1249 23       		.byte	0x23
 4236 124a 9C01     		.uleb128 0x9c
 4237 124c 16       		.uleb128 0x16
 4238 124d 43616C6C 		.ascii "CallByteMethod\0"
 4238      42797465 
 4238      4D657468 
 4238      6F6400
 4239 125c 0A       		.byte	0xa
 4240 125d 1501     		.word	0x115
 4241 125f 2A300000 		.long	0x302a
 4242 1263 03       		.byte	0x3
 4243 1264 23       		.byte	0x23
 4244 1265 A001     		.uleb128 0xa0
 4245 1267 16       		.uleb128 0x16
 4246 1268 43616C6C 		.ascii "CallByteMethodV\0"
 4246      42797465 
 4246      4D657468 
 4246      6F645600 
 4247 1278 0A       		.byte	0xa
 4248 1279 1601     		.word	0x116
 4249 127b 4F300000 		.long	0x304f
 4250 127f 03       		.byte	0x3
 4251 1280 23       		.byte	0x23
 4252 1281 A401     		.uleb128 0xa4
 4253 1283 16       		.uleb128 0x16
 4254 1284 43616C6C 		.ascii "CallByteMethodA\0"
 4254      42797465 
 4254      4D657468 
 4254      6F644100 
 4255 1294 0A       		.byte	0xa
 4256 1295 1801     		.word	0x118
 4257 1297 74300000 		.long	0x3074
 4258 129b 03       		.byte	0x3
 4259 129c 23       		.byte	0x23
 4260 129d A801     		.uleb128 0xa8
 4261 129f 16       		.uleb128 0x16
 4262 12a0 43616C6C 		.ascii "CallCharMethod\0"
 4262      43686172 
GAS LISTING /cygdrive/c/Users/THESCI~1/AppData/Local/Temp/ccu2GGTU.s 			page 101


 4262      4D657468 
 4262      6F6400
 4263 12af 0A       		.byte	0xa
 4264 12b0 1A01     		.word	0x11a
 4265 12b2 95300000 		.long	0x3095
 4266 12b6 03       		.byte	0x3
 4267 12b7 23       		.byte	0x23
 4268 12b8 AC01     		.uleb128 0xac
 4269 12ba 16       		.uleb128 0x16
 4270 12bb 43616C6C 		.ascii "CallCharMethodV\0"
 4270      43686172 
 4270      4D657468 
 4270      6F645600 
 4271 12cb 0A       		.byte	0xa
 4272 12cc 1B01     		.word	0x11b
 4273 12ce BA300000 		.long	0x30ba
 4274 12d2 03       		.byte	0x3
 4275 12d3 23       		.byte	0x23
 4276 12d4 B001     		.uleb128 0xb0
 4277 12d6 16       		.uleb128 0x16
 4278 12d7 43616C6C 		.ascii "CallCharMethodA\0"
 4278      43686172 
 4278      4D657468 
 4278      6F644100 
 4279 12e7 0A       		.byte	0xa
 4280 12e8 1D01     		.word	0x11d
 4281 12ea DF300000 		.long	0x30df
 4282 12ee 03       		.byte	0x3
 4283 12ef 23       		.byte	0x23
 4284 12f0 B401     		.uleb128 0xb4
 4285 12f2 16       		.uleb128 0x16
 4286 12f3 43616C6C 		.ascii "CallShortMethod\0"
 4286      53686F72 
 4286      744D6574 
 4286      686F6400 
 4287 1303 0A       		.byte	0xa
 4288 1304 1F01     		.word	0x11f
 4289 1306 00310000 		.long	0x3100
 4290 130a 03       		.byte	0x3
 4291 130b 23       		.byte	0x23
 4292 130c B801     		.uleb128 0xb8
 4293 130e 16       		.uleb128 0x16
 4294 130f 43616C6C 		.ascii "CallShortMethodV\0"
 4294      53686F72 
 4294      744D6574 
 4294      686F6456 
 4294      00
 4295 1320 0A       		.byte	0xa
 4296 1321 2001     		.word	0x120
 4297 1323 25310000 		.long	0x3125
 4298 1327 03       		.byte	0x3
 4299 1328 23       		.byte	0x23
 4300 1329 BC01     		.uleb128 0xbc
 4301 132b 16       		.uleb128 0x16
 4302 132c 43616C6C 		.ascii "CallShortMethodA\0"
 4302      53686F72 
 4302      744D6574 
GAS LISTING /cygdrive/c/Users/THESCI~1/AppData/Local/Temp/ccu2GGTU.s 			page 102


 4302      686F6441 
 4302      00
 4303 133d 0A       		.byte	0xa
 4304 133e 2201     		.word	0x122
 4305 1340 4A310000 		.long	0x314a
 4306 1344 03       		.byte	0x3
 4307 1345 23       		.byte	0x23
 4308 1346 C001     		.uleb128 0xc0
 4309 1348 16       		.uleb128 0x16
 4310 1349 43616C6C 		.ascii "CallIntMethod\0"
 4310      496E744D 
 4310      6574686F 
 4310      6400
 4311 1357 0A       		.byte	0xa
 4312 1358 2401     		.word	0x124
 4313 135a 6B310000 		.long	0x316b
 4314 135e 03       		.byte	0x3
 4315 135f 23       		.byte	0x23
 4316 1360 C401     		.uleb128 0xc4
 4317 1362 16       		.uleb128 0x16
 4318 1363 43616C6C 		.ascii "CallIntMethodV\0"
 4318      496E744D 
 4318      6574686F 
 4318      645600
 4319 1372 0A       		.byte	0xa
 4320 1373 2501     		.word	0x125
 4321 1375 90310000 		.long	0x3190
 4322 1379 03       		.byte	0x3
 4323 137a 23       		.byte	0x23
 4324 137b C801     		.uleb128 0xc8
 4325 137d 16       		.uleb128 0x16
 4326 137e 43616C6C 		.ascii "CallIntMethodA\0"
 4326      496E744D 
 4326      6574686F 
 4326      644100
 4327 138d 0A       		.byte	0xa
 4328 138e 2701     		.word	0x127
 4329 1390 B5310000 		.long	0x31b5
 4330 1394 03       		.byte	0x3
 4331 1395 23       		.byte	0x23
 4332 1396 CC01     		.uleb128 0xcc
 4333 1398 16       		.uleb128 0x16
 4334 1399 43616C6C 		.ascii "CallLongMethod\0"
 4334      4C6F6E67 
 4334      4D657468 
 4334      6F6400
 4335 13a8 0A       		.byte	0xa
 4336 13a9 2901     		.word	0x129
 4337 13ab D6310000 		.long	0x31d6
 4338 13af 03       		.byte	0x3
 4339 13b0 23       		.byte	0x23
 4340 13b1 D001     		.uleb128 0xd0
 4341 13b3 16       		.uleb128 0x16
 4342 13b4 43616C6C 		.ascii "CallLongMethodV\0"
 4342      4C6F6E67 
 4342      4D657468 
 4342      6F645600 
GAS LISTING /cygdrive/c/Users/THESCI~1/AppData/Local/Temp/ccu2GGTU.s 			page 103


 4343 13c4 0A       		.byte	0xa
 4344 13c5 2A01     		.word	0x12a
 4345 13c7 FB310000 		.long	0x31fb
 4346 13cb 03       		.byte	0x3
 4347 13cc 23       		.byte	0x23
 4348 13cd D401     		.uleb128 0xd4
 4349 13cf 16       		.uleb128 0x16
 4350 13d0 43616C6C 		.ascii "CallLongMethodA\0"
 4350      4C6F6E67 
 4350      4D657468 
 4350      6F644100 
 4351 13e0 0A       		.byte	0xa
 4352 13e1 2C01     		.word	0x12c
 4353 13e3 20320000 		.long	0x3220
 4354 13e7 03       		.byte	0x3
 4355 13e8 23       		.byte	0x23
 4356 13e9 D801     		.uleb128 0xd8
 4357 13eb 16       		.uleb128 0x16
 4358 13ec 43616C6C 		.ascii "CallFloatMethod\0"
 4358      466C6F61 
 4358      744D6574 
 4358      686F6400 
 4359 13fc 0A       		.byte	0xa
 4360 13fd 2E01     		.word	0x12e
 4361 13ff 41320000 		.long	0x3241
 4362 1403 03       		.byte	0x3
 4363 1404 23       		.byte	0x23
 4364 1405 DC01     		.uleb128 0xdc
 4365 1407 16       		.uleb128 0x16
 4366 1408 43616C6C 		.ascii "CallFloatMethodV\0"
 4366      466C6F61 
 4366      744D6574 
 4366      686F6456 
 4366      00
 4367 1419 0A       		.byte	0xa
 4368 141a 2F01     		.word	0x12f
 4369 141c 66320000 		.long	0x3266
 4370 1420 03       		.byte	0x3
 4371 1421 23       		.byte	0x23
 4372 1422 E001     		.uleb128 0xe0
 4373 1424 16       		.uleb128 0x16
 4374 1425 43616C6C 		.ascii "CallFloatMethodA\0"
 4374      466C6F61 
 4374      744D6574 
 4374      686F6441 
 4374      00
 4375 1436 0A       		.byte	0xa
 4376 1437 3101     		.word	0x131
 4377 1439 8B320000 		.long	0x328b
 4378 143d 03       		.byte	0x3
 4379 143e 23       		.byte	0x23
 4380 143f E401     		.uleb128 0xe4
 4381 1441 16       		.uleb128 0x16
 4382 1442 43616C6C 		.ascii "CallDoubleMethod\0"
 4382      446F7562 
 4382      6C654D65 
 4382      74686F64 
GAS LISTING /cygdrive/c/Users/THESCI~1/AppData/Local/Temp/ccu2GGTU.s 			page 104


 4382      00
 4383 1453 0A       		.byte	0xa
 4384 1454 3301     		.word	0x133
 4385 1456 AC320000 		.long	0x32ac
 4386 145a 03       		.byte	0x3
 4387 145b 23       		.byte	0x23
 4388 145c E801     		.uleb128 0xe8
 4389 145e 16       		.uleb128 0x16
 4390 145f 43616C6C 		.ascii "CallDoubleMethodV\0"
 4390      446F7562 
 4390      6C654D65 
 4390      74686F64 
 4390      5600
 4391 1471 0A       		.byte	0xa
 4392 1472 3401     		.word	0x134
 4393 1474 D1320000 		.long	0x32d1
 4394 1478 03       		.byte	0x3
 4395 1479 23       		.byte	0x23
 4396 147a EC01     		.uleb128 0xec
 4397 147c 16       		.uleb128 0x16
 4398 147d 43616C6C 		.ascii "CallDoubleMethodA\0"
 4398      446F7562 
 4398      6C654D65 
 4398      74686F64 
 4398      4100
 4399 148f 0A       		.byte	0xa
 4400 1490 3601     		.word	0x136
 4401 1492 F6320000 		.long	0x32f6
 4402 1496 03       		.byte	0x3
 4403 1497 23       		.byte	0x23
 4404 1498 F001     		.uleb128 0xf0
 4405 149a 16       		.uleb128 0x16
 4406 149b 43616C6C 		.ascii "CallVoidMethod\0"
 4406      566F6964 
 4406      4D657468 
 4406      6F6400
 4407 14aa 0A       		.byte	0xa
 4408 14ab 3801     		.word	0x138
 4409 14ad 13330000 		.long	0x3313
 4410 14b1 03       		.byte	0x3
 4411 14b2 23       		.byte	0x23
 4412 14b3 F401     		.uleb128 0xf4
 4413 14b5 16       		.uleb128 0x16
 4414 14b6 43616C6C 		.ascii "CallVoidMethodV\0"
 4414      566F6964 
 4414      4D657468 
 4414      6F645600 
 4415 14c6 0A       		.byte	0xa
 4416 14c7 3901     		.word	0x139
 4417 14c9 34330000 		.long	0x3334
 4418 14cd 03       		.byte	0x3
 4419 14ce 23       		.byte	0x23
 4420 14cf F801     		.uleb128 0xf8
 4421 14d1 16       		.uleb128 0x16
 4422 14d2 43616C6C 		.ascii "CallVoidMethodA\0"
 4422      566F6964 
 4422      4D657468 
GAS LISTING /cygdrive/c/Users/THESCI~1/AppData/Local/Temp/ccu2GGTU.s 			page 105


 4422      6F644100 
 4423 14e2 0A       		.byte	0xa
 4424 14e3 3B01     		.word	0x13b
 4425 14e5 55330000 		.long	0x3355
 4426 14e9 03       		.byte	0x3
 4427 14ea 23       		.byte	0x23
 4428 14eb FC01     		.uleb128 0xfc
 4429 14ed 16       		.uleb128 0x16
 4430 14ee 43616C6C 		.ascii "CallNonvirtualObjectMethod\0"
 4430      4E6F6E76 
 4430      69727475 
 4430      616C4F62 
 4430      6A656374 
 4431 1509 0A       		.byte	0xa
 4432 150a 3E01     		.word	0x13e
 4433 150c 7B330000 		.long	0x337b
 4434 1510 03       		.byte	0x3
 4435 1511 23       		.byte	0x23
 4436 1512 8002     		.uleb128 0x100
 4437 1514 16       		.uleb128 0x16
 4438 1515 43616C6C 		.ascii "CallNonvirtualObjectMethodV\0"
 4438      4E6F6E76 
 4438      69727475 
 4438      616C4F62 
 4438      6A656374 
 4439 1531 0A       		.byte	0xa
 4440 1532 4001     		.word	0x140
 4441 1534 A5330000 		.long	0x33a5
 4442 1538 03       		.byte	0x3
 4443 1539 23       		.byte	0x23
 4444 153a 8402     		.uleb128 0x104
 4445 153c 16       		.uleb128 0x16
 4446 153d 43616C6C 		.ascii "CallNonvirtualObjectMethodA\0"
 4446      4E6F6E76 
 4446      69727475 
 4446      616C4F62 
 4446      6A656374 
 4447 1559 0A       		.byte	0xa
 4448 155a 4201     		.word	0x142
 4449 155c CF330000 		.long	0x33cf
 4450 1560 03       		.byte	0x3
 4451 1561 23       		.byte	0x23
 4452 1562 8802     		.uleb128 0x108
 4453 1564 16       		.uleb128 0x16
 4454 1565 43616C6C 		.ascii "CallNonvirtualBooleanMethod\0"
 4454      4E6F6E76 
 4454      69727475 
 4454      616C426F 
 4454      6F6C6561 
 4455 1581 0A       		.byte	0xa
 4456 1582 4401     		.word	0x144
 4457 1584 F5330000 		.long	0x33f5
 4458 1588 03       		.byte	0x3
 4459 1589 23       		.byte	0x23
 4460 158a 8C02     		.uleb128 0x10c
 4461 158c 16       		.uleb128 0x16
 4462 158d 43616C6C 		.ascii "CallNonvirtualBooleanMethodV\0"
GAS LISTING /cygdrive/c/Users/THESCI~1/AppData/Local/Temp/ccu2GGTU.s 			page 106


 4462      4E6F6E76 
 4462      69727475 
 4462      616C426F 
 4462      6F6C6561 
 4463 15aa 0A       		.byte	0xa
 4464 15ab 4601     		.word	0x146
 4465 15ad 1F340000 		.long	0x341f
 4466 15b1 03       		.byte	0x3
 4467 15b2 23       		.byte	0x23
 4468 15b3 9002     		.uleb128 0x110
 4469 15b5 16       		.uleb128 0x16
 4470 15b6 43616C6C 		.ascii "CallNonvirtualBooleanMethodA\0"
 4470      4E6F6E76 
 4470      69727475 
 4470      616C426F 
 4470      6F6C6561 
 4471 15d3 0A       		.byte	0xa
 4472 15d4 4801     		.word	0x148
 4473 15d6 49340000 		.long	0x3449
 4474 15da 03       		.byte	0x3
 4475 15db 23       		.byte	0x23
 4476 15dc 9402     		.uleb128 0x114
 4477 15de 16       		.uleb128 0x16
 4478 15df 43616C6C 		.ascii "CallNonvirtualByteMethod\0"
 4478      4E6F6E76 
 4478      69727475 
 4478      616C4279 
 4478      74654D65 
 4479 15f8 0A       		.byte	0xa
 4480 15f9 4A01     		.word	0x14a
 4481 15fb 6F340000 		.long	0x346f
 4482 15ff 03       		.byte	0x3
 4483 1600 23       		.byte	0x23
 4484 1601 9802     		.uleb128 0x118
 4485 1603 16       		.uleb128 0x16
 4486 1604 43616C6C 		.ascii "CallNonvirtualByteMethodV\0"
 4486      4E6F6E76 
 4486      69727475 
 4486      616C4279 
 4486      74654D65 
 4487 161e 0A       		.byte	0xa
 4488 161f 4C01     		.word	0x14c
 4489 1621 99340000 		.long	0x3499
 4490 1625 03       		.byte	0x3
 4491 1626 23       		.byte	0x23
 4492 1627 9C02     		.uleb128 0x11c
 4493 1629 16       		.uleb128 0x16
 4494 162a 43616C6C 		.ascii "CallNonvirtualByteMethodA\0"
 4494      4E6F6E76 
 4494      69727475 
 4494      616C4279 
 4494      74654D65 
 4495 1644 0A       		.byte	0xa
 4496 1645 4E01     		.word	0x14e
 4497 1647 C3340000 		.long	0x34c3
 4498 164b 03       		.byte	0x3
 4499 164c 23       		.byte	0x23
GAS LISTING /cygdrive/c/Users/THESCI~1/AppData/Local/Temp/ccu2GGTU.s 			page 107


 4500 164d A002     		.uleb128 0x120
 4501 164f 16       		.uleb128 0x16
 4502 1650 43616C6C 		.ascii "CallNonvirtualCharMethod\0"
 4502      4E6F6E76 
 4502      69727475 
 4502      616C4368 
 4502      61724D65 
 4503 1669 0A       		.byte	0xa
 4504 166a 5001     		.word	0x150
 4505 166c E9340000 		.long	0x34e9
 4506 1670 03       		.byte	0x3
 4507 1671 23       		.byte	0x23
 4508 1672 A402     		.uleb128 0x124
 4509 1674 16       		.uleb128 0x16
 4510 1675 43616C6C 		.ascii "CallNonvirtualCharMethodV\0"
 4510      4E6F6E76 
 4510      69727475 
 4510      616C4368 
 4510      61724D65 
 4511 168f 0A       		.byte	0xa
 4512 1690 5201     		.word	0x152
 4513 1692 13350000 		.long	0x3513
 4514 1696 03       		.byte	0x3
 4515 1697 23       		.byte	0x23
 4516 1698 A802     		.uleb128 0x128
 4517 169a 16       		.uleb128 0x16
 4518 169b 43616C6C 		.ascii "CallNonvirtualCharMethodA\0"
 4518      4E6F6E76 
 4518      69727475 
 4518      616C4368 
 4518      61724D65 
 4519 16b5 0A       		.byte	0xa
 4520 16b6 5401     		.word	0x154
 4521 16b8 3D350000 		.long	0x353d
 4522 16bc 03       		.byte	0x3
 4523 16bd 23       		.byte	0x23
 4524 16be AC02     		.uleb128 0x12c
 4525 16c0 16       		.uleb128 0x16
 4526 16c1 43616C6C 		.ascii "CallNonvirtualShortMethod\0"
 4526      4E6F6E76 
 4526      69727475 
 4526      616C5368 
 4526      6F72744D 
 4527 16db 0A       		.byte	0xa
 4528 16dc 5601     		.word	0x156
 4529 16de 63350000 		.long	0x3563
 4530 16e2 03       		.byte	0x3
 4531 16e3 23       		.byte	0x23
 4532 16e4 B002     		.uleb128 0x130
 4533 16e6 16       		.uleb128 0x16
 4534 16e7 43616C6C 		.ascii "CallNonvirtualShortMethodV\0"
 4534      4E6F6E76 
 4534      69727475 
 4534      616C5368 
 4534      6F72744D 
 4535 1702 0A       		.byte	0xa
 4536 1703 5801     		.word	0x158
GAS LISTING /cygdrive/c/Users/THESCI~1/AppData/Local/Temp/ccu2GGTU.s 			page 108


 4537 1705 8D350000 		.long	0x358d
 4538 1709 03       		.byte	0x3
 4539 170a 23       		.byte	0x23
 4540 170b B402     		.uleb128 0x134
 4541 170d 16       		.uleb128 0x16
 4542 170e 43616C6C 		.ascii "CallNonvirtualShortMethodA\0"
 4542      4E6F6E76 
 4542      69727475 
 4542      616C5368 
 4542      6F72744D 
 4543 1729 0A       		.byte	0xa
 4544 172a 5A01     		.word	0x15a
 4545 172c B7350000 		.long	0x35b7
 4546 1730 03       		.byte	0x3
 4547 1731 23       		.byte	0x23
 4548 1732 B802     		.uleb128 0x138
 4549 1734 16       		.uleb128 0x16
 4550 1735 43616C6C 		.ascii "CallNonvirtualIntMethod\0"
 4550      4E6F6E76 
 4550      69727475 
 4550      616C496E 
 4550      744D6574 
 4551 174d 0A       		.byte	0xa
 4552 174e 5C01     		.word	0x15c
 4553 1750 DD350000 		.long	0x35dd
 4554 1754 03       		.byte	0x3
 4555 1755 23       		.byte	0x23
 4556 1756 BC02     		.uleb128 0x13c
 4557 1758 16       		.uleb128 0x16
 4558 1759 43616C6C 		.ascii "CallNonvirtualIntMethodV\0"
 4558      4E6F6E76 
 4558      69727475 
 4558      616C496E 
 4558      744D6574 
 4559 1772 0A       		.byte	0xa
 4560 1773 5E01     		.word	0x15e
 4561 1775 07360000 		.long	0x3607
 4562 1779 03       		.byte	0x3
 4563 177a 23       		.byte	0x23
 4564 177b C002     		.uleb128 0x140
 4565 177d 16       		.uleb128 0x16
 4566 177e 43616C6C 		.ascii "CallNonvirtualIntMethodA\0"
 4566      4E6F6E76 
 4566      69727475 
 4566      616C496E 
 4566      744D6574 
 4567 1797 0A       		.byte	0xa
 4568 1798 6001     		.word	0x160
 4569 179a 31360000 		.long	0x3631
 4570 179e 03       		.byte	0x3
 4571 179f 23       		.byte	0x23
 4572 17a0 C402     		.uleb128 0x144
 4573 17a2 16       		.uleb128 0x16
 4574 17a3 43616C6C 		.ascii "CallNonvirtualLongMethod\0"
 4574      4E6F6E76 
 4574      69727475 
 4574      616C4C6F 
GAS LISTING /cygdrive/c/Users/THESCI~1/AppData/Local/Temp/ccu2GGTU.s 			page 109


 4574      6E674D65 
 4575 17bc 0A       		.byte	0xa
 4576 17bd 6201     		.word	0x162
 4577 17bf 57360000 		.long	0x3657
 4578 17c3 03       		.byte	0x3
 4579 17c4 23       		.byte	0x23
 4580 17c5 C802     		.uleb128 0x148
 4581 17c7 16       		.uleb128 0x16
 4582 17c8 43616C6C 		.ascii "CallNonvirtualLongMethodV\0"
 4582      4E6F6E76 
 4582      69727475 
 4582      616C4C6F 
 4582      6E674D65 
 4583 17e2 0A       		.byte	0xa
 4584 17e3 6401     		.word	0x164
 4585 17e5 81360000 		.long	0x3681
 4586 17e9 03       		.byte	0x3
 4587 17ea 23       		.byte	0x23
 4588 17eb CC02     		.uleb128 0x14c
 4589 17ed 16       		.uleb128 0x16
 4590 17ee 43616C6C 		.ascii "CallNonvirtualLongMethodA\0"
 4590      4E6F6E76 
 4590      69727475 
 4590      616C4C6F 
 4590      6E674D65 
 4591 1808 0A       		.byte	0xa
 4592 1809 6601     		.word	0x166
 4593 180b AB360000 		.long	0x36ab
 4594 180f 03       		.byte	0x3
 4595 1810 23       		.byte	0x23
 4596 1811 D002     		.uleb128 0x150
 4597 1813 16       		.uleb128 0x16
 4598 1814 43616C6C 		.ascii "CallNonvirtualFloatMethod\0"
 4598      4E6F6E76 
 4598      69727475 
 4598      616C466C 
 4598      6F61744D 
 4599 182e 0A       		.byte	0xa
 4600 182f 6801     		.word	0x168
 4601 1831 D1360000 		.long	0x36d1
 4602 1835 03       		.byte	0x3
 4603 1836 23       		.byte	0x23
 4604 1837 D402     		.uleb128 0x154
 4605 1839 16       		.uleb128 0x16
 4606 183a 43616C6C 		.ascii "CallNonvirtualFloatMethodV\0"
 4606      4E6F6E76 
 4606      69727475 
 4606      616C466C 
 4606      6F61744D 
 4607 1855 0A       		.byte	0xa
 4608 1856 6A01     		.word	0x16a
 4609 1858 FB360000 		.long	0x36fb
 4610 185c 03       		.byte	0x3
 4611 185d 23       		.byte	0x23
 4612 185e D802     		.uleb128 0x158
 4613 1860 16       		.uleb128 0x16
 4614 1861 43616C6C 		.ascii "CallNonvirtualFloatMethodA\0"
GAS LISTING /cygdrive/c/Users/THESCI~1/AppData/Local/Temp/ccu2GGTU.s 			page 110


 4614      4E6F6E76 
 4614      69727475 
 4614      616C466C 
 4614      6F61744D 
 4615 187c 0A       		.byte	0xa
 4616 187d 6C01     		.word	0x16c
 4617 187f 25370000 		.long	0x3725
 4618 1883 03       		.byte	0x3
 4619 1884 23       		.byte	0x23
 4620 1885 DC02     		.uleb128 0x15c
 4621 1887 16       		.uleb128 0x16
 4622 1888 43616C6C 		.ascii "CallNonvirtualDoubleMethod\0"
 4622      4E6F6E76 
 4622      69727475 
 4622      616C446F 
 4622      75626C65 
 4623 18a3 0A       		.byte	0xa
 4624 18a4 6E01     		.word	0x16e
 4625 18a6 4B370000 		.long	0x374b
 4626 18aa 03       		.byte	0x3
 4627 18ab 23       		.byte	0x23
 4628 18ac E002     		.uleb128 0x160
 4629 18ae 16       		.uleb128 0x16
 4630 18af 43616C6C 		.ascii "CallNonvirtualDoubleMethodV\0"
 4630      4E6F6E76 
 4630      69727475 
 4630      616C446F 
 4630      75626C65 
 4631 18cb 0A       		.byte	0xa
 4632 18cc 7001     		.word	0x170
 4633 18ce 75370000 		.long	0x3775
 4634 18d2 03       		.byte	0x3
 4635 18d3 23       		.byte	0x23
 4636 18d4 E402     		.uleb128 0x164
 4637 18d6 16       		.uleb128 0x16
 4638 18d7 43616C6C 		.ascii "CallNonvirtualDoubleMethodA\0"
 4638      4E6F6E76 
 4638      69727475 
 4638      616C446F 
 4638      75626C65 
 4639 18f3 0A       		.byte	0xa
 4640 18f4 7201     		.word	0x172
 4641 18f6 9F370000 		.long	0x379f
 4642 18fa 03       		.byte	0x3
 4643 18fb 23       		.byte	0x23
 4644 18fc E802     		.uleb128 0x168
 4645 18fe 16       		.uleb128 0x16
 4646 18ff 43616C6C 		.ascii "CallNonvirtualVoidMethod\0"
 4646      4E6F6E76 
 4646      69727475 
 4646      616C566F 
 4646      69644D65 
 4647 1918 0A       		.byte	0xa
 4648 1919 7401     		.word	0x174
 4649 191b C1370000 		.long	0x37c1
 4650 191f 03       		.byte	0x3
 4651 1920 23       		.byte	0x23
GAS LISTING /cygdrive/c/Users/THESCI~1/AppData/Local/Temp/ccu2GGTU.s 			page 111


 4652 1921 EC02     		.uleb128 0x16c
 4653 1923 16       		.uleb128 0x16
 4654 1924 43616C6C 		.ascii "CallNonvirtualVoidMethodV\0"
 4654      4E6F6E76 
 4654      69727475 
 4654      616C566F 
 4654      69644D65 
 4655 193e 0A       		.byte	0xa
 4656 193f 7601     		.word	0x176
 4657 1941 E7370000 		.long	0x37e7
 4658 1945 03       		.byte	0x3
 4659 1946 23       		.byte	0x23
 4660 1947 F002     		.uleb128 0x170
 4661 1949 16       		.uleb128 0x16
 4662 194a 43616C6C 		.ascii "CallNonvirtualVoidMethodA\0"
 4662      4E6F6E76 
 4662      69727475 
 4662      616C566F 
 4662      69644D65 
 4663 1964 0A       		.byte	0xa
 4664 1965 7801     		.word	0x178
 4665 1967 0D380000 		.long	0x380d
 4666 196b 03       		.byte	0x3
 4667 196c 23       		.byte	0x23
 4668 196d F402     		.uleb128 0x174
 4669 196f 16       		.uleb128 0x16
 4670 1970 47657446 		.ascii "GetFieldID\0"
 4670      69656C64 
 4670      494400
 4671 197b 0A       		.byte	0xa
 4672 197c 7B01     		.word	0x17b
 4673 197e 32380000 		.long	0x3832
 4674 1982 03       		.byte	0x3
 4675 1983 23       		.byte	0x23
 4676 1984 F802     		.uleb128 0x178
 4677 1986 16       		.uleb128 0x16
 4678 1987 4765744F 		.ascii "GetObjectField\0"
 4678      626A6563 
 4678      74466965 
 4678      6C6400
 4679 1996 0A       		.byte	0xa
 4680 1997 7E01     		.word	0x17e
 4681 1999 52380000 		.long	0x3852
 4682 199d 03       		.byte	0x3
 4683 199e 23       		.byte	0x23
 4684 199f FC02     		.uleb128 0x17c
 4685 19a1 16       		.uleb128 0x16
 4686 19a2 47657442 		.ascii "GetBooleanField\0"
 4686      6F6F6C65 
 4686      616E4669 
 4686      656C6400 
 4687 19b2 0A       		.byte	0xa
 4688 19b3 7F01     		.word	0x17f
 4689 19b5 72380000 		.long	0x3872
 4690 19b9 03       		.byte	0x3
 4691 19ba 23       		.byte	0x23
 4692 19bb 8003     		.uleb128 0x180
GAS LISTING /cygdrive/c/Users/THESCI~1/AppData/Local/Temp/ccu2GGTU.s 			page 112


 4693 19bd 16       		.uleb128 0x16
 4694 19be 47657442 		.ascii "GetByteField\0"
 4694      79746546 
 4694      69656C64 
 4694      00
 4695 19cb 0A       		.byte	0xa
 4696 19cc 8001     		.word	0x180
 4697 19ce 92380000 		.long	0x3892
 4698 19d2 03       		.byte	0x3
 4699 19d3 23       		.byte	0x23
 4700 19d4 8403     		.uleb128 0x184
 4701 19d6 16       		.uleb128 0x16
 4702 19d7 47657443 		.ascii "GetCharField\0"
 4702      68617246 
 4702      69656C64 
 4702      00
 4703 19e4 0A       		.byte	0xa
 4704 19e5 8101     		.word	0x181
 4705 19e7 B2380000 		.long	0x38b2
 4706 19eb 03       		.byte	0x3
 4707 19ec 23       		.byte	0x23
 4708 19ed 8803     		.uleb128 0x188
 4709 19ef 16       		.uleb128 0x16
 4710 19f0 47657453 		.ascii "GetShortField\0"
 4710      686F7274 
 4710      4669656C 
 4710      6400
 4711 19fe 0A       		.byte	0xa
 4712 19ff 8201     		.word	0x182
 4713 1a01 D2380000 		.long	0x38d2
 4714 1a05 03       		.byte	0x3
 4715 1a06 23       		.byte	0x23
 4716 1a07 8C03     		.uleb128 0x18c
 4717 1a09 16       		.uleb128 0x16
 4718 1a0a 47657449 		.ascii "GetIntField\0"
 4718      6E744669 
 4718      656C6400 
 4719 1a16 0A       		.byte	0xa
 4720 1a17 8301     		.word	0x183
 4721 1a19 F2380000 		.long	0x38f2
 4722 1a1d 03       		.byte	0x3
 4723 1a1e 23       		.byte	0x23
 4724 1a1f 9003     		.uleb128 0x190
 4725 1a21 16       		.uleb128 0x16
 4726 1a22 4765744C 		.ascii "GetLongField\0"
 4726      6F6E6746 
 4726      69656C64 
 4726      00
 4727 1a2f 0A       		.byte	0xa
 4728 1a30 8401     		.word	0x184
 4729 1a32 12390000 		.long	0x3912
 4730 1a36 03       		.byte	0x3
 4731 1a37 23       		.byte	0x23
 4732 1a38 9403     		.uleb128 0x194
 4733 1a3a 16       		.uleb128 0x16
 4734 1a3b 47657446 		.ascii "GetFloatField\0"
 4734      6C6F6174 
GAS LISTING /cygdrive/c/Users/THESCI~1/AppData/Local/Temp/ccu2GGTU.s 			page 113


 4734      4669656C 
 4734      6400
 4735 1a49 0A       		.byte	0xa
 4736 1a4a 8501     		.word	0x185
 4737 1a4c 32390000 		.long	0x3932
 4738 1a50 03       		.byte	0x3
 4739 1a51 23       		.byte	0x23
 4740 1a52 9803     		.uleb128 0x198
 4741 1a54 16       		.uleb128 0x16
 4742 1a55 47657444 		.ascii "GetDoubleField\0"
 4742      6F75626C 
 4742      65466965 
 4742      6C6400
 4743 1a64 0A       		.byte	0xa
 4744 1a65 8601     		.word	0x186
 4745 1a67 52390000 		.long	0x3952
 4746 1a6b 03       		.byte	0x3
 4747 1a6c 23       		.byte	0x23
 4748 1a6d 9C03     		.uleb128 0x19c
 4749 1a6f 16       		.uleb128 0x16
 4750 1a70 5365744F 		.ascii "SetObjectField\0"
 4750      626A6563 
 4750      74466965 
 4750      6C6400
 4751 1a7f 0A       		.byte	0xa
 4752 1a80 8801     		.word	0x188
 4753 1a82 73390000 		.long	0x3973
 4754 1a86 03       		.byte	0x3
 4755 1a87 23       		.byte	0x23
 4756 1a88 A003     		.uleb128 0x1a0
 4757 1a8a 16       		.uleb128 0x16
 4758 1a8b 53657442 		.ascii "SetBooleanField\0"
 4758      6F6F6C65 
 4758      616E4669 
 4758      656C6400 
 4759 1a9b 0A       		.byte	0xa
 4760 1a9c 8A01     		.word	0x18a
 4761 1a9e 94390000 		.long	0x3994
 4762 1aa2 03       		.byte	0x3
 4763 1aa3 23       		.byte	0x23
 4764 1aa4 A403     		.uleb128 0x1a4
 4765 1aa6 16       		.uleb128 0x16
 4766 1aa7 53657442 		.ascii "SetByteField\0"
 4766      79746546 
 4766      69656C64 
 4766      00
 4767 1ab4 0A       		.byte	0xa
 4768 1ab5 8C01     		.word	0x18c
 4769 1ab7 B5390000 		.long	0x39b5
 4770 1abb 03       		.byte	0x3
 4771 1abc 23       		.byte	0x23
 4772 1abd A803     		.uleb128 0x1a8
 4773 1abf 16       		.uleb128 0x16
 4774 1ac0 53657443 		.ascii "SetCharField\0"
 4774      68617246 
 4774      69656C64 
 4774      00
GAS LISTING /cygdrive/c/Users/THESCI~1/AppData/Local/Temp/ccu2GGTU.s 			page 114


 4775 1acd 0A       		.byte	0xa
 4776 1ace 8E01     		.word	0x18e
 4777 1ad0 D6390000 		.long	0x39d6
 4778 1ad4 03       		.byte	0x3
 4779 1ad5 23       		.byte	0x23
 4780 1ad6 AC03     		.uleb128 0x1ac
 4781 1ad8 16       		.uleb128 0x16
 4782 1ad9 53657453 		.ascii "SetShortField\0"
 4782      686F7274 
 4782      4669656C 
 4782      6400
 4783 1ae7 0A       		.byte	0xa
 4784 1ae8 9001     		.word	0x190
 4785 1aea F7390000 		.long	0x39f7
 4786 1aee 03       		.byte	0x3
 4787 1aef 23       		.byte	0x23
 4788 1af0 B003     		.uleb128 0x1b0
 4789 1af2 16       		.uleb128 0x16
 4790 1af3 53657449 		.ascii "SetIntField\0"
 4790      6E744669 
 4790      656C6400 
 4791 1aff 0A       		.byte	0xa
 4792 1b00 9201     		.word	0x192
 4793 1b02 183A0000 		.long	0x3a18
 4794 1b06 03       		.byte	0x3
 4795 1b07 23       		.byte	0x23
 4796 1b08 B403     		.uleb128 0x1b4
 4797 1b0a 16       		.uleb128 0x16
 4798 1b0b 5365744C 		.ascii "SetLongField\0"
 4798      6F6E6746 
 4798      69656C64 
 4798      00
 4799 1b18 0A       		.byte	0xa
 4800 1b19 9401     		.word	0x194
 4801 1b1b 393A0000 		.long	0x3a39
 4802 1b1f 03       		.byte	0x3
 4803 1b20 23       		.byte	0x23
 4804 1b21 B803     		.uleb128 0x1b8
 4805 1b23 16       		.uleb128 0x16
 4806 1b24 53657446 		.ascii "SetFloatField\0"
 4806      6C6F6174 
 4806      4669656C 
 4806      6400
 4807 1b32 0A       		.byte	0xa
 4808 1b33 9601     		.word	0x196
 4809 1b35 5A3A0000 		.long	0x3a5a
 4810 1b39 03       		.byte	0x3
 4811 1b3a 23       		.byte	0x23
 4812 1b3b BC03     		.uleb128 0x1bc
 4813 1b3d 16       		.uleb128 0x16
 4814 1b3e 53657444 		.ascii "SetDoubleField\0"
 4814      6F75626C 
 4814      65466965 
 4814      6C6400
 4815 1b4d 0A       		.byte	0xa
 4816 1b4e 9801     		.word	0x198
 4817 1b50 7B3A0000 		.long	0x3a7b
GAS LISTING /cygdrive/c/Users/THESCI~1/AppData/Local/Temp/ccu2GGTU.s 			page 115


 4818 1b54 03       		.byte	0x3
 4819 1b55 23       		.byte	0x23
 4820 1b56 C003     		.uleb128 0x1c0
 4821 1b58 16       		.uleb128 0x16
 4822 1b59 47657453 		.ascii "GetStaticMethodID\0"
 4822      74617469 
 4822      634D6574 
 4822      686F6449 
 4822      4400
 4823 1b6b 0A       		.byte	0xa
 4824 1b6c 9B01     		.word	0x19b
 4825 1b6e 332F0000 		.long	0x2f33
 4826 1b72 03       		.byte	0x3
 4827 1b73 23       		.byte	0x23
 4828 1b74 C403     		.uleb128 0x1c4
 4829 1b76 16       		.uleb128 0x16
 4830 1b77 43616C6C 		.ascii "CallStaticObjectMethod\0"
 4830      53746174 
 4830      69634F62 
 4830      6A656374 
 4830      4D657468 
 4831 1b8e 0A       		.byte	0xa
 4832 1b8f 9E01     		.word	0x19e
 4833 1b91 7E2E0000 		.long	0x2e7e
 4834 1b95 03       		.byte	0x3
 4835 1b96 23       		.byte	0x23
 4836 1b97 C803     		.uleb128 0x1c8
 4837 1b99 16       		.uleb128 0x16
 4838 1b9a 43616C6C 		.ascii "CallStaticObjectMethodV\0"
 4838      53746174 
 4838      69634F62 
 4838      6A656374 
 4838      4D657468 
 4839 1bb2 0A       		.byte	0xa
 4840 1bb3 A001     		.word	0x1a0
 4841 1bb5 A32E0000 		.long	0x2ea3
 4842 1bb9 03       		.byte	0x3
 4843 1bba 23       		.byte	0x23
 4844 1bbb CC03     		.uleb128 0x1cc
 4845 1bbd 16       		.uleb128 0x16
 4846 1bbe 43616C6C 		.ascii "CallStaticObjectMethodA\0"
 4846      53746174 
 4846      69634F62 
 4846      6A656374 
 4846      4D657468 
 4847 1bd6 0A       		.byte	0xa
 4848 1bd7 A201     		.word	0x1a2
 4849 1bd9 D32E0000 		.long	0x2ed3
 4850 1bdd 03       		.byte	0x3
 4851 1bde 23       		.byte	0x23
 4852 1bdf D003     		.uleb128 0x1d0
 4853 1be1 16       		.uleb128 0x16
 4854 1be2 43616C6C 		.ascii "CallStaticBooleanMethod\0"
 4854      53746174 
 4854      6963426F 
 4854      6F6C6561 
 4854      6E4D6574 
GAS LISTING /cygdrive/c/Users/THESCI~1/AppData/Local/Temp/ccu2GGTU.s 			page 116


 4855 1bfa 0A       		.byte	0xa
 4856 1bfb A401     		.word	0x1a4
 4857 1bfd 9C3A0000 		.long	0x3a9c
 4858 1c01 03       		.byte	0x3
 4859 1c02 23       		.byte	0x23
 4860 1c03 D403     		.uleb128 0x1d4
 4861 1c05 16       		.uleb128 0x16
 4862 1c06 43616C6C 		.ascii "CallStaticBooleanMethodV\0"
 4862      53746174 
 4862      6963426F 
 4862      6F6C6561 
 4862      6E4D6574 
 4863 1c1f 0A       		.byte	0xa
 4864 1c20 A601     		.word	0x1a6
 4865 1c22 C13A0000 		.long	0x3ac1
 4866 1c26 03       		.byte	0x3
 4867 1c27 23       		.byte	0x23
 4868 1c28 D803     		.uleb128 0x1d8
 4869 1c2a 16       		.uleb128 0x16
 4870 1c2b 43616C6C 		.ascii "CallStaticBooleanMethodA\0"
 4870      53746174 
 4870      6963426F 
 4870      6F6C6561 
 4870      6E4D6574 
 4871 1c44 0A       		.byte	0xa
 4872 1c45 A801     		.word	0x1a8
 4873 1c47 E63A0000 		.long	0x3ae6
 4874 1c4b 03       		.byte	0x3
 4875 1c4c 23       		.byte	0x23
 4876 1c4d DC03     		.uleb128 0x1dc
 4877 1c4f 16       		.uleb128 0x16
 4878 1c50 43616C6C 		.ascii "CallStaticByteMethod\0"
 4878      53746174 
 4878      69634279 
 4878      74654D65 
 4878      74686F64 
 4879 1c65 0A       		.byte	0xa
 4880 1c66 AA01     		.word	0x1aa
 4881 1c68 073B0000 		.long	0x3b07
 4882 1c6c 03       		.byte	0x3
 4883 1c6d 23       		.byte	0x23
 4884 1c6e E003     		.uleb128 0x1e0
 4885 1c70 16       		.uleb128 0x16
 4886 1c71 43616C6C 		.ascii "CallStaticByteMethodV\0"
 4886      53746174 
 4886      69634279 
 4886      74654D65 
 4886      74686F64 
 4887 1c87 0A       		.byte	0xa
 4888 1c88 AC01     		.word	0x1ac
 4889 1c8a 2C3B0000 		.long	0x3b2c
 4890 1c8e 03       		.byte	0x3
 4891 1c8f 23       		.byte	0x23
 4892 1c90 E403     		.uleb128 0x1e4
 4893 1c92 16       		.uleb128 0x16
 4894 1c93 43616C6C 		.ascii "CallStaticByteMethodA\0"
 4894      53746174 
GAS LISTING /cygdrive/c/Users/THESCI~1/AppData/Local/Temp/ccu2GGTU.s 			page 117


 4894      69634279 
 4894      74654D65 
 4894      74686F64 
 4895 1ca9 0A       		.byte	0xa
 4896 1caa AE01     		.word	0x1ae
 4897 1cac 513B0000 		.long	0x3b51
 4898 1cb0 03       		.byte	0x3
 4899 1cb1 23       		.byte	0x23
 4900 1cb2 E803     		.uleb128 0x1e8
 4901 1cb4 16       		.uleb128 0x16
 4902 1cb5 43616C6C 		.ascii "CallStaticCharMethod\0"
 4902      53746174 
 4902      69634368 
 4902      61724D65 
 4902      74686F64 
 4903 1cca 0A       		.byte	0xa
 4904 1ccb B001     		.word	0x1b0
 4905 1ccd 723B0000 		.long	0x3b72
 4906 1cd1 03       		.byte	0x3
 4907 1cd2 23       		.byte	0x23
 4908 1cd3 EC03     		.uleb128 0x1ec
 4909 1cd5 16       		.uleb128 0x16
 4910 1cd6 43616C6C 		.ascii "CallStaticCharMethodV\0"
 4910      53746174 
 4910      69634368 
 4910      61724D65 
 4910      74686F64 
 4911 1cec 0A       		.byte	0xa
 4912 1ced B201     		.word	0x1b2
 4913 1cef 973B0000 		.long	0x3b97
 4914 1cf3 03       		.byte	0x3
 4915 1cf4 23       		.byte	0x23
 4916 1cf5 F003     		.uleb128 0x1f0
 4917 1cf7 16       		.uleb128 0x16
 4918 1cf8 43616C6C 		.ascii "CallStaticCharMethodA\0"
 4918      53746174 
 4918      69634368 
 4918      61724D65 
 4918      74686F64 
 4919 1d0e 0A       		.byte	0xa
 4920 1d0f B401     		.word	0x1b4
 4921 1d11 BC3B0000 		.long	0x3bbc
 4922 1d15 03       		.byte	0x3
 4923 1d16 23       		.byte	0x23
 4924 1d17 F403     		.uleb128 0x1f4
 4925 1d19 16       		.uleb128 0x16
 4926 1d1a 43616C6C 		.ascii "CallStaticShortMethod\0"
 4926      53746174 
 4926      69635368 
 4926      6F72744D 
 4926      6574686F 
 4927 1d30 0A       		.byte	0xa
 4928 1d31 B601     		.word	0x1b6
 4929 1d33 DD3B0000 		.long	0x3bdd
 4930 1d37 03       		.byte	0x3
 4931 1d38 23       		.byte	0x23
 4932 1d39 F803     		.uleb128 0x1f8
GAS LISTING /cygdrive/c/Users/THESCI~1/AppData/Local/Temp/ccu2GGTU.s 			page 118


 4933 1d3b 16       		.uleb128 0x16
 4934 1d3c 43616C6C 		.ascii "CallStaticShortMethodV\0"
 4934      53746174 
 4934      69635368 
 4934      6F72744D 
 4934      6574686F 
 4935 1d53 0A       		.byte	0xa
 4936 1d54 B801     		.word	0x1b8
 4937 1d56 023C0000 		.long	0x3c02
 4938 1d5a 03       		.byte	0x3
 4939 1d5b 23       		.byte	0x23
 4940 1d5c FC03     		.uleb128 0x1fc
 4941 1d5e 16       		.uleb128 0x16
 4942 1d5f 43616C6C 		.ascii "CallStaticShortMethodA\0"
 4942      53746174 
 4942      69635368 
 4942      6F72744D 
 4942      6574686F 
 4943 1d76 0A       		.byte	0xa
 4944 1d77 BA01     		.word	0x1ba
 4945 1d79 273C0000 		.long	0x3c27
 4946 1d7d 03       		.byte	0x3
 4947 1d7e 23       		.byte	0x23
 4948 1d7f 8004     		.uleb128 0x200
 4949 1d81 16       		.uleb128 0x16
 4950 1d82 43616C6C 		.ascii "CallStaticIntMethod\0"
 4950      53746174 
 4950      6963496E 
 4950      744D6574 
 4950      686F6400 
 4951 1d96 0A       		.byte	0xa
 4952 1d97 BC01     		.word	0x1bc
 4953 1d99 483C0000 		.long	0x3c48
 4954 1d9d 03       		.byte	0x3
 4955 1d9e 23       		.byte	0x23
 4956 1d9f 8404     		.uleb128 0x204
 4957 1da1 16       		.uleb128 0x16
 4958 1da2 43616C6C 		.ascii "CallStaticIntMethodV\0"
 4958      53746174 
 4958      6963496E 
 4958      744D6574 
 4958      686F6456 
 4959 1db7 0A       		.byte	0xa
 4960 1db8 BE01     		.word	0x1be
 4961 1dba 6D3C0000 		.long	0x3c6d
 4962 1dbe 03       		.byte	0x3
 4963 1dbf 23       		.byte	0x23
 4964 1dc0 8804     		.uleb128 0x208
 4965 1dc2 16       		.uleb128 0x16
 4966 1dc3 43616C6C 		.ascii "CallStaticIntMethodA\0"
 4966      53746174 
 4966      6963496E 
 4966      744D6574 
 4966      686F6441 
 4967 1dd8 0A       		.byte	0xa
 4968 1dd9 C001     		.word	0x1c0
 4969 1ddb 923C0000 		.long	0x3c92
GAS LISTING /cygdrive/c/Users/THESCI~1/AppData/Local/Temp/ccu2GGTU.s 			page 119


 4970 1ddf 03       		.byte	0x3
 4971 1de0 23       		.byte	0x23
 4972 1de1 8C04     		.uleb128 0x20c
 4973 1de3 16       		.uleb128 0x16
 4974 1de4 43616C6C 		.ascii "CallStaticLongMethod\0"
 4974      53746174 
 4974      69634C6F 
 4974      6E674D65 
 4974      74686F64 
 4975 1df9 0A       		.byte	0xa
 4976 1dfa C201     		.word	0x1c2
 4977 1dfc B33C0000 		.long	0x3cb3
 4978 1e00 03       		.byte	0x3
 4979 1e01 23       		.byte	0x23
 4980 1e02 9004     		.uleb128 0x210
 4981 1e04 16       		.uleb128 0x16
 4982 1e05 43616C6C 		.ascii "CallStaticLongMethodV\0"
 4982      53746174 
 4982      69634C6F 
 4982      6E674D65 
 4982      74686F64 
 4983 1e1b 0A       		.byte	0xa
 4984 1e1c C401     		.word	0x1c4
 4985 1e1e D83C0000 		.long	0x3cd8
 4986 1e22 03       		.byte	0x3
 4987 1e23 23       		.byte	0x23
 4988 1e24 9404     		.uleb128 0x214
 4989 1e26 16       		.uleb128 0x16
 4990 1e27 43616C6C 		.ascii "CallStaticLongMethodA\0"
 4990      53746174 
 4990      69634C6F 
 4990      6E674D65 
 4990      74686F64 
 4991 1e3d 0A       		.byte	0xa
 4992 1e3e C601     		.word	0x1c6
 4993 1e40 FD3C0000 		.long	0x3cfd
 4994 1e44 03       		.byte	0x3
 4995 1e45 23       		.byte	0x23
 4996 1e46 9804     		.uleb128 0x218
 4997 1e48 16       		.uleb128 0x16
 4998 1e49 43616C6C 		.ascii "CallStaticFloatMethod\0"
 4998      53746174 
 4998      6963466C 
 4998      6F61744D 
 4998      6574686F 
 4999 1e5f 0A       		.byte	0xa
 5000 1e60 C801     		.word	0x1c8
 5001 1e62 1E3D0000 		.long	0x3d1e
 5002 1e66 03       		.byte	0x3
 5003 1e67 23       		.byte	0x23
 5004 1e68 9C04     		.uleb128 0x21c
 5005 1e6a 16       		.uleb128 0x16
 5006 1e6b 43616C6C 		.ascii "CallStaticFloatMethodV\0"
 5006      53746174 
 5006      6963466C 
 5006      6F61744D 
 5006      6574686F 
GAS LISTING /cygdrive/c/Users/THESCI~1/AppData/Local/Temp/ccu2GGTU.s 			page 120


 5007 1e82 0A       		.byte	0xa
 5008 1e83 CA01     		.word	0x1ca
 5009 1e85 433D0000 		.long	0x3d43
 5010 1e89 03       		.byte	0x3
 5011 1e8a 23       		.byte	0x23
 5012 1e8b A004     		.uleb128 0x220
 5013 1e8d 16       		.uleb128 0x16
 5014 1e8e 43616C6C 		.ascii "CallStaticFloatMethodA\0"
 5014      53746174 
 5014      6963466C 
 5014      6F61744D 
 5014      6574686F 
 5015 1ea5 0A       		.byte	0xa
 5016 1ea6 CC01     		.word	0x1cc
 5017 1ea8 683D0000 		.long	0x3d68
 5018 1eac 03       		.byte	0x3
 5019 1ead 23       		.byte	0x23
 5020 1eae A404     		.uleb128 0x224
 5021 1eb0 16       		.uleb128 0x16
 5022 1eb1 43616C6C 		.ascii "CallStaticDoubleMethod\0"
 5022      53746174 
 5022      6963446F 
 5022      75626C65 
 5022      4D657468 
 5023 1ec8 0A       		.byte	0xa
 5024 1ec9 CE01     		.word	0x1ce
 5025 1ecb 893D0000 		.long	0x3d89
 5026 1ecf 03       		.byte	0x3
 5027 1ed0 23       		.byte	0x23
 5028 1ed1 A804     		.uleb128 0x228
 5029 1ed3 16       		.uleb128 0x16
 5030 1ed4 43616C6C 		.ascii "CallStaticDoubleMethodV\0"
 5030      53746174 
 5030      6963446F 
 5030      75626C65 
 5030      4D657468 
 5031 1eec 0A       		.byte	0xa
 5032 1eed D001     		.word	0x1d0
 5033 1eef AE3D0000 		.long	0x3dae
 5034 1ef3 03       		.byte	0x3
 5035 1ef4 23       		.byte	0x23
 5036 1ef5 AC04     		.uleb128 0x22c
 5037 1ef7 16       		.uleb128 0x16
 5038 1ef8 43616C6C 		.ascii "CallStaticDoubleMethodA\0"
 5038      53746174 
 5038      6963446F 
 5038      75626C65 
 5038      4D657468 
 5039 1f10 0A       		.byte	0xa
 5040 1f11 D201     		.word	0x1d2
 5041 1f13 D33D0000 		.long	0x3dd3
 5042 1f17 03       		.byte	0x3
 5043 1f18 23       		.byte	0x23
 5044 1f19 B004     		.uleb128 0x230
 5045 1f1b 16       		.uleb128 0x16
 5046 1f1c 43616C6C 		.ascii "CallStaticVoidMethod\0"
 5046      53746174 
GAS LISTING /cygdrive/c/Users/THESCI~1/AppData/Local/Temp/ccu2GGTU.s 			page 121


 5046      6963566F 
 5046      69644D65 
 5046      74686F64 
 5047 1f31 0A       		.byte	0xa
 5048 1f32 D401     		.word	0x1d4
 5049 1f34 F03D0000 		.long	0x3df0
 5050 1f38 03       		.byte	0x3
 5051 1f39 23       		.byte	0x23
 5052 1f3a B404     		.uleb128 0x234
 5053 1f3c 16       		.uleb128 0x16
 5054 1f3d 43616C6C 		.ascii "CallStaticVoidMethodV\0"
 5054      53746174 
 5054      6963566F 
 5054      69644D65 
 5054      74686F64 
 5055 1f53 0A       		.byte	0xa
 5056 1f54 D601     		.word	0x1d6
 5057 1f56 113E0000 		.long	0x3e11
 5058 1f5a 03       		.byte	0x3
 5059 1f5b 23       		.byte	0x23
 5060 1f5c B804     		.uleb128 0x238
 5061 1f5e 16       		.uleb128 0x16
 5062 1f5f 43616C6C 		.ascii "CallStaticVoidMethodA\0"
 5062      53746174 
 5062      6963566F 
 5062      69644D65 
 5062      74686F64 
 5063 1f75 0A       		.byte	0xa
 5064 1f76 D801     		.word	0x1d8
 5065 1f78 323E0000 		.long	0x3e32
 5066 1f7c 03       		.byte	0x3
 5067 1f7d 23       		.byte	0x23
 5068 1f7e BC04     		.uleb128 0x23c
 5069 1f80 16       		.uleb128 0x16
 5070 1f81 47657453 		.ascii "GetStaticFieldID\0"
 5070      74617469 
 5070      63466965 
 5070      6C644944 
 5070      00
 5071 1f92 0A       		.byte	0xa
 5072 1f93 DB01     		.word	0x1db
 5073 1f95 32380000 		.long	0x3832
 5074 1f99 03       		.byte	0x3
 5075 1f9a 23       		.byte	0x23
 5076 1f9b C004     		.uleb128 0x240
 5077 1f9d 16       		.uleb128 0x16
 5078 1f9e 47657453 		.ascii "GetStaticObjectField\0"
 5078      74617469 
 5078      634F626A 
 5078      65637446 
 5078      69656C64 
 5079 1fb3 0A       		.byte	0xa
 5080 1fb4 DE01     		.word	0x1de
 5081 1fb6 523E0000 		.long	0x3e52
 5082 1fba 03       		.byte	0x3
 5083 1fbb 23       		.byte	0x23
 5084 1fbc C404     		.uleb128 0x244
GAS LISTING /cygdrive/c/Users/THESCI~1/AppData/Local/Temp/ccu2GGTU.s 			page 122


 5085 1fbe 16       		.uleb128 0x16
 5086 1fbf 47657453 		.ascii "GetStaticBooleanField\0"
 5086      74617469 
 5086      63426F6F 
 5086      6C65616E 
 5086      4669656C 
 5087 1fd5 0A       		.byte	0xa
 5088 1fd6 DF01     		.word	0x1df
 5089 1fd8 723E0000 		.long	0x3e72
 5090 1fdc 03       		.byte	0x3
 5091 1fdd 23       		.byte	0x23
 5092 1fde C804     		.uleb128 0x248
 5093 1fe0 16       		.uleb128 0x16
 5094 1fe1 47657453 		.ascii "GetStaticByteField\0"
 5094      74617469 
 5094      63427974 
 5094      65466965 
 5094      6C6400
 5095 1ff4 0A       		.byte	0xa
 5096 1ff5 E001     		.word	0x1e0
 5097 1ff7 923E0000 		.long	0x3e92
 5098 1ffb 03       		.byte	0x3
 5099 1ffc 23       		.byte	0x23
 5100 1ffd CC04     		.uleb128 0x24c
 5101 1fff 16       		.uleb128 0x16
 5102 2000 47657453 		.ascii "GetStaticCharField\0"
 5102      74617469 
 5102      63436861 
 5102      72466965 
 5102      6C6400
 5103 2013 0A       		.byte	0xa
 5104 2014 E101     		.word	0x1e1
 5105 2016 B23E0000 		.long	0x3eb2
 5106 201a 03       		.byte	0x3
 5107 201b 23       		.byte	0x23
 5108 201c D004     		.uleb128 0x250
 5109 201e 16       		.uleb128 0x16
 5110 201f 47657453 		.ascii "GetStaticShortField\0"
 5110      74617469 
 5110      6353686F 
 5110      72744669 
 5110      656C6400 
 5111 2033 0A       		.byte	0xa
 5112 2034 E201     		.word	0x1e2
 5113 2036 D23E0000 		.long	0x3ed2
 5114 203a 03       		.byte	0x3
 5115 203b 23       		.byte	0x23
 5116 203c D404     		.uleb128 0x254
 5117 203e 16       		.uleb128 0x16
 5118 203f 47657453 		.ascii "GetStaticIntField\0"
 5118      74617469 
 5118      63496E74 
 5118      4669656C 
 5118      6400
 5119 2051 0A       		.byte	0xa
 5120 2052 E301     		.word	0x1e3
 5121 2054 F23E0000 		.long	0x3ef2
GAS LISTING /cygdrive/c/Users/THESCI~1/AppData/Local/Temp/ccu2GGTU.s 			page 123


 5122 2058 03       		.byte	0x3
 5123 2059 23       		.byte	0x23
 5124 205a D804     		.uleb128 0x258
 5125 205c 16       		.uleb128 0x16
 5126 205d 47657453 		.ascii "GetStaticLongField\0"
 5126      74617469 
 5126      634C6F6E 
 5126      67466965 
 5126      6C6400
 5127 2070 0A       		.byte	0xa
 5128 2071 E401     		.word	0x1e4
 5129 2073 123F0000 		.long	0x3f12
 5130 2077 03       		.byte	0x3
 5131 2078 23       		.byte	0x23
 5132 2079 DC04     		.uleb128 0x25c
 5133 207b 16       		.uleb128 0x16
 5134 207c 47657453 		.ascii "GetStaticFloatField\0"
 5134      74617469 
 5134      63466C6F 
 5134      61744669 
 5134      656C6400 
 5135 2090 0A       		.byte	0xa
 5136 2091 E501     		.word	0x1e5
 5137 2093 323F0000 		.long	0x3f32
 5138 2097 03       		.byte	0x3
 5139 2098 23       		.byte	0x23
 5140 2099 E004     		.uleb128 0x260
 5141 209b 16       		.uleb128 0x16
 5142 209c 47657453 		.ascii "GetStaticDoubleField\0"
 5142      74617469 
 5142      63446F75 
 5142      626C6546 
 5142      69656C64 
 5143 20b1 0A       		.byte	0xa
 5144 20b2 E601     		.word	0x1e6
 5145 20b4 523F0000 		.long	0x3f52
 5146 20b8 03       		.byte	0x3
 5147 20b9 23       		.byte	0x23
 5148 20ba E404     		.uleb128 0x264
 5149 20bc 16       		.uleb128 0x16
 5150 20bd 53657453 		.ascii "SetStaticObjectField\0"
 5150      74617469 
 5150      634F626A 
 5150      65637446 
 5150      69656C64 
 5151 20d2 0A       		.byte	0xa
 5152 20d3 E801     		.word	0x1e8
 5153 20d5 733F0000 		.long	0x3f73
 5154 20d9 03       		.byte	0x3
 5155 20da 23       		.byte	0x23
 5156 20db E804     		.uleb128 0x268
 5157 20dd 16       		.uleb128 0x16
 5158 20de 53657453 		.ascii "SetStaticBooleanField\0"
 5158      74617469 
 5158      63426F6F 
 5158      6C65616E 
 5158      4669656C 
GAS LISTING /cygdrive/c/Users/THESCI~1/AppData/Local/Temp/ccu2GGTU.s 			page 124


 5159 20f4 0A       		.byte	0xa
 5160 20f5 EA01     		.word	0x1ea
 5161 20f7 943F0000 		.long	0x3f94
 5162 20fb 03       		.byte	0x3
 5163 20fc 23       		.byte	0x23
 5164 20fd EC04     		.uleb128 0x26c
 5165 20ff 16       		.uleb128 0x16
 5166 2100 53657453 		.ascii "SetStaticByteField\0"
 5166      74617469 
 5166      63427974 
 5166      65466965 
 5166      6C6400
 5167 2113 0A       		.byte	0xa
 5168 2114 EC01     		.word	0x1ec
 5169 2116 B53F0000 		.long	0x3fb5
 5170 211a 03       		.byte	0x3
 5171 211b 23       		.byte	0x23
 5172 211c F004     		.uleb128 0x270
 5173 211e 16       		.uleb128 0x16
 5174 211f 53657453 		.ascii "SetStaticCharField\0"
 5174      74617469 
 5174      63436861 
 5174      72466965 
 5174      6C6400
 5175 2132 0A       		.byte	0xa
 5176 2133 EE01     		.word	0x1ee
 5177 2135 D63F0000 		.long	0x3fd6
 5178 2139 03       		.byte	0x3
 5179 213a 23       		.byte	0x23
 5180 213b F404     		.uleb128 0x274
 5181 213d 16       		.uleb128 0x16
 5182 213e 53657453 		.ascii "SetStaticShortField\0"
 5182      74617469 
 5182      6353686F 
 5182      72744669 
 5182      656C6400 
 5183 2152 0A       		.byte	0xa
 5184 2153 F001     		.word	0x1f0
 5185 2155 F73F0000 		.long	0x3ff7
 5186 2159 03       		.byte	0x3
 5187 215a 23       		.byte	0x23
 5188 215b F804     		.uleb128 0x278
 5189 215d 16       		.uleb128 0x16
 5190 215e 53657453 		.ascii "SetStaticIntField\0"
 5190      74617469 
 5190      63496E74 
 5190      4669656C 
 5190      6400
 5191 2170 0A       		.byte	0xa
 5192 2171 F201     		.word	0x1f2
 5193 2173 18400000 		.long	0x4018
 5194 2177 03       		.byte	0x3
 5195 2178 23       		.byte	0x23
 5196 2179 FC04     		.uleb128 0x27c
 5197 217b 16       		.uleb128 0x16
 5198 217c 53657453 		.ascii "SetStaticLongField\0"
 5198      74617469 
GAS LISTING /cygdrive/c/Users/THESCI~1/AppData/Local/Temp/ccu2GGTU.s 			page 125


 5198      634C6F6E 
 5198      67466965 
 5198      6C6400
 5199 218f 0A       		.byte	0xa
 5200 2190 F401     		.word	0x1f4
 5201 2192 39400000 		.long	0x4039
 5202 2196 03       		.byte	0x3
 5203 2197 23       		.byte	0x23
 5204 2198 8005     		.uleb128 0x280
 5205 219a 16       		.uleb128 0x16
 5206 219b 53657453 		.ascii "SetStaticFloatField\0"
 5206      74617469 
 5206      63466C6F 
 5206      61744669 
 5206      656C6400 
 5207 21af 0A       		.byte	0xa
 5208 21b0 F601     		.word	0x1f6
 5209 21b2 5A400000 		.long	0x405a
 5210 21b6 03       		.byte	0x3
 5211 21b7 23       		.byte	0x23
 5212 21b8 8405     		.uleb128 0x284
 5213 21ba 16       		.uleb128 0x16
 5214 21bb 53657453 		.ascii "SetStaticDoubleField\0"
 5214      74617469 
 5214      63446F75 
 5214      626C6546 
 5214      69656C64 
 5215 21d0 0A       		.byte	0xa
 5216 21d1 F801     		.word	0x1f8
 5217 21d3 7B400000 		.long	0x407b
 5218 21d7 03       		.byte	0x3
 5219 21d8 23       		.byte	0x23
 5220 21d9 8805     		.uleb128 0x288
 5221 21db 16       		.uleb128 0x16
 5222 21dc 4E657753 		.ascii "NewString\0"
 5222      7472696E 
 5222      6700
 5223 21e6 0A       		.byte	0xa
 5224 21e7 FB01     		.word	0x1fb
 5225 21e9 A6400000 		.long	0x40a6
 5226 21ed 03       		.byte	0x3
 5227 21ee 23       		.byte	0x23
 5228 21ef 8C05     		.uleb128 0x28c
 5229 21f1 16       		.uleb128 0x16
 5230 21f2 47657453 		.ascii "GetStringLength\0"
 5230      7472696E 
 5230      674C656E 
 5230      67746800 
 5231 2202 0A       		.byte	0xa
 5232 2203 FC01     		.word	0x1fc
 5233 2205 C1400000 		.long	0x40c1
 5234 2209 03       		.byte	0x3
 5235 220a 23       		.byte	0x23
 5236 220b 9005     		.uleb128 0x290
 5237 220d 16       		.uleb128 0x16
 5238 220e 47657453 		.ascii "GetStringChars\0"
 5238      7472696E 
GAS LISTING /cygdrive/c/Users/THESCI~1/AppData/Local/Temp/ccu2GGTU.s 			page 126


 5238      67436861 
 5238      727300
 5239 221d 0A       		.byte	0xa
 5240 221e FD01     		.word	0x1fd
 5241 2220 E7400000 		.long	0x40e7
 5242 2224 03       		.byte	0x3
 5243 2225 23       		.byte	0x23
 5244 2226 9405     		.uleb128 0x294
 5245 2228 16       		.uleb128 0x16
 5246 2229 52656C65 		.ascii "ReleaseStringChars\0"
 5246      61736553 
 5246      7472696E 
 5246      67436861 
 5246      727300
 5247 223c 0A       		.byte	0xa
 5248 223d FE01     		.word	0x1fe
 5249 223f 03410000 		.long	0x4103
 5250 2243 03       		.byte	0x3
 5251 2244 23       		.byte	0x23
 5252 2245 9805     		.uleb128 0x298
 5253 2247 16       		.uleb128 0x16
 5254 2248 4E657753 		.ascii "NewStringUTF\0"
 5254      7472696E 
 5254      67555446 
 5254      00
 5255 2255 0A       		.byte	0xa
 5256 2256 FF01     		.word	0x1ff
 5257 2258 1E410000 		.long	0x411e
 5258 225c 03       		.byte	0x3
 5259 225d 23       		.byte	0x23
 5260 225e 9C05     		.uleb128 0x29c
 5261 2260 16       		.uleb128 0x16
 5262 2261 47657453 		.ascii "GetStringUTFLength\0"
 5262      7472696E 
 5262      67555446 
 5262      4C656E67 
 5262      746800
 5263 2274 0A       		.byte	0xa
 5264 2275 0002     		.word	0x200
 5265 2277 C1400000 		.long	0x40c1
 5266 227b 03       		.byte	0x3
 5267 227c 23       		.byte	0x23
 5268 227d A005     		.uleb128 0x2a0
 5269 227f 16       		.uleb128 0x16
 5270 2280 47657453 		.ascii "GetStringUTFChars\0"
 5270      7472696E 
 5270      67555446 
 5270      43686172 
 5270      7300
 5271 2292 0A       		.byte	0xa
 5272 2293 0102     		.word	0x201
 5273 2295 3E410000 		.long	0x413e
 5274 2299 03       		.byte	0x3
 5275 229a 23       		.byte	0x23
 5276 229b A405     		.uleb128 0x2a4
 5277 229d 16       		.uleb128 0x16
 5278 229e 52656C65 		.ascii "ReleaseStringUTFChars\0"
GAS LISTING /cygdrive/c/Users/THESCI~1/AppData/Local/Temp/ccu2GGTU.s 			page 127


 5278      61736553 
 5278      7472696E 
 5278      67555446 
 5278      43686172 
 5279 22b4 0A       		.byte	0xa
 5280 22b5 0202     		.word	0x202
 5281 22b7 5A410000 		.long	0x415a
 5282 22bb 03       		.byte	0x3
 5283 22bc 23       		.byte	0x23
 5284 22bd A805     		.uleb128 0x2a8
 5285 22bf 16       		.uleb128 0x16
 5286 22c0 47657441 		.ascii "GetArrayLength\0"
 5286      72726179 
 5286      4C656E67 
 5286      746800
 5287 22cf 0A       		.byte	0xa
 5288 22d0 0302     		.word	0x203
 5289 22d2 75410000 		.long	0x4175
 5290 22d6 03       		.byte	0x3
 5291 22d7 23       		.byte	0x23
 5292 22d8 AC05     		.uleb128 0x2ac
 5293 22da 16       		.uleb128 0x16
 5294 22db 4E65774F 		.ascii "NewObjectArray\0"
 5294      626A6563 
 5294      74417272 
 5294      617900
 5295 22ea 0A       		.byte	0xa
 5296 22eb 0402     		.word	0x204
 5297 22ed 9A410000 		.long	0x419a
 5298 22f1 03       		.byte	0x3
 5299 22f2 23       		.byte	0x23
 5300 22f3 B005     		.uleb128 0x2b0
 5301 22f5 16       		.uleb128 0x16
 5302 22f6 4765744F 		.ascii "GetObjectArrayElement\0"
 5302      626A6563 
 5302      74417272 
 5302      6179456C 
 5302      656D656E 
 5303 230c 0A       		.byte	0xa
 5304 230d 0502     		.word	0x205
 5305 230f BA410000 		.long	0x41ba
 5306 2313 03       		.byte	0x3
 5307 2314 23       		.byte	0x23
 5308 2315 B405     		.uleb128 0x2b4
 5309 2317 16       		.uleb128 0x16
 5310 2318 5365744F 		.ascii "SetObjectArrayElement\0"
 5310      626A6563 
 5310      74417272 
 5310      6179456C 
 5310      656D656E 
 5311 232e 0A       		.byte	0xa
 5312 232f 0602     		.word	0x206
 5313 2331 DB410000 		.long	0x41db
 5314 2335 03       		.byte	0x3
 5315 2336 23       		.byte	0x23
 5316 2337 B805     		.uleb128 0x2b8
 5317 2339 16       		.uleb128 0x16
GAS LISTING /cygdrive/c/Users/THESCI~1/AppData/Local/Temp/ccu2GGTU.s 			page 128


 5318 233a 4E657742 		.ascii "NewBooleanArray\0"
 5318      6F6F6C65 
 5318      616E4172 
 5318      72617900 
 5319 234a 0A       		.byte	0xa
 5320 234b 0902     		.word	0x209
 5321 234d F6410000 		.long	0x41f6
 5322 2351 03       		.byte	0x3
 5323 2352 23       		.byte	0x23
 5324 2353 BC05     		.uleb128 0x2bc
 5325 2355 16       		.uleb128 0x16
 5326 2356 4E657742 		.ascii "NewByteArray\0"
 5326      79746541 
 5326      72726179 
 5326      00
 5327 2363 0A       		.byte	0xa
 5328 2364 0A02     		.word	0x20a
 5329 2366 11420000 		.long	0x4211
 5330 236a 03       		.byte	0x3
 5331 236b 23       		.byte	0x23
 5332 236c C005     		.uleb128 0x2c0
 5333 236e 16       		.uleb128 0x16
 5334 236f 4E657743 		.ascii "NewCharArray\0"
 5334      68617241 
 5334      72726179 
 5334      00
 5335 237c 0A       		.byte	0xa
 5336 237d 0B02     		.word	0x20b
 5337 237f 2C420000 		.long	0x422c
 5338 2383 03       		.byte	0x3
 5339 2384 23       		.byte	0x23
 5340 2385 C405     		.uleb128 0x2c4
 5341 2387 16       		.uleb128 0x16
 5342 2388 4E657753 		.ascii "NewShortArray\0"
 5342      686F7274 
 5342      41727261 
 5342      7900
 5343 2396 0A       		.byte	0xa
 5344 2397 0C02     		.word	0x20c
 5345 2399 47420000 		.long	0x4247
 5346 239d 03       		.byte	0x3
 5347 239e 23       		.byte	0x23
 5348 239f C805     		.uleb128 0x2c8
 5349 23a1 16       		.uleb128 0x16
 5350 23a2 4E657749 		.ascii "NewIntArray\0"
 5350      6E744172 
 5350      72617900 
 5351 23ae 0A       		.byte	0xa
 5352 23af 0D02     		.word	0x20d
 5353 23b1 62420000 		.long	0x4262
 5354 23b5 03       		.byte	0x3
 5355 23b6 23       		.byte	0x23
 5356 23b7 CC05     		.uleb128 0x2cc
 5357 23b9 16       		.uleb128 0x16
 5358 23ba 4E65774C 		.ascii "NewLongArray\0"
 5358      6F6E6741 
 5358      72726179 
GAS LISTING /cygdrive/c/Users/THESCI~1/AppData/Local/Temp/ccu2GGTU.s 			page 129


 5358      00
 5359 23c7 0A       		.byte	0xa
 5360 23c8 0E02     		.word	0x20e
 5361 23ca 7D420000 		.long	0x427d
 5362 23ce 03       		.byte	0x3
 5363 23cf 23       		.byte	0x23
 5364 23d0 D005     		.uleb128 0x2d0
 5365 23d2 16       		.uleb128 0x16
 5366 23d3 4E657746 		.ascii "NewFloatArray\0"
 5366      6C6F6174 
 5366      41727261 
 5366      7900
 5367 23e1 0A       		.byte	0xa
 5368 23e2 0F02     		.word	0x20f
 5369 23e4 98420000 		.long	0x4298
 5370 23e8 03       		.byte	0x3
 5371 23e9 23       		.byte	0x23
 5372 23ea D405     		.uleb128 0x2d4
 5373 23ec 16       		.uleb128 0x16
 5374 23ed 4E657744 		.ascii "NewDoubleArray\0"
 5374      6F75626C 
 5374      65417272 
 5374      617900
 5375 23fc 0A       		.byte	0xa
 5376 23fd 1002     		.word	0x210
 5377 23ff B3420000 		.long	0x42b3
 5378 2403 03       		.byte	0x3
 5379 2404 23       		.byte	0x23
 5380 2405 D805     		.uleb128 0x2d8
 5381 2407 16       		.uleb128 0x16
 5382 2408 47657442 		.ascii "GetBooleanArrayElements\0"
 5382      6F6F6C65 
 5382      616E4172 
 5382      72617945 
 5382      6C656D65 
 5383 2420 0A       		.byte	0xa
 5384 2421 1202     		.word	0x212
 5385 2423 D3420000 		.long	0x42d3
 5386 2427 03       		.byte	0x3
 5387 2428 23       		.byte	0x23
 5388 2429 DC05     		.uleb128 0x2dc
 5389 242b 16       		.uleb128 0x16
 5390 242c 47657442 		.ascii "GetByteArrayElements\0"
 5390      79746541 
 5390      72726179 
 5390      456C656D 
 5390      656E7473 
 5391 2441 0A       		.byte	0xa
 5392 2442 1402     		.word	0x214
 5393 2444 F9420000 		.long	0x42f9
 5394 2448 03       		.byte	0x3
 5395 2449 23       		.byte	0x23
 5396 244a E005     		.uleb128 0x2e0
 5397 244c 16       		.uleb128 0x16
 5398 244d 47657443 		.ascii "GetCharArrayElements\0"
 5398      68617241 
 5398      72726179 
GAS LISTING /cygdrive/c/Users/THESCI~1/AppData/Local/Temp/ccu2GGTU.s 			page 130


 5398      456C656D 
 5398      656E7473 
 5399 2462 0A       		.byte	0xa
 5400 2463 1602     		.word	0x216
 5401 2465 1F430000 		.long	0x431f
 5402 2469 03       		.byte	0x3
 5403 246a 23       		.byte	0x23
 5404 246b E405     		.uleb128 0x2e4
 5405 246d 16       		.uleb128 0x16
 5406 246e 47657453 		.ascii "GetShortArrayElements\0"
 5406      686F7274 
 5406      41727261 
 5406      79456C65 
 5406      6D656E74 
 5407 2484 0A       		.byte	0xa
 5408 2485 1802     		.word	0x218
 5409 2487 45430000 		.long	0x4345
 5410 248b 03       		.byte	0x3
 5411 248c 23       		.byte	0x23
 5412 248d E805     		.uleb128 0x2e8
 5413 248f 16       		.uleb128 0x16
 5414 2490 47657449 		.ascii "GetIntArrayElements\0"
 5414      6E744172 
 5414      72617945 
 5414      6C656D65 
 5414      6E747300 
 5415 24a4 0A       		.byte	0xa
 5416 24a5 1A02     		.word	0x21a
 5417 24a7 6B430000 		.long	0x436b
 5418 24ab 03       		.byte	0x3
 5419 24ac 23       		.byte	0x23
 5420 24ad EC05     		.uleb128 0x2ec
 5421 24af 16       		.uleb128 0x16
 5422 24b0 4765744C 		.ascii "GetLongArrayElements\0"
 5422      6F6E6741 
 5422      72726179 
 5422      456C656D 
 5422      656E7473 
 5423 24c5 0A       		.byte	0xa
 5424 24c6 1C02     		.word	0x21c
 5425 24c8 91430000 		.long	0x4391
 5426 24cc 03       		.byte	0x3
 5427 24cd 23       		.byte	0x23
 5428 24ce F005     		.uleb128 0x2f0
 5429 24d0 16       		.uleb128 0x16
 5430 24d1 47657446 		.ascii "GetFloatArrayElements\0"
 5430      6C6F6174 
 5430      41727261 
 5430      79456C65 
 5430      6D656E74 
 5431 24e7 0A       		.byte	0xa
 5432 24e8 1E02     		.word	0x21e
 5433 24ea B7430000 		.long	0x43b7
 5434 24ee 03       		.byte	0x3
 5435 24ef 23       		.byte	0x23
 5436 24f0 F405     		.uleb128 0x2f4
 5437 24f2 16       		.uleb128 0x16
GAS LISTING /cygdrive/c/Users/THESCI~1/AppData/Local/Temp/ccu2GGTU.s 			page 131


 5438 24f3 47657444 		.ascii "GetDoubleArrayElements\0"
 5438      6F75626C 
 5438      65417272 
 5438      6179456C 
 5438      656D656E 
 5439 250a 0A       		.byte	0xa
 5440 250b 2002     		.word	0x220
 5441 250d DD430000 		.long	0x43dd
 5442 2511 03       		.byte	0x3
 5443 2512 23       		.byte	0x23
 5444 2513 F805     		.uleb128 0x2f8
 5445 2515 16       		.uleb128 0x16
 5446 2516 52656C65 		.ascii "ReleaseBooleanArrayElements\0"
 5446      61736542 
 5446      6F6F6C65 
 5446      616E4172 
 5446      72617945 
 5447 2532 0A       		.byte	0xa
 5448 2533 2302     		.word	0x223
 5449 2535 FE430000 		.long	0x43fe
 5450 2539 03       		.byte	0x3
 5451 253a 23       		.byte	0x23
 5452 253b FC05     		.uleb128 0x2fc
 5453 253d 16       		.uleb128 0x16
 5454 253e 52656C65 		.ascii "ReleaseByteArrayElements\0"
 5454      61736542 
 5454      79746541 
 5454      72726179 
 5454      456C656D 
 5455 2557 0A       		.byte	0xa
 5456 2558 2502     		.word	0x225
 5457 255a 1F440000 		.long	0x441f
 5458 255e 03       		.byte	0x3
 5459 255f 23       		.byte	0x23
 5460 2560 8006     		.uleb128 0x300
 5461 2562 16       		.uleb128 0x16
 5462 2563 52656C65 		.ascii "ReleaseCharArrayElements\0"
 5462      61736543 
 5462      68617241 
 5462      72726179 
 5462      456C656D 
 5463 257c 0A       		.byte	0xa
 5464 257d 2702     		.word	0x227
 5465 257f 40440000 		.long	0x4440
 5466 2583 03       		.byte	0x3
 5467 2584 23       		.byte	0x23
 5468 2585 8406     		.uleb128 0x304
 5469 2587 16       		.uleb128 0x16
 5470 2588 52656C65 		.ascii "ReleaseShortArrayElements\0"
 5470      61736553 
 5470      686F7274 
 5470      41727261 
 5470      79456C65 
 5471 25a2 0A       		.byte	0xa
 5472 25a3 2902     		.word	0x229
 5473 25a5 61440000 		.long	0x4461
 5474 25a9 03       		.byte	0x3
GAS LISTING /cygdrive/c/Users/THESCI~1/AppData/Local/Temp/ccu2GGTU.s 			page 132


 5475 25aa 23       		.byte	0x23
 5476 25ab 8806     		.uleb128 0x308
 5477 25ad 16       		.uleb128 0x16
 5478 25ae 52656C65 		.ascii "ReleaseIntArrayElements\0"
 5478      61736549 
 5478      6E744172 
 5478      72617945 
 5478      6C656D65 
 5479 25c6 0A       		.byte	0xa
 5480 25c7 2B02     		.word	0x22b
 5481 25c9 82440000 		.long	0x4482
 5482 25cd 03       		.byte	0x3
 5483 25ce 23       		.byte	0x23
 5484 25cf 8C06     		.uleb128 0x30c
 5485 25d1 16       		.uleb128 0x16
 5486 25d2 52656C65 		.ascii "ReleaseLongArrayElements\0"
 5486      6173654C 
 5486      6F6E6741 
 5486      72726179 
 5486      456C656D 
 5487 25eb 0A       		.byte	0xa
 5488 25ec 2D02     		.word	0x22d
 5489 25ee A3440000 		.long	0x44a3
 5490 25f2 03       		.byte	0x3
 5491 25f3 23       		.byte	0x23
 5492 25f4 9006     		.uleb128 0x310
 5493 25f6 16       		.uleb128 0x16
 5494 25f7 52656C65 		.ascii "ReleaseFloatArrayElements\0"
 5494      61736546 
 5494      6C6F6174 
 5494      41727261 
 5494      79456C65 
 5495 2611 0A       		.byte	0xa
 5496 2612 2F02     		.word	0x22f
 5497 2614 C4440000 		.long	0x44c4
 5498 2618 03       		.byte	0x3
 5499 2619 23       		.byte	0x23
 5500 261a 9406     		.uleb128 0x314
 5501 261c 16       		.uleb128 0x16
 5502 261d 52656C65 		.ascii "ReleaseDoubleArrayElements\0"
 5502      61736544 
 5502      6F75626C 
 5502      65417272 
 5502      6179456C 
 5503 2638 0A       		.byte	0xa
 5504 2639 3102     		.word	0x231
 5505 263b E5440000 		.long	0x44e5
 5506 263f 03       		.byte	0x3
 5507 2640 23       		.byte	0x23
 5508 2641 9806     		.uleb128 0x318
 5509 2643 16       		.uleb128 0x16
 5510 2644 47657442 		.ascii "GetBooleanArrayRegion\0"
 5510      6F6F6C65 
 5510      616E4172 
 5510      72617952 
 5510      6567696F 
 5511 265a 0A       		.byte	0xa
GAS LISTING /cygdrive/c/Users/THESCI~1/AppData/Local/Temp/ccu2GGTU.s 			page 133


 5512 265b 3402     		.word	0x234
 5513 265d 0B450000 		.long	0x450b
 5514 2661 03       		.byte	0x3
 5515 2662 23       		.byte	0x23
 5516 2663 9C06     		.uleb128 0x31c
 5517 2665 16       		.uleb128 0x16
 5518 2666 47657442 		.ascii "GetByteArrayRegion\0"
 5518      79746541 
 5518      72726179 
 5518      52656769 
 5518      6F6E00
 5519 2679 0A       		.byte	0xa
 5520 267a 3602     		.word	0x236
 5521 267c 31450000 		.long	0x4531
 5522 2680 03       		.byte	0x3
 5523 2681 23       		.byte	0x23
 5524 2682 A006     		.uleb128 0x320
 5525 2684 16       		.uleb128 0x16
 5526 2685 47657443 		.ascii "GetCharArrayRegion\0"
 5526      68617241 
 5526      72726179 
 5526      52656769 
 5526      6F6E00
 5527 2698 0A       		.byte	0xa
 5528 2699 3802     		.word	0x238
 5529 269b 57450000 		.long	0x4557
 5530 269f 03       		.byte	0x3
 5531 26a0 23       		.byte	0x23
 5532 26a1 A406     		.uleb128 0x324
 5533 26a3 16       		.uleb128 0x16
 5534 26a4 47657453 		.ascii "GetShortArrayRegion\0"
 5534      686F7274 
 5534      41727261 
 5534      79526567 
 5534      696F6E00 
 5535 26b8 0A       		.byte	0xa
 5536 26b9 3A02     		.word	0x23a
 5537 26bb 7D450000 		.long	0x457d
 5538 26bf 03       		.byte	0x3
 5539 26c0 23       		.byte	0x23
 5540 26c1 A806     		.uleb128 0x328
 5541 26c3 16       		.uleb128 0x16
 5542 26c4 47657449 		.ascii "GetIntArrayRegion\0"
 5542      6E744172 
 5542      72617952 
 5542      6567696F 
 5542      6E00
 5543 26d6 0A       		.byte	0xa
 5544 26d7 3C02     		.word	0x23c
 5545 26d9 A3450000 		.long	0x45a3
 5546 26dd 03       		.byte	0x3
 5547 26de 23       		.byte	0x23
 5548 26df AC06     		.uleb128 0x32c
 5549 26e1 16       		.uleb128 0x16
 5550 26e2 4765744C 		.ascii "GetLongArrayRegion\0"
 5550      6F6E6741 
 5550      72726179 
GAS LISTING /cygdrive/c/Users/THESCI~1/AppData/Local/Temp/ccu2GGTU.s 			page 134


 5550      52656769 
 5550      6F6E00
 5551 26f5 0A       		.byte	0xa
 5552 26f6 3E02     		.word	0x23e
 5553 26f8 C9450000 		.long	0x45c9
 5554 26fc 03       		.byte	0x3
 5555 26fd 23       		.byte	0x23
 5556 26fe B006     		.uleb128 0x330
 5557 2700 16       		.uleb128 0x16
 5558 2701 47657446 		.ascii "GetFloatArrayRegion\0"
 5558      6C6F6174 
 5558      41727261 
 5558      79526567 
 5558      696F6E00 
 5559 2715 0A       		.byte	0xa
 5560 2716 4002     		.word	0x240
 5561 2718 EF450000 		.long	0x45ef
 5562 271c 03       		.byte	0x3
 5563 271d 23       		.byte	0x23
 5564 271e B406     		.uleb128 0x334
 5565 2720 16       		.uleb128 0x16
 5566 2721 47657444 		.ascii "GetDoubleArrayRegion\0"
 5566      6F75626C 
 5566      65417272 
 5566      61795265 
 5566      67696F6E 
 5567 2736 0A       		.byte	0xa
 5568 2737 4202     		.word	0x242
 5569 2739 15460000 		.long	0x4615
 5570 273d 03       		.byte	0x3
 5571 273e 23       		.byte	0x23
 5572 273f B806     		.uleb128 0x338
 5573 2741 16       		.uleb128 0x16
 5574 2742 53657442 		.ascii "SetBooleanArrayRegion\0"
 5574      6F6F6C65 
 5574      616E4172 
 5574      72617952 
 5574      6567696F 
 5575 2758 0A       		.byte	0xa
 5576 2759 4502     		.word	0x245
 5577 275b 46460000 		.long	0x4646
 5578 275f 03       		.byte	0x3
 5579 2760 23       		.byte	0x23
 5580 2761 BC06     		.uleb128 0x33c
 5581 2763 16       		.uleb128 0x16
 5582 2764 53657442 		.ascii "SetByteArrayRegion\0"
 5582      79746541 
 5582      72726179 
 5582      52656769 
 5582      6F6E00
 5583 2777 0A       		.byte	0xa
 5584 2778 4802     		.word	0x248
 5585 277a 6C460000 		.long	0x466c
 5586 277e 03       		.byte	0x3
 5587 277f 23       		.byte	0x23
 5588 2780 C006     		.uleb128 0x340
 5589 2782 16       		.uleb128 0x16
GAS LISTING /cygdrive/c/Users/THESCI~1/AppData/Local/Temp/ccu2GGTU.s 			page 135


 5590 2783 53657443 		.ascii "SetCharArrayRegion\0"
 5590      68617241 
 5590      72726179 
 5590      52656769 
 5590      6F6E00
 5591 2796 0A       		.byte	0xa
 5592 2797 4B02     		.word	0x24b
 5593 2799 92460000 		.long	0x4692
 5594 279d 03       		.byte	0x3
 5595 279e 23       		.byte	0x23
 5596 279f C406     		.uleb128 0x344
 5597 27a1 16       		.uleb128 0x16
 5598 27a2 53657453 		.ascii "SetShortArrayRegion\0"
 5598      686F7274 
 5598      41727261 
 5598      79526567 
 5598      696F6E00 
 5599 27b6 0A       		.byte	0xa
 5600 27b7 4E02     		.word	0x24e
 5601 27b9 C3460000 		.long	0x46c3
 5602 27bd 03       		.byte	0x3
 5603 27be 23       		.byte	0x23
 5604 27bf C806     		.uleb128 0x348
 5605 27c1 16       		.uleb128 0x16
 5606 27c2 53657449 		.ascii "SetIntArrayRegion\0"
 5606      6E744172 
 5606      72617952 
 5606      6567696F 
 5606      6E00
 5607 27d4 0A       		.byte	0xa
 5608 27d5 5102     		.word	0x251
 5609 27d7 F4460000 		.long	0x46f4
 5610 27db 03       		.byte	0x3
 5611 27dc 23       		.byte	0x23
 5612 27dd CC06     		.uleb128 0x34c
 5613 27df 16       		.uleb128 0x16
 5614 27e0 5365744C 		.ascii "SetLongArrayRegion\0"
 5614      6F6E6741 
 5614      72726179 
 5614      52656769 
 5614      6F6E00
 5615 27f3 0A       		.byte	0xa
 5616 27f4 5402     		.word	0x254
 5617 27f6 25470000 		.long	0x4725
 5618 27fa 03       		.byte	0x3
 5619 27fb 23       		.byte	0x23
 5620 27fc D006     		.uleb128 0x350
 5621 27fe 16       		.uleb128 0x16
 5622 27ff 53657446 		.ascii "SetFloatArrayRegion\0"
 5622      6C6F6174 
 5622      41727261 
 5622      79526567 
 5622      696F6E00 
 5623 2813 0A       		.byte	0xa
 5624 2814 5702     		.word	0x257
 5625 2816 56470000 		.long	0x4756
 5626 281a 03       		.byte	0x3
GAS LISTING /cygdrive/c/Users/THESCI~1/AppData/Local/Temp/ccu2GGTU.s 			page 136


 5627 281b 23       		.byte	0x23
 5628 281c D406     		.uleb128 0x354
 5629 281e 16       		.uleb128 0x16
 5630 281f 53657444 		.ascii "SetDoubleArrayRegion\0"
 5630      6F75626C 
 5630      65417272 
 5630      61795265 
 5630      67696F6E 
 5631 2834 0A       		.byte	0xa
 5632 2835 5A02     		.word	0x25a
 5633 2837 87470000 		.long	0x4787
 5634 283b 03       		.byte	0x3
 5635 283c 23       		.byte	0x23
 5636 283d D806     		.uleb128 0x358
 5637 283f 16       		.uleb128 0x16
 5638 2840 52656769 		.ascii "RegisterNatives\0"
 5638      73746572 
 5638      4E617469 
 5638      76657300 
 5639 2850 0A       		.byte	0xa
 5640 2851 5E02     		.word	0x25e
 5641 2853 B7470000 		.long	0x47b7
 5642 2857 03       		.byte	0x3
 5643 2858 23       		.byte	0x23
 5644 2859 DC06     		.uleb128 0x35c
 5645 285b 16       		.uleb128 0x16
 5646 285c 556E7265 		.ascii "UnregisterNatives\0"
 5646      67697374 
 5646      65724E61 
 5646      74697665 
 5646      7300
 5647 286e 0A       		.byte	0xa
 5648 286f 6102     		.word	0x261
 5649 2871 D2470000 		.long	0x47d2
 5650 2875 03       		.byte	0x3
 5651 2876 23       		.byte	0x23
 5652 2877 E006     		.uleb128 0x360
 5653 2879 16       		.uleb128 0x16
 5654 287a 4D6F6E69 		.ascii "MonitorEnter\0"
 5654      746F7245 
 5654      6E746572 
 5654      00
 5655 2887 0A       		.byte	0xa
 5656 2888 6202     		.word	0x262
 5657 288a ED470000 		.long	0x47ed
 5658 288e 03       		.byte	0x3
 5659 288f 23       		.byte	0x23
 5660 2890 E406     		.uleb128 0x364
 5661 2892 16       		.uleb128 0x16
 5662 2893 4D6F6E69 		.ascii "MonitorExit\0"
 5662      746F7245 
 5662      78697400 
 5663 289f 0A       		.byte	0xa
 5664 28a0 6302     		.word	0x263
 5665 28a2 ED470000 		.long	0x47ed
 5666 28a6 03       		.byte	0x3
 5667 28a7 23       		.byte	0x23
GAS LISTING /cygdrive/c/Users/THESCI~1/AppData/Local/Temp/ccu2GGTU.s 			page 137


 5668 28a8 E806     		.uleb128 0x368
 5669 28aa 16       		.uleb128 0x16
 5670 28ab 4765744A 		.ascii "GetJavaVM\0"
 5670      61766156 
 5670      4D00
 5671 28b5 0A       		.byte	0xa
 5672 28b6 6402     		.word	0x264
 5673 28b8 14480000 		.long	0x4814
 5674 28bc 03       		.byte	0x3
 5675 28bd 23       		.byte	0x23
 5676 28be EC06     		.uleb128 0x36c
 5677 28c0 16       		.uleb128 0x16
 5678 28c1 47657453 		.ascii "GetStringRegion\0"
 5678      7472696E 
 5678      67526567 
 5678      696F6E00 
 5679 28d1 0A       		.byte	0xa
 5680 28d2 6702     		.word	0x267
 5681 28d4 3A480000 		.long	0x483a
 5682 28d8 03       		.byte	0x3
 5683 28d9 23       		.byte	0x23
 5684 28da F006     		.uleb128 0x370
 5685 28dc 16       		.uleb128 0x16
 5686 28dd 47657453 		.ascii "GetStringUTFRegion\0"
 5686      7472696E 
 5686      67555446 
 5686      52656769 
 5686      6F6E00
 5687 28f0 0A       		.byte	0xa
 5688 28f1 6902     		.word	0x269
 5689 28f3 60480000 		.long	0x4860
 5690 28f7 03       		.byte	0x3
 5691 28f8 23       		.byte	0x23
 5692 28f9 F406     		.uleb128 0x374
 5693 28fb 16       		.uleb128 0x16
 5694 28fc 47657450 		.ascii "GetPrimitiveArrayCritical\0"
 5694      72696D69 
 5694      74697665 
 5694      41727261 
 5694      79437269 
 5695 2916 0A       		.byte	0xa
 5696 2917 6C02     		.word	0x26c
 5697 2919 80480000 		.long	0x4880
 5698 291d 03       		.byte	0x3
 5699 291e 23       		.byte	0x23
 5700 291f F806     		.uleb128 0x378
 5701 2921 16       		.uleb128 0x16
 5702 2922 52656C65 		.ascii "ReleasePrimitiveArrayCritical\0"
 5702      61736550 
 5702      72696D69 
 5702      74697665 
 5702      41727261 
 5703 2940 0A       		.byte	0xa
 5704 2941 6E02     		.word	0x26e
 5705 2943 A1480000 		.long	0x48a1
 5706 2947 03       		.byte	0x3
 5707 2948 23       		.byte	0x23
GAS LISTING /cygdrive/c/Users/THESCI~1/AppData/Local/Temp/ccu2GGTU.s 			page 138


 5708 2949 FC06     		.uleb128 0x37c
 5709 294b 16       		.uleb128 0x16
 5710 294c 47657453 		.ascii "GetStringCritical\0"
 5710      7472696E 
 5710      67437269 
 5710      74696361 
 5710      6C00
 5711 295e 0A       		.byte	0xa
 5712 295f 7102     		.word	0x271
 5713 2961 E7400000 		.long	0x40e7
 5714 2965 03       		.byte	0x3
 5715 2966 23       		.byte	0x23
 5716 2967 8007     		.uleb128 0x380
 5717 2969 16       		.uleb128 0x16
 5718 296a 52656C65 		.ascii "ReleaseStringCritical\0"
 5718      61736553 
 5718      7472696E 
 5718      67437269 
 5718      74696361 
 5719 2980 0A       		.byte	0xa
 5720 2981 7302     		.word	0x273
 5721 2983 03410000 		.long	0x4103
 5722 2987 03       		.byte	0x3
 5723 2988 23       		.byte	0x23
 5724 2989 8407     		.uleb128 0x384
 5725 298b 16       		.uleb128 0x16
 5726 298c 4E657757 		.ascii "NewWeakGlobalRef\0"
 5726      65616B47 
 5726      6C6F6261 
 5726      6C526566 
 5726      00
 5727 299d 0A       		.byte	0xa
 5728 299e 7602     		.word	0x276
 5729 29a0 BC480000 		.long	0x48bc
 5730 29a4 03       		.byte	0x3
 5731 29a5 23       		.byte	0x23
 5732 29a6 8807     		.uleb128 0x388
 5733 29a8 16       		.uleb128 0x16
 5734 29a9 44656C65 		.ascii "DeleteWeakGlobalRef\0"
 5734      74655765 
 5734      616B476C 
 5734      6F62616C 
 5734      52656600 
 5735 29bd 0A       		.byte	0xa
 5736 29be 7702     		.word	0x277
 5737 29c0 D3480000 		.long	0x48d3
 5738 29c4 03       		.byte	0x3
 5739 29c5 23       		.byte	0x23
 5740 29c6 8C07     		.uleb128 0x38c
 5741 29c8 16       		.uleb128 0x16
 5742 29c9 45786365 		.ascii "ExceptionCheck\0"
 5742      7074696F 
 5742      6E436865 
 5742      636B00
 5743 29d8 0A       		.byte	0xa
 5744 29d9 7902     		.word	0x279
 5745 29db E9480000 		.long	0x48e9
GAS LISTING /cygdrive/c/Users/THESCI~1/AppData/Local/Temp/ccu2GGTU.s 			page 139


 5746 29df 03       		.byte	0x3
 5747 29e0 23       		.byte	0x23
 5748 29e1 9007     		.uleb128 0x390
 5749 29e3 16       		.uleb128 0x16
 5750 29e4 4E657744 		.ascii "NewDirectByteBuffer\0"
 5750      69726563 
 5750      74427974 
 5750      65427566 
 5750      66657200 
 5751 29f8 0A       		.byte	0xa
 5752 29f9 7C02     		.word	0x27c
 5753 29fb 09490000 		.long	0x4909
 5754 29ff 03       		.byte	0x3
 5755 2a00 23       		.byte	0x23
 5756 2a01 9407     		.uleb128 0x394
 5757 2a03 16       		.uleb128 0x16
 5758 2a04 47657444 		.ascii "GetDirectBufferAddress\0"
 5758      69726563 
 5758      74427566 
 5758      66657241 
 5758      64647265 
 5759 2a1b 0A       		.byte	0xa
 5760 2a1c 7D02     		.word	0x27d
 5761 2a1e 24490000 		.long	0x4924
 5762 2a22 03       		.byte	0x3
 5763 2a23 23       		.byte	0x23
 5764 2a24 9807     		.uleb128 0x398
 5765 2a26 16       		.uleb128 0x16
 5766 2a27 47657444 		.ascii "GetDirectBufferCapacity\0"
 5766      69726563 
 5766      74427566 
 5766      66657243 
 5766      61706163 
 5767 2a3f 0A       		.byte	0xa
 5768 2a40 7E02     		.word	0x27e
 5769 2a42 3F490000 		.long	0x493f
 5770 2a46 03       		.byte	0x3
 5771 2a47 23       		.byte	0x23
 5772 2a48 9C07     		.uleb128 0x39c
 5773 2a4a 00       		.byte	0x0
 5774 2a4b 03       		.uleb128 0x3
 5775 2a4c 4A617661 		.ascii "JavaVM\0"
 5775      564D00
 5776 2a53 0A       		.byte	0xa
 5777 2a54 79       		.byte	0x79
 5778 2a55 592A0000 		.long	0x2a59
 5779 2a59 0F       		.uleb128 0xf
 5780 2a5a 04       		.byte	0x4
 5781 2a5b 5F2A0000 		.long	0x2a5f
 5782 2a5f 1D       		.uleb128 0x1d
 5783 2a60 00000000 		.secrel32	LASF5
 5784 2a64 682A0000 		.long	0x2a68
 5785 2a68 1E       		.uleb128 0x1e
 5786 2a69 00000000 		.secrel32	LASF5
 5787 2a6d 20       		.byte	0x20
 5788 2a6e 0A       		.byte	0xa
 5789 2a6f 79       		.byte	0x79
GAS LISTING /cygdrive/c/Users/THESCI~1/AppData/Local/Temp/ccu2GGTU.s 			page 140


 5790 2a70 322B0000 		.long	0x2b32
 5791 2a74 1F       		.uleb128 0x1f
 5792 2a75 4F000000 		.secrel32	LASF2
 5793 2a79 0A       		.byte	0xa
 5794 2a7a 0006     		.word	0x600
 5795 2a7c 62010000 		.long	0x162
 5796 2a80 02       		.byte	0x2
 5797 2a81 23       		.byte	0x23
 5798 2a82 00       		.uleb128 0x0
 5799 2a83 1F       		.uleb128 0x1f
 5800 2a84 2D000000 		.secrel32	LASF3
 5801 2a88 0A       		.byte	0xa
 5802 2a89 0106     		.word	0x601
 5803 2a8b 62010000 		.long	0x162
 5804 2a8f 02       		.byte	0x2
 5805 2a90 23       		.byte	0x23
 5806 2a91 04       		.uleb128 0x4
 5807 2a92 1F       		.uleb128 0x1f
 5808 2a93 37000000 		.secrel32	LASF4
 5809 2a97 0A       		.byte	0xa
 5810 2a98 0206     		.word	0x602
 5811 2a9a 62010000 		.long	0x162
 5812 2a9e 02       		.byte	0x2
 5813 2a9f 23       		.byte	0x23
 5814 2aa0 08       		.uleb128 0x8
 5815 2aa1 16       		.uleb128 0x16
 5816 2aa2 44657374 		.ascii "DestroyJavaVM\0"
 5816      726F794A 
 5816      61766156 
 5816      4D00
 5817 2ab0 0A       		.byte	0xa
 5818 2ab1 0406     		.word	0x604
 5819 2ab3 55490000 		.long	0x4955
 5820 2ab7 02       		.byte	0x2
 5821 2ab8 23       		.byte	0x23
 5822 2ab9 0C       		.uleb128 0xc
 5823 2aba 16       		.uleb128 0x16
 5824 2abb 41747461 		.ascii "AttachCurrentThread\0"
 5824      63684375 
 5824      7272656E 
 5824      74546872 
 5824      65616400 
 5825 2acf 0A       		.byte	0xa
 5826 2ad0 0506     		.word	0x605
 5827 2ad2 7B490000 		.long	0x497b
 5828 2ad6 02       		.byte	0x2
 5829 2ad7 23       		.byte	0x23
 5830 2ad8 10       		.uleb128 0x10
 5831 2ad9 16       		.uleb128 0x16
 5832 2ada 44657461 		.ascii "DetachCurrentThread\0"
 5832      63684375 
 5832      7272656E 
 5832      74546872 
 5832      65616400 
 5833 2aee 0A       		.byte	0xa
 5834 2aef 0606     		.word	0x606
 5835 2af1 55490000 		.long	0x4955
GAS LISTING /cygdrive/c/Users/THESCI~1/AppData/Local/Temp/ccu2GGTU.s 			page 141


 5836 2af5 02       		.byte	0x2
 5837 2af6 23       		.byte	0x23
 5838 2af7 14       		.uleb128 0x14
 5839 2af8 16       		.uleb128 0x16
 5840 2af9 47657445 		.ascii "GetEnv\0"
 5840      6E7600
 5841 2b00 0A       		.byte	0xa
 5842 2b01 0706     		.word	0x607
 5843 2b03 9B490000 		.long	0x499b
 5844 2b07 02       		.byte	0x2
 5845 2b08 23       		.byte	0x23
 5846 2b09 18       		.uleb128 0x18
 5847 2b0a 16       		.uleb128 0x16
 5848 2b0b 41747461 		.ascii "AttachCurrentThreadAsDaemon\0"
 5848      63684375 
 5848      7272656E 
 5848      74546872 
 5848      65616441 
 5849 2b27 0A       		.byte	0xa
 5850 2b28 0806     		.word	0x608
 5851 2b2a 7B490000 		.long	0x497b
 5852 2b2e 02       		.byte	0x2
 5853 2b2f 23       		.byte	0x23
 5854 2b30 1C       		.uleb128 0x1c
 5855 2b31 00       		.byte	0x0
 5856 2b32 03       		.uleb128 0x3
 5857 2b33 6A666965 		.ascii "jfieldID\0"
 5857      6C644944 
 5857      00
 5858 2b3c 0A       		.byte	0xa
 5859 2b3d 89       		.byte	0x89
 5860 2b3e 422B0000 		.long	0x2b42
 5861 2b42 0F       		.uleb128 0xf
 5862 2b43 04       		.byte	0x4
 5863 2b44 482B0000 		.long	0x2b48
 5864 2b48 20       		.uleb128 0x20
 5865 2b49 5F6A6669 		.ascii "_jfieldID\0"
 5865      656C6449 
 5865      4400
 5866 2b53 01       		.byte	0x1
 5867 2b54 03       		.uleb128 0x3
 5868 2b55 6A6D6574 		.ascii "jmethodID\0"
 5868      686F6449 
 5868      4400
 5869 2b5f 0A       		.byte	0xa
 5870 2b60 8A       		.byte	0x8a
 5871 2b61 652B0000 		.long	0x2b65
 5872 2b65 0F       		.uleb128 0xf
 5873 2b66 04       		.byte	0x4
 5874 2b67 6B2B0000 		.long	0x2b6b
 5875 2b6b 20       		.uleb128 0x20
 5876 2b6c 5F6A6D65 		.ascii "_jmethodID\0"
 5876      74686F64 
 5876      494400
 5877 2b77 01       		.byte	0x1
 5878 2b78 21       		.uleb128 0x21
 5879 2b79 6A76616C 		.ascii "jvalue\0"
GAS LISTING /cygdrive/c/Users/THESCI~1/AppData/Local/Temp/ccu2GGTU.s 			page 142


 5879      756500
 5880 2b80 08       		.byte	0x8
 5881 2b81 0A       		.byte	0xa
 5882 2b82 BD       		.byte	0xbd
 5883 2b83 D92B0000 		.long	0x2bd9
 5884 2b87 08       		.uleb128 0x8
 5885 2b88 7A00     		.ascii "z\0"
 5886 2b8a 0A       		.byte	0xa
 5887 2b8b BE       		.byte	0xbe
 5888 2b8c FE0C0000 		.long	0xcfe
 5889 2b90 08       		.uleb128 0x8
 5890 2b91 6200     		.ascii "b\0"
 5891 2b93 0A       		.byte	0xa
 5892 2b94 BF       		.byte	0xbf
 5893 2b95 CA0C0000 		.long	0xcca
 5894 2b99 08       		.uleb128 0x8
 5895 2b9a 6300     		.ascii "c\0"
 5896 2b9c 0A       		.byte	0xa
 5897 2b9d C0       		.byte	0xc0
 5898 2b9e 0E0D0000 		.long	0xd0e
 5899 2ba2 08       		.uleb128 0x8
 5900 2ba3 7300     		.ascii "s\0"
 5901 2ba5 0A       		.byte	0xa
 5902 2ba6 C1       		.byte	0xc1
 5903 2ba7 D70C0000 		.long	0xcd7
 5904 2bab 08       		.uleb128 0x8
 5905 2bac 6900     		.ascii "i\0"
 5906 2bae 0A       		.byte	0xa
 5907 2baf C2       		.byte	0xc2
 5908 2bb0 E50C0000 		.long	0xce5
 5909 2bb4 08       		.uleb128 0x8
 5910 2bb5 6A00     		.ascii "j\0"
 5911 2bb7 0A       		.byte	0xa
 5912 2bb8 C3       		.byte	0xc3
 5913 2bb9 F10C0000 		.long	0xcf1
 5914 2bbd 08       		.uleb128 0x8
 5915 2bbe 6600     		.ascii "f\0"
 5916 2bc0 0A       		.byte	0xa
 5917 2bc1 C4       		.byte	0xc4
 5918 2bc2 1B0D0000 		.long	0xd1b
 5919 2bc6 08       		.uleb128 0x8
 5920 2bc7 6400     		.ascii "d\0"
 5921 2bc9 0A       		.byte	0xa
 5922 2bca C5       		.byte	0xc5
 5923 2bcb 320D0000 		.long	0xd32
 5924 2bcf 08       		.uleb128 0x8
 5925 2bd0 6C00     		.ascii "l\0"
 5926 2bd2 0A       		.byte	0xa
 5927 2bd3 C6       		.byte	0xc6
 5928 2bd4 580D0000 		.long	0xd58
 5929 2bd8 00       		.byte	0x0
 5930 2bd9 03       		.uleb128 0x3
 5931 2bda 6A76616C 		.ascii "jvalue\0"
 5931      756500
 5932 2be1 0A       		.byte	0xa
 5933 2be2 C7       		.byte	0xc7
 5934 2be3 782B0000 		.long	0x2b78
GAS LISTING /cygdrive/c/Users/THESCI~1/AppData/Local/Temp/ccu2GGTU.s 			page 143


 5935 2be7 0C       		.uleb128 0xc
 5936 2be8 0C       		.byte	0xc
 5937 2be9 0A       		.byte	0xa
 5938 2bea CB       		.byte	0xcb
 5939 2beb 232C0000 		.long	0x2c23
 5940 2bef 0D       		.uleb128 0xd
 5941 2bf0 6E616D65 		.ascii "name\0"
 5941      00
 5942 2bf5 0A       		.byte	0xa
 5943 2bf6 CC       		.byte	0xcc
 5944 2bf7 AC060000 		.long	0x6ac
 5945 2bfb 02       		.byte	0x2
 5946 2bfc 23       		.byte	0x23
 5947 2bfd 00       		.uleb128 0x0
 5948 2bfe 0D       		.uleb128 0xd
 5949 2bff 7369676E 		.ascii "signature\0"
 5949      61747572 
 5949      6500
 5950 2c09 0A       		.byte	0xa
 5951 2c0a CD       		.byte	0xcd
 5952 2c0b AC060000 		.long	0x6ac
 5953 2c0f 02       		.byte	0x2
 5954 2c10 23       		.byte	0x23
 5955 2c11 04       		.uleb128 0x4
 5956 2c12 0D       		.uleb128 0xd
 5957 2c13 666E5074 		.ascii "fnPtr\0"
 5957      7200
 5958 2c19 0A       		.byte	0xa
 5959 2c1a CE       		.byte	0xce
 5960 2c1b 62010000 		.long	0x162
 5961 2c1f 02       		.byte	0x2
 5962 2c20 23       		.byte	0x23
 5963 2c21 08       		.uleb128 0x8
 5964 2c22 00       		.byte	0x0
 5965 2c23 03       		.uleb128 0x3
 5966 2c24 4A4E494E 		.ascii "JNINativeMethod\0"
 5966      61746976 
 5966      654D6574 
 5966      686F6400 
 5967 2c34 0A       		.byte	0xa
 5968 2c35 CF       		.byte	0xcf
 5969 2c36 E72B0000 		.long	0x2be7
 5970 2c3a 14       		.uleb128 0x14
 5971 2c3b 01       		.byte	0x1
 5972 2c3c E50C0000 		.long	0xce5
 5973 2c40 4A2C0000 		.long	0x2c4a
 5974 2c44 15       		.uleb128 0x15
 5975 2c45 4A2C0000 		.long	0x2c4a
 5976 2c49 00       		.byte	0x0
 5977 2c4a 0F       		.uleb128 0xf
 5978 2c4b 04       		.byte	0x4
 5979 2c4c 5B0E0000 		.long	0xe5b
 5980 2c50 0F       		.uleb128 0xf
 5981 2c51 04       		.byte	0x4
 5982 2c52 3A2C0000 		.long	0x2c3a
 5983 2c56 14       		.uleb128 0x14
 5984 2c57 01       		.byte	0x1
GAS LISTING /cygdrive/c/Users/THESCI~1/AppData/Local/Temp/ccu2GGTU.s 			page 144


 5985 2c58 670D0000 		.long	0xd67
 5986 2c5c 7A2C0000 		.long	0x2c7a
 5987 2c60 15       		.uleb128 0x15
 5988 2c61 4A2C0000 		.long	0x2c4a
 5989 2c65 15       		.uleb128 0x15
 5990 2c66 D7060000 		.long	0x6d7
 5991 2c6a 15       		.uleb128 0x15
 5992 2c6b 580D0000 		.long	0xd58
 5993 2c6f 15       		.uleb128 0x15
 5994 2c70 7A2C0000 		.long	0x2c7a
 5995 2c74 15       		.uleb128 0x15
 5996 2c75 4B0D0000 		.long	0xd4b
 5997 2c79 00       		.byte	0x0
 5998 2c7a 0F       		.uleb128 0xf
 5999 2c7b 04       		.byte	0x4
 6000 2c7c 802C0000 		.long	0x2c80
 6001 2c80 17       		.uleb128 0x17
 6002 2c81 CA0C0000 		.long	0xcca
 6003 2c85 0F       		.uleb128 0xf
 6004 2c86 04       		.byte	0x4
 6005 2c87 562C0000 		.long	0x2c56
 6006 2c8b 14       		.uleb128 0x14
 6007 2c8c 01       		.byte	0x1
 6008 2c8d 670D0000 		.long	0xd67
 6009 2c91 A02C0000 		.long	0x2ca0
 6010 2c95 15       		.uleb128 0x15
 6011 2c96 4A2C0000 		.long	0x2c4a
 6012 2c9a 15       		.uleb128 0x15
 6013 2c9b D7060000 		.long	0x6d7
 6014 2c9f 00       		.byte	0x0
 6015 2ca0 0F       		.uleb128 0xf
 6016 2ca1 04       		.byte	0x4
 6017 2ca2 8B2C0000 		.long	0x2c8b
 6018 2ca6 14       		.uleb128 0x14
 6019 2ca7 01       		.byte	0x1
 6020 2ca8 542B0000 		.long	0x2b54
 6021 2cac BB2C0000 		.long	0x2cbb
 6022 2cb0 15       		.uleb128 0x15
 6023 2cb1 4A2C0000 		.long	0x2c4a
 6024 2cb5 15       		.uleb128 0x15
 6025 2cb6 580D0000 		.long	0xd58
 6026 2cba 00       		.byte	0x0
 6027 2cbb 0F       		.uleb128 0xf
 6028 2cbc 04       		.byte	0x4
 6029 2cbd A62C0000 		.long	0x2ca6
 6030 2cc1 14       		.uleb128 0x14
 6031 2cc2 01       		.byte	0x1
 6032 2cc3 322B0000 		.long	0x2b32
 6033 2cc7 D62C0000 		.long	0x2cd6
 6034 2ccb 15       		.uleb128 0x15
 6035 2ccc 4A2C0000 		.long	0x2c4a
 6036 2cd0 15       		.uleb128 0x15
 6037 2cd1 580D0000 		.long	0xd58
 6038 2cd5 00       		.byte	0x0
 6039 2cd6 0F       		.uleb128 0xf
 6040 2cd7 04       		.byte	0x4
 6041 2cd8 C12C0000 		.long	0x2cc1
GAS LISTING /cygdrive/c/Users/THESCI~1/AppData/Local/Temp/ccu2GGTU.s 			page 145


 6042 2cdc 14       		.uleb128 0x14
 6043 2cdd 01       		.byte	0x1
 6044 2cde 580D0000 		.long	0xd58
 6045 2ce2 FB2C0000 		.long	0x2cfb
 6046 2ce6 15       		.uleb128 0x15
 6047 2ce7 4A2C0000 		.long	0x2c4a
 6048 2ceb 15       		.uleb128 0x15
 6049 2cec 670D0000 		.long	0xd67
 6050 2cf0 15       		.uleb128 0x15
 6051 2cf1 542B0000 		.long	0x2b54
 6052 2cf5 15       		.uleb128 0x15
 6053 2cf6 FE0C0000 		.long	0xcfe
 6054 2cfa 00       		.byte	0x0
 6055 2cfb 0F       		.uleb128 0xf
 6056 2cfc 04       		.byte	0x4
 6057 2cfd DC2C0000 		.long	0x2cdc
 6058 2d01 14       		.uleb128 0x14
 6059 2d02 01       		.byte	0x1
 6060 2d03 670D0000 		.long	0xd67
 6061 2d07 162D0000 		.long	0x2d16
 6062 2d0b 15       		.uleb128 0x15
 6063 2d0c 4A2C0000 		.long	0x2c4a
 6064 2d10 15       		.uleb128 0x15
 6065 2d11 670D0000 		.long	0xd67
 6066 2d15 00       		.byte	0x0
 6067 2d16 0F       		.uleb128 0xf
 6068 2d17 04       		.byte	0x4
 6069 2d18 012D0000 		.long	0x2d01
 6070 2d1c 14       		.uleb128 0x14
 6071 2d1d 01       		.byte	0x1
 6072 2d1e FE0C0000 		.long	0xcfe
 6073 2d22 362D0000 		.long	0x2d36
 6074 2d26 15       		.uleb128 0x15
 6075 2d27 4A2C0000 		.long	0x2c4a
 6076 2d2b 15       		.uleb128 0x15
 6077 2d2c 670D0000 		.long	0xd67
 6078 2d30 15       		.uleb128 0x15
 6079 2d31 670D0000 		.long	0xd67
 6080 2d35 00       		.byte	0x0
 6081 2d36 0F       		.uleb128 0xf
 6082 2d37 04       		.byte	0x4
 6083 2d38 1C2D0000 		.long	0x2d1c
 6084 2d3c 14       		.uleb128 0x14
 6085 2d3d 01       		.byte	0x1
 6086 2d3e 580D0000 		.long	0xd58
 6087 2d42 5B2D0000 		.long	0x2d5b
 6088 2d46 15       		.uleb128 0x15
 6089 2d47 4A2C0000 		.long	0x2c4a
 6090 2d4b 15       		.uleb128 0x15
 6091 2d4c 670D0000 		.long	0xd67
 6092 2d50 15       		.uleb128 0x15
 6093 2d51 322B0000 		.long	0x2b32
 6094 2d55 15       		.uleb128 0x15
 6095 2d56 FE0C0000 		.long	0xcfe
 6096 2d5a 00       		.byte	0x0
 6097 2d5b 0F       		.uleb128 0xf
 6098 2d5c 04       		.byte	0x4
GAS LISTING /cygdrive/c/Users/THESCI~1/AppData/Local/Temp/ccu2GGTU.s 			page 146


 6099 2d5d 3C2D0000 		.long	0x2d3c
 6100 2d61 14       		.uleb128 0x14
 6101 2d62 01       		.byte	0x1
 6102 2d63 E50C0000 		.long	0xce5
 6103 2d67 762D0000 		.long	0x2d76
 6104 2d6b 15       		.uleb128 0x15
 6105 2d6c 4A2C0000 		.long	0x2c4a
 6106 2d70 15       		.uleb128 0x15
 6107 2d71 840D0000 		.long	0xd84
 6108 2d75 00       		.byte	0x0
 6109 2d76 0F       		.uleb128 0xf
 6110 2d77 04       		.byte	0x4
 6111 2d78 612D0000 		.long	0x2d61
 6112 2d7c 14       		.uleb128 0x14
 6113 2d7d 01       		.byte	0x1
 6114 2d7e E50C0000 		.long	0xce5
 6115 2d82 962D0000 		.long	0x2d96
 6116 2d86 15       		.uleb128 0x15
 6117 2d87 4A2C0000 		.long	0x2c4a
 6118 2d8b 15       		.uleb128 0x15
 6119 2d8c 670D0000 		.long	0xd67
 6120 2d90 15       		.uleb128 0x15
 6121 2d91 D7060000 		.long	0x6d7
 6122 2d95 00       		.byte	0x0
 6123 2d96 0F       		.uleb128 0xf
 6124 2d97 04       		.byte	0x4
 6125 2d98 7C2D0000 		.long	0x2d7c
 6126 2d9c 14       		.uleb128 0x14
 6127 2d9d 01       		.byte	0x1
 6128 2d9e 840D0000 		.long	0xd84
 6129 2da2 AC2D0000 		.long	0x2dac
 6130 2da6 15       		.uleb128 0x15
 6131 2da7 4A2C0000 		.long	0x2c4a
 6132 2dab 00       		.byte	0x0
 6133 2dac 0F       		.uleb128 0xf
 6134 2dad 04       		.byte	0x4
 6135 2dae 9C2D0000 		.long	0x2d9c
 6136 2db2 1C       		.uleb128 0x1c
 6137 2db3 01       		.byte	0x1
 6138 2db4 BE2D0000 		.long	0x2dbe
 6139 2db8 15       		.uleb128 0x15
 6140 2db9 4A2C0000 		.long	0x2c4a
 6141 2dbd 00       		.byte	0x0
 6142 2dbe 0F       		.uleb128 0xf
 6143 2dbf 04       		.byte	0x4
 6144 2dc0 B22D0000 		.long	0x2db2
 6145 2dc4 1C       		.uleb128 0x1c
 6146 2dc5 01       		.byte	0x1
 6147 2dc6 D52D0000 		.long	0x2dd5
 6148 2dca 15       		.uleb128 0x15
 6149 2dcb 4A2C0000 		.long	0x2c4a
 6150 2dcf 15       		.uleb128 0x15
 6151 2dd0 D7060000 		.long	0x6d7
 6152 2dd4 00       		.byte	0x0
 6153 2dd5 0F       		.uleb128 0xf
 6154 2dd6 04       		.byte	0x4
 6155 2dd7 C42D0000 		.long	0x2dc4
GAS LISTING /cygdrive/c/Users/THESCI~1/AppData/Local/Temp/ccu2GGTU.s 			page 147


 6156 2ddb 14       		.uleb128 0x14
 6157 2ddc 01       		.byte	0x1
 6158 2ddd E50C0000 		.long	0xce5
 6159 2de1 F02D0000 		.long	0x2df0
 6160 2de5 15       		.uleb128 0x15
 6161 2de6 4A2C0000 		.long	0x2c4a
 6162 2dea 15       		.uleb128 0x15
 6163 2deb E50C0000 		.long	0xce5
 6164 2def 00       		.byte	0x0
 6165 2df0 0F       		.uleb128 0xf
 6166 2df1 04       		.byte	0x4
 6167 2df2 DB2D0000 		.long	0x2ddb
 6168 2df6 14       		.uleb128 0x14
 6169 2df7 01       		.byte	0x1
 6170 2df8 580D0000 		.long	0xd58
 6171 2dfc 0B2E0000 		.long	0x2e0b
 6172 2e00 15       		.uleb128 0x15
 6173 2e01 4A2C0000 		.long	0x2c4a
 6174 2e05 15       		.uleb128 0x15
 6175 2e06 580D0000 		.long	0xd58
 6176 2e0a 00       		.byte	0x0
 6177 2e0b 0F       		.uleb128 0xf
 6178 2e0c 04       		.byte	0x4
 6179 2e0d F62D0000 		.long	0x2df6
 6180 2e11 1C       		.uleb128 0x1c
 6181 2e12 01       		.byte	0x1
 6182 2e13 222E0000 		.long	0x2e22
 6183 2e17 15       		.uleb128 0x15
 6184 2e18 4A2C0000 		.long	0x2c4a
 6185 2e1c 15       		.uleb128 0x15
 6186 2e1d 580D0000 		.long	0xd58
 6187 2e21 00       		.byte	0x0
 6188 2e22 0F       		.uleb128 0xf
 6189 2e23 04       		.byte	0x4
 6190 2e24 112E0000 		.long	0x2e11
 6191 2e28 14       		.uleb128 0x14
 6192 2e29 01       		.byte	0x1
 6193 2e2a FE0C0000 		.long	0xcfe
 6194 2e2e 422E0000 		.long	0x2e42
 6195 2e32 15       		.uleb128 0x15
 6196 2e33 4A2C0000 		.long	0x2c4a
 6197 2e37 15       		.uleb128 0x15
 6198 2e38 580D0000 		.long	0xd58
 6199 2e3c 15       		.uleb128 0x15
 6200 2e3d 580D0000 		.long	0xd58
 6201 2e41 00       		.byte	0x0
 6202 2e42 0F       		.uleb128 0xf
 6203 2e43 04       		.byte	0x4
 6204 2e44 282E0000 		.long	0x2e28
 6205 2e48 14       		.uleb128 0x14
 6206 2e49 01       		.byte	0x1
 6207 2e4a 580D0000 		.long	0xd58
 6208 2e4e 5D2E0000 		.long	0x2e5d
 6209 2e52 15       		.uleb128 0x15
 6210 2e53 4A2C0000 		.long	0x2c4a
 6211 2e57 15       		.uleb128 0x15
 6212 2e58 670D0000 		.long	0xd67
GAS LISTING /cygdrive/c/Users/THESCI~1/AppData/Local/Temp/ccu2GGTU.s 			page 148


 6213 2e5c 00       		.byte	0x0
 6214 2e5d 0F       		.uleb128 0xf
 6215 2e5e 04       		.byte	0x4
 6216 2e5f 482E0000 		.long	0x2e48
 6217 2e63 14       		.uleb128 0x14
 6218 2e64 01       		.byte	0x1
 6219 2e65 580D0000 		.long	0xd58
 6220 2e69 7E2E0000 		.long	0x2e7e
 6221 2e6d 15       		.uleb128 0x15
 6222 2e6e 4A2C0000 		.long	0x2c4a
 6223 2e72 15       		.uleb128 0x15
 6224 2e73 670D0000 		.long	0xd67
 6225 2e77 15       		.uleb128 0x15
 6226 2e78 542B0000 		.long	0x2b54
 6227 2e7c 22       		.uleb128 0x22
 6228 2e7d 00       		.byte	0x0
 6229 2e7e 0F       		.uleb128 0xf
 6230 2e7f 04       		.byte	0x4
 6231 2e80 632E0000 		.long	0x2e63
 6232 2e84 14       		.uleb128 0x14
 6233 2e85 01       		.byte	0x1
 6234 2e86 580D0000 		.long	0xd58
 6235 2e8a A32E0000 		.long	0x2ea3
 6236 2e8e 15       		.uleb128 0x15
 6237 2e8f 4A2C0000 		.long	0x2c4a
 6238 2e93 15       		.uleb128 0x15
 6239 2e94 670D0000 		.long	0xd67
 6240 2e98 15       		.uleb128 0x15
 6241 2e99 542B0000 		.long	0x2b54
 6242 2e9d 15       		.uleb128 0x15
 6243 2e9e BB0C0000 		.long	0xcbb
 6244 2ea2 00       		.byte	0x0
 6245 2ea3 0F       		.uleb128 0xf
 6246 2ea4 04       		.byte	0x4
 6247 2ea5 842E0000 		.long	0x2e84
 6248 2ea9 14       		.uleb128 0x14
 6249 2eaa 01       		.byte	0x1
 6250 2eab 580D0000 		.long	0xd58
 6251 2eaf C82E0000 		.long	0x2ec8
 6252 2eb3 15       		.uleb128 0x15
 6253 2eb4 4A2C0000 		.long	0x2c4a
 6254 2eb8 15       		.uleb128 0x15
 6255 2eb9 670D0000 		.long	0xd67
 6256 2ebd 15       		.uleb128 0x15
 6257 2ebe 542B0000 		.long	0x2b54
 6258 2ec2 15       		.uleb128 0x15
 6259 2ec3 C82E0000 		.long	0x2ec8
 6260 2ec7 00       		.byte	0x0
 6261 2ec8 0F       		.uleb128 0xf
 6262 2ec9 04       		.byte	0x4
 6263 2eca CE2E0000 		.long	0x2ece
 6264 2ece 17       		.uleb128 0x17
 6265 2ecf D92B0000 		.long	0x2bd9
 6266 2ed3 0F       		.uleb128 0xf
 6267 2ed4 04       		.byte	0x4
 6268 2ed5 A92E0000 		.long	0x2ea9
 6269 2ed9 14       		.uleb128 0x14
GAS LISTING /cygdrive/c/Users/THESCI~1/AppData/Local/Temp/ccu2GGTU.s 			page 149


 6270 2eda 01       		.byte	0x1
 6271 2edb 670D0000 		.long	0xd67
 6272 2edf EE2E0000 		.long	0x2eee
 6273 2ee3 15       		.uleb128 0x15
 6274 2ee4 4A2C0000 		.long	0x2c4a
 6275 2ee8 15       		.uleb128 0x15
 6276 2ee9 580D0000 		.long	0xd58
 6277 2eed 00       		.byte	0x0
 6278 2eee 0F       		.uleb128 0xf
 6279 2eef 04       		.byte	0x4
 6280 2ef0 D92E0000 		.long	0x2ed9
 6281 2ef4 14       		.uleb128 0x14
 6282 2ef5 01       		.byte	0x1
 6283 2ef6 FE0C0000 		.long	0xcfe
 6284 2efa 0E2F0000 		.long	0x2f0e
 6285 2efe 15       		.uleb128 0x15
 6286 2eff 4A2C0000 		.long	0x2c4a
 6287 2f03 15       		.uleb128 0x15
 6288 2f04 580D0000 		.long	0xd58
 6289 2f08 15       		.uleb128 0x15
 6290 2f09 670D0000 		.long	0xd67
 6291 2f0d 00       		.byte	0x0
 6292 2f0e 0F       		.uleb128 0xf
 6293 2f0f 04       		.byte	0x4
 6294 2f10 F42E0000 		.long	0x2ef4
 6295 2f14 14       		.uleb128 0x14
 6296 2f15 01       		.byte	0x1
 6297 2f16 542B0000 		.long	0x2b54
 6298 2f1a 332F0000 		.long	0x2f33
 6299 2f1e 15       		.uleb128 0x15
 6300 2f1f 4A2C0000 		.long	0x2c4a
 6301 2f23 15       		.uleb128 0x15
 6302 2f24 670D0000 		.long	0xd67
 6303 2f28 15       		.uleb128 0x15
 6304 2f29 D7060000 		.long	0x6d7
 6305 2f2d 15       		.uleb128 0x15
 6306 2f2e D7060000 		.long	0x6d7
 6307 2f32 00       		.byte	0x0
 6308 2f33 0F       		.uleb128 0xf
 6309 2f34 04       		.byte	0x4
 6310 2f35 142F0000 		.long	0x2f14
 6311 2f39 14       		.uleb128 0x14
 6312 2f3a 01       		.byte	0x1
 6313 2f3b 580D0000 		.long	0xd58
 6314 2f3f 542F0000 		.long	0x2f54
 6315 2f43 15       		.uleb128 0x15
 6316 2f44 4A2C0000 		.long	0x2c4a
 6317 2f48 15       		.uleb128 0x15
 6318 2f49 580D0000 		.long	0xd58
 6319 2f4d 15       		.uleb128 0x15
 6320 2f4e 542B0000 		.long	0x2b54
 6321 2f52 22       		.uleb128 0x22
 6322 2f53 00       		.byte	0x0
 6323 2f54 0F       		.uleb128 0xf
 6324 2f55 04       		.byte	0x4
 6325 2f56 392F0000 		.long	0x2f39
 6326 2f5a 14       		.uleb128 0x14
GAS LISTING /cygdrive/c/Users/THESCI~1/AppData/Local/Temp/ccu2GGTU.s 			page 150


 6327 2f5b 01       		.byte	0x1
 6328 2f5c 580D0000 		.long	0xd58
 6329 2f60 792F0000 		.long	0x2f79
 6330 2f64 15       		.uleb128 0x15
 6331 2f65 4A2C0000 		.long	0x2c4a
 6332 2f69 15       		.uleb128 0x15
 6333 2f6a 580D0000 		.long	0xd58
 6334 2f6e 15       		.uleb128 0x15
 6335 2f6f 542B0000 		.long	0x2b54
 6336 2f73 15       		.uleb128 0x15
 6337 2f74 BB0C0000 		.long	0xcbb
 6338 2f78 00       		.byte	0x0
 6339 2f79 0F       		.uleb128 0xf
 6340 2f7a 04       		.byte	0x4
 6341 2f7b 5A2F0000 		.long	0x2f5a
 6342 2f7f 14       		.uleb128 0x14
 6343 2f80 01       		.byte	0x1
 6344 2f81 580D0000 		.long	0xd58
 6345 2f85 9E2F0000 		.long	0x2f9e
 6346 2f89 15       		.uleb128 0x15
 6347 2f8a 4A2C0000 		.long	0x2c4a
 6348 2f8e 15       		.uleb128 0x15
 6349 2f8f 580D0000 		.long	0xd58
 6350 2f93 15       		.uleb128 0x15
 6351 2f94 542B0000 		.long	0x2b54
 6352 2f98 15       		.uleb128 0x15
 6353 2f99 C82E0000 		.long	0x2ec8
 6354 2f9d 00       		.byte	0x0
 6355 2f9e 0F       		.uleb128 0xf
 6356 2f9f 04       		.byte	0x4
 6357 2fa0 7F2F0000 		.long	0x2f7f
 6358 2fa4 14       		.uleb128 0x14
 6359 2fa5 01       		.byte	0x1
 6360 2fa6 FE0C0000 		.long	0xcfe
 6361 2faa BF2F0000 		.long	0x2fbf
 6362 2fae 15       		.uleb128 0x15
 6363 2faf 4A2C0000 		.long	0x2c4a
 6364 2fb3 15       		.uleb128 0x15
 6365 2fb4 580D0000 		.long	0xd58
 6366 2fb8 15       		.uleb128 0x15
 6367 2fb9 542B0000 		.long	0x2b54
 6368 2fbd 22       		.uleb128 0x22
 6369 2fbe 00       		.byte	0x0
 6370 2fbf 0F       		.uleb128 0xf
 6371 2fc0 04       		.byte	0x4
 6372 2fc1 A42F0000 		.long	0x2fa4
 6373 2fc5 14       		.uleb128 0x14
 6374 2fc6 01       		.byte	0x1
 6375 2fc7 FE0C0000 		.long	0xcfe
 6376 2fcb E42F0000 		.long	0x2fe4
 6377 2fcf 15       		.uleb128 0x15
 6378 2fd0 4A2C0000 		.long	0x2c4a
 6379 2fd4 15       		.uleb128 0x15
 6380 2fd5 580D0000 		.long	0xd58
 6381 2fd9 15       		.uleb128 0x15
 6382 2fda 542B0000 		.long	0x2b54
 6383 2fde 15       		.uleb128 0x15
GAS LISTING /cygdrive/c/Users/THESCI~1/AppData/Local/Temp/ccu2GGTU.s 			page 151


 6384 2fdf BB0C0000 		.long	0xcbb
 6385 2fe3 00       		.byte	0x0
 6386 2fe4 0F       		.uleb128 0xf
 6387 2fe5 04       		.byte	0x4
 6388 2fe6 C52F0000 		.long	0x2fc5
 6389 2fea 14       		.uleb128 0x14
 6390 2feb 01       		.byte	0x1
 6391 2fec FE0C0000 		.long	0xcfe
 6392 2ff0 09300000 		.long	0x3009
 6393 2ff4 15       		.uleb128 0x15
 6394 2ff5 4A2C0000 		.long	0x2c4a
 6395 2ff9 15       		.uleb128 0x15
 6396 2ffa 580D0000 		.long	0xd58
 6397 2ffe 15       		.uleb128 0x15
 6398 2fff 542B0000 		.long	0x2b54
 6399 3003 15       		.uleb128 0x15
 6400 3004 C82E0000 		.long	0x2ec8
 6401 3008 00       		.byte	0x0
 6402 3009 0F       		.uleb128 0xf
 6403 300a 04       		.byte	0x4
 6404 300b EA2F0000 		.long	0x2fea
 6405 300f 14       		.uleb128 0x14
 6406 3010 01       		.byte	0x1
 6407 3011 CA0C0000 		.long	0xcca
 6408 3015 2A300000 		.long	0x302a
 6409 3019 15       		.uleb128 0x15
 6410 301a 4A2C0000 		.long	0x2c4a
 6411 301e 15       		.uleb128 0x15
 6412 301f 580D0000 		.long	0xd58
 6413 3023 15       		.uleb128 0x15
 6414 3024 542B0000 		.long	0x2b54
 6415 3028 22       		.uleb128 0x22
 6416 3029 00       		.byte	0x0
 6417 302a 0F       		.uleb128 0xf
 6418 302b 04       		.byte	0x4
 6419 302c 0F300000 		.long	0x300f
 6420 3030 14       		.uleb128 0x14
 6421 3031 01       		.byte	0x1
 6422 3032 CA0C0000 		.long	0xcca
 6423 3036 4F300000 		.long	0x304f
 6424 303a 15       		.uleb128 0x15
 6425 303b 4A2C0000 		.long	0x2c4a
 6426 303f 15       		.uleb128 0x15
 6427 3040 580D0000 		.long	0xd58
 6428 3044 15       		.uleb128 0x15
 6429 3045 542B0000 		.long	0x2b54
 6430 3049 15       		.uleb128 0x15
 6431 304a BB0C0000 		.long	0xcbb
 6432 304e 00       		.byte	0x0
 6433 304f 0F       		.uleb128 0xf
 6434 3050 04       		.byte	0x4
 6435 3051 30300000 		.long	0x3030
 6436 3055 14       		.uleb128 0x14
 6437 3056 01       		.byte	0x1
 6438 3057 CA0C0000 		.long	0xcca
 6439 305b 74300000 		.long	0x3074
 6440 305f 15       		.uleb128 0x15
GAS LISTING /cygdrive/c/Users/THESCI~1/AppData/Local/Temp/ccu2GGTU.s 			page 152


 6441 3060 4A2C0000 		.long	0x2c4a
 6442 3064 15       		.uleb128 0x15
 6443 3065 580D0000 		.long	0xd58
 6444 3069 15       		.uleb128 0x15
 6445 306a 542B0000 		.long	0x2b54
 6446 306e 15       		.uleb128 0x15
 6447 306f C82E0000 		.long	0x2ec8
 6448 3073 00       		.byte	0x0
 6449 3074 0F       		.uleb128 0xf
 6450 3075 04       		.byte	0x4
 6451 3076 55300000 		.long	0x3055
 6452 307a 14       		.uleb128 0x14
 6453 307b 01       		.byte	0x1
 6454 307c 0E0D0000 		.long	0xd0e
 6455 3080 95300000 		.long	0x3095
 6456 3084 15       		.uleb128 0x15
 6457 3085 4A2C0000 		.long	0x2c4a
 6458 3089 15       		.uleb128 0x15
 6459 308a 580D0000 		.long	0xd58
 6460 308e 15       		.uleb128 0x15
 6461 308f 542B0000 		.long	0x2b54
 6462 3093 22       		.uleb128 0x22
 6463 3094 00       		.byte	0x0
 6464 3095 0F       		.uleb128 0xf
 6465 3096 04       		.byte	0x4
 6466 3097 7A300000 		.long	0x307a
 6467 309b 14       		.uleb128 0x14
 6468 309c 01       		.byte	0x1
 6469 309d 0E0D0000 		.long	0xd0e
 6470 30a1 BA300000 		.long	0x30ba
 6471 30a5 15       		.uleb128 0x15
 6472 30a6 4A2C0000 		.long	0x2c4a
 6473 30aa 15       		.uleb128 0x15
 6474 30ab 580D0000 		.long	0xd58
 6475 30af 15       		.uleb128 0x15
 6476 30b0 542B0000 		.long	0x2b54
 6477 30b4 15       		.uleb128 0x15
 6478 30b5 BB0C0000 		.long	0xcbb
 6479 30b9 00       		.byte	0x0
 6480 30ba 0F       		.uleb128 0xf
 6481 30bb 04       		.byte	0x4
 6482 30bc 9B300000 		.long	0x309b
 6483 30c0 14       		.uleb128 0x14
 6484 30c1 01       		.byte	0x1
 6485 30c2 0E0D0000 		.long	0xd0e
 6486 30c6 DF300000 		.long	0x30df
 6487 30ca 15       		.uleb128 0x15
 6488 30cb 4A2C0000 		.long	0x2c4a
 6489 30cf 15       		.uleb128 0x15
 6490 30d0 580D0000 		.long	0xd58
 6491 30d4 15       		.uleb128 0x15
 6492 30d5 542B0000 		.long	0x2b54
 6493 30d9 15       		.uleb128 0x15
 6494 30da C82E0000 		.long	0x2ec8
 6495 30de 00       		.byte	0x0
 6496 30df 0F       		.uleb128 0xf
 6497 30e0 04       		.byte	0x4
GAS LISTING /cygdrive/c/Users/THESCI~1/AppData/Local/Temp/ccu2GGTU.s 			page 153


 6498 30e1 C0300000 		.long	0x30c0
 6499 30e5 14       		.uleb128 0x14
 6500 30e6 01       		.byte	0x1
 6501 30e7 D70C0000 		.long	0xcd7
 6502 30eb 00310000 		.long	0x3100
 6503 30ef 15       		.uleb128 0x15
 6504 30f0 4A2C0000 		.long	0x2c4a
 6505 30f4 15       		.uleb128 0x15
 6506 30f5 580D0000 		.long	0xd58
 6507 30f9 15       		.uleb128 0x15
 6508 30fa 542B0000 		.long	0x2b54
 6509 30fe 22       		.uleb128 0x22
 6510 30ff 00       		.byte	0x0
 6511 3100 0F       		.uleb128 0xf
 6512 3101 04       		.byte	0x4
 6513 3102 E5300000 		.long	0x30e5
 6514 3106 14       		.uleb128 0x14
 6515 3107 01       		.byte	0x1
 6516 3108 D70C0000 		.long	0xcd7
 6517 310c 25310000 		.long	0x3125
 6518 3110 15       		.uleb128 0x15
 6519 3111 4A2C0000 		.long	0x2c4a
 6520 3115 15       		.uleb128 0x15
 6521 3116 580D0000 		.long	0xd58
 6522 311a 15       		.uleb128 0x15
 6523 311b 542B0000 		.long	0x2b54
 6524 311f 15       		.uleb128 0x15
 6525 3120 BB0C0000 		.long	0xcbb
 6526 3124 00       		.byte	0x0
 6527 3125 0F       		.uleb128 0xf
 6528 3126 04       		.byte	0x4
 6529 3127 06310000 		.long	0x3106
 6530 312b 14       		.uleb128 0x14
 6531 312c 01       		.byte	0x1
 6532 312d D70C0000 		.long	0xcd7
 6533 3131 4A310000 		.long	0x314a
 6534 3135 15       		.uleb128 0x15
 6535 3136 4A2C0000 		.long	0x2c4a
 6536 313a 15       		.uleb128 0x15
 6537 313b 580D0000 		.long	0xd58
 6538 313f 15       		.uleb128 0x15
 6539 3140 542B0000 		.long	0x2b54
 6540 3144 15       		.uleb128 0x15
 6541 3145 C82E0000 		.long	0x2ec8
 6542 3149 00       		.byte	0x0
 6543 314a 0F       		.uleb128 0xf
 6544 314b 04       		.byte	0x4
 6545 314c 2B310000 		.long	0x312b
 6546 3150 14       		.uleb128 0x14
 6547 3151 01       		.byte	0x1
 6548 3152 E50C0000 		.long	0xce5
 6549 3156 6B310000 		.long	0x316b
 6550 315a 15       		.uleb128 0x15
 6551 315b 4A2C0000 		.long	0x2c4a
 6552 315f 15       		.uleb128 0x15
 6553 3160 580D0000 		.long	0xd58
 6554 3164 15       		.uleb128 0x15
GAS LISTING /cygdrive/c/Users/THESCI~1/AppData/Local/Temp/ccu2GGTU.s 			page 154


 6555 3165 542B0000 		.long	0x2b54
 6556 3169 22       		.uleb128 0x22
 6557 316a 00       		.byte	0x0
 6558 316b 0F       		.uleb128 0xf
 6559 316c 04       		.byte	0x4
 6560 316d 50310000 		.long	0x3150
 6561 3171 14       		.uleb128 0x14
 6562 3172 01       		.byte	0x1
 6563 3173 E50C0000 		.long	0xce5
 6564 3177 90310000 		.long	0x3190
 6565 317b 15       		.uleb128 0x15
 6566 317c 4A2C0000 		.long	0x2c4a
 6567 3180 15       		.uleb128 0x15
 6568 3181 580D0000 		.long	0xd58
 6569 3185 15       		.uleb128 0x15
 6570 3186 542B0000 		.long	0x2b54
 6571 318a 15       		.uleb128 0x15
 6572 318b BB0C0000 		.long	0xcbb
 6573 318f 00       		.byte	0x0
 6574 3190 0F       		.uleb128 0xf
 6575 3191 04       		.byte	0x4
 6576 3192 71310000 		.long	0x3171
 6577 3196 14       		.uleb128 0x14
 6578 3197 01       		.byte	0x1
 6579 3198 E50C0000 		.long	0xce5
 6580 319c B5310000 		.long	0x31b5
 6581 31a0 15       		.uleb128 0x15
 6582 31a1 4A2C0000 		.long	0x2c4a
 6583 31a5 15       		.uleb128 0x15
 6584 31a6 580D0000 		.long	0xd58
 6585 31aa 15       		.uleb128 0x15
 6586 31ab 542B0000 		.long	0x2b54
 6587 31af 15       		.uleb128 0x15
 6588 31b0 C82E0000 		.long	0x2ec8
 6589 31b4 00       		.byte	0x0
 6590 31b5 0F       		.uleb128 0xf
 6591 31b6 04       		.byte	0x4
 6592 31b7 96310000 		.long	0x3196
 6593 31bb 14       		.uleb128 0x14
 6594 31bc 01       		.byte	0x1
 6595 31bd F10C0000 		.long	0xcf1
 6596 31c1 D6310000 		.long	0x31d6
 6597 31c5 15       		.uleb128 0x15
 6598 31c6 4A2C0000 		.long	0x2c4a
 6599 31ca 15       		.uleb128 0x15
 6600 31cb 580D0000 		.long	0xd58
 6601 31cf 15       		.uleb128 0x15
 6602 31d0 542B0000 		.long	0x2b54
 6603 31d4 22       		.uleb128 0x22
 6604 31d5 00       		.byte	0x0
 6605 31d6 0F       		.uleb128 0xf
 6606 31d7 04       		.byte	0x4
 6607 31d8 BB310000 		.long	0x31bb
 6608 31dc 14       		.uleb128 0x14
 6609 31dd 01       		.byte	0x1
 6610 31de F10C0000 		.long	0xcf1
 6611 31e2 FB310000 		.long	0x31fb
GAS LISTING /cygdrive/c/Users/THESCI~1/AppData/Local/Temp/ccu2GGTU.s 			page 155


 6612 31e6 15       		.uleb128 0x15
 6613 31e7 4A2C0000 		.long	0x2c4a
 6614 31eb 15       		.uleb128 0x15
 6615 31ec 580D0000 		.long	0xd58
 6616 31f0 15       		.uleb128 0x15
 6617 31f1 542B0000 		.long	0x2b54
 6618 31f5 15       		.uleb128 0x15
 6619 31f6 BB0C0000 		.long	0xcbb
 6620 31fa 00       		.byte	0x0
 6621 31fb 0F       		.uleb128 0xf
 6622 31fc 04       		.byte	0x4
 6623 31fd DC310000 		.long	0x31dc
 6624 3201 14       		.uleb128 0x14
 6625 3202 01       		.byte	0x1
 6626 3203 F10C0000 		.long	0xcf1
 6627 3207 20320000 		.long	0x3220
 6628 320b 15       		.uleb128 0x15
 6629 320c 4A2C0000 		.long	0x2c4a
 6630 3210 15       		.uleb128 0x15
 6631 3211 580D0000 		.long	0xd58
 6632 3215 15       		.uleb128 0x15
 6633 3216 542B0000 		.long	0x2b54
 6634 321a 15       		.uleb128 0x15
 6635 321b C82E0000 		.long	0x2ec8
 6636 321f 00       		.byte	0x0
 6637 3220 0F       		.uleb128 0xf
 6638 3221 04       		.byte	0x4
 6639 3222 01320000 		.long	0x3201
 6640 3226 14       		.uleb128 0x14
 6641 3227 01       		.byte	0x1
 6642 3228 1B0D0000 		.long	0xd1b
 6643 322c 41320000 		.long	0x3241
 6644 3230 15       		.uleb128 0x15
 6645 3231 4A2C0000 		.long	0x2c4a
 6646 3235 15       		.uleb128 0x15
 6647 3236 580D0000 		.long	0xd58
 6648 323a 15       		.uleb128 0x15
 6649 323b 542B0000 		.long	0x2b54
 6650 323f 22       		.uleb128 0x22
 6651 3240 00       		.byte	0x0
 6652 3241 0F       		.uleb128 0xf
 6653 3242 04       		.byte	0x4
 6654 3243 26320000 		.long	0x3226
 6655 3247 14       		.uleb128 0x14
 6656 3248 01       		.byte	0x1
 6657 3249 1B0D0000 		.long	0xd1b
 6658 324d 66320000 		.long	0x3266
 6659 3251 15       		.uleb128 0x15
 6660 3252 4A2C0000 		.long	0x2c4a
 6661 3256 15       		.uleb128 0x15
 6662 3257 580D0000 		.long	0xd58
 6663 325b 15       		.uleb128 0x15
 6664 325c 542B0000 		.long	0x2b54
 6665 3260 15       		.uleb128 0x15
 6666 3261 BB0C0000 		.long	0xcbb
 6667 3265 00       		.byte	0x0
 6668 3266 0F       		.uleb128 0xf
GAS LISTING /cygdrive/c/Users/THESCI~1/AppData/Local/Temp/ccu2GGTU.s 			page 156


 6669 3267 04       		.byte	0x4
 6670 3268 47320000 		.long	0x3247
 6671 326c 14       		.uleb128 0x14
 6672 326d 01       		.byte	0x1
 6673 326e 1B0D0000 		.long	0xd1b
 6674 3272 8B320000 		.long	0x328b
 6675 3276 15       		.uleb128 0x15
 6676 3277 4A2C0000 		.long	0x2c4a
 6677 327b 15       		.uleb128 0x15
 6678 327c 580D0000 		.long	0xd58
 6679 3280 15       		.uleb128 0x15
 6680 3281 542B0000 		.long	0x2b54
 6681 3285 15       		.uleb128 0x15
 6682 3286 C82E0000 		.long	0x2ec8
 6683 328a 00       		.byte	0x0
 6684 328b 0F       		.uleb128 0xf
 6685 328c 04       		.byte	0x4
 6686 328d 6C320000 		.long	0x326c
 6687 3291 14       		.uleb128 0x14
 6688 3292 01       		.byte	0x1
 6689 3293 320D0000 		.long	0xd32
 6690 3297 AC320000 		.long	0x32ac
 6691 329b 15       		.uleb128 0x15
 6692 329c 4A2C0000 		.long	0x2c4a
 6693 32a0 15       		.uleb128 0x15
 6694 32a1 580D0000 		.long	0xd58
 6695 32a5 15       		.uleb128 0x15
 6696 32a6 542B0000 		.long	0x2b54
 6697 32aa 22       		.uleb128 0x22
 6698 32ab 00       		.byte	0x0
 6699 32ac 0F       		.uleb128 0xf
 6700 32ad 04       		.byte	0x4
 6701 32ae 91320000 		.long	0x3291
 6702 32b2 14       		.uleb128 0x14
 6703 32b3 01       		.byte	0x1
 6704 32b4 320D0000 		.long	0xd32
 6705 32b8 D1320000 		.long	0x32d1
 6706 32bc 15       		.uleb128 0x15
 6707 32bd 4A2C0000 		.long	0x2c4a
 6708 32c1 15       		.uleb128 0x15
 6709 32c2 580D0000 		.long	0xd58
 6710 32c6 15       		.uleb128 0x15
 6711 32c7 542B0000 		.long	0x2b54
 6712 32cb 15       		.uleb128 0x15
 6713 32cc BB0C0000 		.long	0xcbb
 6714 32d0 00       		.byte	0x0
 6715 32d1 0F       		.uleb128 0xf
 6716 32d2 04       		.byte	0x4
 6717 32d3 B2320000 		.long	0x32b2
 6718 32d7 14       		.uleb128 0x14
 6719 32d8 01       		.byte	0x1
 6720 32d9 320D0000 		.long	0xd32
 6721 32dd F6320000 		.long	0x32f6
 6722 32e1 15       		.uleb128 0x15
 6723 32e2 4A2C0000 		.long	0x2c4a
 6724 32e6 15       		.uleb128 0x15
 6725 32e7 580D0000 		.long	0xd58
GAS LISTING /cygdrive/c/Users/THESCI~1/AppData/Local/Temp/ccu2GGTU.s 			page 157


 6726 32eb 15       		.uleb128 0x15
 6727 32ec 542B0000 		.long	0x2b54
 6728 32f0 15       		.uleb128 0x15
 6729 32f1 C82E0000 		.long	0x2ec8
 6730 32f5 00       		.byte	0x0
 6731 32f6 0F       		.uleb128 0xf
 6732 32f7 04       		.byte	0x4
 6733 32f8 D7320000 		.long	0x32d7
 6734 32fc 1C       		.uleb128 0x1c
 6735 32fd 01       		.byte	0x1
 6736 32fe 13330000 		.long	0x3313
 6737 3302 15       		.uleb128 0x15
 6738 3303 4A2C0000 		.long	0x2c4a
 6739 3307 15       		.uleb128 0x15
 6740 3308 580D0000 		.long	0xd58
 6741 330c 15       		.uleb128 0x15
 6742 330d 542B0000 		.long	0x2b54
 6743 3311 22       		.uleb128 0x22
 6744 3312 00       		.byte	0x0
 6745 3313 0F       		.uleb128 0xf
 6746 3314 04       		.byte	0x4
 6747 3315 FC320000 		.long	0x32fc
 6748 3319 1C       		.uleb128 0x1c
 6749 331a 01       		.byte	0x1
 6750 331b 34330000 		.long	0x3334
 6751 331f 15       		.uleb128 0x15
 6752 3320 4A2C0000 		.long	0x2c4a
 6753 3324 15       		.uleb128 0x15
 6754 3325 580D0000 		.long	0xd58
 6755 3329 15       		.uleb128 0x15
 6756 332a 542B0000 		.long	0x2b54
 6757 332e 15       		.uleb128 0x15
 6758 332f BB0C0000 		.long	0xcbb
 6759 3333 00       		.byte	0x0
 6760 3334 0F       		.uleb128 0xf
 6761 3335 04       		.byte	0x4
 6762 3336 19330000 		.long	0x3319
 6763 333a 1C       		.uleb128 0x1c
 6764 333b 01       		.byte	0x1
 6765 333c 55330000 		.long	0x3355
 6766 3340 15       		.uleb128 0x15
 6767 3341 4A2C0000 		.long	0x2c4a
 6768 3345 15       		.uleb128 0x15
 6769 3346 580D0000 		.long	0xd58
 6770 334a 15       		.uleb128 0x15
 6771 334b 542B0000 		.long	0x2b54
 6772 334f 15       		.uleb128 0x15
 6773 3350 C82E0000 		.long	0x2ec8
 6774 3354 00       		.byte	0x0
 6775 3355 0F       		.uleb128 0xf
 6776 3356 04       		.byte	0x4
 6777 3357 3A330000 		.long	0x333a
 6778 335b 14       		.uleb128 0x14
 6779 335c 01       		.byte	0x1
 6780 335d 580D0000 		.long	0xd58
 6781 3361 7B330000 		.long	0x337b
 6782 3365 15       		.uleb128 0x15
GAS LISTING /cygdrive/c/Users/THESCI~1/AppData/Local/Temp/ccu2GGTU.s 			page 158


 6783 3366 4A2C0000 		.long	0x2c4a
 6784 336a 15       		.uleb128 0x15
 6785 336b 580D0000 		.long	0xd58
 6786 336f 15       		.uleb128 0x15
 6787 3370 670D0000 		.long	0xd67
 6788 3374 15       		.uleb128 0x15
 6789 3375 542B0000 		.long	0x2b54
 6790 3379 22       		.uleb128 0x22
 6791 337a 00       		.byte	0x0
 6792 337b 0F       		.uleb128 0xf
 6793 337c 04       		.byte	0x4
 6794 337d 5B330000 		.long	0x335b
 6795 3381 14       		.uleb128 0x14
 6796 3382 01       		.byte	0x1
 6797 3383 580D0000 		.long	0xd58
 6798 3387 A5330000 		.long	0x33a5
 6799 338b 15       		.uleb128 0x15
 6800 338c 4A2C0000 		.long	0x2c4a
 6801 3390 15       		.uleb128 0x15
 6802 3391 580D0000 		.long	0xd58
 6803 3395 15       		.uleb128 0x15
 6804 3396 670D0000 		.long	0xd67
 6805 339a 15       		.uleb128 0x15
 6806 339b 542B0000 		.long	0x2b54
 6807 339f 15       		.uleb128 0x15
 6808 33a0 BB0C0000 		.long	0xcbb
 6809 33a4 00       		.byte	0x0
 6810 33a5 0F       		.uleb128 0xf
 6811 33a6 04       		.byte	0x4
 6812 33a7 81330000 		.long	0x3381
 6813 33ab 14       		.uleb128 0x14
 6814 33ac 01       		.byte	0x1
 6815 33ad 580D0000 		.long	0xd58
 6816 33b1 CF330000 		.long	0x33cf
 6817 33b5 15       		.uleb128 0x15
 6818 33b6 4A2C0000 		.long	0x2c4a
 6819 33ba 15       		.uleb128 0x15
 6820 33bb 580D0000 		.long	0xd58
 6821 33bf 15       		.uleb128 0x15
 6822 33c0 670D0000 		.long	0xd67
 6823 33c4 15       		.uleb128 0x15
 6824 33c5 542B0000 		.long	0x2b54
 6825 33c9 15       		.uleb128 0x15
 6826 33ca C82E0000 		.long	0x2ec8
 6827 33ce 00       		.byte	0x0
 6828 33cf 0F       		.uleb128 0xf
 6829 33d0 04       		.byte	0x4
 6830 33d1 AB330000 		.long	0x33ab
 6831 33d5 14       		.uleb128 0x14
 6832 33d6 01       		.byte	0x1
 6833 33d7 FE0C0000 		.long	0xcfe
 6834 33db F5330000 		.long	0x33f5
 6835 33df 15       		.uleb128 0x15
 6836 33e0 4A2C0000 		.long	0x2c4a
 6837 33e4 15       		.uleb128 0x15
 6838 33e5 580D0000 		.long	0xd58
 6839 33e9 15       		.uleb128 0x15
GAS LISTING /cygdrive/c/Users/THESCI~1/AppData/Local/Temp/ccu2GGTU.s 			page 159


 6840 33ea 670D0000 		.long	0xd67
 6841 33ee 15       		.uleb128 0x15
 6842 33ef 542B0000 		.long	0x2b54
 6843 33f3 22       		.uleb128 0x22
 6844 33f4 00       		.byte	0x0
 6845 33f5 0F       		.uleb128 0xf
 6846 33f6 04       		.byte	0x4
 6847 33f7 D5330000 		.long	0x33d5
 6848 33fb 14       		.uleb128 0x14
 6849 33fc 01       		.byte	0x1
 6850 33fd FE0C0000 		.long	0xcfe
 6851 3401 1F340000 		.long	0x341f
 6852 3405 15       		.uleb128 0x15
 6853 3406 4A2C0000 		.long	0x2c4a
 6854 340a 15       		.uleb128 0x15
 6855 340b 580D0000 		.long	0xd58
 6856 340f 15       		.uleb128 0x15
 6857 3410 670D0000 		.long	0xd67
 6858 3414 15       		.uleb128 0x15
 6859 3415 542B0000 		.long	0x2b54
 6860 3419 15       		.uleb128 0x15
 6861 341a BB0C0000 		.long	0xcbb
 6862 341e 00       		.byte	0x0
 6863 341f 0F       		.uleb128 0xf
 6864 3420 04       		.byte	0x4
 6865 3421 FB330000 		.long	0x33fb
 6866 3425 14       		.uleb128 0x14
 6867 3426 01       		.byte	0x1
 6868 3427 FE0C0000 		.long	0xcfe
 6869 342b 49340000 		.long	0x3449
 6870 342f 15       		.uleb128 0x15
 6871 3430 4A2C0000 		.long	0x2c4a
 6872 3434 15       		.uleb128 0x15
 6873 3435 580D0000 		.long	0xd58
 6874 3439 15       		.uleb128 0x15
 6875 343a 670D0000 		.long	0xd67
 6876 343e 15       		.uleb128 0x15
 6877 343f 542B0000 		.long	0x2b54
 6878 3443 15       		.uleb128 0x15
 6879 3444 C82E0000 		.long	0x2ec8
 6880 3448 00       		.byte	0x0
 6881 3449 0F       		.uleb128 0xf
 6882 344a 04       		.byte	0x4
 6883 344b 25340000 		.long	0x3425
 6884 344f 14       		.uleb128 0x14
 6885 3450 01       		.byte	0x1
 6886 3451 CA0C0000 		.long	0xcca
 6887 3455 6F340000 		.long	0x346f
 6888 3459 15       		.uleb128 0x15
 6889 345a 4A2C0000 		.long	0x2c4a
 6890 345e 15       		.uleb128 0x15
 6891 345f 580D0000 		.long	0xd58
 6892 3463 15       		.uleb128 0x15
 6893 3464 670D0000 		.long	0xd67
 6894 3468 15       		.uleb128 0x15
 6895 3469 542B0000 		.long	0x2b54
 6896 346d 22       		.uleb128 0x22
GAS LISTING /cygdrive/c/Users/THESCI~1/AppData/Local/Temp/ccu2GGTU.s 			page 160


 6897 346e 00       		.byte	0x0
 6898 346f 0F       		.uleb128 0xf
 6899 3470 04       		.byte	0x4
 6900 3471 4F340000 		.long	0x344f
 6901 3475 14       		.uleb128 0x14
 6902 3476 01       		.byte	0x1
 6903 3477 CA0C0000 		.long	0xcca
 6904 347b 99340000 		.long	0x3499
 6905 347f 15       		.uleb128 0x15
 6906 3480 4A2C0000 		.long	0x2c4a
 6907 3484 15       		.uleb128 0x15
 6908 3485 580D0000 		.long	0xd58
 6909 3489 15       		.uleb128 0x15
 6910 348a 670D0000 		.long	0xd67
 6911 348e 15       		.uleb128 0x15
 6912 348f 542B0000 		.long	0x2b54
 6913 3493 15       		.uleb128 0x15
 6914 3494 BB0C0000 		.long	0xcbb
 6915 3498 00       		.byte	0x0
 6916 3499 0F       		.uleb128 0xf
 6917 349a 04       		.byte	0x4
 6918 349b 75340000 		.long	0x3475
 6919 349f 14       		.uleb128 0x14
 6920 34a0 01       		.byte	0x1
 6921 34a1 CA0C0000 		.long	0xcca
 6922 34a5 C3340000 		.long	0x34c3
 6923 34a9 15       		.uleb128 0x15
 6924 34aa 4A2C0000 		.long	0x2c4a
 6925 34ae 15       		.uleb128 0x15
 6926 34af 580D0000 		.long	0xd58
 6927 34b3 15       		.uleb128 0x15
 6928 34b4 670D0000 		.long	0xd67
 6929 34b8 15       		.uleb128 0x15
 6930 34b9 542B0000 		.long	0x2b54
 6931 34bd 15       		.uleb128 0x15
 6932 34be C82E0000 		.long	0x2ec8
 6933 34c2 00       		.byte	0x0
 6934 34c3 0F       		.uleb128 0xf
 6935 34c4 04       		.byte	0x4
 6936 34c5 9F340000 		.long	0x349f
 6937 34c9 14       		.uleb128 0x14
 6938 34ca 01       		.byte	0x1
 6939 34cb 0E0D0000 		.long	0xd0e
 6940 34cf E9340000 		.long	0x34e9
 6941 34d3 15       		.uleb128 0x15
 6942 34d4 4A2C0000 		.long	0x2c4a
 6943 34d8 15       		.uleb128 0x15
 6944 34d9 580D0000 		.long	0xd58
 6945 34dd 15       		.uleb128 0x15
 6946 34de 670D0000 		.long	0xd67
 6947 34e2 15       		.uleb128 0x15
 6948 34e3 542B0000 		.long	0x2b54
 6949 34e7 22       		.uleb128 0x22
 6950 34e8 00       		.byte	0x0
 6951 34e9 0F       		.uleb128 0xf
 6952 34ea 04       		.byte	0x4
 6953 34eb C9340000 		.long	0x34c9
GAS LISTING /cygdrive/c/Users/THESCI~1/AppData/Local/Temp/ccu2GGTU.s 			page 161


 6954 34ef 14       		.uleb128 0x14
 6955 34f0 01       		.byte	0x1
 6956 34f1 0E0D0000 		.long	0xd0e
 6957 34f5 13350000 		.long	0x3513
 6958 34f9 15       		.uleb128 0x15
 6959 34fa 4A2C0000 		.long	0x2c4a
 6960 34fe 15       		.uleb128 0x15
 6961 34ff 580D0000 		.long	0xd58
 6962 3503 15       		.uleb128 0x15
 6963 3504 670D0000 		.long	0xd67
 6964 3508 15       		.uleb128 0x15
 6965 3509 542B0000 		.long	0x2b54
 6966 350d 15       		.uleb128 0x15
 6967 350e BB0C0000 		.long	0xcbb
 6968 3512 00       		.byte	0x0
 6969 3513 0F       		.uleb128 0xf
 6970 3514 04       		.byte	0x4
 6971 3515 EF340000 		.long	0x34ef
 6972 3519 14       		.uleb128 0x14
 6973 351a 01       		.byte	0x1
 6974 351b 0E0D0000 		.long	0xd0e
 6975 351f 3D350000 		.long	0x353d
 6976 3523 15       		.uleb128 0x15
 6977 3524 4A2C0000 		.long	0x2c4a
 6978 3528 15       		.uleb128 0x15
 6979 3529 580D0000 		.long	0xd58
 6980 352d 15       		.uleb128 0x15
 6981 352e 670D0000 		.long	0xd67
 6982 3532 15       		.uleb128 0x15
 6983 3533 542B0000 		.long	0x2b54
 6984 3537 15       		.uleb128 0x15
 6985 3538 C82E0000 		.long	0x2ec8
 6986 353c 00       		.byte	0x0
 6987 353d 0F       		.uleb128 0xf
 6988 353e 04       		.byte	0x4
 6989 353f 19350000 		.long	0x3519
 6990 3543 14       		.uleb128 0x14
 6991 3544 01       		.byte	0x1
 6992 3545 D70C0000 		.long	0xcd7
 6993 3549 63350000 		.long	0x3563
 6994 354d 15       		.uleb128 0x15
 6995 354e 4A2C0000 		.long	0x2c4a
 6996 3552 15       		.uleb128 0x15
 6997 3553 580D0000 		.long	0xd58
 6998 3557 15       		.uleb128 0x15
 6999 3558 670D0000 		.long	0xd67
 7000 355c 15       		.uleb128 0x15
 7001 355d 542B0000 		.long	0x2b54
 7002 3561 22       		.uleb128 0x22
 7003 3562 00       		.byte	0x0
 7004 3563 0F       		.uleb128 0xf
 7005 3564 04       		.byte	0x4
 7006 3565 43350000 		.long	0x3543
 7007 3569 14       		.uleb128 0x14
 7008 356a 01       		.byte	0x1
 7009 356b D70C0000 		.long	0xcd7
 7010 356f 8D350000 		.long	0x358d
GAS LISTING /cygdrive/c/Users/THESCI~1/AppData/Local/Temp/ccu2GGTU.s 			page 162


 7011 3573 15       		.uleb128 0x15
 7012 3574 4A2C0000 		.long	0x2c4a
 7013 3578 15       		.uleb128 0x15
 7014 3579 580D0000 		.long	0xd58
 7015 357d 15       		.uleb128 0x15
 7016 357e 670D0000 		.long	0xd67
 7017 3582 15       		.uleb128 0x15
 7018 3583 542B0000 		.long	0x2b54
 7019 3587 15       		.uleb128 0x15
 7020 3588 BB0C0000 		.long	0xcbb
 7021 358c 00       		.byte	0x0
 7022 358d 0F       		.uleb128 0xf
 7023 358e 04       		.byte	0x4
 7024 358f 69350000 		.long	0x3569
 7025 3593 14       		.uleb128 0x14
 7026 3594 01       		.byte	0x1
 7027 3595 D70C0000 		.long	0xcd7
 7028 3599 B7350000 		.long	0x35b7
 7029 359d 15       		.uleb128 0x15
 7030 359e 4A2C0000 		.long	0x2c4a
 7031 35a2 15       		.uleb128 0x15
 7032 35a3 580D0000 		.long	0xd58
 7033 35a7 15       		.uleb128 0x15
 7034 35a8 670D0000 		.long	0xd67
 7035 35ac 15       		.uleb128 0x15
 7036 35ad 542B0000 		.long	0x2b54
 7037 35b1 15       		.uleb128 0x15
 7038 35b2 C82E0000 		.long	0x2ec8
 7039 35b6 00       		.byte	0x0
 7040 35b7 0F       		.uleb128 0xf
 7041 35b8 04       		.byte	0x4
 7042 35b9 93350000 		.long	0x3593
 7043 35bd 14       		.uleb128 0x14
 7044 35be 01       		.byte	0x1
 7045 35bf E50C0000 		.long	0xce5
 7046 35c3 DD350000 		.long	0x35dd
 7047 35c7 15       		.uleb128 0x15
 7048 35c8 4A2C0000 		.long	0x2c4a
 7049 35cc 15       		.uleb128 0x15
 7050 35cd 580D0000 		.long	0xd58
 7051 35d1 15       		.uleb128 0x15
 7052 35d2 670D0000 		.long	0xd67
 7053 35d6 15       		.uleb128 0x15
 7054 35d7 542B0000 		.long	0x2b54
 7055 35db 22       		.uleb128 0x22
 7056 35dc 00       		.byte	0x0
 7057 35dd 0F       		.uleb128 0xf
 7058 35de 04       		.byte	0x4
 7059 35df BD350000 		.long	0x35bd
 7060 35e3 14       		.uleb128 0x14
 7061 35e4 01       		.byte	0x1
 7062 35e5 E50C0000 		.long	0xce5
 7063 35e9 07360000 		.long	0x3607
 7064 35ed 15       		.uleb128 0x15
 7065 35ee 4A2C0000 		.long	0x2c4a
 7066 35f2 15       		.uleb128 0x15
 7067 35f3 580D0000 		.long	0xd58
GAS LISTING /cygdrive/c/Users/THESCI~1/AppData/Local/Temp/ccu2GGTU.s 			page 163


 7068 35f7 15       		.uleb128 0x15
 7069 35f8 670D0000 		.long	0xd67
 7070 35fc 15       		.uleb128 0x15
 7071 35fd 542B0000 		.long	0x2b54
 7072 3601 15       		.uleb128 0x15
 7073 3602 BB0C0000 		.long	0xcbb
 7074 3606 00       		.byte	0x0
 7075 3607 0F       		.uleb128 0xf
 7076 3608 04       		.byte	0x4
 7077 3609 E3350000 		.long	0x35e3
 7078 360d 14       		.uleb128 0x14
 7079 360e 01       		.byte	0x1
 7080 360f E50C0000 		.long	0xce5
 7081 3613 31360000 		.long	0x3631
 7082 3617 15       		.uleb128 0x15
 7083 3618 4A2C0000 		.long	0x2c4a
 7084 361c 15       		.uleb128 0x15
 7085 361d 580D0000 		.long	0xd58
 7086 3621 15       		.uleb128 0x15
 7087 3622 670D0000 		.long	0xd67
 7088 3626 15       		.uleb128 0x15
 7089 3627 542B0000 		.long	0x2b54
 7090 362b 15       		.uleb128 0x15
 7091 362c C82E0000 		.long	0x2ec8
 7092 3630 00       		.byte	0x0
 7093 3631 0F       		.uleb128 0xf
 7094 3632 04       		.byte	0x4
 7095 3633 0D360000 		.long	0x360d
 7096 3637 14       		.uleb128 0x14
 7097 3638 01       		.byte	0x1
 7098 3639 F10C0000 		.long	0xcf1
 7099 363d 57360000 		.long	0x3657
 7100 3641 15       		.uleb128 0x15
 7101 3642 4A2C0000 		.long	0x2c4a
 7102 3646 15       		.uleb128 0x15
 7103 3647 580D0000 		.long	0xd58
 7104 364b 15       		.uleb128 0x15
 7105 364c 670D0000 		.long	0xd67
 7106 3650 15       		.uleb128 0x15
 7107 3651 542B0000 		.long	0x2b54
 7108 3655 22       		.uleb128 0x22
 7109 3656 00       		.byte	0x0
 7110 3657 0F       		.uleb128 0xf
 7111 3658 04       		.byte	0x4
 7112 3659 37360000 		.long	0x3637
 7113 365d 14       		.uleb128 0x14
 7114 365e 01       		.byte	0x1
 7115 365f F10C0000 		.long	0xcf1
 7116 3663 81360000 		.long	0x3681
 7117 3667 15       		.uleb128 0x15
 7118 3668 4A2C0000 		.long	0x2c4a
 7119 366c 15       		.uleb128 0x15
 7120 366d 580D0000 		.long	0xd58
 7121 3671 15       		.uleb128 0x15
 7122 3672 670D0000 		.long	0xd67
 7123 3676 15       		.uleb128 0x15
 7124 3677 542B0000 		.long	0x2b54
GAS LISTING /cygdrive/c/Users/THESCI~1/AppData/Local/Temp/ccu2GGTU.s 			page 164


 7125 367b 15       		.uleb128 0x15
 7126 367c BB0C0000 		.long	0xcbb
 7127 3680 00       		.byte	0x0
 7128 3681 0F       		.uleb128 0xf
 7129 3682 04       		.byte	0x4
 7130 3683 5D360000 		.long	0x365d
 7131 3687 14       		.uleb128 0x14
 7132 3688 01       		.byte	0x1
 7133 3689 F10C0000 		.long	0xcf1
 7134 368d AB360000 		.long	0x36ab
 7135 3691 15       		.uleb128 0x15
 7136 3692 4A2C0000 		.long	0x2c4a
 7137 3696 15       		.uleb128 0x15
 7138 3697 580D0000 		.long	0xd58
 7139 369b 15       		.uleb128 0x15
 7140 369c 670D0000 		.long	0xd67
 7141 36a0 15       		.uleb128 0x15
 7142 36a1 542B0000 		.long	0x2b54
 7143 36a5 15       		.uleb128 0x15
 7144 36a6 C82E0000 		.long	0x2ec8
 7145 36aa 00       		.byte	0x0
 7146 36ab 0F       		.uleb128 0xf
 7147 36ac 04       		.byte	0x4
 7148 36ad 87360000 		.long	0x3687
 7149 36b1 14       		.uleb128 0x14
 7150 36b2 01       		.byte	0x1
 7151 36b3 1B0D0000 		.long	0xd1b
 7152 36b7 D1360000 		.long	0x36d1
 7153 36bb 15       		.uleb128 0x15
 7154 36bc 4A2C0000 		.long	0x2c4a
 7155 36c0 15       		.uleb128 0x15
 7156 36c1 580D0000 		.long	0xd58
 7157 36c5 15       		.uleb128 0x15
 7158 36c6 670D0000 		.long	0xd67
 7159 36ca 15       		.uleb128 0x15
 7160 36cb 542B0000 		.long	0x2b54
 7161 36cf 22       		.uleb128 0x22
 7162 36d0 00       		.byte	0x0
 7163 36d1 0F       		.uleb128 0xf
 7164 36d2 04       		.byte	0x4
 7165 36d3 B1360000 		.long	0x36b1
 7166 36d7 14       		.uleb128 0x14
 7167 36d8 01       		.byte	0x1
 7168 36d9 1B0D0000 		.long	0xd1b
 7169 36dd FB360000 		.long	0x36fb
 7170 36e1 15       		.uleb128 0x15
 7171 36e2 4A2C0000 		.long	0x2c4a
 7172 36e6 15       		.uleb128 0x15
 7173 36e7 580D0000 		.long	0xd58
 7174 36eb 15       		.uleb128 0x15
 7175 36ec 670D0000 		.long	0xd67
 7176 36f0 15       		.uleb128 0x15
 7177 36f1 542B0000 		.long	0x2b54
 7178 36f5 15       		.uleb128 0x15
 7179 36f6 BB0C0000 		.long	0xcbb
 7180 36fa 00       		.byte	0x0
 7181 36fb 0F       		.uleb128 0xf
GAS LISTING /cygdrive/c/Users/THESCI~1/AppData/Local/Temp/ccu2GGTU.s 			page 165


 7182 36fc 04       		.byte	0x4
 7183 36fd D7360000 		.long	0x36d7
 7184 3701 14       		.uleb128 0x14
 7185 3702 01       		.byte	0x1
 7186 3703 1B0D0000 		.long	0xd1b
 7187 3707 25370000 		.long	0x3725
 7188 370b 15       		.uleb128 0x15
 7189 370c 4A2C0000 		.long	0x2c4a
 7190 3710 15       		.uleb128 0x15
 7191 3711 580D0000 		.long	0xd58
 7192 3715 15       		.uleb128 0x15
 7193 3716 670D0000 		.long	0xd67
 7194 371a 15       		.uleb128 0x15
 7195 371b 542B0000 		.long	0x2b54
 7196 371f 15       		.uleb128 0x15
 7197 3720 C82E0000 		.long	0x2ec8
 7198 3724 00       		.byte	0x0
 7199 3725 0F       		.uleb128 0xf
 7200 3726 04       		.byte	0x4
 7201 3727 01370000 		.long	0x3701
 7202 372b 14       		.uleb128 0x14
 7203 372c 01       		.byte	0x1
 7204 372d 320D0000 		.long	0xd32
 7205 3731 4B370000 		.long	0x374b
 7206 3735 15       		.uleb128 0x15
 7207 3736 4A2C0000 		.long	0x2c4a
 7208 373a 15       		.uleb128 0x15
 7209 373b 580D0000 		.long	0xd58
 7210 373f 15       		.uleb128 0x15
 7211 3740 670D0000 		.long	0xd67
 7212 3744 15       		.uleb128 0x15
 7213 3745 542B0000 		.long	0x2b54
 7214 3749 22       		.uleb128 0x22
 7215 374a 00       		.byte	0x0
 7216 374b 0F       		.uleb128 0xf
 7217 374c 04       		.byte	0x4
 7218 374d 2B370000 		.long	0x372b
 7219 3751 14       		.uleb128 0x14
 7220 3752 01       		.byte	0x1
 7221 3753 320D0000 		.long	0xd32
 7222 3757 75370000 		.long	0x3775
 7223 375b 15       		.uleb128 0x15
 7224 375c 4A2C0000 		.long	0x2c4a
 7225 3760 15       		.uleb128 0x15
 7226 3761 580D0000 		.long	0xd58
 7227 3765 15       		.uleb128 0x15
 7228 3766 670D0000 		.long	0xd67
 7229 376a 15       		.uleb128 0x15
 7230 376b 542B0000 		.long	0x2b54
 7231 376f 15       		.uleb128 0x15
 7232 3770 BB0C0000 		.long	0xcbb
 7233 3774 00       		.byte	0x0
 7234 3775 0F       		.uleb128 0xf
 7235 3776 04       		.byte	0x4
 7236 3777 51370000 		.long	0x3751
 7237 377b 14       		.uleb128 0x14
 7238 377c 01       		.byte	0x1
GAS LISTING /cygdrive/c/Users/THESCI~1/AppData/Local/Temp/ccu2GGTU.s 			page 166


 7239 377d 320D0000 		.long	0xd32
 7240 3781 9F370000 		.long	0x379f
 7241 3785 15       		.uleb128 0x15
 7242 3786 4A2C0000 		.long	0x2c4a
 7243 378a 15       		.uleb128 0x15
 7244 378b 580D0000 		.long	0xd58
 7245 378f 15       		.uleb128 0x15
 7246 3790 670D0000 		.long	0xd67
 7247 3794 15       		.uleb128 0x15
 7248 3795 542B0000 		.long	0x2b54
 7249 3799 15       		.uleb128 0x15
 7250 379a C82E0000 		.long	0x2ec8
 7251 379e 00       		.byte	0x0
 7252 379f 0F       		.uleb128 0xf
 7253 37a0 04       		.byte	0x4
 7254 37a1 7B370000 		.long	0x377b
 7255 37a5 1C       		.uleb128 0x1c
 7256 37a6 01       		.byte	0x1
 7257 37a7 C1370000 		.long	0x37c1
 7258 37ab 15       		.uleb128 0x15
 7259 37ac 4A2C0000 		.long	0x2c4a
 7260 37b0 15       		.uleb128 0x15
 7261 37b1 580D0000 		.long	0xd58
 7262 37b5 15       		.uleb128 0x15
 7263 37b6 670D0000 		.long	0xd67
 7264 37ba 15       		.uleb128 0x15
 7265 37bb 542B0000 		.long	0x2b54
 7266 37bf 22       		.uleb128 0x22
 7267 37c0 00       		.byte	0x0
 7268 37c1 0F       		.uleb128 0xf
 7269 37c2 04       		.byte	0x4
 7270 37c3 A5370000 		.long	0x37a5
 7271 37c7 1C       		.uleb128 0x1c
 7272 37c8 01       		.byte	0x1
 7273 37c9 E7370000 		.long	0x37e7
 7274 37cd 15       		.uleb128 0x15
 7275 37ce 4A2C0000 		.long	0x2c4a
 7276 37d2 15       		.uleb128 0x15
 7277 37d3 580D0000 		.long	0xd58
 7278 37d7 15       		.uleb128 0x15
 7279 37d8 670D0000 		.long	0xd67
 7280 37dc 15       		.uleb128 0x15
 7281 37dd 542B0000 		.long	0x2b54
 7282 37e1 15       		.uleb128 0x15
 7283 37e2 BB0C0000 		.long	0xcbb
 7284 37e6 00       		.byte	0x0
 7285 37e7 0F       		.uleb128 0xf
 7286 37e8 04       		.byte	0x4
 7287 37e9 C7370000 		.long	0x37c7
 7288 37ed 1C       		.uleb128 0x1c
 7289 37ee 01       		.byte	0x1
 7290 37ef 0D380000 		.long	0x380d
 7291 37f3 15       		.uleb128 0x15
 7292 37f4 4A2C0000 		.long	0x2c4a
 7293 37f8 15       		.uleb128 0x15
 7294 37f9 580D0000 		.long	0xd58
 7295 37fd 15       		.uleb128 0x15
GAS LISTING /cygdrive/c/Users/THESCI~1/AppData/Local/Temp/ccu2GGTU.s 			page 167


 7296 37fe 670D0000 		.long	0xd67
 7297 3802 15       		.uleb128 0x15
 7298 3803 542B0000 		.long	0x2b54
 7299 3807 15       		.uleb128 0x15
 7300 3808 C82E0000 		.long	0x2ec8
 7301 380c 00       		.byte	0x0
 7302 380d 0F       		.uleb128 0xf
 7303 380e 04       		.byte	0x4
 7304 380f ED370000 		.long	0x37ed
 7305 3813 14       		.uleb128 0x14
 7306 3814 01       		.byte	0x1
 7307 3815 322B0000 		.long	0x2b32
 7308 3819 32380000 		.long	0x3832
 7309 381d 15       		.uleb128 0x15
 7310 381e 4A2C0000 		.long	0x2c4a
 7311 3822 15       		.uleb128 0x15
 7312 3823 670D0000 		.long	0xd67
 7313 3827 15       		.uleb128 0x15
 7314 3828 D7060000 		.long	0x6d7
 7315 382c 15       		.uleb128 0x15
 7316 382d D7060000 		.long	0x6d7
 7317 3831 00       		.byte	0x0
 7318 3832 0F       		.uleb128 0xf
 7319 3833 04       		.byte	0x4
 7320 3834 13380000 		.long	0x3813
 7321 3838 14       		.uleb128 0x14
 7322 3839 01       		.byte	0x1
 7323 383a 580D0000 		.long	0xd58
 7324 383e 52380000 		.long	0x3852
 7325 3842 15       		.uleb128 0x15
 7326 3843 4A2C0000 		.long	0x2c4a
 7327 3847 15       		.uleb128 0x15
 7328 3848 580D0000 		.long	0xd58
 7329 384c 15       		.uleb128 0x15
 7330 384d 322B0000 		.long	0x2b32
 7331 3851 00       		.byte	0x0
 7332 3852 0F       		.uleb128 0xf
 7333 3853 04       		.byte	0x4
 7334 3854 38380000 		.long	0x3838
 7335 3858 14       		.uleb128 0x14
 7336 3859 01       		.byte	0x1
 7337 385a FE0C0000 		.long	0xcfe
 7338 385e 72380000 		.long	0x3872
 7339 3862 15       		.uleb128 0x15
 7340 3863 4A2C0000 		.long	0x2c4a
 7341 3867 15       		.uleb128 0x15
 7342 3868 580D0000 		.long	0xd58
 7343 386c 15       		.uleb128 0x15
 7344 386d 322B0000 		.long	0x2b32
 7345 3871 00       		.byte	0x0
 7346 3872 0F       		.uleb128 0xf
 7347 3873 04       		.byte	0x4
 7348 3874 58380000 		.long	0x3858
 7349 3878 14       		.uleb128 0x14
 7350 3879 01       		.byte	0x1
 7351 387a CA0C0000 		.long	0xcca
 7352 387e 92380000 		.long	0x3892
GAS LISTING /cygdrive/c/Users/THESCI~1/AppData/Local/Temp/ccu2GGTU.s 			page 168


 7353 3882 15       		.uleb128 0x15
 7354 3883 4A2C0000 		.long	0x2c4a
 7355 3887 15       		.uleb128 0x15
 7356 3888 580D0000 		.long	0xd58
 7357 388c 15       		.uleb128 0x15
 7358 388d 322B0000 		.long	0x2b32
 7359 3891 00       		.byte	0x0
 7360 3892 0F       		.uleb128 0xf
 7361 3893 04       		.byte	0x4
 7362 3894 78380000 		.long	0x3878
 7363 3898 14       		.uleb128 0x14
 7364 3899 01       		.byte	0x1
 7365 389a 0E0D0000 		.long	0xd0e
 7366 389e B2380000 		.long	0x38b2
 7367 38a2 15       		.uleb128 0x15
 7368 38a3 4A2C0000 		.long	0x2c4a
 7369 38a7 15       		.uleb128 0x15
 7370 38a8 580D0000 		.long	0xd58
 7371 38ac 15       		.uleb128 0x15
 7372 38ad 322B0000 		.long	0x2b32
 7373 38b1 00       		.byte	0x0
 7374 38b2 0F       		.uleb128 0xf
 7375 38b3 04       		.byte	0x4
 7376 38b4 98380000 		.long	0x3898
 7377 38b8 14       		.uleb128 0x14
 7378 38b9 01       		.byte	0x1
 7379 38ba D70C0000 		.long	0xcd7
 7380 38be D2380000 		.long	0x38d2
 7381 38c2 15       		.uleb128 0x15
 7382 38c3 4A2C0000 		.long	0x2c4a
 7383 38c7 15       		.uleb128 0x15
 7384 38c8 580D0000 		.long	0xd58
 7385 38cc 15       		.uleb128 0x15
 7386 38cd 322B0000 		.long	0x2b32
 7387 38d1 00       		.byte	0x0
 7388 38d2 0F       		.uleb128 0xf
 7389 38d3 04       		.byte	0x4
 7390 38d4 B8380000 		.long	0x38b8
 7391 38d8 14       		.uleb128 0x14
 7392 38d9 01       		.byte	0x1
 7393 38da E50C0000 		.long	0xce5
 7394 38de F2380000 		.long	0x38f2
 7395 38e2 15       		.uleb128 0x15
 7396 38e3 4A2C0000 		.long	0x2c4a
 7397 38e7 15       		.uleb128 0x15
 7398 38e8 580D0000 		.long	0xd58
 7399 38ec 15       		.uleb128 0x15
 7400 38ed 322B0000 		.long	0x2b32
 7401 38f1 00       		.byte	0x0
 7402 38f2 0F       		.uleb128 0xf
 7403 38f3 04       		.byte	0x4
 7404 38f4 D8380000 		.long	0x38d8
 7405 38f8 14       		.uleb128 0x14
 7406 38f9 01       		.byte	0x1
 7407 38fa F10C0000 		.long	0xcf1
 7408 38fe 12390000 		.long	0x3912
 7409 3902 15       		.uleb128 0x15
GAS LISTING /cygdrive/c/Users/THESCI~1/AppData/Local/Temp/ccu2GGTU.s 			page 169


 7410 3903 4A2C0000 		.long	0x2c4a
 7411 3907 15       		.uleb128 0x15
 7412 3908 580D0000 		.long	0xd58
 7413 390c 15       		.uleb128 0x15
 7414 390d 322B0000 		.long	0x2b32
 7415 3911 00       		.byte	0x0
 7416 3912 0F       		.uleb128 0xf
 7417 3913 04       		.byte	0x4
 7418 3914 F8380000 		.long	0x38f8
 7419 3918 14       		.uleb128 0x14
 7420 3919 01       		.byte	0x1
 7421 391a 1B0D0000 		.long	0xd1b
 7422 391e 32390000 		.long	0x3932
 7423 3922 15       		.uleb128 0x15
 7424 3923 4A2C0000 		.long	0x2c4a
 7425 3927 15       		.uleb128 0x15
 7426 3928 580D0000 		.long	0xd58
 7427 392c 15       		.uleb128 0x15
 7428 392d 322B0000 		.long	0x2b32
 7429 3931 00       		.byte	0x0
 7430 3932 0F       		.uleb128 0xf
 7431 3933 04       		.byte	0x4
 7432 3934 18390000 		.long	0x3918
 7433 3938 14       		.uleb128 0x14
 7434 3939 01       		.byte	0x1
 7435 393a 320D0000 		.long	0xd32
 7436 393e 52390000 		.long	0x3952
 7437 3942 15       		.uleb128 0x15
 7438 3943 4A2C0000 		.long	0x2c4a
 7439 3947 15       		.uleb128 0x15
 7440 3948 580D0000 		.long	0xd58
 7441 394c 15       		.uleb128 0x15
 7442 394d 322B0000 		.long	0x2b32
 7443 3951 00       		.byte	0x0
 7444 3952 0F       		.uleb128 0xf
 7445 3953 04       		.byte	0x4
 7446 3954 38390000 		.long	0x3938
 7447 3958 1C       		.uleb128 0x1c
 7448 3959 01       		.byte	0x1
 7449 395a 73390000 		.long	0x3973
 7450 395e 15       		.uleb128 0x15
 7451 395f 4A2C0000 		.long	0x2c4a
 7452 3963 15       		.uleb128 0x15
 7453 3964 580D0000 		.long	0xd58
 7454 3968 15       		.uleb128 0x15
 7455 3969 322B0000 		.long	0x2b32
 7456 396d 15       		.uleb128 0x15
 7457 396e 580D0000 		.long	0xd58
 7458 3972 00       		.byte	0x0
 7459 3973 0F       		.uleb128 0xf
 7460 3974 04       		.byte	0x4
 7461 3975 58390000 		.long	0x3958
 7462 3979 1C       		.uleb128 0x1c
 7463 397a 01       		.byte	0x1
 7464 397b 94390000 		.long	0x3994
 7465 397f 15       		.uleb128 0x15
 7466 3980 4A2C0000 		.long	0x2c4a
GAS LISTING /cygdrive/c/Users/THESCI~1/AppData/Local/Temp/ccu2GGTU.s 			page 170


 7467 3984 15       		.uleb128 0x15
 7468 3985 580D0000 		.long	0xd58
 7469 3989 15       		.uleb128 0x15
 7470 398a 322B0000 		.long	0x2b32
 7471 398e 15       		.uleb128 0x15
 7472 398f FE0C0000 		.long	0xcfe
 7473 3993 00       		.byte	0x0
 7474 3994 0F       		.uleb128 0xf
 7475 3995 04       		.byte	0x4
 7476 3996 79390000 		.long	0x3979
 7477 399a 1C       		.uleb128 0x1c
 7478 399b 01       		.byte	0x1
 7479 399c B5390000 		.long	0x39b5
 7480 39a0 15       		.uleb128 0x15
 7481 39a1 4A2C0000 		.long	0x2c4a
 7482 39a5 15       		.uleb128 0x15
 7483 39a6 580D0000 		.long	0xd58
 7484 39aa 15       		.uleb128 0x15
 7485 39ab 322B0000 		.long	0x2b32
 7486 39af 15       		.uleb128 0x15
 7487 39b0 CA0C0000 		.long	0xcca
 7488 39b4 00       		.byte	0x0
 7489 39b5 0F       		.uleb128 0xf
 7490 39b6 04       		.byte	0x4
 7491 39b7 9A390000 		.long	0x399a
 7492 39bb 1C       		.uleb128 0x1c
 7493 39bc 01       		.byte	0x1
 7494 39bd D6390000 		.long	0x39d6
 7495 39c1 15       		.uleb128 0x15
 7496 39c2 4A2C0000 		.long	0x2c4a
 7497 39c6 15       		.uleb128 0x15
 7498 39c7 580D0000 		.long	0xd58
 7499 39cb 15       		.uleb128 0x15
 7500 39cc 322B0000 		.long	0x2b32
 7501 39d0 15       		.uleb128 0x15
 7502 39d1 0E0D0000 		.long	0xd0e
 7503 39d5 00       		.byte	0x0
 7504 39d6 0F       		.uleb128 0xf
 7505 39d7 04       		.byte	0x4
 7506 39d8 BB390000 		.long	0x39bb
 7507 39dc 1C       		.uleb128 0x1c
 7508 39dd 01       		.byte	0x1
 7509 39de F7390000 		.long	0x39f7
 7510 39e2 15       		.uleb128 0x15
 7511 39e3 4A2C0000 		.long	0x2c4a
 7512 39e7 15       		.uleb128 0x15
 7513 39e8 580D0000 		.long	0xd58
 7514 39ec 15       		.uleb128 0x15
 7515 39ed 322B0000 		.long	0x2b32
 7516 39f1 15       		.uleb128 0x15
 7517 39f2 D70C0000 		.long	0xcd7
 7518 39f6 00       		.byte	0x0
 7519 39f7 0F       		.uleb128 0xf
 7520 39f8 04       		.byte	0x4
 7521 39f9 DC390000 		.long	0x39dc
 7522 39fd 1C       		.uleb128 0x1c
 7523 39fe 01       		.byte	0x1
GAS LISTING /cygdrive/c/Users/THESCI~1/AppData/Local/Temp/ccu2GGTU.s 			page 171


 7524 39ff 183A0000 		.long	0x3a18
 7525 3a03 15       		.uleb128 0x15
 7526 3a04 4A2C0000 		.long	0x2c4a
 7527 3a08 15       		.uleb128 0x15
 7528 3a09 580D0000 		.long	0xd58
 7529 3a0d 15       		.uleb128 0x15
 7530 3a0e 322B0000 		.long	0x2b32
 7531 3a12 15       		.uleb128 0x15
 7532 3a13 E50C0000 		.long	0xce5
 7533 3a17 00       		.byte	0x0
 7534 3a18 0F       		.uleb128 0xf
 7535 3a19 04       		.byte	0x4
 7536 3a1a FD390000 		.long	0x39fd
 7537 3a1e 1C       		.uleb128 0x1c
 7538 3a1f 01       		.byte	0x1
 7539 3a20 393A0000 		.long	0x3a39
 7540 3a24 15       		.uleb128 0x15
 7541 3a25 4A2C0000 		.long	0x2c4a
 7542 3a29 15       		.uleb128 0x15
 7543 3a2a 580D0000 		.long	0xd58
 7544 3a2e 15       		.uleb128 0x15
 7545 3a2f 322B0000 		.long	0x2b32
 7546 3a33 15       		.uleb128 0x15
 7547 3a34 F10C0000 		.long	0xcf1
 7548 3a38 00       		.byte	0x0
 7549 3a39 0F       		.uleb128 0xf
 7550 3a3a 04       		.byte	0x4
 7551 3a3b 1E3A0000 		.long	0x3a1e
 7552 3a3f 1C       		.uleb128 0x1c
 7553 3a40 01       		.byte	0x1
 7554 3a41 5A3A0000 		.long	0x3a5a
 7555 3a45 15       		.uleb128 0x15
 7556 3a46 4A2C0000 		.long	0x2c4a
 7557 3a4a 15       		.uleb128 0x15
 7558 3a4b 580D0000 		.long	0xd58
 7559 3a4f 15       		.uleb128 0x15
 7560 3a50 322B0000 		.long	0x2b32
 7561 3a54 15       		.uleb128 0x15
 7562 3a55 1B0D0000 		.long	0xd1b
 7563 3a59 00       		.byte	0x0
 7564 3a5a 0F       		.uleb128 0xf
 7565 3a5b 04       		.byte	0x4
 7566 3a5c 3F3A0000 		.long	0x3a3f
 7567 3a60 1C       		.uleb128 0x1c
 7568 3a61 01       		.byte	0x1
 7569 3a62 7B3A0000 		.long	0x3a7b
 7570 3a66 15       		.uleb128 0x15
 7571 3a67 4A2C0000 		.long	0x2c4a
 7572 3a6b 15       		.uleb128 0x15
 7573 3a6c 580D0000 		.long	0xd58
 7574 3a70 15       		.uleb128 0x15
 7575 3a71 322B0000 		.long	0x2b32
 7576 3a75 15       		.uleb128 0x15
 7577 3a76 320D0000 		.long	0xd32
 7578 3a7a 00       		.byte	0x0
 7579 3a7b 0F       		.uleb128 0xf
 7580 3a7c 04       		.byte	0x4
GAS LISTING /cygdrive/c/Users/THESCI~1/AppData/Local/Temp/ccu2GGTU.s 			page 172


 7581 3a7d 603A0000 		.long	0x3a60
 7582 3a81 14       		.uleb128 0x14
 7583 3a82 01       		.byte	0x1
 7584 3a83 FE0C0000 		.long	0xcfe
 7585 3a87 9C3A0000 		.long	0x3a9c
 7586 3a8b 15       		.uleb128 0x15
 7587 3a8c 4A2C0000 		.long	0x2c4a
 7588 3a90 15       		.uleb128 0x15
 7589 3a91 670D0000 		.long	0xd67
 7590 3a95 15       		.uleb128 0x15
 7591 3a96 542B0000 		.long	0x2b54
 7592 3a9a 22       		.uleb128 0x22
 7593 3a9b 00       		.byte	0x0
 7594 3a9c 0F       		.uleb128 0xf
 7595 3a9d 04       		.byte	0x4
 7596 3a9e 813A0000 		.long	0x3a81
 7597 3aa2 14       		.uleb128 0x14
 7598 3aa3 01       		.byte	0x1
 7599 3aa4 FE0C0000 		.long	0xcfe
 7600 3aa8 C13A0000 		.long	0x3ac1
 7601 3aac 15       		.uleb128 0x15
 7602 3aad 4A2C0000 		.long	0x2c4a
 7603 3ab1 15       		.uleb128 0x15
 7604 3ab2 670D0000 		.long	0xd67
 7605 3ab6 15       		.uleb128 0x15
 7606 3ab7 542B0000 		.long	0x2b54
 7607 3abb 15       		.uleb128 0x15
 7608 3abc BB0C0000 		.long	0xcbb
 7609 3ac0 00       		.byte	0x0
 7610 3ac1 0F       		.uleb128 0xf
 7611 3ac2 04       		.byte	0x4
 7612 3ac3 A23A0000 		.long	0x3aa2
 7613 3ac7 14       		.uleb128 0x14
 7614 3ac8 01       		.byte	0x1
 7615 3ac9 FE0C0000 		.long	0xcfe
 7616 3acd E63A0000 		.long	0x3ae6
 7617 3ad1 15       		.uleb128 0x15
 7618 3ad2 4A2C0000 		.long	0x2c4a
 7619 3ad6 15       		.uleb128 0x15
 7620 3ad7 670D0000 		.long	0xd67
 7621 3adb 15       		.uleb128 0x15
 7622 3adc 542B0000 		.long	0x2b54
 7623 3ae0 15       		.uleb128 0x15
 7624 3ae1 C82E0000 		.long	0x2ec8
 7625 3ae5 00       		.byte	0x0
 7626 3ae6 0F       		.uleb128 0xf
 7627 3ae7 04       		.byte	0x4
 7628 3ae8 C73A0000 		.long	0x3ac7
 7629 3aec 14       		.uleb128 0x14
 7630 3aed 01       		.byte	0x1
 7631 3aee CA0C0000 		.long	0xcca
 7632 3af2 073B0000 		.long	0x3b07
 7633 3af6 15       		.uleb128 0x15
 7634 3af7 4A2C0000 		.long	0x2c4a
 7635 3afb 15       		.uleb128 0x15
 7636 3afc 670D0000 		.long	0xd67
 7637 3b00 15       		.uleb128 0x15
GAS LISTING /cygdrive/c/Users/THESCI~1/AppData/Local/Temp/ccu2GGTU.s 			page 173


 7638 3b01 542B0000 		.long	0x2b54
 7639 3b05 22       		.uleb128 0x22
 7640 3b06 00       		.byte	0x0
 7641 3b07 0F       		.uleb128 0xf
 7642 3b08 04       		.byte	0x4
 7643 3b09 EC3A0000 		.long	0x3aec
 7644 3b0d 14       		.uleb128 0x14
 7645 3b0e 01       		.byte	0x1
 7646 3b0f CA0C0000 		.long	0xcca
 7647 3b13 2C3B0000 		.long	0x3b2c
 7648 3b17 15       		.uleb128 0x15
 7649 3b18 4A2C0000 		.long	0x2c4a
 7650 3b1c 15       		.uleb128 0x15
 7651 3b1d 670D0000 		.long	0xd67
 7652 3b21 15       		.uleb128 0x15
 7653 3b22 542B0000 		.long	0x2b54
 7654 3b26 15       		.uleb128 0x15
 7655 3b27 BB0C0000 		.long	0xcbb
 7656 3b2b 00       		.byte	0x0
 7657 3b2c 0F       		.uleb128 0xf
 7658 3b2d 04       		.byte	0x4
 7659 3b2e 0D3B0000 		.long	0x3b0d
 7660 3b32 14       		.uleb128 0x14
 7661 3b33 01       		.byte	0x1
 7662 3b34 CA0C0000 		.long	0xcca
 7663 3b38 513B0000 		.long	0x3b51
 7664 3b3c 15       		.uleb128 0x15
 7665 3b3d 4A2C0000 		.long	0x2c4a
 7666 3b41 15       		.uleb128 0x15
 7667 3b42 670D0000 		.long	0xd67
 7668 3b46 15       		.uleb128 0x15
 7669 3b47 542B0000 		.long	0x2b54
 7670 3b4b 15       		.uleb128 0x15
 7671 3b4c C82E0000 		.long	0x2ec8
 7672 3b50 00       		.byte	0x0
 7673 3b51 0F       		.uleb128 0xf
 7674 3b52 04       		.byte	0x4
 7675 3b53 323B0000 		.long	0x3b32
 7676 3b57 14       		.uleb128 0x14
 7677 3b58 01       		.byte	0x1
 7678 3b59 0E0D0000 		.long	0xd0e
 7679 3b5d 723B0000 		.long	0x3b72
 7680 3b61 15       		.uleb128 0x15
 7681 3b62 4A2C0000 		.long	0x2c4a
 7682 3b66 15       		.uleb128 0x15
 7683 3b67 670D0000 		.long	0xd67
 7684 3b6b 15       		.uleb128 0x15
 7685 3b6c 542B0000 		.long	0x2b54
 7686 3b70 22       		.uleb128 0x22
 7687 3b71 00       		.byte	0x0
 7688 3b72 0F       		.uleb128 0xf
 7689 3b73 04       		.byte	0x4
 7690 3b74 573B0000 		.long	0x3b57
 7691 3b78 14       		.uleb128 0x14
 7692 3b79 01       		.byte	0x1
 7693 3b7a 0E0D0000 		.long	0xd0e
 7694 3b7e 973B0000 		.long	0x3b97
GAS LISTING /cygdrive/c/Users/THESCI~1/AppData/Local/Temp/ccu2GGTU.s 			page 174


 7695 3b82 15       		.uleb128 0x15
 7696 3b83 4A2C0000 		.long	0x2c4a
 7697 3b87 15       		.uleb128 0x15
 7698 3b88 670D0000 		.long	0xd67
 7699 3b8c 15       		.uleb128 0x15
 7700 3b8d 542B0000 		.long	0x2b54
 7701 3b91 15       		.uleb128 0x15
 7702 3b92 BB0C0000 		.long	0xcbb
 7703 3b96 00       		.byte	0x0
 7704 3b97 0F       		.uleb128 0xf
 7705 3b98 04       		.byte	0x4
 7706 3b99 783B0000 		.long	0x3b78
 7707 3b9d 14       		.uleb128 0x14
 7708 3b9e 01       		.byte	0x1
 7709 3b9f 0E0D0000 		.long	0xd0e
 7710 3ba3 BC3B0000 		.long	0x3bbc
 7711 3ba7 15       		.uleb128 0x15
 7712 3ba8 4A2C0000 		.long	0x2c4a
 7713 3bac 15       		.uleb128 0x15
 7714 3bad 670D0000 		.long	0xd67
 7715 3bb1 15       		.uleb128 0x15
 7716 3bb2 542B0000 		.long	0x2b54
 7717 3bb6 15       		.uleb128 0x15
 7718 3bb7 C82E0000 		.long	0x2ec8
 7719 3bbb 00       		.byte	0x0
 7720 3bbc 0F       		.uleb128 0xf
 7721 3bbd 04       		.byte	0x4
 7722 3bbe 9D3B0000 		.long	0x3b9d
 7723 3bc2 14       		.uleb128 0x14
 7724 3bc3 01       		.byte	0x1
 7725 3bc4 D70C0000 		.long	0xcd7
 7726 3bc8 DD3B0000 		.long	0x3bdd
 7727 3bcc 15       		.uleb128 0x15
 7728 3bcd 4A2C0000 		.long	0x2c4a
 7729 3bd1 15       		.uleb128 0x15
 7730 3bd2 670D0000 		.long	0xd67
 7731 3bd6 15       		.uleb128 0x15
 7732 3bd7 542B0000 		.long	0x2b54
 7733 3bdb 22       		.uleb128 0x22
 7734 3bdc 00       		.byte	0x0
 7735 3bdd 0F       		.uleb128 0xf
 7736 3bde 04       		.byte	0x4
 7737 3bdf C23B0000 		.long	0x3bc2
 7738 3be3 14       		.uleb128 0x14
 7739 3be4 01       		.byte	0x1
 7740 3be5 D70C0000 		.long	0xcd7
 7741 3be9 023C0000 		.long	0x3c02
 7742 3bed 15       		.uleb128 0x15
 7743 3bee 4A2C0000 		.long	0x2c4a
 7744 3bf2 15       		.uleb128 0x15
 7745 3bf3 670D0000 		.long	0xd67
 7746 3bf7 15       		.uleb128 0x15
 7747 3bf8 542B0000 		.long	0x2b54
 7748 3bfc 15       		.uleb128 0x15
 7749 3bfd BB0C0000 		.long	0xcbb
 7750 3c01 00       		.byte	0x0
 7751 3c02 0F       		.uleb128 0xf
GAS LISTING /cygdrive/c/Users/THESCI~1/AppData/Local/Temp/ccu2GGTU.s 			page 175


 7752 3c03 04       		.byte	0x4
 7753 3c04 E33B0000 		.long	0x3be3
 7754 3c08 14       		.uleb128 0x14
 7755 3c09 01       		.byte	0x1
 7756 3c0a D70C0000 		.long	0xcd7
 7757 3c0e 273C0000 		.long	0x3c27
 7758 3c12 15       		.uleb128 0x15
 7759 3c13 4A2C0000 		.long	0x2c4a
 7760 3c17 15       		.uleb128 0x15
 7761 3c18 670D0000 		.long	0xd67
 7762 3c1c 15       		.uleb128 0x15
 7763 3c1d 542B0000 		.long	0x2b54
 7764 3c21 15       		.uleb128 0x15
 7765 3c22 C82E0000 		.long	0x2ec8
 7766 3c26 00       		.byte	0x0
 7767 3c27 0F       		.uleb128 0xf
 7768 3c28 04       		.byte	0x4
 7769 3c29 083C0000 		.long	0x3c08
 7770 3c2d 14       		.uleb128 0x14
 7771 3c2e 01       		.byte	0x1
 7772 3c2f E50C0000 		.long	0xce5
 7773 3c33 483C0000 		.long	0x3c48
 7774 3c37 15       		.uleb128 0x15
 7775 3c38 4A2C0000 		.long	0x2c4a
 7776 3c3c 15       		.uleb128 0x15
 7777 3c3d 670D0000 		.long	0xd67
 7778 3c41 15       		.uleb128 0x15
 7779 3c42 542B0000 		.long	0x2b54
 7780 3c46 22       		.uleb128 0x22
 7781 3c47 00       		.byte	0x0
 7782 3c48 0F       		.uleb128 0xf
 7783 3c49 04       		.byte	0x4
 7784 3c4a 2D3C0000 		.long	0x3c2d
 7785 3c4e 14       		.uleb128 0x14
 7786 3c4f 01       		.byte	0x1
 7787 3c50 E50C0000 		.long	0xce5
 7788 3c54 6D3C0000 		.long	0x3c6d
 7789 3c58 15       		.uleb128 0x15
 7790 3c59 4A2C0000 		.long	0x2c4a
 7791 3c5d 15       		.uleb128 0x15
 7792 3c5e 670D0000 		.long	0xd67
 7793 3c62 15       		.uleb128 0x15
 7794 3c63 542B0000 		.long	0x2b54
 7795 3c67 15       		.uleb128 0x15
 7796 3c68 BB0C0000 		.long	0xcbb
 7797 3c6c 00       		.byte	0x0
 7798 3c6d 0F       		.uleb128 0xf
 7799 3c6e 04       		.byte	0x4
 7800 3c6f 4E3C0000 		.long	0x3c4e
 7801 3c73 14       		.uleb128 0x14
 7802 3c74 01       		.byte	0x1
 7803 3c75 E50C0000 		.long	0xce5
 7804 3c79 923C0000 		.long	0x3c92
 7805 3c7d 15       		.uleb128 0x15
 7806 3c7e 4A2C0000 		.long	0x2c4a
 7807 3c82 15       		.uleb128 0x15
 7808 3c83 670D0000 		.long	0xd67
GAS LISTING /cygdrive/c/Users/THESCI~1/AppData/Local/Temp/ccu2GGTU.s 			page 176


 7809 3c87 15       		.uleb128 0x15
 7810 3c88 542B0000 		.long	0x2b54
 7811 3c8c 15       		.uleb128 0x15
 7812 3c8d C82E0000 		.long	0x2ec8
 7813 3c91 00       		.byte	0x0
 7814 3c92 0F       		.uleb128 0xf
 7815 3c93 04       		.byte	0x4
 7816 3c94 733C0000 		.long	0x3c73
 7817 3c98 14       		.uleb128 0x14
 7818 3c99 01       		.byte	0x1
 7819 3c9a F10C0000 		.long	0xcf1
 7820 3c9e B33C0000 		.long	0x3cb3
 7821 3ca2 15       		.uleb128 0x15
 7822 3ca3 4A2C0000 		.long	0x2c4a
 7823 3ca7 15       		.uleb128 0x15
 7824 3ca8 670D0000 		.long	0xd67
 7825 3cac 15       		.uleb128 0x15
 7826 3cad 542B0000 		.long	0x2b54
 7827 3cb1 22       		.uleb128 0x22
 7828 3cb2 00       		.byte	0x0
 7829 3cb3 0F       		.uleb128 0xf
 7830 3cb4 04       		.byte	0x4
 7831 3cb5 983C0000 		.long	0x3c98
 7832 3cb9 14       		.uleb128 0x14
 7833 3cba 01       		.byte	0x1
 7834 3cbb F10C0000 		.long	0xcf1
 7835 3cbf D83C0000 		.long	0x3cd8
 7836 3cc3 15       		.uleb128 0x15
 7837 3cc4 4A2C0000 		.long	0x2c4a
 7838 3cc8 15       		.uleb128 0x15
 7839 3cc9 670D0000 		.long	0xd67
 7840 3ccd 15       		.uleb128 0x15
 7841 3cce 542B0000 		.long	0x2b54
 7842 3cd2 15       		.uleb128 0x15
 7843 3cd3 BB0C0000 		.long	0xcbb
 7844 3cd7 00       		.byte	0x0
 7845 3cd8 0F       		.uleb128 0xf
 7846 3cd9 04       		.byte	0x4
 7847 3cda B93C0000 		.long	0x3cb9
 7848 3cde 14       		.uleb128 0x14
 7849 3cdf 01       		.byte	0x1
 7850 3ce0 F10C0000 		.long	0xcf1
 7851 3ce4 FD3C0000 		.long	0x3cfd
 7852 3ce8 15       		.uleb128 0x15
 7853 3ce9 4A2C0000 		.long	0x2c4a
 7854 3ced 15       		.uleb128 0x15
 7855 3cee 670D0000 		.long	0xd67
 7856 3cf2 15       		.uleb128 0x15
 7857 3cf3 542B0000 		.long	0x2b54
 7858 3cf7 15       		.uleb128 0x15
 7859 3cf8 C82E0000 		.long	0x2ec8
 7860 3cfc 00       		.byte	0x0
 7861 3cfd 0F       		.uleb128 0xf
 7862 3cfe 04       		.byte	0x4
 7863 3cff DE3C0000 		.long	0x3cde
 7864 3d03 14       		.uleb128 0x14
 7865 3d04 01       		.byte	0x1
GAS LISTING /cygdrive/c/Users/THESCI~1/AppData/Local/Temp/ccu2GGTU.s 			page 177


 7866 3d05 1B0D0000 		.long	0xd1b
 7867 3d09 1E3D0000 		.long	0x3d1e
 7868 3d0d 15       		.uleb128 0x15
 7869 3d0e 4A2C0000 		.long	0x2c4a
 7870 3d12 15       		.uleb128 0x15
 7871 3d13 670D0000 		.long	0xd67
 7872 3d17 15       		.uleb128 0x15
 7873 3d18 542B0000 		.long	0x2b54
 7874 3d1c 22       		.uleb128 0x22
 7875 3d1d 00       		.byte	0x0
 7876 3d1e 0F       		.uleb128 0xf
 7877 3d1f 04       		.byte	0x4
 7878 3d20 033D0000 		.long	0x3d03
 7879 3d24 14       		.uleb128 0x14
 7880 3d25 01       		.byte	0x1
 7881 3d26 1B0D0000 		.long	0xd1b
 7882 3d2a 433D0000 		.long	0x3d43
 7883 3d2e 15       		.uleb128 0x15
 7884 3d2f 4A2C0000 		.long	0x2c4a
 7885 3d33 15       		.uleb128 0x15
 7886 3d34 670D0000 		.long	0xd67
 7887 3d38 15       		.uleb128 0x15
 7888 3d39 542B0000 		.long	0x2b54
 7889 3d3d 15       		.uleb128 0x15
 7890 3d3e BB0C0000 		.long	0xcbb
 7891 3d42 00       		.byte	0x0
 7892 3d43 0F       		.uleb128 0xf
 7893 3d44 04       		.byte	0x4
 7894 3d45 243D0000 		.long	0x3d24
 7895 3d49 14       		.uleb128 0x14
 7896 3d4a 01       		.byte	0x1
 7897 3d4b 1B0D0000 		.long	0xd1b
 7898 3d4f 683D0000 		.long	0x3d68
 7899 3d53 15       		.uleb128 0x15
 7900 3d54 4A2C0000 		.long	0x2c4a
 7901 3d58 15       		.uleb128 0x15
 7902 3d59 670D0000 		.long	0xd67
 7903 3d5d 15       		.uleb128 0x15
 7904 3d5e 542B0000 		.long	0x2b54
 7905 3d62 15       		.uleb128 0x15
 7906 3d63 C82E0000 		.long	0x2ec8
 7907 3d67 00       		.byte	0x0
 7908 3d68 0F       		.uleb128 0xf
 7909 3d69 04       		.byte	0x4
 7910 3d6a 493D0000 		.long	0x3d49
 7911 3d6e 14       		.uleb128 0x14
 7912 3d6f 01       		.byte	0x1
 7913 3d70 320D0000 		.long	0xd32
 7914 3d74 893D0000 		.long	0x3d89
 7915 3d78 15       		.uleb128 0x15
 7916 3d79 4A2C0000 		.long	0x2c4a
 7917 3d7d 15       		.uleb128 0x15
 7918 3d7e 670D0000 		.long	0xd67
 7919 3d82 15       		.uleb128 0x15
 7920 3d83 542B0000 		.long	0x2b54
 7921 3d87 22       		.uleb128 0x22
 7922 3d88 00       		.byte	0x0
GAS LISTING /cygdrive/c/Users/THESCI~1/AppData/Local/Temp/ccu2GGTU.s 			page 178


 7923 3d89 0F       		.uleb128 0xf
 7924 3d8a 04       		.byte	0x4
 7925 3d8b 6E3D0000 		.long	0x3d6e
 7926 3d8f 14       		.uleb128 0x14
 7927 3d90 01       		.byte	0x1
 7928 3d91 320D0000 		.long	0xd32
 7929 3d95 AE3D0000 		.long	0x3dae
 7930 3d99 15       		.uleb128 0x15
 7931 3d9a 4A2C0000 		.long	0x2c4a
 7932 3d9e 15       		.uleb128 0x15
 7933 3d9f 670D0000 		.long	0xd67
 7934 3da3 15       		.uleb128 0x15
 7935 3da4 542B0000 		.long	0x2b54
 7936 3da8 15       		.uleb128 0x15
 7937 3da9 BB0C0000 		.long	0xcbb
 7938 3dad 00       		.byte	0x0
 7939 3dae 0F       		.uleb128 0xf
 7940 3daf 04       		.byte	0x4
 7941 3db0 8F3D0000 		.long	0x3d8f
 7942 3db4 14       		.uleb128 0x14
 7943 3db5 01       		.byte	0x1
 7944 3db6 320D0000 		.long	0xd32
 7945 3dba D33D0000 		.long	0x3dd3
 7946 3dbe 15       		.uleb128 0x15
 7947 3dbf 4A2C0000 		.long	0x2c4a
 7948 3dc3 15       		.uleb128 0x15
 7949 3dc4 670D0000 		.long	0xd67
 7950 3dc8 15       		.uleb128 0x15
 7951 3dc9 542B0000 		.long	0x2b54
 7952 3dcd 15       		.uleb128 0x15
 7953 3dce C82E0000 		.long	0x2ec8
 7954 3dd2 00       		.byte	0x0
 7955 3dd3 0F       		.uleb128 0xf
 7956 3dd4 04       		.byte	0x4
 7957 3dd5 B43D0000 		.long	0x3db4
 7958 3dd9 1C       		.uleb128 0x1c
 7959 3dda 01       		.byte	0x1
 7960 3ddb F03D0000 		.long	0x3df0
 7961 3ddf 15       		.uleb128 0x15
 7962 3de0 4A2C0000 		.long	0x2c4a
 7963 3de4 15       		.uleb128 0x15
 7964 3de5 670D0000 		.long	0xd67
 7965 3de9 15       		.uleb128 0x15
 7966 3dea 542B0000 		.long	0x2b54
 7967 3dee 22       		.uleb128 0x22
 7968 3def 00       		.byte	0x0
 7969 3df0 0F       		.uleb128 0xf
 7970 3df1 04       		.byte	0x4
 7971 3df2 D93D0000 		.long	0x3dd9
 7972 3df6 1C       		.uleb128 0x1c
 7973 3df7 01       		.byte	0x1
 7974 3df8 113E0000 		.long	0x3e11
 7975 3dfc 15       		.uleb128 0x15
 7976 3dfd 4A2C0000 		.long	0x2c4a
 7977 3e01 15       		.uleb128 0x15
 7978 3e02 670D0000 		.long	0xd67
 7979 3e06 15       		.uleb128 0x15
GAS LISTING /cygdrive/c/Users/THESCI~1/AppData/Local/Temp/ccu2GGTU.s 			page 179


 7980 3e07 542B0000 		.long	0x2b54
 7981 3e0b 15       		.uleb128 0x15
 7982 3e0c BB0C0000 		.long	0xcbb
 7983 3e10 00       		.byte	0x0
 7984 3e11 0F       		.uleb128 0xf
 7985 3e12 04       		.byte	0x4
 7986 3e13 F63D0000 		.long	0x3df6
 7987 3e17 1C       		.uleb128 0x1c
 7988 3e18 01       		.byte	0x1
 7989 3e19 323E0000 		.long	0x3e32
 7990 3e1d 15       		.uleb128 0x15
 7991 3e1e 4A2C0000 		.long	0x2c4a
 7992 3e22 15       		.uleb128 0x15
 7993 3e23 670D0000 		.long	0xd67
 7994 3e27 15       		.uleb128 0x15
 7995 3e28 542B0000 		.long	0x2b54
 7996 3e2c 15       		.uleb128 0x15
 7997 3e2d C82E0000 		.long	0x2ec8
 7998 3e31 00       		.byte	0x0
 7999 3e32 0F       		.uleb128 0xf
 8000 3e33 04       		.byte	0x4
 8001 3e34 173E0000 		.long	0x3e17
 8002 3e38 14       		.uleb128 0x14
 8003 3e39 01       		.byte	0x1
 8004 3e3a 580D0000 		.long	0xd58
 8005 3e3e 523E0000 		.long	0x3e52
 8006 3e42 15       		.uleb128 0x15
 8007 3e43 4A2C0000 		.long	0x2c4a
 8008 3e47 15       		.uleb128 0x15
 8009 3e48 670D0000 		.long	0xd67
 8010 3e4c 15       		.uleb128 0x15
 8011 3e4d 322B0000 		.long	0x2b32
 8012 3e51 00       		.byte	0x0
 8013 3e52 0F       		.uleb128 0xf
 8014 3e53 04       		.byte	0x4
 8015 3e54 383E0000 		.long	0x3e38
 8016 3e58 14       		.uleb128 0x14
 8017 3e59 01       		.byte	0x1
 8018 3e5a FE0C0000 		.long	0xcfe
 8019 3e5e 723E0000 		.long	0x3e72
 8020 3e62 15       		.uleb128 0x15
 8021 3e63 4A2C0000 		.long	0x2c4a
 8022 3e67 15       		.uleb128 0x15
 8023 3e68 670D0000 		.long	0xd67
 8024 3e6c 15       		.uleb128 0x15
 8025 3e6d 322B0000 		.long	0x2b32
 8026 3e71 00       		.byte	0x0
 8027 3e72 0F       		.uleb128 0xf
 8028 3e73 04       		.byte	0x4
 8029 3e74 583E0000 		.long	0x3e58
 8030 3e78 14       		.uleb128 0x14
 8031 3e79 01       		.byte	0x1
 8032 3e7a CA0C0000 		.long	0xcca
 8033 3e7e 923E0000 		.long	0x3e92
 8034 3e82 15       		.uleb128 0x15
 8035 3e83 4A2C0000 		.long	0x2c4a
 8036 3e87 15       		.uleb128 0x15
GAS LISTING /cygdrive/c/Users/THESCI~1/AppData/Local/Temp/ccu2GGTU.s 			page 180


 8037 3e88 670D0000 		.long	0xd67
 8038 3e8c 15       		.uleb128 0x15
 8039 3e8d 322B0000 		.long	0x2b32
 8040 3e91 00       		.byte	0x0
 8041 3e92 0F       		.uleb128 0xf
 8042 3e93 04       		.byte	0x4
 8043 3e94 783E0000 		.long	0x3e78
 8044 3e98 14       		.uleb128 0x14
 8045 3e99 01       		.byte	0x1
 8046 3e9a 0E0D0000 		.long	0xd0e
 8047 3e9e B23E0000 		.long	0x3eb2
 8048 3ea2 15       		.uleb128 0x15
 8049 3ea3 4A2C0000 		.long	0x2c4a
 8050 3ea7 15       		.uleb128 0x15
 8051 3ea8 670D0000 		.long	0xd67
 8052 3eac 15       		.uleb128 0x15
 8053 3ead 322B0000 		.long	0x2b32
 8054 3eb1 00       		.byte	0x0
 8055 3eb2 0F       		.uleb128 0xf
 8056 3eb3 04       		.byte	0x4
 8057 3eb4 983E0000 		.long	0x3e98
 8058 3eb8 14       		.uleb128 0x14
 8059 3eb9 01       		.byte	0x1
 8060 3eba D70C0000 		.long	0xcd7
 8061 3ebe D23E0000 		.long	0x3ed2
 8062 3ec2 15       		.uleb128 0x15
 8063 3ec3 4A2C0000 		.long	0x2c4a
 8064 3ec7 15       		.uleb128 0x15
 8065 3ec8 670D0000 		.long	0xd67
 8066 3ecc 15       		.uleb128 0x15
 8067 3ecd 322B0000 		.long	0x2b32
 8068 3ed1 00       		.byte	0x0
 8069 3ed2 0F       		.uleb128 0xf
 8070 3ed3 04       		.byte	0x4
 8071 3ed4 B83E0000 		.long	0x3eb8
 8072 3ed8 14       		.uleb128 0x14
 8073 3ed9 01       		.byte	0x1
 8074 3eda E50C0000 		.long	0xce5
 8075 3ede F23E0000 		.long	0x3ef2
 8076 3ee2 15       		.uleb128 0x15
 8077 3ee3 4A2C0000 		.long	0x2c4a
 8078 3ee7 15       		.uleb128 0x15
 8079 3ee8 670D0000 		.long	0xd67
 8080 3eec 15       		.uleb128 0x15
 8081 3eed 322B0000 		.long	0x2b32
 8082 3ef1 00       		.byte	0x0
 8083 3ef2 0F       		.uleb128 0xf
 8084 3ef3 04       		.byte	0x4
 8085 3ef4 D83E0000 		.long	0x3ed8
 8086 3ef8 14       		.uleb128 0x14
 8087 3ef9 01       		.byte	0x1
 8088 3efa F10C0000 		.long	0xcf1
 8089 3efe 123F0000 		.long	0x3f12
 8090 3f02 15       		.uleb128 0x15
 8091 3f03 4A2C0000 		.long	0x2c4a
 8092 3f07 15       		.uleb128 0x15
 8093 3f08 670D0000 		.long	0xd67
GAS LISTING /cygdrive/c/Users/THESCI~1/AppData/Local/Temp/ccu2GGTU.s 			page 181


 8094 3f0c 15       		.uleb128 0x15
 8095 3f0d 322B0000 		.long	0x2b32
 8096 3f11 00       		.byte	0x0
 8097 3f12 0F       		.uleb128 0xf
 8098 3f13 04       		.byte	0x4
 8099 3f14 F83E0000 		.long	0x3ef8
 8100 3f18 14       		.uleb128 0x14
 8101 3f19 01       		.byte	0x1
 8102 3f1a 1B0D0000 		.long	0xd1b
 8103 3f1e 323F0000 		.long	0x3f32
 8104 3f22 15       		.uleb128 0x15
 8105 3f23 4A2C0000 		.long	0x2c4a
 8106 3f27 15       		.uleb128 0x15
 8107 3f28 670D0000 		.long	0xd67
 8108 3f2c 15       		.uleb128 0x15
 8109 3f2d 322B0000 		.long	0x2b32
 8110 3f31 00       		.byte	0x0
 8111 3f32 0F       		.uleb128 0xf
 8112 3f33 04       		.byte	0x4
 8113 3f34 183F0000 		.long	0x3f18
 8114 3f38 14       		.uleb128 0x14
 8115 3f39 01       		.byte	0x1
 8116 3f3a 320D0000 		.long	0xd32
 8117 3f3e 523F0000 		.long	0x3f52
 8118 3f42 15       		.uleb128 0x15
 8119 3f43 4A2C0000 		.long	0x2c4a
 8120 3f47 15       		.uleb128 0x15
 8121 3f48 670D0000 		.long	0xd67
 8122 3f4c 15       		.uleb128 0x15
 8123 3f4d 322B0000 		.long	0x2b32
 8124 3f51 00       		.byte	0x0
 8125 3f52 0F       		.uleb128 0xf
 8126 3f53 04       		.byte	0x4
 8127 3f54 383F0000 		.long	0x3f38
 8128 3f58 1C       		.uleb128 0x1c
 8129 3f59 01       		.byte	0x1
 8130 3f5a 733F0000 		.long	0x3f73
 8131 3f5e 15       		.uleb128 0x15
 8132 3f5f 4A2C0000 		.long	0x2c4a
 8133 3f63 15       		.uleb128 0x15
 8134 3f64 670D0000 		.long	0xd67
 8135 3f68 15       		.uleb128 0x15
 8136 3f69 322B0000 		.long	0x2b32
 8137 3f6d 15       		.uleb128 0x15
 8138 3f6e 580D0000 		.long	0xd58
 8139 3f72 00       		.byte	0x0
 8140 3f73 0F       		.uleb128 0xf
 8141 3f74 04       		.byte	0x4
 8142 3f75 583F0000 		.long	0x3f58
 8143 3f79 1C       		.uleb128 0x1c
 8144 3f7a 01       		.byte	0x1
 8145 3f7b 943F0000 		.long	0x3f94
 8146 3f7f 15       		.uleb128 0x15
 8147 3f80 4A2C0000 		.long	0x2c4a
 8148 3f84 15       		.uleb128 0x15
 8149 3f85 670D0000 		.long	0xd67
 8150 3f89 15       		.uleb128 0x15
GAS LISTING /cygdrive/c/Users/THESCI~1/AppData/Local/Temp/ccu2GGTU.s 			page 182


 8151 3f8a 322B0000 		.long	0x2b32
 8152 3f8e 15       		.uleb128 0x15
 8153 3f8f FE0C0000 		.long	0xcfe
 8154 3f93 00       		.byte	0x0
 8155 3f94 0F       		.uleb128 0xf
 8156 3f95 04       		.byte	0x4
 8157 3f96 793F0000 		.long	0x3f79
 8158 3f9a 1C       		.uleb128 0x1c
 8159 3f9b 01       		.byte	0x1
 8160 3f9c B53F0000 		.long	0x3fb5
 8161 3fa0 15       		.uleb128 0x15
 8162 3fa1 4A2C0000 		.long	0x2c4a
 8163 3fa5 15       		.uleb128 0x15
 8164 3fa6 670D0000 		.long	0xd67
 8165 3faa 15       		.uleb128 0x15
 8166 3fab 322B0000 		.long	0x2b32
 8167 3faf 15       		.uleb128 0x15
 8168 3fb0 CA0C0000 		.long	0xcca
 8169 3fb4 00       		.byte	0x0
 8170 3fb5 0F       		.uleb128 0xf
 8171 3fb6 04       		.byte	0x4
 8172 3fb7 9A3F0000 		.long	0x3f9a
 8173 3fbb 1C       		.uleb128 0x1c
 8174 3fbc 01       		.byte	0x1
 8175 3fbd D63F0000 		.long	0x3fd6
 8176 3fc1 15       		.uleb128 0x15
 8177 3fc2 4A2C0000 		.long	0x2c4a
 8178 3fc6 15       		.uleb128 0x15
 8179 3fc7 670D0000 		.long	0xd67
 8180 3fcb 15       		.uleb128 0x15
 8181 3fcc 322B0000 		.long	0x2b32
 8182 3fd0 15       		.uleb128 0x15
 8183 3fd1 0E0D0000 		.long	0xd0e
 8184 3fd5 00       		.byte	0x0
 8185 3fd6 0F       		.uleb128 0xf
 8186 3fd7 04       		.byte	0x4
 8187 3fd8 BB3F0000 		.long	0x3fbb
 8188 3fdc 1C       		.uleb128 0x1c
 8189 3fdd 01       		.byte	0x1
 8190 3fde F73F0000 		.long	0x3ff7
 8191 3fe2 15       		.uleb128 0x15
 8192 3fe3 4A2C0000 		.long	0x2c4a
 8193 3fe7 15       		.uleb128 0x15
 8194 3fe8 670D0000 		.long	0xd67
 8195 3fec 15       		.uleb128 0x15
 8196 3fed 322B0000 		.long	0x2b32
 8197 3ff1 15       		.uleb128 0x15
 8198 3ff2 D70C0000 		.long	0xcd7
 8199 3ff6 00       		.byte	0x0
 8200 3ff7 0F       		.uleb128 0xf
 8201 3ff8 04       		.byte	0x4
 8202 3ff9 DC3F0000 		.long	0x3fdc
 8203 3ffd 1C       		.uleb128 0x1c
 8204 3ffe 01       		.byte	0x1
 8205 3fff 18400000 		.long	0x4018
 8206 4003 15       		.uleb128 0x15
 8207 4004 4A2C0000 		.long	0x2c4a
GAS LISTING /cygdrive/c/Users/THESCI~1/AppData/Local/Temp/ccu2GGTU.s 			page 183


 8208 4008 15       		.uleb128 0x15
 8209 4009 670D0000 		.long	0xd67
 8210 400d 15       		.uleb128 0x15
 8211 400e 322B0000 		.long	0x2b32
 8212 4012 15       		.uleb128 0x15
 8213 4013 E50C0000 		.long	0xce5
 8214 4017 00       		.byte	0x0
 8215 4018 0F       		.uleb128 0xf
 8216 4019 04       		.byte	0x4
 8217 401a FD3F0000 		.long	0x3ffd
 8218 401e 1C       		.uleb128 0x1c
 8219 401f 01       		.byte	0x1
 8220 4020 39400000 		.long	0x4039
 8221 4024 15       		.uleb128 0x15
 8222 4025 4A2C0000 		.long	0x2c4a
 8223 4029 15       		.uleb128 0x15
 8224 402a 670D0000 		.long	0xd67
 8225 402e 15       		.uleb128 0x15
 8226 402f 322B0000 		.long	0x2b32
 8227 4033 15       		.uleb128 0x15
 8228 4034 F10C0000 		.long	0xcf1
 8229 4038 00       		.byte	0x0
 8230 4039 0F       		.uleb128 0xf
 8231 403a 04       		.byte	0x4
 8232 403b 1E400000 		.long	0x401e
 8233 403f 1C       		.uleb128 0x1c
 8234 4040 01       		.byte	0x1
 8235 4041 5A400000 		.long	0x405a
 8236 4045 15       		.uleb128 0x15
 8237 4046 4A2C0000 		.long	0x2c4a
 8238 404a 15       		.uleb128 0x15
 8239 404b 670D0000 		.long	0xd67
 8240 404f 15       		.uleb128 0x15
 8241 4050 322B0000 		.long	0x2b32
 8242 4054 15       		.uleb128 0x15
 8243 4055 1B0D0000 		.long	0xd1b
 8244 4059 00       		.byte	0x0
 8245 405a 0F       		.uleb128 0xf
 8246 405b 04       		.byte	0x4
 8247 405c 3F400000 		.long	0x403f
 8248 4060 1C       		.uleb128 0x1c
 8249 4061 01       		.byte	0x1
 8250 4062 7B400000 		.long	0x407b
 8251 4066 15       		.uleb128 0x15
 8252 4067 4A2C0000 		.long	0x2c4a
 8253 406b 15       		.uleb128 0x15
 8254 406c 670D0000 		.long	0xd67
 8255 4070 15       		.uleb128 0x15
 8256 4071 322B0000 		.long	0x2b32
 8257 4075 15       		.uleb128 0x15
 8258 4076 320D0000 		.long	0xd32
 8259 407a 00       		.byte	0x0
 8260 407b 0F       		.uleb128 0xf
 8261 407c 04       		.byte	0x4
 8262 407d 60400000 		.long	0x4060
 8263 4081 14       		.uleb128 0x14
 8264 4082 01       		.byte	0x1
GAS LISTING /cygdrive/c/Users/THESCI~1/AppData/Local/Temp/ccu2GGTU.s 			page 184


 8265 4083 750D0000 		.long	0xd75
 8266 4087 9B400000 		.long	0x409b
 8267 408b 15       		.uleb128 0x15
 8268 408c 4A2C0000 		.long	0x2c4a
 8269 4090 15       		.uleb128 0x15
 8270 4091 9B400000 		.long	0x409b
 8271 4095 15       		.uleb128 0x15
 8272 4096 4B0D0000 		.long	0xd4b
 8273 409a 00       		.byte	0x0
 8274 409b 0F       		.uleb128 0xf
 8275 409c 04       		.byte	0x4
 8276 409d A1400000 		.long	0x40a1
 8277 40a1 17       		.uleb128 0x17
 8278 40a2 0E0D0000 		.long	0xd0e
 8279 40a6 0F       		.uleb128 0xf
 8280 40a7 04       		.byte	0x4
 8281 40a8 81400000 		.long	0x4081
 8282 40ac 14       		.uleb128 0x14
 8283 40ad 01       		.byte	0x1
 8284 40ae 4B0D0000 		.long	0xd4b
 8285 40b2 C1400000 		.long	0x40c1
 8286 40b6 15       		.uleb128 0x15
 8287 40b7 4A2C0000 		.long	0x2c4a
 8288 40bb 15       		.uleb128 0x15
 8289 40bc 750D0000 		.long	0xd75
 8290 40c0 00       		.byte	0x0
 8291 40c1 0F       		.uleb128 0xf
 8292 40c2 04       		.byte	0x4
 8293 40c3 AC400000 		.long	0x40ac
 8294 40c7 14       		.uleb128 0x14
 8295 40c8 01       		.byte	0x1
 8296 40c9 9B400000 		.long	0x409b
 8297 40cd E1400000 		.long	0x40e1
 8298 40d1 15       		.uleb128 0x15
 8299 40d2 4A2C0000 		.long	0x2c4a
 8300 40d6 15       		.uleb128 0x15
 8301 40d7 750D0000 		.long	0xd75
 8302 40db 15       		.uleb128 0x15
 8303 40dc E1400000 		.long	0x40e1
 8304 40e0 00       		.byte	0x0
 8305 40e1 0F       		.uleb128 0xf
 8306 40e2 04       		.byte	0x4
 8307 40e3 FE0C0000 		.long	0xcfe
 8308 40e7 0F       		.uleb128 0xf
 8309 40e8 04       		.byte	0x4
 8310 40e9 C7400000 		.long	0x40c7
 8311 40ed 1C       		.uleb128 0x1c
 8312 40ee 01       		.byte	0x1
 8313 40ef 03410000 		.long	0x4103
 8314 40f3 15       		.uleb128 0x15
 8315 40f4 4A2C0000 		.long	0x2c4a
 8316 40f8 15       		.uleb128 0x15
 8317 40f9 750D0000 		.long	0xd75
 8318 40fd 15       		.uleb128 0x15
 8319 40fe 9B400000 		.long	0x409b
 8320 4102 00       		.byte	0x0
 8321 4103 0F       		.uleb128 0xf
GAS LISTING /cygdrive/c/Users/THESCI~1/AppData/Local/Temp/ccu2GGTU.s 			page 185


 8322 4104 04       		.byte	0x4
 8323 4105 ED400000 		.long	0x40ed
 8324 4109 14       		.uleb128 0x14
 8325 410a 01       		.byte	0x1
 8326 410b 750D0000 		.long	0xd75
 8327 410f 1E410000 		.long	0x411e
 8328 4113 15       		.uleb128 0x15
 8329 4114 4A2C0000 		.long	0x2c4a
 8330 4118 15       		.uleb128 0x15
 8331 4119 D7060000 		.long	0x6d7
 8332 411d 00       		.byte	0x0
 8333 411e 0F       		.uleb128 0xf
 8334 411f 04       		.byte	0x4
 8335 4120 09410000 		.long	0x4109
 8336 4124 14       		.uleb128 0x14
 8337 4125 01       		.byte	0x1
 8338 4126 D7060000 		.long	0x6d7
 8339 412a 3E410000 		.long	0x413e
 8340 412e 15       		.uleb128 0x15
 8341 412f 4A2C0000 		.long	0x2c4a
 8342 4133 15       		.uleb128 0x15
 8343 4134 750D0000 		.long	0xd75
 8344 4138 15       		.uleb128 0x15
 8345 4139 E1400000 		.long	0x40e1
 8346 413d 00       		.byte	0x0
 8347 413e 0F       		.uleb128 0xf
 8348 413f 04       		.byte	0x4
 8349 4140 24410000 		.long	0x4124
 8350 4144 1C       		.uleb128 0x1c
 8351 4145 01       		.byte	0x1
 8352 4146 5A410000 		.long	0x415a
 8353 414a 15       		.uleb128 0x15
 8354 414b 4A2C0000 		.long	0x2c4a
 8355 414f 15       		.uleb128 0x15
 8356 4150 750D0000 		.long	0xd75
 8357 4154 15       		.uleb128 0x15
 8358 4155 D7060000 		.long	0x6d7
 8359 4159 00       		.byte	0x0
 8360 415a 0F       		.uleb128 0xf
 8361 415b 04       		.byte	0x4
 8362 415c 44410000 		.long	0x4144
 8363 4160 14       		.uleb128 0x14
 8364 4161 01       		.byte	0x1
 8365 4162 4B0D0000 		.long	0xd4b
 8366 4166 75410000 		.long	0x4175
 8367 416a 15       		.uleb128 0x15
 8368 416b 4A2C0000 		.long	0x2c4a
 8369 416f 15       		.uleb128 0x15
 8370 4170 A30D0000 		.long	0xda3
 8371 4174 00       		.byte	0x0
 8372 4175 0F       		.uleb128 0xf
 8373 4176 04       		.byte	0x4
 8374 4177 60410000 		.long	0x4160
 8375 417b 14       		.uleb128 0x14
 8376 417c 01       		.byte	0x1
 8377 417d B10D0000 		.long	0xdb1
 8378 4181 9A410000 		.long	0x419a
GAS LISTING /cygdrive/c/Users/THESCI~1/AppData/Local/Temp/ccu2GGTU.s 			page 186


 8379 4185 15       		.uleb128 0x15
 8380 4186 4A2C0000 		.long	0x2c4a
 8381 418a 15       		.uleb128 0x15
 8382 418b 4B0D0000 		.long	0xd4b
 8383 418f 15       		.uleb128 0x15
 8384 4190 670D0000 		.long	0xd67
 8385 4194 15       		.uleb128 0x15
 8386 4195 580D0000 		.long	0xd58
 8387 4199 00       		.byte	0x0
 8388 419a 0F       		.uleb128 0xf
 8389 419b 04       		.byte	0x4
 8390 419c 7B410000 		.long	0x417b
 8391 41a0 14       		.uleb128 0x14
 8392 41a1 01       		.byte	0x1
 8393 41a2 580D0000 		.long	0xd58
 8394 41a6 BA410000 		.long	0x41ba
 8395 41aa 15       		.uleb128 0x15
 8396 41ab 4A2C0000 		.long	0x2c4a
 8397 41af 15       		.uleb128 0x15
 8398 41b0 B10D0000 		.long	0xdb1
 8399 41b4 15       		.uleb128 0x15
 8400 41b5 4B0D0000 		.long	0xd4b
 8401 41b9 00       		.byte	0x0
 8402 41ba 0F       		.uleb128 0xf
 8403 41bb 04       		.byte	0x4
 8404 41bc A0410000 		.long	0x41a0
 8405 41c0 1C       		.uleb128 0x1c
 8406 41c1 01       		.byte	0x1
 8407 41c2 DB410000 		.long	0x41db
 8408 41c6 15       		.uleb128 0x15
 8409 41c7 4A2C0000 		.long	0x2c4a
 8410 41cb 15       		.uleb128 0x15
 8411 41cc B10D0000 		.long	0xdb1
 8412 41d0 15       		.uleb128 0x15
 8413 41d1 4B0D0000 		.long	0xd4b
 8414 41d5 15       		.uleb128 0x15
 8415 41d6 580D0000 		.long	0xd58
 8416 41da 00       		.byte	0x0
 8417 41db 0F       		.uleb128 0xf
 8418 41dc 04       		.byte	0x4
 8419 41dd C0410000 		.long	0x41c0
 8420 41e1 14       		.uleb128 0x14
 8421 41e2 01       		.byte	0x1
 8422 41e3 0D0E0000 		.long	0xe0d
 8423 41e7 F6410000 		.long	0x41f6
 8424 41eb 15       		.uleb128 0x15
 8425 41ec 4A2C0000 		.long	0x2c4a
 8426 41f0 15       		.uleb128 0x15
 8427 41f1 4B0D0000 		.long	0xd4b
 8428 41f5 00       		.byte	0x0
 8429 41f6 0F       		.uleb128 0xf
 8430 41f7 04       		.byte	0x4
 8431 41f8 E1410000 		.long	0x41e1
 8432 41fc 14       		.uleb128 0x14
 8433 41fd 01       		.byte	0x1
 8434 41fe C50D0000 		.long	0xdc5
 8435 4202 11420000 		.long	0x4211
GAS LISTING /cygdrive/c/Users/THESCI~1/AppData/Local/Temp/ccu2GGTU.s 			page 187


 8436 4206 15       		.uleb128 0x15
 8437 4207 4A2C0000 		.long	0x2c4a
 8438 420b 15       		.uleb128 0x15
 8439 420c 4B0D0000 		.long	0xd4b
 8440 4210 00       		.byte	0x0
 8441 4211 0F       		.uleb128 0xf
 8442 4212 04       		.byte	0x4
 8443 4213 FC410000 		.long	0x41fc
 8444 4217 14       		.uleb128 0x14
 8445 4218 01       		.byte	0x1
 8446 4219 220E0000 		.long	0xe22
 8447 421d 2C420000 		.long	0x422c
 8448 4221 15       		.uleb128 0x15
 8449 4222 4A2C0000 		.long	0x2c4a
 8450 4226 15       		.uleb128 0x15
 8451 4227 4B0D0000 		.long	0xd4b
 8452 422b 00       		.byte	0x0
 8453 422c 0F       		.uleb128 0xf
 8454 422d 04       		.byte	0x4
 8455 422e 17420000 		.long	0x4217
 8456 4232 14       		.uleb128 0x14
 8457 4233 01       		.byte	0x1
 8458 4234 D70D0000 		.long	0xdd7
 8459 4238 47420000 		.long	0x4247
 8460 423c 15       		.uleb128 0x15
 8461 423d 4A2C0000 		.long	0x2c4a
 8462 4241 15       		.uleb128 0x15
 8463 4242 4B0D0000 		.long	0xd4b
 8464 4246 00       		.byte	0x0
 8465 4247 0F       		.uleb128 0xf
 8466 4248 04       		.byte	0x4
 8467 4249 32420000 		.long	0x4232
 8468 424d 14       		.uleb128 0x14
 8469 424e 01       		.byte	0x1
 8470 424f EA0D0000 		.long	0xdea
 8471 4253 62420000 		.long	0x4262
 8472 4257 15       		.uleb128 0x15
 8473 4258 4A2C0000 		.long	0x2c4a
 8474 425c 15       		.uleb128 0x15
 8475 425d 4B0D0000 		.long	0xd4b
 8476 4261 00       		.byte	0x0
 8477 4262 0F       		.uleb128 0xf
 8478 4263 04       		.byte	0x4
 8479 4264 4D420000 		.long	0x424d
 8480 4268 14       		.uleb128 0x14
 8481 4269 01       		.byte	0x1
 8482 426a FB0D0000 		.long	0xdfb
 8483 426e 7D420000 		.long	0x427d
 8484 4272 15       		.uleb128 0x15
 8485 4273 4A2C0000 		.long	0x2c4a
 8486 4277 15       		.uleb128 0x15
 8487 4278 4B0D0000 		.long	0xd4b
 8488 427c 00       		.byte	0x0
 8489 427d 0F       		.uleb128 0xf
 8490 427e 04       		.byte	0x4
 8491 427f 68420000 		.long	0x4268
 8492 4283 14       		.uleb128 0x14
GAS LISTING /cygdrive/c/Users/THESCI~1/AppData/Local/Temp/ccu2GGTU.s 			page 188


 8493 4284 01       		.byte	0x1
 8494 4285 340E0000 		.long	0xe34
 8495 4289 98420000 		.long	0x4298
 8496 428d 15       		.uleb128 0x15
 8497 428e 4A2C0000 		.long	0x2c4a
 8498 4292 15       		.uleb128 0x15
 8499 4293 4B0D0000 		.long	0xd4b
 8500 4297 00       		.byte	0x0
 8501 4298 0F       		.uleb128 0xf
 8502 4299 04       		.byte	0x4
 8503 429a 83420000 		.long	0x4283
 8504 429e 14       		.uleb128 0x14
 8505 429f 01       		.byte	0x1
 8506 42a0 470E0000 		.long	0xe47
 8507 42a4 B3420000 		.long	0x42b3
 8508 42a8 15       		.uleb128 0x15
 8509 42a9 4A2C0000 		.long	0x2c4a
 8510 42ad 15       		.uleb128 0x15
 8511 42ae 4B0D0000 		.long	0xd4b
 8512 42b2 00       		.byte	0x0
 8513 42b3 0F       		.uleb128 0xf
 8514 42b4 04       		.byte	0x4
 8515 42b5 9E420000 		.long	0x429e
 8516 42b9 14       		.uleb128 0x14
 8517 42ba 01       		.byte	0x1
 8518 42bb E1400000 		.long	0x40e1
 8519 42bf D3420000 		.long	0x42d3
 8520 42c3 15       		.uleb128 0x15
 8521 42c4 4A2C0000 		.long	0x2c4a
 8522 42c8 15       		.uleb128 0x15
 8523 42c9 0D0E0000 		.long	0xe0d
 8524 42cd 15       		.uleb128 0x15
 8525 42ce E1400000 		.long	0x40e1
 8526 42d2 00       		.byte	0x0
 8527 42d3 0F       		.uleb128 0xf
 8528 42d4 04       		.byte	0x4
 8529 42d5 B9420000 		.long	0x42b9
 8530 42d9 14       		.uleb128 0x14
 8531 42da 01       		.byte	0x1
 8532 42db F3420000 		.long	0x42f3
 8533 42df F3420000 		.long	0x42f3
 8534 42e3 15       		.uleb128 0x15
 8535 42e4 4A2C0000 		.long	0x2c4a
 8536 42e8 15       		.uleb128 0x15
 8537 42e9 C50D0000 		.long	0xdc5
 8538 42ed 15       		.uleb128 0x15
 8539 42ee E1400000 		.long	0x40e1
 8540 42f2 00       		.byte	0x0
 8541 42f3 0F       		.uleb128 0xf
 8542 42f4 04       		.byte	0x4
 8543 42f5 CA0C0000 		.long	0xcca
 8544 42f9 0F       		.uleb128 0xf
 8545 42fa 04       		.byte	0x4
 8546 42fb D9420000 		.long	0x42d9
 8547 42ff 14       		.uleb128 0x14
 8548 4300 01       		.byte	0x1
 8549 4301 19430000 		.long	0x4319
GAS LISTING /cygdrive/c/Users/THESCI~1/AppData/Local/Temp/ccu2GGTU.s 			page 189


 8550 4305 19430000 		.long	0x4319
 8551 4309 15       		.uleb128 0x15
 8552 430a 4A2C0000 		.long	0x2c4a
 8553 430e 15       		.uleb128 0x15
 8554 430f 220E0000 		.long	0xe22
 8555 4313 15       		.uleb128 0x15
 8556 4314 E1400000 		.long	0x40e1
 8557 4318 00       		.byte	0x0
 8558 4319 0F       		.uleb128 0xf
 8559 431a 04       		.byte	0x4
 8560 431b 0E0D0000 		.long	0xd0e
 8561 431f 0F       		.uleb128 0xf
 8562 4320 04       		.byte	0x4
 8563 4321 FF420000 		.long	0x42ff
 8564 4325 14       		.uleb128 0x14
 8565 4326 01       		.byte	0x1
 8566 4327 3F430000 		.long	0x433f
 8567 432b 3F430000 		.long	0x433f
 8568 432f 15       		.uleb128 0x15
 8569 4330 4A2C0000 		.long	0x2c4a
 8570 4334 15       		.uleb128 0x15
 8571 4335 D70D0000 		.long	0xdd7
 8572 4339 15       		.uleb128 0x15
 8573 433a E1400000 		.long	0x40e1
 8574 433e 00       		.byte	0x0
 8575 433f 0F       		.uleb128 0xf
 8576 4340 04       		.byte	0x4
 8577 4341 D70C0000 		.long	0xcd7
 8578 4345 0F       		.uleb128 0xf
 8579 4346 04       		.byte	0x4
 8580 4347 25430000 		.long	0x4325
 8581 434b 14       		.uleb128 0x14
 8582 434c 01       		.byte	0x1
 8583 434d 65430000 		.long	0x4365
 8584 4351 65430000 		.long	0x4365
 8585 4355 15       		.uleb128 0x15
 8586 4356 4A2C0000 		.long	0x2c4a
 8587 435a 15       		.uleb128 0x15
 8588 435b EA0D0000 		.long	0xdea
 8589 435f 15       		.uleb128 0x15
 8590 4360 E1400000 		.long	0x40e1
 8591 4364 00       		.byte	0x0
 8592 4365 0F       		.uleb128 0xf
 8593 4366 04       		.byte	0x4
 8594 4367 E50C0000 		.long	0xce5
 8595 436b 0F       		.uleb128 0xf
 8596 436c 04       		.byte	0x4
 8597 436d 4B430000 		.long	0x434b
 8598 4371 14       		.uleb128 0x14
 8599 4372 01       		.byte	0x1
 8600 4373 8B430000 		.long	0x438b
 8601 4377 8B430000 		.long	0x438b
 8602 437b 15       		.uleb128 0x15
 8603 437c 4A2C0000 		.long	0x2c4a
 8604 4380 15       		.uleb128 0x15
 8605 4381 FB0D0000 		.long	0xdfb
 8606 4385 15       		.uleb128 0x15
GAS LISTING /cygdrive/c/Users/THESCI~1/AppData/Local/Temp/ccu2GGTU.s 			page 190


 8607 4386 E1400000 		.long	0x40e1
 8608 438a 00       		.byte	0x0
 8609 438b 0F       		.uleb128 0xf
 8610 438c 04       		.byte	0x4
 8611 438d F10C0000 		.long	0xcf1
 8612 4391 0F       		.uleb128 0xf
 8613 4392 04       		.byte	0x4
 8614 4393 71430000 		.long	0x4371
 8615 4397 14       		.uleb128 0x14
 8616 4398 01       		.byte	0x1
 8617 4399 B1430000 		.long	0x43b1
 8618 439d B1430000 		.long	0x43b1
 8619 43a1 15       		.uleb128 0x15
 8620 43a2 4A2C0000 		.long	0x2c4a
 8621 43a6 15       		.uleb128 0x15
 8622 43a7 340E0000 		.long	0xe34
 8623 43ab 15       		.uleb128 0x15
 8624 43ac E1400000 		.long	0x40e1
 8625 43b0 00       		.byte	0x0
 8626 43b1 0F       		.uleb128 0xf
 8627 43b2 04       		.byte	0x4
 8628 43b3 1B0D0000 		.long	0xd1b
 8629 43b7 0F       		.uleb128 0xf
 8630 43b8 04       		.byte	0x4
 8631 43b9 97430000 		.long	0x4397
 8632 43bd 14       		.uleb128 0x14
 8633 43be 01       		.byte	0x1
 8634 43bf D7430000 		.long	0x43d7
 8635 43c3 D7430000 		.long	0x43d7
 8636 43c7 15       		.uleb128 0x15
 8637 43c8 4A2C0000 		.long	0x2c4a
 8638 43cc 15       		.uleb128 0x15
 8639 43cd 470E0000 		.long	0xe47
 8640 43d1 15       		.uleb128 0x15
 8641 43d2 E1400000 		.long	0x40e1
 8642 43d6 00       		.byte	0x0
 8643 43d7 0F       		.uleb128 0xf
 8644 43d8 04       		.byte	0x4
 8645 43d9 320D0000 		.long	0xd32
 8646 43dd 0F       		.uleb128 0xf
 8647 43de 04       		.byte	0x4
 8648 43df BD430000 		.long	0x43bd
 8649 43e3 1C       		.uleb128 0x1c
 8650 43e4 01       		.byte	0x1
 8651 43e5 FE430000 		.long	0x43fe
 8652 43e9 15       		.uleb128 0x15
 8653 43ea 4A2C0000 		.long	0x2c4a
 8654 43ee 15       		.uleb128 0x15
 8655 43ef 0D0E0000 		.long	0xe0d
 8656 43f3 15       		.uleb128 0x15
 8657 43f4 E1400000 		.long	0x40e1
 8658 43f8 15       		.uleb128 0x15
 8659 43f9 E50C0000 		.long	0xce5
 8660 43fd 00       		.byte	0x0
 8661 43fe 0F       		.uleb128 0xf
 8662 43ff 04       		.byte	0x4
 8663 4400 E3430000 		.long	0x43e3
GAS LISTING /cygdrive/c/Users/THESCI~1/AppData/Local/Temp/ccu2GGTU.s 			page 191


 8664 4404 1C       		.uleb128 0x1c
 8665 4405 01       		.byte	0x1
 8666 4406 1F440000 		.long	0x441f
 8667 440a 15       		.uleb128 0x15
 8668 440b 4A2C0000 		.long	0x2c4a
 8669 440f 15       		.uleb128 0x15
 8670 4410 C50D0000 		.long	0xdc5
 8671 4414 15       		.uleb128 0x15
 8672 4415 F3420000 		.long	0x42f3
 8673 4419 15       		.uleb128 0x15
 8674 441a E50C0000 		.long	0xce5
 8675 441e 00       		.byte	0x0
 8676 441f 0F       		.uleb128 0xf
 8677 4420 04       		.byte	0x4
 8678 4421 04440000 		.long	0x4404
 8679 4425 1C       		.uleb128 0x1c
 8680 4426 01       		.byte	0x1
 8681 4427 40440000 		.long	0x4440
 8682 442b 15       		.uleb128 0x15
 8683 442c 4A2C0000 		.long	0x2c4a
 8684 4430 15       		.uleb128 0x15
 8685 4431 220E0000 		.long	0xe22
 8686 4435 15       		.uleb128 0x15
 8687 4436 19430000 		.long	0x4319
 8688 443a 15       		.uleb128 0x15
 8689 443b E50C0000 		.long	0xce5
 8690 443f 00       		.byte	0x0
 8691 4440 0F       		.uleb128 0xf
 8692 4441 04       		.byte	0x4
 8693 4442 25440000 		.long	0x4425
 8694 4446 1C       		.uleb128 0x1c
 8695 4447 01       		.byte	0x1
 8696 4448 61440000 		.long	0x4461
 8697 444c 15       		.uleb128 0x15
 8698 444d 4A2C0000 		.long	0x2c4a
 8699 4451 15       		.uleb128 0x15
 8700 4452 D70D0000 		.long	0xdd7
 8701 4456 15       		.uleb128 0x15
 8702 4457 3F430000 		.long	0x433f
 8703 445b 15       		.uleb128 0x15
 8704 445c E50C0000 		.long	0xce5
 8705 4460 00       		.byte	0x0
 8706 4461 0F       		.uleb128 0xf
 8707 4462 04       		.byte	0x4
 8708 4463 46440000 		.long	0x4446
 8709 4467 1C       		.uleb128 0x1c
 8710 4468 01       		.byte	0x1
 8711 4469 82440000 		.long	0x4482
 8712 446d 15       		.uleb128 0x15
 8713 446e 4A2C0000 		.long	0x2c4a
 8714 4472 15       		.uleb128 0x15
 8715 4473 EA0D0000 		.long	0xdea
 8716 4477 15       		.uleb128 0x15
 8717 4478 65430000 		.long	0x4365
 8718 447c 15       		.uleb128 0x15
 8719 447d E50C0000 		.long	0xce5
 8720 4481 00       		.byte	0x0
GAS LISTING /cygdrive/c/Users/THESCI~1/AppData/Local/Temp/ccu2GGTU.s 			page 192


 8721 4482 0F       		.uleb128 0xf
 8722 4483 04       		.byte	0x4
 8723 4484 67440000 		.long	0x4467
 8724 4488 1C       		.uleb128 0x1c
 8725 4489 01       		.byte	0x1
 8726 448a A3440000 		.long	0x44a3
 8727 448e 15       		.uleb128 0x15
 8728 448f 4A2C0000 		.long	0x2c4a
 8729 4493 15       		.uleb128 0x15
 8730 4494 FB0D0000 		.long	0xdfb
 8731 4498 15       		.uleb128 0x15
 8732 4499 8B430000 		.long	0x438b
 8733 449d 15       		.uleb128 0x15
 8734 449e E50C0000 		.long	0xce5
 8735 44a2 00       		.byte	0x0
 8736 44a3 0F       		.uleb128 0xf
 8737 44a4 04       		.byte	0x4
 8738 44a5 88440000 		.long	0x4488
 8739 44a9 1C       		.uleb128 0x1c
 8740 44aa 01       		.byte	0x1
 8741 44ab C4440000 		.long	0x44c4
 8742 44af 15       		.uleb128 0x15
 8743 44b0 4A2C0000 		.long	0x2c4a
 8744 44b4 15       		.uleb128 0x15
 8745 44b5 340E0000 		.long	0xe34
 8746 44b9 15       		.uleb128 0x15
 8747 44ba B1430000 		.long	0x43b1
 8748 44be 15       		.uleb128 0x15
 8749 44bf E50C0000 		.long	0xce5
 8750 44c3 00       		.byte	0x0
 8751 44c4 0F       		.uleb128 0xf
 8752 44c5 04       		.byte	0x4
 8753 44c6 A9440000 		.long	0x44a9
 8754 44ca 1C       		.uleb128 0x1c
 8755 44cb 01       		.byte	0x1
 8756 44cc E5440000 		.long	0x44e5
 8757 44d0 15       		.uleb128 0x15
 8758 44d1 4A2C0000 		.long	0x2c4a
 8759 44d5 15       		.uleb128 0x15
 8760 44d6 470E0000 		.long	0xe47
 8761 44da 15       		.uleb128 0x15
 8762 44db D7430000 		.long	0x43d7
 8763 44df 15       		.uleb128 0x15
 8764 44e0 E50C0000 		.long	0xce5
 8765 44e4 00       		.byte	0x0
 8766 44e5 0F       		.uleb128 0xf
 8767 44e6 04       		.byte	0x4
 8768 44e7 CA440000 		.long	0x44ca
 8769 44eb 1C       		.uleb128 0x1c
 8770 44ec 01       		.byte	0x1
 8771 44ed 0B450000 		.long	0x450b
 8772 44f1 15       		.uleb128 0x15
 8773 44f2 4A2C0000 		.long	0x2c4a
 8774 44f6 15       		.uleb128 0x15
 8775 44f7 0D0E0000 		.long	0xe0d
 8776 44fb 15       		.uleb128 0x15
 8777 44fc 4B0D0000 		.long	0xd4b
GAS LISTING /cygdrive/c/Users/THESCI~1/AppData/Local/Temp/ccu2GGTU.s 			page 193


 8778 4500 15       		.uleb128 0x15
 8779 4501 4B0D0000 		.long	0xd4b
 8780 4505 15       		.uleb128 0x15
 8781 4506 E1400000 		.long	0x40e1
 8782 450a 00       		.byte	0x0
 8783 450b 0F       		.uleb128 0xf
 8784 450c 04       		.byte	0x4
 8785 450d EB440000 		.long	0x44eb
 8786 4511 1C       		.uleb128 0x1c
 8787 4512 01       		.byte	0x1
 8788 4513 31450000 		.long	0x4531
 8789 4517 15       		.uleb128 0x15
 8790 4518 4A2C0000 		.long	0x2c4a
 8791 451c 15       		.uleb128 0x15
 8792 451d C50D0000 		.long	0xdc5
 8793 4521 15       		.uleb128 0x15
 8794 4522 4B0D0000 		.long	0xd4b
 8795 4526 15       		.uleb128 0x15
 8796 4527 4B0D0000 		.long	0xd4b
 8797 452b 15       		.uleb128 0x15
 8798 452c F3420000 		.long	0x42f3
 8799 4530 00       		.byte	0x0
 8800 4531 0F       		.uleb128 0xf
 8801 4532 04       		.byte	0x4
 8802 4533 11450000 		.long	0x4511
 8803 4537 1C       		.uleb128 0x1c
 8804 4538 01       		.byte	0x1
 8805 4539 57450000 		.long	0x4557
 8806 453d 15       		.uleb128 0x15
 8807 453e 4A2C0000 		.long	0x2c4a
 8808 4542 15       		.uleb128 0x15
 8809 4543 220E0000 		.long	0xe22
 8810 4547 15       		.uleb128 0x15
 8811 4548 4B0D0000 		.long	0xd4b
 8812 454c 15       		.uleb128 0x15
 8813 454d 4B0D0000 		.long	0xd4b
 8814 4551 15       		.uleb128 0x15
 8815 4552 19430000 		.long	0x4319
 8816 4556 00       		.byte	0x0
 8817 4557 0F       		.uleb128 0xf
 8818 4558 04       		.byte	0x4
 8819 4559 37450000 		.long	0x4537
 8820 455d 1C       		.uleb128 0x1c
 8821 455e 01       		.byte	0x1
 8822 455f 7D450000 		.long	0x457d
 8823 4563 15       		.uleb128 0x15
 8824 4564 4A2C0000 		.long	0x2c4a
 8825 4568 15       		.uleb128 0x15
 8826 4569 D70D0000 		.long	0xdd7
 8827 456d 15       		.uleb128 0x15
 8828 456e 4B0D0000 		.long	0xd4b
 8829 4572 15       		.uleb128 0x15
 8830 4573 4B0D0000 		.long	0xd4b
 8831 4577 15       		.uleb128 0x15
 8832 4578 3F430000 		.long	0x433f
 8833 457c 00       		.byte	0x0
 8834 457d 0F       		.uleb128 0xf
GAS LISTING /cygdrive/c/Users/THESCI~1/AppData/Local/Temp/ccu2GGTU.s 			page 194


 8835 457e 04       		.byte	0x4
 8836 457f 5D450000 		.long	0x455d
 8837 4583 1C       		.uleb128 0x1c
 8838 4584 01       		.byte	0x1
 8839 4585 A3450000 		.long	0x45a3
 8840 4589 15       		.uleb128 0x15
 8841 458a 4A2C0000 		.long	0x2c4a
 8842 458e 15       		.uleb128 0x15
 8843 458f EA0D0000 		.long	0xdea
 8844 4593 15       		.uleb128 0x15
 8845 4594 4B0D0000 		.long	0xd4b
 8846 4598 15       		.uleb128 0x15
 8847 4599 4B0D0000 		.long	0xd4b
 8848 459d 15       		.uleb128 0x15
 8849 459e 65430000 		.long	0x4365
 8850 45a2 00       		.byte	0x0
 8851 45a3 0F       		.uleb128 0xf
 8852 45a4 04       		.byte	0x4
 8853 45a5 83450000 		.long	0x4583
 8854 45a9 1C       		.uleb128 0x1c
 8855 45aa 01       		.byte	0x1
 8856 45ab C9450000 		.long	0x45c9
 8857 45af 15       		.uleb128 0x15
 8858 45b0 4A2C0000 		.long	0x2c4a
 8859 45b4 15       		.uleb128 0x15
 8860 45b5 FB0D0000 		.long	0xdfb
 8861 45b9 15       		.uleb128 0x15
 8862 45ba 4B0D0000 		.long	0xd4b
 8863 45be 15       		.uleb128 0x15
 8864 45bf 4B0D0000 		.long	0xd4b
 8865 45c3 15       		.uleb128 0x15
 8866 45c4 8B430000 		.long	0x438b
 8867 45c8 00       		.byte	0x0
 8868 45c9 0F       		.uleb128 0xf
 8869 45ca 04       		.byte	0x4
 8870 45cb A9450000 		.long	0x45a9
 8871 45cf 1C       		.uleb128 0x1c
 8872 45d0 01       		.byte	0x1
 8873 45d1 EF450000 		.long	0x45ef
 8874 45d5 15       		.uleb128 0x15
 8875 45d6 4A2C0000 		.long	0x2c4a
 8876 45da 15       		.uleb128 0x15
 8877 45db 340E0000 		.long	0xe34
 8878 45df 15       		.uleb128 0x15
 8879 45e0 4B0D0000 		.long	0xd4b
 8880 45e4 15       		.uleb128 0x15
 8881 45e5 4B0D0000 		.long	0xd4b
 8882 45e9 15       		.uleb128 0x15
 8883 45ea B1430000 		.long	0x43b1
 8884 45ee 00       		.byte	0x0
 8885 45ef 0F       		.uleb128 0xf
 8886 45f0 04       		.byte	0x4
 8887 45f1 CF450000 		.long	0x45cf
 8888 45f5 1C       		.uleb128 0x1c
 8889 45f6 01       		.byte	0x1
 8890 45f7 15460000 		.long	0x4615
 8891 45fb 15       		.uleb128 0x15
GAS LISTING /cygdrive/c/Users/THESCI~1/AppData/Local/Temp/ccu2GGTU.s 			page 195


 8892 45fc 4A2C0000 		.long	0x2c4a
 8893 4600 15       		.uleb128 0x15
 8894 4601 470E0000 		.long	0xe47
 8895 4605 15       		.uleb128 0x15
 8896 4606 4B0D0000 		.long	0xd4b
 8897 460a 15       		.uleb128 0x15
 8898 460b 4B0D0000 		.long	0xd4b
 8899 460f 15       		.uleb128 0x15
 8900 4610 D7430000 		.long	0x43d7
 8901 4614 00       		.byte	0x0
 8902 4615 0F       		.uleb128 0xf
 8903 4616 04       		.byte	0x4
 8904 4617 F5450000 		.long	0x45f5
 8905 461b 1C       		.uleb128 0x1c
 8906 461c 01       		.byte	0x1
 8907 461d 3B460000 		.long	0x463b
 8908 4621 15       		.uleb128 0x15
 8909 4622 4A2C0000 		.long	0x2c4a
 8910 4626 15       		.uleb128 0x15
 8911 4627 0D0E0000 		.long	0xe0d
 8912 462b 15       		.uleb128 0x15
 8913 462c 4B0D0000 		.long	0xd4b
 8914 4630 15       		.uleb128 0x15
 8915 4631 4B0D0000 		.long	0xd4b
 8916 4635 15       		.uleb128 0x15
 8917 4636 3B460000 		.long	0x463b
 8918 463a 00       		.byte	0x0
 8919 463b 0F       		.uleb128 0xf
 8920 463c 04       		.byte	0x4
 8921 463d 41460000 		.long	0x4641
 8922 4641 17       		.uleb128 0x17
 8923 4642 FE0C0000 		.long	0xcfe
 8924 4646 0F       		.uleb128 0xf
 8925 4647 04       		.byte	0x4
 8926 4648 1B460000 		.long	0x461b
 8927 464c 1C       		.uleb128 0x1c
 8928 464d 01       		.byte	0x1
 8929 464e 6C460000 		.long	0x466c
 8930 4652 15       		.uleb128 0x15
 8931 4653 4A2C0000 		.long	0x2c4a
 8932 4657 15       		.uleb128 0x15
 8933 4658 C50D0000 		.long	0xdc5
 8934 465c 15       		.uleb128 0x15
 8935 465d 4B0D0000 		.long	0xd4b
 8936 4661 15       		.uleb128 0x15
 8937 4662 4B0D0000 		.long	0xd4b
 8938 4666 15       		.uleb128 0x15
 8939 4667 7A2C0000 		.long	0x2c7a
 8940 466b 00       		.byte	0x0
 8941 466c 0F       		.uleb128 0xf
 8942 466d 04       		.byte	0x4
 8943 466e 4C460000 		.long	0x464c
 8944 4672 1C       		.uleb128 0x1c
 8945 4673 01       		.byte	0x1
 8946 4674 92460000 		.long	0x4692
 8947 4678 15       		.uleb128 0x15
 8948 4679 4A2C0000 		.long	0x2c4a
GAS LISTING /cygdrive/c/Users/THESCI~1/AppData/Local/Temp/ccu2GGTU.s 			page 196


 8949 467d 15       		.uleb128 0x15
 8950 467e 220E0000 		.long	0xe22
 8951 4682 15       		.uleb128 0x15
 8952 4683 4B0D0000 		.long	0xd4b
 8953 4687 15       		.uleb128 0x15
 8954 4688 4B0D0000 		.long	0xd4b
 8955 468c 15       		.uleb128 0x15
 8956 468d 9B400000 		.long	0x409b
 8957 4691 00       		.byte	0x0
 8958 4692 0F       		.uleb128 0xf
 8959 4693 04       		.byte	0x4
 8960 4694 72460000 		.long	0x4672
 8961 4698 1C       		.uleb128 0x1c
 8962 4699 01       		.byte	0x1
 8963 469a B8460000 		.long	0x46b8
 8964 469e 15       		.uleb128 0x15
 8965 469f 4A2C0000 		.long	0x2c4a
 8966 46a3 15       		.uleb128 0x15
 8967 46a4 D70D0000 		.long	0xdd7
 8968 46a8 15       		.uleb128 0x15
 8969 46a9 4B0D0000 		.long	0xd4b
 8970 46ad 15       		.uleb128 0x15
 8971 46ae 4B0D0000 		.long	0xd4b
 8972 46b2 15       		.uleb128 0x15
 8973 46b3 B8460000 		.long	0x46b8
 8974 46b7 00       		.byte	0x0
 8975 46b8 0F       		.uleb128 0xf
 8976 46b9 04       		.byte	0x4
 8977 46ba BE460000 		.long	0x46be
 8978 46be 17       		.uleb128 0x17
 8979 46bf D70C0000 		.long	0xcd7
 8980 46c3 0F       		.uleb128 0xf
 8981 46c4 04       		.byte	0x4
 8982 46c5 98460000 		.long	0x4698
 8983 46c9 1C       		.uleb128 0x1c
 8984 46ca 01       		.byte	0x1
 8985 46cb E9460000 		.long	0x46e9
 8986 46cf 15       		.uleb128 0x15
 8987 46d0 4A2C0000 		.long	0x2c4a
 8988 46d4 15       		.uleb128 0x15
 8989 46d5 EA0D0000 		.long	0xdea
 8990 46d9 15       		.uleb128 0x15
 8991 46da 4B0D0000 		.long	0xd4b
 8992 46de 15       		.uleb128 0x15
 8993 46df 4B0D0000 		.long	0xd4b
 8994 46e3 15       		.uleb128 0x15
 8995 46e4 E9460000 		.long	0x46e9
 8996 46e8 00       		.byte	0x0
 8997 46e9 0F       		.uleb128 0xf
 8998 46ea 04       		.byte	0x4
 8999 46eb EF460000 		.long	0x46ef
 9000 46ef 17       		.uleb128 0x17
 9001 46f0 E50C0000 		.long	0xce5
 9002 46f4 0F       		.uleb128 0xf
 9003 46f5 04       		.byte	0x4
 9004 46f6 C9460000 		.long	0x46c9
 9005 46fa 1C       		.uleb128 0x1c
GAS LISTING /cygdrive/c/Users/THESCI~1/AppData/Local/Temp/ccu2GGTU.s 			page 197


 9006 46fb 01       		.byte	0x1
 9007 46fc 1A470000 		.long	0x471a
 9008 4700 15       		.uleb128 0x15
 9009 4701 4A2C0000 		.long	0x2c4a
 9010 4705 15       		.uleb128 0x15
 9011 4706 FB0D0000 		.long	0xdfb
 9012 470a 15       		.uleb128 0x15
 9013 470b 4B0D0000 		.long	0xd4b
 9014 470f 15       		.uleb128 0x15
 9015 4710 4B0D0000 		.long	0xd4b
 9016 4714 15       		.uleb128 0x15
 9017 4715 1A470000 		.long	0x471a
 9018 4719 00       		.byte	0x0
 9019 471a 0F       		.uleb128 0xf
 9020 471b 04       		.byte	0x4
 9021 471c 20470000 		.long	0x4720
 9022 4720 17       		.uleb128 0x17
 9023 4721 F10C0000 		.long	0xcf1
 9024 4725 0F       		.uleb128 0xf
 9025 4726 04       		.byte	0x4
 9026 4727 FA460000 		.long	0x46fa
 9027 472b 1C       		.uleb128 0x1c
 9028 472c 01       		.byte	0x1
 9029 472d 4B470000 		.long	0x474b
 9030 4731 15       		.uleb128 0x15
 9031 4732 4A2C0000 		.long	0x2c4a
 9032 4736 15       		.uleb128 0x15
 9033 4737 340E0000 		.long	0xe34
 9034 473b 15       		.uleb128 0x15
 9035 473c 4B0D0000 		.long	0xd4b
 9036 4740 15       		.uleb128 0x15
 9037 4741 4B0D0000 		.long	0xd4b
 9038 4745 15       		.uleb128 0x15
 9039 4746 4B470000 		.long	0x474b
 9040 474a 00       		.byte	0x0
 9041 474b 0F       		.uleb128 0xf
 9042 474c 04       		.byte	0x4
 9043 474d 51470000 		.long	0x4751
 9044 4751 17       		.uleb128 0x17
 9045 4752 1B0D0000 		.long	0xd1b
 9046 4756 0F       		.uleb128 0xf
 9047 4757 04       		.byte	0x4
 9048 4758 2B470000 		.long	0x472b
 9049 475c 1C       		.uleb128 0x1c
 9050 475d 01       		.byte	0x1
 9051 475e 7C470000 		.long	0x477c
 9052 4762 15       		.uleb128 0x15
 9053 4763 4A2C0000 		.long	0x2c4a
 9054 4767 15       		.uleb128 0x15
 9055 4768 470E0000 		.long	0xe47
 9056 476c 15       		.uleb128 0x15
 9057 476d 4B0D0000 		.long	0xd4b
 9058 4771 15       		.uleb128 0x15
 9059 4772 4B0D0000 		.long	0xd4b
 9060 4776 15       		.uleb128 0x15
 9061 4777 7C470000 		.long	0x477c
 9062 477b 00       		.byte	0x0
GAS LISTING /cygdrive/c/Users/THESCI~1/AppData/Local/Temp/ccu2GGTU.s 			page 198


 9063 477c 0F       		.uleb128 0xf
 9064 477d 04       		.byte	0x4
 9065 477e 82470000 		.long	0x4782
 9066 4782 17       		.uleb128 0x17
 9067 4783 320D0000 		.long	0xd32
 9068 4787 0F       		.uleb128 0xf
 9069 4788 04       		.byte	0x4
 9070 4789 5C470000 		.long	0x475c
 9071 478d 14       		.uleb128 0x14
 9072 478e 01       		.byte	0x1
 9073 478f E50C0000 		.long	0xce5
 9074 4793 AC470000 		.long	0x47ac
 9075 4797 15       		.uleb128 0x15
 9076 4798 4A2C0000 		.long	0x2c4a
 9077 479c 15       		.uleb128 0x15
 9078 479d 670D0000 		.long	0xd67
 9079 47a1 15       		.uleb128 0x15
 9080 47a2 AC470000 		.long	0x47ac
 9081 47a6 15       		.uleb128 0x15
 9082 47a7 E50C0000 		.long	0xce5
 9083 47ab 00       		.byte	0x0
 9084 47ac 0F       		.uleb128 0xf
 9085 47ad 04       		.byte	0x4
 9086 47ae B2470000 		.long	0x47b2
 9087 47b2 17       		.uleb128 0x17
 9088 47b3 232C0000 		.long	0x2c23
 9089 47b7 0F       		.uleb128 0xf
 9090 47b8 04       		.byte	0x4
 9091 47b9 8D470000 		.long	0x478d
 9092 47bd 14       		.uleb128 0x14
 9093 47be 01       		.byte	0x1
 9094 47bf E50C0000 		.long	0xce5
 9095 47c3 D2470000 		.long	0x47d2
 9096 47c7 15       		.uleb128 0x15
 9097 47c8 4A2C0000 		.long	0x2c4a
 9098 47cc 15       		.uleb128 0x15
 9099 47cd 670D0000 		.long	0xd67
 9100 47d1 00       		.byte	0x0
 9101 47d2 0F       		.uleb128 0xf
 9102 47d3 04       		.byte	0x4
 9103 47d4 BD470000 		.long	0x47bd
 9104 47d8 14       		.uleb128 0x14
 9105 47d9 01       		.byte	0x1
 9106 47da E50C0000 		.long	0xce5
 9107 47de ED470000 		.long	0x47ed
 9108 47e2 15       		.uleb128 0x15
 9109 47e3 4A2C0000 		.long	0x2c4a
 9110 47e7 15       		.uleb128 0x15
 9111 47e8 580D0000 		.long	0xd58
 9112 47ec 00       		.byte	0x0
 9113 47ed 0F       		.uleb128 0xf
 9114 47ee 04       		.byte	0x4
 9115 47ef D8470000 		.long	0x47d8
 9116 47f3 14       		.uleb128 0x14
 9117 47f4 01       		.byte	0x1
 9118 47f5 E50C0000 		.long	0xce5
 9119 47f9 08480000 		.long	0x4808
GAS LISTING /cygdrive/c/Users/THESCI~1/AppData/Local/Temp/ccu2GGTU.s 			page 199


 9120 47fd 15       		.uleb128 0x15
 9121 47fe 4A2C0000 		.long	0x2c4a
 9122 4802 15       		.uleb128 0x15
 9123 4803 08480000 		.long	0x4808
 9124 4807 00       		.byte	0x0
 9125 4808 0F       		.uleb128 0xf
 9126 4809 04       		.byte	0x4
 9127 480a 0E480000 		.long	0x480e
 9128 480e 0F       		.uleb128 0xf
 9129 480f 04       		.byte	0x4
 9130 4810 4B2A0000 		.long	0x2a4b
 9131 4814 0F       		.uleb128 0xf
 9132 4815 04       		.byte	0x4
 9133 4816 F3470000 		.long	0x47f3
 9134 481a 1C       		.uleb128 0x1c
 9135 481b 01       		.byte	0x1
 9136 481c 3A480000 		.long	0x483a
 9137 4820 15       		.uleb128 0x15
 9138 4821 4A2C0000 		.long	0x2c4a
 9139 4825 15       		.uleb128 0x15
 9140 4826 750D0000 		.long	0xd75
 9141 482a 15       		.uleb128 0x15
 9142 482b 4B0D0000 		.long	0xd4b
 9143 482f 15       		.uleb128 0x15
 9144 4830 4B0D0000 		.long	0xd4b
 9145 4834 15       		.uleb128 0x15
 9146 4835 19430000 		.long	0x4319
 9147 4839 00       		.byte	0x0
 9148 483a 0F       		.uleb128 0xf
 9149 483b 04       		.byte	0x4
 9150 483c 1A480000 		.long	0x481a
 9151 4840 1C       		.uleb128 0x1c
 9152 4841 01       		.byte	0x1
 9153 4842 60480000 		.long	0x4860
 9154 4846 15       		.uleb128 0x15
 9155 4847 4A2C0000 		.long	0x2c4a
 9156 484b 15       		.uleb128 0x15
 9157 484c 750D0000 		.long	0xd75
 9158 4850 15       		.uleb128 0x15
 9159 4851 4B0D0000 		.long	0xd4b
 9160 4855 15       		.uleb128 0x15
 9161 4856 4B0D0000 		.long	0xd4b
 9162 485a 15       		.uleb128 0x15
 9163 485b AC060000 		.long	0x6ac
 9164 485f 00       		.byte	0x0
 9165 4860 0F       		.uleb128 0xf
 9166 4861 04       		.byte	0x4
 9167 4862 40480000 		.long	0x4840
 9168 4866 14       		.uleb128 0x14
 9169 4867 01       		.byte	0x1
 9170 4868 62010000 		.long	0x162
 9171 486c 80480000 		.long	0x4880
 9172 4870 15       		.uleb128 0x15
 9173 4871 4A2C0000 		.long	0x2c4a
 9174 4875 15       		.uleb128 0x15
 9175 4876 A30D0000 		.long	0xda3
 9176 487a 15       		.uleb128 0x15
GAS LISTING /cygdrive/c/Users/THESCI~1/AppData/Local/Temp/ccu2GGTU.s 			page 200


 9177 487b E1400000 		.long	0x40e1
 9178 487f 00       		.byte	0x0
 9179 4880 0F       		.uleb128 0xf
 9180 4881 04       		.byte	0x4
 9181 4882 66480000 		.long	0x4866
 9182 4886 1C       		.uleb128 0x1c
 9183 4887 01       		.byte	0x1
 9184 4888 A1480000 		.long	0x48a1
 9185 488c 15       		.uleb128 0x15
 9186 488d 4A2C0000 		.long	0x2c4a
 9187 4891 15       		.uleb128 0x15
 9188 4892 A30D0000 		.long	0xda3
 9189 4896 15       		.uleb128 0x15
 9190 4897 62010000 		.long	0x162
 9191 489b 15       		.uleb128 0x15
 9192 489c E50C0000 		.long	0xce5
 9193 48a0 00       		.byte	0x0
 9194 48a1 0F       		.uleb128 0xf
 9195 48a2 04       		.byte	0x4
 9196 48a3 86480000 		.long	0x4886
 9197 48a7 14       		.uleb128 0x14
 9198 48a8 01       		.byte	0x1
 9199 48a9 960D0000 		.long	0xd96
 9200 48ad BC480000 		.long	0x48bc
 9201 48b1 15       		.uleb128 0x15
 9202 48b2 4A2C0000 		.long	0x2c4a
 9203 48b6 15       		.uleb128 0x15
 9204 48b7 580D0000 		.long	0xd58
 9205 48bb 00       		.byte	0x0
 9206 48bc 0F       		.uleb128 0xf
 9207 48bd 04       		.byte	0x4
 9208 48be A7480000 		.long	0x48a7
 9209 48c2 1C       		.uleb128 0x1c
 9210 48c3 01       		.byte	0x1
 9211 48c4 D3480000 		.long	0x48d3
 9212 48c8 15       		.uleb128 0x15
 9213 48c9 4A2C0000 		.long	0x2c4a
 9214 48cd 15       		.uleb128 0x15
 9215 48ce 960D0000 		.long	0xd96
 9216 48d2 00       		.byte	0x0
 9217 48d3 0F       		.uleb128 0xf
 9218 48d4 04       		.byte	0x4
 9219 48d5 C2480000 		.long	0x48c2
 9220 48d9 14       		.uleb128 0x14
 9221 48da 01       		.byte	0x1
 9222 48db FE0C0000 		.long	0xcfe
 9223 48df E9480000 		.long	0x48e9
 9224 48e3 15       		.uleb128 0x15
 9225 48e4 4A2C0000 		.long	0x2c4a
 9226 48e8 00       		.byte	0x0
 9227 48e9 0F       		.uleb128 0xf
 9228 48ea 04       		.byte	0x4
 9229 48eb D9480000 		.long	0x48d9
 9230 48ef 14       		.uleb128 0x14
 9231 48f0 01       		.byte	0x1
 9232 48f1 580D0000 		.long	0xd58
 9233 48f5 09490000 		.long	0x4909
GAS LISTING /cygdrive/c/Users/THESCI~1/AppData/Local/Temp/ccu2GGTU.s 			page 201


 9234 48f9 15       		.uleb128 0x15
 9235 48fa 4A2C0000 		.long	0x2c4a
 9236 48fe 15       		.uleb128 0x15
 9237 48ff 62010000 		.long	0x162
 9238 4903 15       		.uleb128 0x15
 9239 4904 F10C0000 		.long	0xcf1
 9240 4908 00       		.byte	0x0
 9241 4909 0F       		.uleb128 0xf
 9242 490a 04       		.byte	0x4
 9243 490b EF480000 		.long	0x48ef
 9244 490f 14       		.uleb128 0x14
 9245 4910 01       		.byte	0x1
 9246 4911 62010000 		.long	0x162
 9247 4915 24490000 		.long	0x4924
 9248 4919 15       		.uleb128 0x15
 9249 491a 4A2C0000 		.long	0x2c4a
 9250 491e 15       		.uleb128 0x15
 9251 491f 580D0000 		.long	0xd58
 9252 4923 00       		.byte	0x0
 9253 4924 0F       		.uleb128 0xf
 9254 4925 04       		.byte	0x4
 9255 4926 0F490000 		.long	0x490f
 9256 492a 14       		.uleb128 0x14
 9257 492b 01       		.byte	0x1
 9258 492c F10C0000 		.long	0xcf1
 9259 4930 3F490000 		.long	0x493f
 9260 4934 15       		.uleb128 0x15
 9261 4935 4A2C0000 		.long	0x2c4a
 9262 4939 15       		.uleb128 0x15
 9263 493a 580D0000 		.long	0xd58
 9264 493e 00       		.byte	0x0
 9265 493f 0F       		.uleb128 0xf
 9266 4940 04       		.byte	0x4
 9267 4941 2A490000 		.long	0x492a
 9268 4945 14       		.uleb128 0x14
 9269 4946 01       		.byte	0x1
 9270 4947 E50C0000 		.long	0xce5
 9271 494b 55490000 		.long	0x4955
 9272 494f 15       		.uleb128 0x15
 9273 4950 0E480000 		.long	0x480e
 9274 4954 00       		.byte	0x0
 9275 4955 0F       		.uleb128 0xf
 9276 4956 04       		.byte	0x4
 9277 4957 45490000 		.long	0x4945
 9278 495b 14       		.uleb128 0x14
 9279 495c 01       		.byte	0x1
 9280 495d E50C0000 		.long	0xce5
 9281 4961 75490000 		.long	0x4975
 9282 4965 15       		.uleb128 0x15
 9283 4966 0E480000 		.long	0x480e
 9284 496a 15       		.uleb128 0x15
 9285 496b 75490000 		.long	0x4975
 9286 496f 15       		.uleb128 0x15
 9287 4970 62010000 		.long	0x162
 9288 4974 00       		.byte	0x0
 9289 4975 0F       		.uleb128 0xf
 9290 4976 04       		.byte	0x4
GAS LISTING /cygdrive/c/Users/THESCI~1/AppData/Local/Temp/ccu2GGTU.s 			page 202


 9291 4977 62010000 		.long	0x162
 9292 497b 0F       		.uleb128 0xf
 9293 497c 04       		.byte	0x4
 9294 497d 5B490000 		.long	0x495b
 9295 4981 14       		.uleb128 0x14
 9296 4982 01       		.byte	0x1
 9297 4983 E50C0000 		.long	0xce5
 9298 4987 9B490000 		.long	0x499b
 9299 498b 15       		.uleb128 0x15
 9300 498c 0E480000 		.long	0x480e
 9301 4990 15       		.uleb128 0x15
 9302 4991 75490000 		.long	0x4975
 9303 4995 15       		.uleb128 0x15
 9304 4996 E50C0000 		.long	0xce5
 9305 499a 00       		.byte	0x0
 9306 499b 0F       		.uleb128 0xf
 9307 499c 04       		.byte	0x4
 9308 499d 81490000 		.long	0x4981
 9309 49a1 0F       		.uleb128 0xf
 9310 49a2 04       		.byte	0x4
 9311 49a3 AF0C0000 		.long	0xcaf
 9312 49a7 03       		.uleb128 0x3
 9313 49a8 5046494C 		.ascii "PFILE\0"
 9313      4500
 9314 49ae 0B       		.byte	0xb
 9315 49af 1D       		.byte	0x1d
 9316 49b0 A1490000 		.long	0x49a1
 9317 49b4 0C       		.uleb128 0xc
 9318 49b5 04       		.byte	0x4
 9319 49b6 0C       		.byte	0xc
 9320 49b7 24       		.byte	0x24
 9321 49b8 FD490000 		.long	0x49fd
 9322 49bc 0D       		.uleb128 0xd
 9323 49bd 62797465 		.ascii "byte1\0"
 9323      3100
 9324 49c3 0C       		.byte	0xc
 9325 49c4 25       		.byte	0x25
 9326 49c5 ED000000 		.long	0xed
 9327 49c9 02       		.byte	0x2
 9328 49ca 23       		.byte	0x23
 9329 49cb 00       		.uleb128 0x0
 9330 49cc 0D       		.uleb128 0xd
 9331 49cd 62797465 		.ascii "byte2\0"
 9331      3200
 9332 49d3 0C       		.byte	0xc
 9333 49d4 26       		.byte	0x26
 9334 49d5 ED000000 		.long	0xed
 9335 49d9 02       		.byte	0x2
 9336 49da 23       		.byte	0x23
 9337 49db 01       		.uleb128 0x1
 9338 49dc 0D       		.uleb128 0xd
 9339 49dd 62797465 		.ascii "byte3\0"
 9339      3300
 9340 49e3 0C       		.byte	0xc
 9341 49e4 27       		.byte	0x27
 9342 49e5 ED000000 		.long	0xed
 9343 49e9 02       		.byte	0x2
GAS LISTING /cygdrive/c/Users/THESCI~1/AppData/Local/Temp/ccu2GGTU.s 			page 203


 9344 49ea 23       		.byte	0x23
 9345 49eb 02       		.uleb128 0x2
 9346 49ec 0D       		.uleb128 0xd
 9347 49ed 62797465 		.ascii "byte4\0"
 9347      3400
 9348 49f3 0C       		.byte	0xc
 9349 49f4 28       		.byte	0x28
 9350 49f5 ED000000 		.long	0xed
 9351 49f9 02       		.byte	0x2
 9352 49fa 23       		.byte	0x23
 9353 49fb 03       		.uleb128 0x3
 9354 49fc 00       		.byte	0x0
 9355 49fd 21       		.uleb128 0x21
 9356 49fe 63733232 		.ascii "cs229dimension\0"
 9356      3964696D 
 9356      656E7369 
 9356      6F6E00
 9357 4a0d 04       		.byte	0x4
 9358 4a0e 0C       		.byte	0xc
 9359 4a0f 22       		.byte	0x22
 9360 4a10 2F4A0000 		.long	0x4a2f
 9361 4a14 08       		.uleb128 0x8
 9362 4a15 62797465 		.ascii "bytes\0"
 9362      7300
 9363 4a1b 0C       		.byte	0xc
 9364 4a1c 29       		.byte	0x29
 9365 4a1d B4490000 		.long	0x49b4
 9366 4a21 08       		.uleb128 0x8
 9367 4a22 76616C75 		.ascii "value\0"
 9367      6500
 9368 4a28 0C       		.byte	0xc
 9369 4a29 2B       		.byte	0x2b
 9370 4a2a 98000000 		.long	0x98
 9371 4a2e 00       		.byte	0x0
 9372 4a2f 03       		.uleb128 0x3
 9373 4a30 43534449 		.ascii "CSDIM\0"
 9373      4D00
 9374 4a36 0C       		.byte	0xc
 9375 4a37 2C       		.byte	0x2c
 9376 4a38 FD490000 		.long	0x49fd
 9377 4a3c 07       		.uleb128 0x7
 9378 4a3d 01       		.byte	0x1
 9379 4a3e 0C       		.byte	0xc
 9380 4a3f 36       		.byte	0x36
 9381 4a40 7C4A0000 		.long	0x4a7c
 9382 4a44 08       		.uleb128 0x8
 9383 4a45 7265645F 		.ascii "red_channel_size\0"
 9383      6368616E 
 9383      6E656C5F 
 9383      73697A65 
 9383      00
 9384 4a56 0C       		.byte	0xc
 9385 4a57 37       		.byte	0x37
 9386 4a58 ED000000 		.long	0xed
 9387 4a5c 08       		.uleb128 0x8
 9388 4a5d 626C6163 		.ascii "blackwhite_channel_size\0"
 9388      6B776869 
GAS LISTING /cygdrive/c/Users/THESCI~1/AppData/Local/Temp/ccu2GGTU.s 			page 204


 9388      74655F63 
 9388      68616E6E 
 9388      656C5F73 
 9389 4a75 0C       		.byte	0xc
 9390 4a76 38       		.byte	0x38
 9391 4a77 ED000000 		.long	0xed
 9392 4a7b 00       		.byte	0x0
 9393 4a7c 0E       		.uleb128 0xe
 9394 4a7d 63733232 		.ascii "cs229image\0"
 9394      39696D61 
 9394      676500
 9395 4a88 14       		.byte	0x14
 9396 4a89 0C       		.byte	0xc
 9397 4a8a 30       		.byte	0x30
 9398 4a8b 3D4B0000 		.long	0x4b3d
 9399 4a8f 0D       		.uleb128 0xd
 9400 4a90 6D616769 		.ascii "magic_number\0"
 9400      635F6E75 
 9400      6D626572 
 9400      00
 9401 4a9d 0C       		.byte	0xc
 9402 4a9e 31       		.byte	0x31
 9403 4a9f ED000000 		.long	0xed
 9404 4aa3 02       		.byte	0x2
 9405 4aa4 23       		.byte	0x23
 9406 4aa5 00       		.uleb128 0x0
 9407 4aa6 0D       		.uleb128 0xd
 9408 4aa7 636F6C6F 		.ascii "color_mode\0"
 9408      725F6D6F 
 9408      646500
 9409 4ab2 0C       		.byte	0xc
 9410 4ab3 33       		.byte	0x33
 9411 4ab4 ED000000 		.long	0xed
 9412 4ab8 02       		.byte	0x2
 9413 4ab9 23       		.byte	0x23
 9414 4aba 01       		.uleb128 0x1
 9415 4abb 0D       		.uleb128 0xd
 9416 4abc 66697273 		.ascii "first_channel\0"
 9416      745F6368 
 9416      616E6E65 
 9416      6C00
 9417 4aca 0C       		.byte	0xc
 9418 4acb 39       		.byte	0x39
 9419 4acc 3C4A0000 		.long	0x4a3c
 9420 4ad0 02       		.byte	0x2
 9421 4ad1 23       		.byte	0x23
 9422 4ad2 02       		.uleb128 0x2
 9423 4ad3 0D       		.uleb128 0xd
 9424 4ad4 67726565 		.ascii "green_channel_size\0"
 9424      6E5F6368 
 9424      616E6E65 
 9424      6C5F7369 
 9424      7A6500
 9425 4ae7 0C       		.byte	0xc
 9426 4ae8 3A       		.byte	0x3a
 9427 4ae9 ED000000 		.long	0xed
 9428 4aed 02       		.byte	0x2
GAS LISTING /cygdrive/c/Users/THESCI~1/AppData/Local/Temp/ccu2GGTU.s 			page 205


 9429 4aee 23       		.byte	0x23
 9430 4aef 03       		.uleb128 0x3
 9431 4af0 0D       		.uleb128 0xd
 9432 4af1 626C7565 		.ascii "blue_channel_size\0"
 9432      5F636861 
 9432      6E6E656C 
 9432      5F73697A 
 9432      6500
 9433 4b03 0C       		.byte	0xc
 9434 4b04 3B       		.byte	0x3b
 9435 4b05 ED000000 		.long	0xed
 9436 4b09 02       		.byte	0x2
 9437 4b0a 23       		.byte	0x23
 9438 4b0b 04       		.uleb128 0x4
 9439 4b0c 0D       		.uleb128 0xd
 9440 4b0d 68656967 		.ascii "height\0"
 9440      687400
 9441 4b14 0C       		.byte	0xc
 9442 4b15 3D       		.byte	0x3d
 9443 4b16 2F4A0000 		.long	0x4a2f
 9444 4b1a 02       		.byte	0x2
 9445 4b1b 23       		.byte	0x23
 9446 4b1c 08       		.uleb128 0x8
 9447 4b1d 0D       		.uleb128 0xd
 9448 4b1e 77696474 		.ascii "width\0"
 9448      6800
 9449 4b24 0C       		.byte	0xc
 9450 4b25 3E       		.byte	0x3e
 9451 4b26 2F4A0000 		.long	0x4a2f
 9452 4b2a 02       		.byte	0x2
 9453 4b2b 23       		.byte	0x23
 9454 4b2c 0C       		.uleb128 0xc
 9455 4b2d 0D       		.uleb128 0xd
 9456 4b2e 64617461 		.ascii "data\0"
 9456      00
 9457 4b33 0C       		.byte	0xc
 9458 4b34 40       		.byte	0x40
 9459 4b35 B6040000 		.long	0x4b6
 9460 4b39 02       		.byte	0x2
 9461 4b3a 23       		.byte	0x23
 9462 4b3b 10       		.uleb128 0x10
 9463 4b3c 00       		.byte	0x0
 9464 4b3d 03       		.uleb128 0x3
 9465 4b3e 43535049 		.ascii "CSPIC\0"
 9465      4300
 9466 4b44 0C       		.byte	0xc
 9467 4b45 41       		.byte	0x41
 9468 4b46 7C4A0000 		.long	0x4a7c
 9469 4b4a 03       		.uleb128 0x3
 9470 4b4b 50435350 		.ascii "PCSPIC\0"
 9470      494300
 9471 4b52 0C       		.byte	0xc
 9472 4b53 41       		.byte	0x41
 9473 4b54 584B0000 		.long	0x4b58
 9474 4b58 0F       		.uleb128 0xf
 9475 4b59 04       		.byte	0x4
 9476 4b5a 7C4A0000 		.long	0x4a7c
GAS LISTING /cygdrive/c/Users/THESCI~1/AppData/Local/Temp/ccu2GGTU.s 			page 206


 9477 4b5e 23       		.uleb128 0x23
 9478 4b5f 01       		.byte	0x1
 9479 4b60 4A617661 		.ascii "Java_CS229_1Image_ReportError\0"
 9479      5F435332 
 9479      32395F31 
 9479      496D6167 
 9479      655F5265 
 9480 4b7e 01       		.byte	0x1
 9481 4b7f D701     		.word	0x1d7
 9482 4b81 01       		.byte	0x1
 9483 4b82 E50C0000 		.long	0xce5
 9484 4b86 00000000 		.long	LFB11
 9485 4b8a 15000000 		.long	LFE11
 9486 4b8e 00000000 		.secrel32	LLST0
 9487 4b92 C44B0000 		.long	0x4bc4
 9488 4b96 24       		.uleb128 0x24
 9489 4b97 656E7600 		.ascii "env\0"
 9490 4b9b 01       		.byte	0x1
 9491 4b9c D601     		.word	0x1d6
 9492 4b9e 4A2C0000 		.long	0x2c4a
 9493 4ba2 02       		.byte	0x2
 9494 4ba3 91       		.byte	0x91
 9495 4ba4 00       		.sleb128 0
 9496 4ba5 25       		.uleb128 0x25
 9497 4ba6 28000000 		.secrel32	LASF6
 9498 4baa 01       		.byte	0x1
 9499 4bab D601     		.word	0x1d6
 9500 4bad 580D0000 		.long	0xd58
 9501 4bb1 02       		.byte	0x2
 9502 4bb2 91       		.byte	0x91
 9503 4bb3 04       		.sleb128 4
 9504 4bb4 24       		.uleb128 0x24
 9505 4bb5 65727200 		.ascii "err\0"
 9506 4bb9 01       		.byte	0x1
 9507 4bba D601     		.word	0x1d6
 9508 4bbc E50C0000 		.long	0xce5
 9509 4bc0 02       		.byte	0x2
 9510 4bc1 91       		.byte	0x91
 9511 4bc2 08       		.sleb128 8
 9512 4bc3 00       		.byte	0x0
 9513 4bc4 23       		.uleb128 0x23
 9514 4bc5 01       		.byte	0x1
 9515 4bc6 636F6E76 		.ascii "convolute_this\0"
 9515      6F6C7574 
 9515      655F7468 
 9515      697300
 9516 4bd5 01       		.byte	0x1
 9517 4bd6 DF01     		.word	0x1df
 9518 4bd8 01       		.byte	0x1
 9519 4bd9 98000000 		.long	0x98
 9520 4bdd 20000000 		.long	LFB12
 9521 4be1 FB010000 		.long	LFE12
 9522 4be5 2C000000 		.secrel32	LLST1
 9523 4be9 744C0000 		.long	0x4c74
 9524 4bed 26       		.uleb128 0x26
 9525 4bee 66696C65 		.ascii "file\0"
 9525      00
GAS LISTING /cygdrive/c/Users/THESCI~1/AppData/Local/Temp/ccu2GGTU.s 			page 207


 9526 4bf3 01       		.byte	0x1
 9527 4bf4 DE01     		.word	0x1de
 9528 4bf6 B6040000 		.long	0x4b6
 9529 4bfa 58000000 		.secrel32	LLST2
 9530 4bfe 26       		.uleb128 0x26
 9531 4bff 70696374 		.ascii "picture\0"
 9531      75726500 
 9532 4c07 01       		.byte	0x1
 9533 4c08 DE01     		.word	0x1de
 9534 4c0a 4A4B0000 		.long	0x4b4a
 9535 4c0e 78000000 		.secrel32	LLST3
 9536 4c12 27       		.uleb128 0x27
 9537 4c13 65727200 		.ascii "err\0"
 9538 4c17 01       		.byte	0x1
 9539 4c18 E101     		.word	0x1e1
 9540 4c1a 98000000 		.long	0x98
 9541 4c1e 02       		.byte	0x2
 9542 4c1f 75       		.byte	0x75
 9543 4c20 68       		.sleb128 -24
 9544 4c21 28       		.uleb128 0x28
 9545 4c22 6900     		.ascii "i\0"
 9546 4c24 01       		.byte	0x1
 9547 4c25 E201     		.word	0x1e2
 9548 4c27 98000000 		.long	0x98
 9549 4c2b B0000000 		.secrel32	LLST4
 9550 4c2f 28       		.uleb128 0x28
 9551 4c30 6A00     		.ascii "j\0"
 9552 4c32 01       		.byte	0x1
 9553 4c33 E301     		.word	0x1e3
 9554 4c35 98000000 		.long	0x98
 9555 4c39 E4000000 		.secrel32	LLST5
 9556 4c3d 27       		.uleb128 0x27
 9557 4c3e 656E6400 		.ascii "end\0"
 9558 4c42 01       		.byte	0x1
 9559 4c43 E401     		.word	0x1e4
 9560 4c45 98000000 		.long	0x98
 9561 4c49 02       		.byte	0x2
 9562 4c4a 75       		.byte	0x75
 9563 4c4b 6C       		.sleb128 -20
 9564 4c4c 29       		.uleb128 0x29
 9565 4c4d 6E00     		.ascii "n\0"
 9566 4c4f 01       		.byte	0x1
 9567 4c50 E501     		.word	0x1e5
 9568 4c52 744C0000 		.long	0x4c74
 9569 4c56 29       		.uleb128 0x29
 9570 4c57 6B65726E 		.ascii "kernel\0"
 9570      656C00
 9571 4c5e 01       		.byte	0x1
 9572 4c5f E601     		.word	0x1e6
 9573 4c61 7A4C0000 		.long	0x4c7a
 9574 4c65 28       		.uleb128 0x28
 9575 4c66 6600     		.ascii "f\0"
 9576 4c68 01       		.byte	0x1
 9577 4c69 E701     		.word	0x1e7
 9578 4c6b A7490000 		.long	0x49a7
 9579 4c6f 0D010000 		.secrel32	LLST6
 9580 4c73 00       		.byte	0x0
GAS LISTING /cygdrive/c/Users/THESCI~1/AppData/Local/Temp/ccu2GGTU.s 			page 208


 9581 4c74 0F       		.uleb128 0xf
 9582 4c75 04       		.byte	0x4
 9583 4c76 A00C0000 		.long	0xca0
 9584 4c7a 0F       		.uleb128 0xf
 9585 4c7b 04       		.byte	0x4
 9586 4c7c 804C0000 		.long	0x4c80
 9587 4c80 0F       		.uleb128 0xf
 9588 4c81 04       		.byte	0x4
 9589 4c82 290D0000 		.long	0xd29
 9590 4c86 23       		.uleb128 0x23
 9591 4c87 01       		.byte	0x1
 9592 4c88 4A617661 		.ascii "Java_CS229_1Image_Convolute\0"
 9592      5F435332 
 9592      32395F31 
 9592      496D6167 
 9592      655F436F 
 9593 4ca4 01       		.byte	0x1
 9594 4ca5 1701     		.word	0x117
 9595 4ca7 01       		.byte	0x1
 9596 4ca8 E50C0000 		.long	0xce5
 9597 4cac 00020000 		.long	LFB8
 9598 4cb0 6F040000 		.long	LFE8
 9599 4cb4 2B010000 		.secrel32	LLST7
 9600 4cb8 604D0000 		.long	0x4d60
 9601 4cbc 26       		.uleb128 0x26
 9602 4cbd 656E7600 		.ascii "env\0"
 9603 4cc1 01       		.byte	0x1
 9604 4cc2 1601     		.word	0x116
 9605 4cc4 4A2C0000 		.long	0x2c4a
 9606 4cc8 57010000 		.secrel32	LLST8
 9607 4ccc 25       		.uleb128 0x25
 9608 4ccd 28000000 		.secrel32	LASF6
 9609 4cd1 01       		.byte	0x1
 9610 4cd2 1601     		.word	0x116
 9611 4cd4 580D0000 		.long	0xd58
 9612 4cd8 02       		.byte	0x2
 9613 4cd9 91       		.byte	0x91
 9614 4cda 04       		.sleb128 4
 9615 4cdb 26       		.uleb128 0x26
 9616 4cdc 66696C65 		.ascii "file\0"
 9616      00
 9617 4ce1 01       		.byte	0x1
 9618 4ce2 1601     		.word	0x116
 9619 4ce4 220E0000 		.long	0xe22
 9620 4ce8 82010000 		.secrel32	LLST9
 9621 4cec 27       		.uleb128 0x27
 9622 4ced 70696300 		.ascii "pic\0"
 9623 4cf1 01       		.byte	0x1
 9624 4cf2 1901     		.word	0x119
 9625 4cf4 3D4B0000 		.long	0x4b3d
 9626 4cf8 02       		.byte	0x2
 9627 4cf9 91       		.byte	0x91
 9628 4cfa 58       		.sleb128 -40
 9629 4cfb 28       		.uleb128 0x28
 9630 4cfc 6C656E00 		.ascii "len\0"
 9631 4d00 01       		.byte	0x1
 9632 4d01 1A01     		.word	0x11a
GAS LISTING /cygdrive/c/Users/THESCI~1/AppData/Local/Temp/ccu2GGTU.s 			page 209


 9633 4d03 4B0D0000 		.long	0xd4b
 9634 4d07 A2010000 		.secrel32	LLST10
 9635 4d0b 28       		.uleb128 0x28
 9636 4d0c 61727200 		.ascii "arr\0"
 9637 4d10 01       		.byte	0x1
 9638 4d11 1B01     		.word	0x11b
 9639 4d13 19430000 		.long	0x4319
 9640 4d17 B5010000 		.secrel32	LLST11
 9641 4d1b 28       		.uleb128 0x28
 9642 4d1c 6900     		.ascii "i\0"
 9643 4d1e 01       		.byte	0x1
 9644 4d1f 1C01     		.word	0x11c
 9645 4d21 98000000 		.long	0x98
 9646 4d25 C8010000 		.secrel32	LLST12
 9647 4d29 27       		.uleb128 0x27
 9648 4d2a 6C6F6300 		.ascii "loc\0"
 9649 4d2e 01       		.byte	0x1
 9650 4d2f 1D01     		.word	0x11d
 9651 4d31 604D0000 		.long	0x4d60
 9652 4d35 03       		.byte	0x3
 9653 4d36 91       		.byte	0x91
 9654 4d37 D47D     		.sleb128 -300
 9655 4d39 2A       		.uleb128 0x2a
 9656 4d3a 00000000 		.secrel32	Ldebug_ranges0+0x0
 9657 4d3e 28       		.uleb128 0x28
 9658 4d3f 636C7300 		.ascii "cls\0"
 9659 4d43 01       		.byte	0x1
 9660 4d44 3001     		.word	0x130
 9661 4d46 670D0000 		.long	0xd67
 9662 4d4a DB010000 		.secrel32	LLST13
 9663 4d4e 28       		.uleb128 0x28
 9664 4d4f 66696400 		.ascii "fid\0"
 9665 4d53 01       		.byte	0x1
 9666 4d54 3101     		.word	0x131
 9667 4d56 322B0000 		.long	0x2b32
 9668 4d5a EE010000 		.secrel32	LLST14
 9669 4d5e 00       		.byte	0x0
 9670 4d5f 00       		.byte	0x0
 9671 4d60 09       		.uleb128 0x9
 9672 4d61 ED000000 		.long	0xed
 9673 4d65 714D0000 		.long	0x4d71
 9674 4d69 2B       		.uleb128 0x2b
 9675 4d6a F3010000 		.long	0x1f3
 9676 4d6e 0101     		.word	0x101
 9677 4d70 00       		.byte	0x0
 9678 4d71 23       		.uleb128 0x23
 9679 4d72 01       		.byte	0x1
 9680 4d73 4A617661 		.ascii "Java_CS229_1Image_Free\0"
 9680      5F435332 
 9680      32395F31 
 9680      496D6167 
 9680      655F4672 
 9681 4d8a 01       		.byte	0x1
 9682 4d8b BC01     		.word	0x1bc
 9683 4d8d 01       		.byte	0x1
 9684 4d8e E50C0000 		.long	0xce5
 9685 4d92 70040000 		.long	LFB10
GAS LISTING /cygdrive/c/Users/THESCI~1/AppData/Local/Temp/ccu2GGTU.s 			page 210


 9686 4d96 CD040000 		.long	LFE10
 9687 4d9a 4E020000 		.secrel32	LLST15
 9688 4d9e F84D0000 		.long	0x4df8
 9689 4da2 24       		.uleb128 0x24
 9690 4da3 656E7600 		.ascii "env\0"
 9691 4da7 01       		.byte	0x1
 9692 4da8 BB01     		.word	0x1bb
 9693 4daa 4A2C0000 		.long	0x2c4a
 9694 4dae 02       		.byte	0x2
 9695 4daf 91       		.byte	0x91
 9696 4db0 00       		.sleb128 0
 9697 4db1 25       		.uleb128 0x25
 9698 4db2 28000000 		.secrel32	LASF6
 9699 4db6 01       		.byte	0x1
 9700 4db7 BB01     		.word	0x1bb
 9701 4db9 580D0000 		.long	0xd58
 9702 4dbd 02       		.byte	0x2
 9703 4dbe 91       		.byte	0x91
 9704 4dbf 04       		.sleb128 4
 9705 4dc0 29       		.uleb128 0x29
 9706 4dc1 64617461 		.ascii "data\0"
 9706      00
 9707 4dc6 01       		.byte	0x1
 9708 4dc7 BE01     		.word	0x1be
 9709 4dc9 B6040000 		.long	0x4b6
 9710 4dcd 2C       		.uleb128 0x2c
 9711 4dce 7E040000 		.long	LBB4
 9712 4dd2 BC040000 		.long	LBE4
 9713 4dd6 28       		.uleb128 0x28
 9714 4dd7 636C7300 		.ascii "cls\0"
 9715 4ddb 01       		.byte	0x1
 9716 4ddc C301     		.word	0x1c3
 9717 4dde 670D0000 		.long	0xd67
 9718 4de2 7A020000 		.secrel32	LLST16
 9719 4de6 28       		.uleb128 0x28
 9720 4de7 66696400 		.ascii "fid\0"
 9721 4deb 01       		.byte	0x1
 9722 4dec C401     		.word	0x1c4
 9723 4dee 322B0000 		.long	0x2b32
 9724 4df2 8D020000 		.secrel32	LLST17
 9725 4df6 00       		.byte	0x0
 9726 4df7 00       		.byte	0x0
 9727 4df8 23       		.uleb128 0x23
 9728 4df9 01       		.byte	0x1
 9729 4dfa 4A617661 		.ascii "Java_CS229_1Image_GetPixel\0"
 9729      5F435332 
 9729      32395F31 
 9729      496D6167 
 9729      655F4765 
 9730 4e15 01       		.byte	0x1
 9731 4e16 6301     		.word	0x163
 9732 4e18 01       		.byte	0x1
 9733 4e19 E50C0000 		.long	0xce5
 9734 4e1d D0040000 		.long	LFB9
 9735 4e21 6A070000 		.long	LFE9
 9736 4e25 A0020000 		.secrel32	LLST18
 9737 4e29 234F0000 		.long	0x4f23
GAS LISTING /cygdrive/c/Users/THESCI~1/AppData/Local/Temp/ccu2GGTU.s 			page 211


 9738 4e2d 26       		.uleb128 0x26
 9739 4e2e 656E7600 		.ascii "env\0"
 9740 4e32 01       		.byte	0x1
 9741 4e33 6201     		.word	0x162
 9742 4e35 4A2C0000 		.long	0x2c4a
 9743 4e39 CC020000 		.secrel32	LLST19
 9744 4e3d 2D       		.uleb128 0x2d
 9745 4e3e 28000000 		.secrel32	LASF6
 9746 4e42 01       		.byte	0x1
 9747 4e43 6201     		.word	0x162
 9748 4e45 580D0000 		.long	0xd58
 9749 4e49 0E030000 		.secrel32	LLST20
 9750 4e4d 26       		.uleb128 0x26
 9751 4e4e 7800     		.ascii "x\0"
 9752 4e50 01       		.byte	0x1
 9753 4e51 6201     		.word	0x162
 9754 4e53 E50C0000 		.long	0xce5
 9755 4e57 45030000 		.secrel32	LLST21
 9756 4e5b 26       		.uleb128 0x26
 9757 4e5c 7900     		.ascii "y\0"
 9758 4e5e 01       		.byte	0x1
 9759 4e5f 6201     		.word	0x162
 9760 4e61 E50C0000 		.long	0xce5
 9761 4e65 65030000 		.secrel32	LLST22
 9762 4e69 26       		.uleb128 0x26
 9763 4e6a 636F6C6F 		.ascii "color\0"
 9763      7200
 9764 4e70 01       		.byte	0x1
 9765 4e71 6201     		.word	0x162
 9766 4e73 EA0D0000 		.long	0xdea
 9767 4e77 85030000 		.secrel32	LLST23
 9768 4e7b 27       		.uleb128 0x27
 9769 4e7c 70696300 		.ascii "pic\0"
 9770 4e80 01       		.byte	0x1
 9771 4e81 6501     		.word	0x165
 9772 4e83 3D4B0000 		.long	0x4b3d
 9773 4e87 02       		.byte	0x2
 9774 4e88 91       		.byte	0x91
 9775 4e89 4C       		.sleb128 -52
 9776 4e8a 28       		.uleb128 0x28
 9777 4e8b 65727200 		.ascii "err\0"
 9778 4e8f 01       		.byte	0x1
 9779 4e90 6601     		.word	0x166
 9780 4e92 98000000 		.long	0x98
 9781 4e96 A5030000 		.secrel32	LLST24
 9782 4e9a 27       		.uleb128 0x27
 9783 4e9b 7265745F 		.ascii "ret_color\0"
 9783      636F6C6F 
 9783      7200
 9784 4ea5 01       		.byte	0x1
 9785 4ea6 6701     		.word	0x167
 9786 4ea8 234F0000 		.long	0x4f23
 9787 4eac 02       		.byte	0x2
 9788 4ead 91       		.byte	0x91
 9789 4eae 60       		.sleb128 -32
 9790 4eaf 28       		.uleb128 0x28
 9791 4eb0 706F7300 		.ascii "pos\0"
GAS LISTING /cygdrive/c/Users/THESCI~1/AppData/Local/Temp/ccu2GGTU.s 			page 212


 9792 4eb4 01       		.byte	0x1
 9793 4eb5 6801     		.word	0x168
 9794 4eb7 98000000 		.long	0x98
 9795 4ebb C3030000 		.secrel32	LLST25
 9796 4ebf 2E       		.uleb128 0x2e
 9797 4ec0 18000000 		.secrel32	Ldebug_ranges0+0x18
 9798 4ec4 F94E0000 		.long	0x4ef9
 9799 4ec8 28       		.uleb128 0x28
 9800 4ec9 636C7300 		.ascii "cls\0"
 9801 4ecd 01       		.byte	0x1
 9802 4ece 6D01     		.word	0x16d
 9803 4ed0 670D0000 		.long	0xd67
 9804 4ed4 D6030000 		.secrel32	LLST26
 9805 4ed8 28       		.uleb128 0x28
 9806 4ed9 66696400 		.ascii "fid\0"
 9807 4edd 01       		.byte	0x1
 9808 4ede 6E01     		.word	0x16e
 9809 4ee0 322B0000 		.long	0x2b32
 9810 4ee4 F4030000 		.secrel32	LLST27
 9811 4ee8 28       		.uleb128 0x28
 9812 4ee9 6C656E00 		.ascii "len\0"
 9813 4eed 01       		.byte	0x1
 9814 4eee 6F01     		.word	0x16f
 9815 4ef0 4B0D0000 		.long	0xd4b
 9816 4ef4 54040000 		.secrel32	LLST28
 9817 4ef8 00       		.byte	0x0
 9818 4ef9 2C       		.uleb128 0x2c
 9819 4efa 04070000 		.long	LBB9
 9820 4efe 60070000 		.long	LBE9
 9821 4f02 28       		.uleb128 0x28
 9822 4f03 6F726967 		.ascii "orig\0"
 9822      00
 9823 4f08 01       		.byte	0x1
 9824 4f09 A701     		.word	0x1a7
 9825 4f0b 65430000 		.long	0x4365
 9826 4f0f 72040000 		.secrel32	LLST29
 9827 4f13 28       		.uleb128 0x28
 9828 4f14 6900     		.ascii "i\0"
 9829 4f16 01       		.byte	0x1
 9830 4f17 A801     		.word	0x1a8
 9831 4f19 98000000 		.long	0x98
 9832 4f1d 85040000 		.secrel32	LLST30
 9833 4f21 00       		.byte	0x0
 9834 4f22 00       		.byte	0x0
 9835 4f23 09       		.uleb128 0x9
 9836 4f24 98000000 		.long	0x98
 9837 4f28 334F0000 		.long	0x4f33
 9838 4f2c 0A       		.uleb128 0xa
 9839 4f2d F3010000 		.long	0x1f3
 9840 4f31 02       		.byte	0x2
 9841 4f32 00       		.byte	0x0
 9842 4f33 2F       		.uleb128 0x2f
 9843 4f34 01       		.byte	0x1
 9844 4f35 4A617661 		.ascii "Java_CS229_1Image_Save\0"
 9844      5F435332 
 9844      32395F31 
 9844      496D6167 
GAS LISTING /cygdrive/c/Users/THESCI~1/AppData/Local/Temp/ccu2GGTU.s 			page 213


 9844      655F5361 
 9845 4f4c 01       		.byte	0x1
 9846 4f4d BF       		.byte	0xbf
 9847 4f4e 01       		.byte	0x1
 9848 4f4f E50C0000 		.long	0xce5
 9849 4f53 70070000 		.long	LFB7
 9850 4f57 200A0000 		.long	LFE7
 9851 4f5b 98040000 		.secrel32	LLST31
 9852 4f5f 0B500000 		.long	0x500b
 9853 4f63 30       		.uleb128 0x30
 9854 4f64 656E7600 		.ascii "env\0"
 9855 4f68 01       		.byte	0x1
 9856 4f69 BE       		.byte	0xbe
 9857 4f6a 4A2C0000 		.long	0x2c4a
 9858 4f6e C4040000 		.secrel32	LLST32
 9859 4f72 31       		.uleb128 0x31
 9860 4f73 28000000 		.secrel32	LASF6
 9861 4f77 01       		.byte	0x1
 9862 4f78 BE       		.byte	0xbe
 9863 4f79 580D0000 		.long	0xd58
 9864 4f7d FA040000 		.secrel32	LLST33
 9865 4f81 30       		.uleb128 0x30
 9866 4f82 66696C65 		.ascii "file\0"
 9866      00
 9867 4f87 01       		.byte	0x1
 9868 4f88 BE       		.byte	0xbe
 9869 4f89 220E0000 		.long	0xe22
 9870 4f8d 1A050000 		.secrel32	LLST34
 9871 4f91 32       		.uleb128 0x32
 9872 4f92 70696300 		.ascii "pic\0"
 9873 4f96 01       		.byte	0x1
 9874 4f97 C1       		.byte	0xc1
 9875 4f98 3D4B0000 		.long	0x4b3d
 9876 4f9c 02       		.byte	0x2
 9877 4f9d 91       		.byte	0x91
 9878 4f9e 58       		.sleb128 -40
 9879 4f9f 33       		.uleb128 0x33
 9880 4fa0 6600     		.ascii "f\0"
 9881 4fa2 01       		.byte	0x1
 9882 4fa3 C2       		.byte	0xc2
 9883 4fa4 A7490000 		.long	0x49a7
 9884 4fa8 3A050000 		.secrel32	LLST35
 9885 4fac 33       		.uleb128 0x33
 9886 4fad 6C656E00 		.ascii "len\0"
 9887 4fb1 01       		.byte	0x1
 9888 4fb2 C3       		.byte	0xc3
 9889 4fb3 4B0D0000 		.long	0xd4b
 9890 4fb7 58050000 		.secrel32	LLST36
 9891 4fbb 33       		.uleb128 0x33
 9892 4fbc 61727200 		.ascii "arr\0"
 9893 4fc0 01       		.byte	0x1
 9894 4fc1 C4       		.byte	0xc4
 9895 4fc2 19430000 		.long	0x4319
 9896 4fc6 6B050000 		.secrel32	LLST37
 9897 4fca 33       		.uleb128 0x33
 9898 4fcb 6900     		.ascii "i\0"
 9899 4fcd 01       		.byte	0x1
GAS LISTING /cygdrive/c/Users/THESCI~1/AppData/Local/Temp/ccu2GGTU.s 			page 214


 9900 4fce C5       		.byte	0xc5
 9901 4fcf 98000000 		.long	0x98
 9902 4fd3 7E050000 		.secrel32	LLST38
 9903 4fd7 32       		.uleb128 0x32
 9904 4fd8 6C6F6300 		.ascii "loc\0"
 9905 4fdc 01       		.byte	0x1
 9906 4fdd C6       		.byte	0xc6
 9907 4fde 604D0000 		.long	0x4d60
 9908 4fe2 03       		.byte	0x3
 9909 4fe3 91       		.byte	0x91
 9910 4fe4 D47D     		.sleb128 -300
 9911 4fe6 2A       		.uleb128 0x2a
 9912 4fe7 40000000 		.secrel32	Ldebug_ranges0+0x40
 9913 4feb 33       		.uleb128 0x33
 9914 4fec 636C7300 		.ascii "cls\0"
 9915 4ff0 01       		.byte	0x1
 9916 4ff1 D9       		.byte	0xd9
 9917 4ff2 670D0000 		.long	0xd67
 9918 4ff6 A7050000 		.secrel32	LLST39
 9919 4ffa 33       		.uleb128 0x33
 9920 4ffb 66696400 		.ascii "fid\0"
 9921 4fff 01       		.byte	0x1
 9922 5000 DA       		.byte	0xda
 9923 5001 322B0000 		.long	0x2b32
 9924 5005 BA050000 		.secrel32	LLST40
 9925 5009 00       		.byte	0x0
 9926 500a 00       		.byte	0x0
 9927 500b 34       		.uleb128 0x34
 9928 500c 01       		.byte	0x1
 9929 500d 4A617661 		.ascii "Java_CS229_1Image_Load\0"
 9929      5F435332 
 9929      32395F31 
 9929      496D6167 
 9929      655F4C6F 
 9930 5024 01       		.byte	0x1
 9931 5025 1B       		.byte	0x1b
 9932 5026 01       		.byte	0x1
 9933 5027 E50C0000 		.long	0xce5
 9934 502b 200A0000 		.long	LFB6
 9935 502f A60D0000 		.long	LFE6
 9936 5033 1A060000 		.secrel32	LLST41
 9937 5037 30       		.uleb128 0x30
 9938 5038 656E7600 		.ascii "env\0"
 9939 503c 01       		.byte	0x1
 9940 503d 1A       		.byte	0x1a
 9941 503e 4A2C0000 		.long	0x2c4a
 9942 5042 46060000 		.secrel32	LLST42
 9943 5046 31       		.uleb128 0x31
 9944 5047 28000000 		.secrel32	LASF6
 9945 504b 01       		.byte	0x1
 9946 504c 1A       		.byte	0x1a
 9947 504d 580D0000 		.long	0xd58
 9948 5051 93060000 		.secrel32	LLST43
 9949 5055 30       		.uleb128 0x30
 9950 5056 66696C65 		.ascii "file\0"
 9950      00
 9951 505b 01       		.byte	0x1
GAS LISTING /cygdrive/c/Users/THESCI~1/AppData/Local/Temp/ccu2GGTU.s 			page 215


 9952 505c 1A       		.byte	0x1a
 9953 505d 220E0000 		.long	0xe22
 9954 5061 B3060000 		.secrel32	LLST44
 9955 5065 35       		.uleb128 0x35
 9956 5066 70696300 		.ascii "pic\0"
 9957 506a 01       		.byte	0x1
 9958 506b 1D       		.byte	0x1d
 9959 506c 4A4B0000 		.long	0x4b4a
 9960 5070 32       		.uleb128 0x32
 9961 5071 6600     		.ascii "f\0"
 9962 5073 01       		.byte	0x1
 9963 5074 1E       		.byte	0x1e
 9964 5075 A7490000 		.long	0x49a7
 9965 5079 03       		.byte	0x3
 9966 507a 75       		.byte	0x75
 9967 507b E07D     		.sleb128 -288
 9968 507d 33       		.uleb128 0x33
 9969 507e 6C656E00 		.ascii "len\0"
 9970 5082 01       		.byte	0x1
 9971 5083 1F       		.byte	0x1f
 9972 5084 4B0D0000 		.long	0xd4b
 9973 5088 D3060000 		.secrel32	LLST45
 9974 508c 33       		.uleb128 0x33
 9975 508d 61727200 		.ascii "arr\0"
 9976 5091 01       		.byte	0x1
 9977 5092 20       		.byte	0x20
 9978 5093 19430000 		.long	0x4319
 9979 5097 F1060000 		.secrel32	LLST46
 9980 509b 33       		.uleb128 0x33
 9981 509c 6900     		.ascii "i\0"
 9982 509e 01       		.byte	0x1
 9983 509f 21       		.byte	0x21
 9984 50a0 98000000 		.long	0x98
 9985 50a4 04070000 		.secrel32	LLST47
 9986 50a8 32       		.uleb128 0x32
 9987 50a9 6C6F6300 		.ascii "loc\0"
 9988 50ad 01       		.byte	0x1
 9989 50ae 22       		.byte	0x22
 9990 50af 604D0000 		.long	0x4d60
 9991 50b3 03       		.byte	0x3
 9992 50b4 91       		.byte	0x91
 9993 50b5 E87D     		.sleb128 -280
 9994 50b7 2A       		.uleb128 0x2a
 9995 50b8 58000000 		.secrel32	Ldebug_ranges0+0x58
 9996 50bc 33       		.uleb128 0x33
 9997 50bd 636C7300 		.ascii "cls\0"
 9998 50c1 01       		.byte	0x1
 9999 50c2 4B       		.byte	0x4b
 10000 50c3 670D0000 		.long	0xd67
 10001 50c7 2D070000 		.secrel32	LLST48
 10002 50cb 33       		.uleb128 0x33
 10003 50cc 66696400 		.ascii "fid\0"
 10004 50d0 01       		.byte	0x1
 10005 50d1 4C       		.byte	0x4c
 10006 50d2 322B0000 		.long	0x2b32
 10007 50d6 56070000 		.secrel32	LLST49
 10008 50da 00       		.byte	0x0
GAS LISTING /cygdrive/c/Users/THESCI~1/AppData/Local/Temp/ccu2GGTU.s 			page 216


 10009 50db 00       		.byte	0x0
 10010 50dc 00       		.byte	0x0
 10011              		.section	.debug_abbrev,"dr"
 10012 0000 01       		.uleb128 0x1
 10013 0001 11       		.uleb128 0x11
 10014 0002 01       		.byte	0x1
 10015 0003 25       		.uleb128 0x25
 10016 0004 08       		.uleb128 0x8
 10017 0005 13       		.uleb128 0x13
 10018 0006 0B       		.uleb128 0xb
 10019 0007 03       		.uleb128 0x3
 10020 0008 08       		.uleb128 0x8
 10021 0009 1B       		.uleb128 0x1b
 10022 000a 08       		.uleb128 0x8
 10023 000b 11       		.uleb128 0x11
 10024 000c 01       		.uleb128 0x1
 10025 000d 12       		.uleb128 0x12
 10026 000e 01       		.uleb128 0x1
 10027 000f 10       		.uleb128 0x10
 10028 0010 06       		.uleb128 0x6
 10029 0011 00       		.byte	0x0
 10030 0012 00       		.byte	0x0
 10031 0013 02       		.uleb128 0x2
 10032 0014 24       		.uleb128 0x24
 10033 0015 00       		.byte	0x0
 10034 0016 0B       		.uleb128 0xb
 10035 0017 0B       		.uleb128 0xb
 10036 0018 3E       		.uleb128 0x3e
 10037 0019 0B       		.uleb128 0xb
 10038 001a 03       		.uleb128 0x3
 10039 001b 08       		.uleb128 0x8
 10040 001c 00       		.byte	0x0
 10041 001d 00       		.byte	0x0
 10042 001e 03       		.uleb128 0x3
 10043 001f 16       		.uleb128 0x16
 10044 0020 00       		.byte	0x0
 10045 0021 03       		.uleb128 0x3
 10046 0022 08       		.uleb128 0x8
 10047 0023 3A       		.uleb128 0x3a
 10048 0024 0B       		.uleb128 0xb
 10049 0025 3B       		.uleb128 0x3b
 10050 0026 0B       		.uleb128 0xb
 10051 0027 49       		.uleb128 0x49
 10052 0028 13       		.uleb128 0x13
 10053 0029 00       		.byte	0x0
 10054 002a 00       		.byte	0x0
 10055 002b 04       		.uleb128 0x4
 10056 002c 0F       		.uleb128 0xf
 10057 002d 00       		.byte	0x0
 10058 002e 0B       		.uleb128 0xb
 10059 002f 0B       		.uleb128 0xb
 10060 0030 03       		.uleb128 0x3
 10061 0031 08       		.uleb128 0x8
 10062 0032 49       		.uleb128 0x49
 10063 0033 13       		.uleb128 0x13
 10064 0034 00       		.byte	0x0
 10065 0035 00       		.byte	0x0
GAS LISTING /cygdrive/c/Users/THESCI~1/AppData/Local/Temp/ccu2GGTU.s 			page 217


 10066 0036 05       		.uleb128 0x5
 10067 0037 0F       		.uleb128 0xf
 10068 0038 00       		.byte	0x0
 10069 0039 0B       		.uleb128 0xb
 10070 003a 0B       		.uleb128 0xb
 10071 003b 00       		.byte	0x0
 10072 003c 00       		.byte	0x0
 10073 003d 06       		.uleb128 0x6
 10074 003e 16       		.uleb128 0x16
 10075 003f 00       		.byte	0x0
 10076 0040 03       		.uleb128 0x3
 10077 0041 08       		.uleb128 0x8
 10078 0042 3A       		.uleb128 0x3a
 10079 0043 0B       		.uleb128 0xb
 10080 0044 3B       		.uleb128 0x3b
 10081 0045 05       		.uleb128 0x5
 10082 0046 49       		.uleb128 0x49
 10083 0047 13       		.uleb128 0x13
 10084 0048 00       		.byte	0x0
 10085 0049 00       		.byte	0x0
 10086 004a 07       		.uleb128 0x7
 10087 004b 17       		.uleb128 0x17
 10088 004c 01       		.byte	0x1
 10089 004d 0B       		.uleb128 0xb
 10090 004e 0B       		.uleb128 0xb
 10091 004f 3A       		.uleb128 0x3a
 10092 0050 0B       		.uleb128 0xb
 10093 0051 3B       		.uleb128 0x3b
 10094 0052 0B       		.uleb128 0xb
 10095 0053 01       		.uleb128 0x1
 10096 0054 13       		.uleb128 0x13
 10097 0055 00       		.byte	0x0
 10098 0056 00       		.byte	0x0
 10099 0057 08       		.uleb128 0x8
 10100 0058 0D       		.uleb128 0xd
 10101 0059 00       		.byte	0x0
 10102 005a 03       		.uleb128 0x3
 10103 005b 08       		.uleb128 0x8
 10104 005c 3A       		.uleb128 0x3a
 10105 005d 0B       		.uleb128 0xb
 10106 005e 3B       		.uleb128 0x3b
 10107 005f 0B       		.uleb128 0xb
 10108 0060 49       		.uleb128 0x49
 10109 0061 13       		.uleb128 0x13
 10110 0062 00       		.byte	0x0
 10111 0063 00       		.byte	0x0
 10112 0064 09       		.uleb128 0x9
 10113 0065 01       		.uleb128 0x1
 10114 0066 01       		.byte	0x1
 10115 0067 49       		.uleb128 0x49
 10116 0068 13       		.uleb128 0x13
 10117 0069 01       		.uleb128 0x1
 10118 006a 13       		.uleb128 0x13
 10119 006b 00       		.byte	0x0
 10120 006c 00       		.byte	0x0
 10121 006d 0A       		.uleb128 0xa
 10122 006e 21       		.uleb128 0x21
GAS LISTING /cygdrive/c/Users/THESCI~1/AppData/Local/Temp/ccu2GGTU.s 			page 218


 10123 006f 00       		.byte	0x0
 10124 0070 49       		.uleb128 0x49
 10125 0071 13       		.uleb128 0x13
 10126 0072 2F       		.uleb128 0x2f
 10127 0073 0B       		.uleb128 0xb
 10128 0074 00       		.byte	0x0
 10129 0075 00       		.byte	0x0
 10130 0076 0B       		.uleb128 0xb
 10131 0077 24       		.uleb128 0x24
 10132 0078 00       		.byte	0x0
 10133 0079 0B       		.uleb128 0xb
 10134 007a 0B       		.uleb128 0xb
 10135 007b 3E       		.uleb128 0x3e
 10136 007c 0B       		.uleb128 0xb
 10137 007d 00       		.byte	0x0
 10138 007e 00       		.byte	0x0
 10139 007f 0C       		.uleb128 0xc
 10140 0080 13       		.uleb128 0x13
 10141 0081 01       		.byte	0x1
 10142 0082 0B       		.uleb128 0xb
 10143 0083 0B       		.uleb128 0xb
 10144 0084 3A       		.uleb128 0x3a
 10145 0085 0B       		.uleb128 0xb
 10146 0086 3B       		.uleb128 0x3b
 10147 0087 0B       		.uleb128 0xb
 10148 0088 01       		.uleb128 0x1
 10149 0089 13       		.uleb128 0x13
 10150 008a 00       		.byte	0x0
 10151 008b 00       		.byte	0x0
 10152 008c 0D       		.uleb128 0xd
 10153 008d 0D       		.uleb128 0xd
 10154 008e 00       		.byte	0x0
 10155 008f 03       		.uleb128 0x3
 10156 0090 08       		.uleb128 0x8
 10157 0091 3A       		.uleb128 0x3a
 10158 0092 0B       		.uleb128 0xb
 10159 0093 3B       		.uleb128 0x3b
 10160 0094 0B       		.uleb128 0xb
 10161 0095 49       		.uleb128 0x49
 10162 0096 13       		.uleb128 0x13
 10163 0097 38       		.uleb128 0x38
 10164 0098 0A       		.uleb128 0xa
 10165 0099 00       		.byte	0x0
 10166 009a 00       		.byte	0x0
 10167 009b 0E       		.uleb128 0xe
 10168 009c 13       		.uleb128 0x13
 10169 009d 01       		.byte	0x1
 10170 009e 03       		.uleb128 0x3
 10171 009f 08       		.uleb128 0x8
 10172 00a0 0B       		.uleb128 0xb
 10173 00a1 0B       		.uleb128 0xb
 10174 00a2 3A       		.uleb128 0x3a
 10175 00a3 0B       		.uleb128 0xb
 10176 00a4 3B       		.uleb128 0x3b
 10177 00a5 0B       		.uleb128 0xb
 10178 00a6 01       		.uleb128 0x1
 10179 00a7 13       		.uleb128 0x13
GAS LISTING /cygdrive/c/Users/THESCI~1/AppData/Local/Temp/ccu2GGTU.s 			page 219


 10180 00a8 00       		.byte	0x0
 10181 00a9 00       		.byte	0x0
 10182 00aa 0F       		.uleb128 0xf
 10183 00ab 0F       		.uleb128 0xf
 10184 00ac 00       		.byte	0x0
 10185 00ad 0B       		.uleb128 0xb
 10186 00ae 0B       		.uleb128 0xb
 10187 00af 49       		.uleb128 0x49
 10188 00b0 13       		.uleb128 0x13
 10189 00b1 00       		.byte	0x0
 10190 00b2 00       		.byte	0x0
 10191 00b3 10       		.uleb128 0x10
 10192 00b4 13       		.uleb128 0x13
 10193 00b5 01       		.byte	0x1
 10194 00b6 03       		.uleb128 0x3
 10195 00b7 0E       		.uleb128 0xe
 10196 00b8 0B       		.uleb128 0xb
 10197 00b9 05       		.uleb128 0x5
 10198 00ba 3A       		.uleb128 0x3a
 10199 00bb 0B       		.uleb128 0xb
 10200 00bc 3B       		.uleb128 0x3b
 10201 00bd 0B       		.uleb128 0xb
 10202 00be 01       		.uleb128 0x1
 10203 00bf 13       		.uleb128 0x13
 10204 00c0 00       		.byte	0x0
 10205 00c1 00       		.byte	0x0
 10206 00c2 11       		.uleb128 0x11
 10207 00c3 13       		.uleb128 0x13
 10208 00c4 01       		.byte	0x1
 10209 00c5 03       		.uleb128 0x3
 10210 00c6 08       		.uleb128 0x8
 10211 00c7 0B       		.uleb128 0xb
 10212 00c8 05       		.uleb128 0x5
 10213 00c9 3A       		.uleb128 0x3a
 10214 00ca 0B       		.uleb128 0xb
 10215 00cb 3B       		.uleb128 0x3b
 10216 00cc 0B       		.uleb128 0xb
 10217 00cd 01       		.uleb128 0x1
 10218 00ce 13       		.uleb128 0x13
 10219 00cf 00       		.byte	0x0
 10220 00d0 00       		.byte	0x0
 10221 00d1 12       		.uleb128 0x12
 10222 00d2 0D       		.uleb128 0xd
 10223 00d3 00       		.byte	0x0
 10224 00d4 03       		.uleb128 0x3
 10225 00d5 0E       		.uleb128 0xe
 10226 00d6 3A       		.uleb128 0x3a
 10227 00d7 0B       		.uleb128 0xb
 10228 00d8 3B       		.uleb128 0x3b
 10229 00d9 0B       		.uleb128 0xb
 10230 00da 49       		.uleb128 0x49
 10231 00db 13       		.uleb128 0x13
 10232 00dc 38       		.uleb128 0x38
 10233 00dd 0A       		.uleb128 0xa
 10234 00de 00       		.byte	0x0
 10235 00df 00       		.byte	0x0
 10236 00e0 13       		.uleb128 0x13
GAS LISTING /cygdrive/c/Users/THESCI~1/AppData/Local/Temp/ccu2GGTU.s 			page 220


 10237 00e1 15       		.uleb128 0x15
 10238 00e2 00       		.byte	0x0
 10239 00e3 27       		.uleb128 0x27
 10240 00e4 0C       		.uleb128 0xc
 10241 00e5 00       		.byte	0x0
 10242 00e6 00       		.byte	0x0
 10243 00e7 14       		.uleb128 0x14
 10244 00e8 15       		.uleb128 0x15
 10245 00e9 01       		.byte	0x1
 10246 00ea 27       		.uleb128 0x27
 10247 00eb 0C       		.uleb128 0xc
 10248 00ec 49       		.uleb128 0x49
 10249 00ed 13       		.uleb128 0x13
 10250 00ee 01       		.uleb128 0x1
 10251 00ef 13       		.uleb128 0x13
 10252 00f0 00       		.byte	0x0
 10253 00f1 00       		.byte	0x0
 10254 00f2 15       		.uleb128 0x15
 10255 00f3 05       		.uleb128 0x5
 10256 00f4 00       		.byte	0x0
 10257 00f5 49       		.uleb128 0x49
 10258 00f6 13       		.uleb128 0x13
 10259 00f7 00       		.byte	0x0
 10260 00f8 00       		.byte	0x0
 10261 00f9 16       		.uleb128 0x16
 10262 00fa 0D       		.uleb128 0xd
 10263 00fb 00       		.byte	0x0
 10264 00fc 03       		.uleb128 0x3
 10265 00fd 08       		.uleb128 0x8
 10266 00fe 3A       		.uleb128 0x3a
 10267 00ff 0B       		.uleb128 0xb
 10268 0100 3B       		.uleb128 0x3b
 10269 0101 05       		.uleb128 0x5
 10270 0102 49       		.uleb128 0x49
 10271 0103 13       		.uleb128 0x13
 10272 0104 38       		.uleb128 0x38
 10273 0105 0A       		.uleb128 0xa
 10274 0106 00       		.byte	0x0
 10275 0107 00       		.byte	0x0
 10276 0108 17       		.uleb128 0x17
 10277 0109 26       		.uleb128 0x26
 10278 010a 00       		.byte	0x0
 10279 010b 49       		.uleb128 0x49
 10280 010c 13       		.uleb128 0x13
 10281 010d 00       		.byte	0x0
 10282 010e 00       		.byte	0x0
 10283 010f 18       		.uleb128 0x18
 10284 0110 13       		.uleb128 0x13
 10285 0111 01       		.byte	0x1
 10286 0112 03       		.uleb128 0x3
 10287 0113 08       		.uleb128 0x8
 10288 0114 0B       		.uleb128 0xb
 10289 0115 0B       		.uleb128 0xb
 10290 0116 3A       		.uleb128 0x3a
 10291 0117 0B       		.uleb128 0xb
 10292 0118 3B       		.uleb128 0x3b
 10293 0119 05       		.uleb128 0x5
GAS LISTING /cygdrive/c/Users/THESCI~1/AppData/Local/Temp/ccu2GGTU.s 			page 221


 10294 011a 01       		.uleb128 0x1
 10295 011b 13       		.uleb128 0x13
 10296 011c 00       		.byte	0x0
 10297 011d 00       		.byte	0x0
 10298 011e 19       		.uleb128 0x19
 10299 011f 13       		.uleb128 0x13
 10300 0120 01       		.byte	0x1
 10301 0121 0B       		.uleb128 0xb
 10302 0122 0B       		.uleb128 0xb
 10303 0123 3A       		.uleb128 0x3a
 10304 0124 0B       		.uleb128 0xb
 10305 0125 3B       		.uleb128 0x3b
 10306 0126 05       		.uleb128 0x5
 10307 0127 01       		.uleb128 0x1
 10308 0128 13       		.uleb128 0x13
 10309 0129 00       		.byte	0x0
 10310 012a 00       		.byte	0x0
 10311 012b 1A       		.uleb128 0x1a
 10312 012c 17       		.uleb128 0x17
 10313 012d 01       		.byte	0x1
 10314 012e 0B       		.uleb128 0xb
 10315 012f 0B       		.uleb128 0xb
 10316 0130 3A       		.uleb128 0x3a
 10317 0131 0B       		.uleb128 0xb
 10318 0132 3B       		.uleb128 0x3b
 10319 0133 05       		.uleb128 0x5
 10320 0134 01       		.uleb128 0x1
 10321 0135 13       		.uleb128 0x13
 10322 0136 00       		.byte	0x0
 10323 0137 00       		.byte	0x0
 10324 0138 1B       		.uleb128 0x1b
 10325 0139 0D       		.uleb128 0xd
 10326 013a 00       		.byte	0x0
 10327 013b 03       		.uleb128 0x3
 10328 013c 08       		.uleb128 0x8
 10329 013d 3A       		.uleb128 0x3a
 10330 013e 0B       		.uleb128 0xb
 10331 013f 3B       		.uleb128 0x3b
 10332 0140 05       		.uleb128 0x5
 10333 0141 49       		.uleb128 0x49
 10334 0142 13       		.uleb128 0x13
 10335 0143 00       		.byte	0x0
 10336 0144 00       		.byte	0x0
 10337 0145 1C       		.uleb128 0x1c
 10338 0146 15       		.uleb128 0x15
 10339 0147 01       		.byte	0x1
 10340 0148 27       		.uleb128 0x27
 10341 0149 0C       		.uleb128 0xc
 10342 014a 01       		.uleb128 0x1
 10343 014b 13       		.uleb128 0x13
 10344 014c 00       		.byte	0x0
 10345 014d 00       		.byte	0x0
 10346 014e 1D       		.uleb128 0x1d
 10347 014f 26       		.uleb128 0x26
 10348 0150 00       		.byte	0x0
 10349 0151 03       		.uleb128 0x3
 10350 0152 0E       		.uleb128 0xe
GAS LISTING /cygdrive/c/Users/THESCI~1/AppData/Local/Temp/ccu2GGTU.s 			page 222


 10351 0153 49       		.uleb128 0x49
 10352 0154 13       		.uleb128 0x13
 10353 0155 00       		.byte	0x0
 10354 0156 00       		.byte	0x0
 10355 0157 1E       		.uleb128 0x1e
 10356 0158 13       		.uleb128 0x13
 10357 0159 01       		.byte	0x1
 10358 015a 03       		.uleb128 0x3
 10359 015b 0E       		.uleb128 0xe
 10360 015c 0B       		.uleb128 0xb
 10361 015d 0B       		.uleb128 0xb
 10362 015e 3A       		.uleb128 0x3a
 10363 015f 0B       		.uleb128 0xb
 10364 0160 3B       		.uleb128 0x3b
 10365 0161 0B       		.uleb128 0xb
 10366 0162 01       		.uleb128 0x1
 10367 0163 13       		.uleb128 0x13
 10368 0164 00       		.byte	0x0
 10369 0165 00       		.byte	0x0
 10370 0166 1F       		.uleb128 0x1f
 10371 0167 0D       		.uleb128 0xd
 10372 0168 00       		.byte	0x0
 10373 0169 03       		.uleb128 0x3
 10374 016a 0E       		.uleb128 0xe
 10375 016b 3A       		.uleb128 0x3a
 10376 016c 0B       		.uleb128 0xb
 10377 016d 3B       		.uleb128 0x3b
 10378 016e 05       		.uleb128 0x5
 10379 016f 49       		.uleb128 0x49
 10380 0170 13       		.uleb128 0x13
 10381 0171 38       		.uleb128 0x38
 10382 0172 0A       		.uleb128 0xa
 10383 0173 00       		.byte	0x0
 10384 0174 00       		.byte	0x0
 10385 0175 20       		.uleb128 0x20
 10386 0176 13       		.uleb128 0x13
 10387 0177 00       		.byte	0x0
 10388 0178 03       		.uleb128 0x3
 10389 0179 08       		.uleb128 0x8
 10390 017a 3C       		.uleb128 0x3c
 10391 017b 0C       		.uleb128 0xc
 10392 017c 00       		.byte	0x0
 10393 017d 00       		.byte	0x0
 10394 017e 21       		.uleb128 0x21
 10395 017f 17       		.uleb128 0x17
 10396 0180 01       		.byte	0x1
 10397 0181 03       		.uleb128 0x3
 10398 0182 08       		.uleb128 0x8
 10399 0183 0B       		.uleb128 0xb
 10400 0184 0B       		.uleb128 0xb
 10401 0185 3A       		.uleb128 0x3a
 10402 0186 0B       		.uleb128 0xb
 10403 0187 3B       		.uleb128 0x3b
 10404 0188 0B       		.uleb128 0xb
 10405 0189 01       		.uleb128 0x1
 10406 018a 13       		.uleb128 0x13
 10407 018b 00       		.byte	0x0
GAS LISTING /cygdrive/c/Users/THESCI~1/AppData/Local/Temp/ccu2GGTU.s 			page 223


 10408 018c 00       		.byte	0x0
 10409 018d 22       		.uleb128 0x22
 10410 018e 18       		.uleb128 0x18
 10411 018f 00       		.byte	0x0
 10412 0190 00       		.byte	0x0
 10413 0191 00       		.byte	0x0
 10414 0192 23       		.uleb128 0x23
 10415 0193 2E       		.uleb128 0x2e
 10416 0194 01       		.byte	0x1
 10417 0195 3F       		.uleb128 0x3f
 10418 0196 0C       		.uleb128 0xc
 10419 0197 03       		.uleb128 0x3
 10420 0198 08       		.uleb128 0x8
 10421 0199 3A       		.uleb128 0x3a
 10422 019a 0B       		.uleb128 0xb
 10423 019b 3B       		.uleb128 0x3b
 10424 019c 05       		.uleb128 0x5
 10425 019d 27       		.uleb128 0x27
 10426 019e 0C       		.uleb128 0xc
 10427 019f 49       		.uleb128 0x49
 10428 01a0 13       		.uleb128 0x13
 10429 01a1 11       		.uleb128 0x11
 10430 01a2 01       		.uleb128 0x1
 10431 01a3 12       		.uleb128 0x12
 10432 01a4 01       		.uleb128 0x1
 10433 01a5 40       		.uleb128 0x40
 10434 01a6 06       		.uleb128 0x6
 10435 01a7 01       		.uleb128 0x1
 10436 01a8 13       		.uleb128 0x13
 10437 01a9 00       		.byte	0x0
 10438 01aa 00       		.byte	0x0
 10439 01ab 24       		.uleb128 0x24
 10440 01ac 05       		.uleb128 0x5
 10441 01ad 00       		.byte	0x0
 10442 01ae 03       		.uleb128 0x3
 10443 01af 08       		.uleb128 0x8
 10444 01b0 3A       		.uleb128 0x3a
 10445 01b1 0B       		.uleb128 0xb
 10446 01b2 3B       		.uleb128 0x3b
 10447 01b3 05       		.uleb128 0x5
 10448 01b4 49       		.uleb128 0x49
 10449 01b5 13       		.uleb128 0x13
 10450 01b6 02       		.uleb128 0x2
 10451 01b7 0A       		.uleb128 0xa
 10452 01b8 00       		.byte	0x0
 10453 01b9 00       		.byte	0x0
 10454 01ba 25       		.uleb128 0x25
 10455 01bb 05       		.uleb128 0x5
 10456 01bc 00       		.byte	0x0
 10457 01bd 03       		.uleb128 0x3
 10458 01be 0E       		.uleb128 0xe
 10459 01bf 3A       		.uleb128 0x3a
 10460 01c0 0B       		.uleb128 0xb
 10461 01c1 3B       		.uleb128 0x3b
 10462 01c2 05       		.uleb128 0x5
 10463 01c3 49       		.uleb128 0x49
 10464 01c4 13       		.uleb128 0x13
GAS LISTING /cygdrive/c/Users/THESCI~1/AppData/Local/Temp/ccu2GGTU.s 			page 224


 10465 01c5 02       		.uleb128 0x2
 10466 01c6 0A       		.uleb128 0xa
 10467 01c7 00       		.byte	0x0
 10468 01c8 00       		.byte	0x0
 10469 01c9 26       		.uleb128 0x26
 10470 01ca 05       		.uleb128 0x5
 10471 01cb 00       		.byte	0x0
 10472 01cc 03       		.uleb128 0x3
 10473 01cd 08       		.uleb128 0x8
 10474 01ce 3A       		.uleb128 0x3a
 10475 01cf 0B       		.uleb128 0xb
 10476 01d0 3B       		.uleb128 0x3b
 10477 01d1 05       		.uleb128 0x5
 10478 01d2 49       		.uleb128 0x49
 10479 01d3 13       		.uleb128 0x13
 10480 01d4 02       		.uleb128 0x2
 10481 01d5 06       		.uleb128 0x6
 10482 01d6 00       		.byte	0x0
 10483 01d7 00       		.byte	0x0
 10484 01d8 27       		.uleb128 0x27
 10485 01d9 34       		.uleb128 0x34
 10486 01da 00       		.byte	0x0
 10487 01db 03       		.uleb128 0x3
 10488 01dc 08       		.uleb128 0x8
 10489 01dd 3A       		.uleb128 0x3a
 10490 01de 0B       		.uleb128 0xb
 10491 01df 3B       		.uleb128 0x3b
 10492 01e0 05       		.uleb128 0x5
 10493 01e1 49       		.uleb128 0x49
 10494 01e2 13       		.uleb128 0x13
 10495 01e3 02       		.uleb128 0x2
 10496 01e4 0A       		.uleb128 0xa
 10497 01e5 00       		.byte	0x0
 10498 01e6 00       		.byte	0x0
 10499 01e7 28       		.uleb128 0x28
 10500 01e8 34       		.uleb128 0x34
 10501 01e9 00       		.byte	0x0
 10502 01ea 03       		.uleb128 0x3
 10503 01eb 08       		.uleb128 0x8
 10504 01ec 3A       		.uleb128 0x3a
 10505 01ed 0B       		.uleb128 0xb
 10506 01ee 3B       		.uleb128 0x3b
 10507 01ef 05       		.uleb128 0x5
 10508 01f0 49       		.uleb128 0x49
 10509 01f1 13       		.uleb128 0x13
 10510 01f2 02       		.uleb128 0x2
 10511 01f3 06       		.uleb128 0x6
 10512 01f4 00       		.byte	0x0
 10513 01f5 00       		.byte	0x0
 10514 01f6 29       		.uleb128 0x29
 10515 01f7 34       		.uleb128 0x34
 10516 01f8 00       		.byte	0x0
 10517 01f9 03       		.uleb128 0x3
 10518 01fa 08       		.uleb128 0x8
 10519 01fb 3A       		.uleb128 0x3a
 10520 01fc 0B       		.uleb128 0xb
 10521 01fd 3B       		.uleb128 0x3b
GAS LISTING /cygdrive/c/Users/THESCI~1/AppData/Local/Temp/ccu2GGTU.s 			page 225


 10522 01fe 05       		.uleb128 0x5
 10523 01ff 49       		.uleb128 0x49
 10524 0200 13       		.uleb128 0x13
 10525 0201 00       		.byte	0x0
 10526 0202 00       		.byte	0x0
 10527 0203 2A       		.uleb128 0x2a
 10528 0204 0B       		.uleb128 0xb
 10529 0205 01       		.byte	0x1
 10530 0206 55       		.uleb128 0x55
 10531 0207 06       		.uleb128 0x6
 10532 0208 00       		.byte	0x0
 10533 0209 00       		.byte	0x0
 10534 020a 2B       		.uleb128 0x2b
 10535 020b 21       		.uleb128 0x21
 10536 020c 00       		.byte	0x0
 10537 020d 49       		.uleb128 0x49
 10538 020e 13       		.uleb128 0x13
 10539 020f 2F       		.uleb128 0x2f
 10540 0210 05       		.uleb128 0x5
 10541 0211 00       		.byte	0x0
 10542 0212 00       		.byte	0x0
 10543 0213 2C       		.uleb128 0x2c
 10544 0214 0B       		.uleb128 0xb
 10545 0215 01       		.byte	0x1
 10546 0216 11       		.uleb128 0x11
 10547 0217 01       		.uleb128 0x1
 10548 0218 12       		.uleb128 0x12
 10549 0219 01       		.uleb128 0x1
 10550 021a 00       		.byte	0x0
 10551 021b 00       		.byte	0x0
 10552 021c 2D       		.uleb128 0x2d
 10553 021d 05       		.uleb128 0x5
 10554 021e 00       		.byte	0x0
 10555 021f 03       		.uleb128 0x3
 10556 0220 0E       		.uleb128 0xe
 10557 0221 3A       		.uleb128 0x3a
 10558 0222 0B       		.uleb128 0xb
 10559 0223 3B       		.uleb128 0x3b
 10560 0224 05       		.uleb128 0x5
 10561 0225 49       		.uleb128 0x49
 10562 0226 13       		.uleb128 0x13
 10563 0227 02       		.uleb128 0x2
 10564 0228 06       		.uleb128 0x6
 10565 0229 00       		.byte	0x0
 10566 022a 00       		.byte	0x0
 10567 022b 2E       		.uleb128 0x2e
 10568 022c 0B       		.uleb128 0xb
 10569 022d 01       		.byte	0x1
 10570 022e 55       		.uleb128 0x55
 10571 022f 06       		.uleb128 0x6
 10572 0230 01       		.uleb128 0x1
 10573 0231 13       		.uleb128 0x13
 10574 0232 00       		.byte	0x0
 10575 0233 00       		.byte	0x0
 10576 0234 2F       		.uleb128 0x2f
 10577 0235 2E       		.uleb128 0x2e
 10578 0236 01       		.byte	0x1
GAS LISTING /cygdrive/c/Users/THESCI~1/AppData/Local/Temp/ccu2GGTU.s 			page 226


 10579 0237 3F       		.uleb128 0x3f
 10580 0238 0C       		.uleb128 0xc
 10581 0239 03       		.uleb128 0x3
 10582 023a 08       		.uleb128 0x8
 10583 023b 3A       		.uleb128 0x3a
 10584 023c 0B       		.uleb128 0xb
 10585 023d 3B       		.uleb128 0x3b
 10586 023e 0B       		.uleb128 0xb
 10587 023f 27       		.uleb128 0x27
 10588 0240 0C       		.uleb128 0xc
 10589 0241 49       		.uleb128 0x49
 10590 0242 13       		.uleb128 0x13
 10591 0243 11       		.uleb128 0x11
 10592 0244 01       		.uleb128 0x1
 10593 0245 12       		.uleb128 0x12
 10594 0246 01       		.uleb128 0x1
 10595 0247 40       		.uleb128 0x40
 10596 0248 06       		.uleb128 0x6
 10597 0249 01       		.uleb128 0x1
 10598 024a 13       		.uleb128 0x13
 10599 024b 00       		.byte	0x0
 10600 024c 00       		.byte	0x0
 10601 024d 30       		.uleb128 0x30
 10602 024e 05       		.uleb128 0x5
 10603 024f 00       		.byte	0x0
 10604 0250 03       		.uleb128 0x3
 10605 0251 08       		.uleb128 0x8
 10606 0252 3A       		.uleb128 0x3a
 10607 0253 0B       		.uleb128 0xb
 10608 0254 3B       		.uleb128 0x3b
 10609 0255 0B       		.uleb128 0xb
 10610 0256 49       		.uleb128 0x49
 10611 0257 13       		.uleb128 0x13
 10612 0258 02       		.uleb128 0x2
 10613 0259 06       		.uleb128 0x6
 10614 025a 00       		.byte	0x0
 10615 025b 00       		.byte	0x0
 10616 025c 31       		.uleb128 0x31
 10617 025d 05       		.uleb128 0x5
 10618 025e 00       		.byte	0x0
 10619 025f 03       		.uleb128 0x3
 10620 0260 0E       		.uleb128 0xe
 10621 0261 3A       		.uleb128 0x3a
 10622 0262 0B       		.uleb128 0xb
 10623 0263 3B       		.uleb128 0x3b
 10624 0264 0B       		.uleb128 0xb
 10625 0265 49       		.uleb128 0x49
 10626 0266 13       		.uleb128 0x13
 10627 0267 02       		.uleb128 0x2
 10628 0268 06       		.uleb128 0x6
 10629 0269 00       		.byte	0x0
 10630 026a 00       		.byte	0x0
 10631 026b 32       		.uleb128 0x32
 10632 026c 34       		.uleb128 0x34
 10633 026d 00       		.byte	0x0
 10634 026e 03       		.uleb128 0x3
 10635 026f 08       		.uleb128 0x8
GAS LISTING /cygdrive/c/Users/THESCI~1/AppData/Local/Temp/ccu2GGTU.s 			page 227


 10636 0270 3A       		.uleb128 0x3a
 10637 0271 0B       		.uleb128 0xb
 10638 0272 3B       		.uleb128 0x3b
 10639 0273 0B       		.uleb128 0xb
 10640 0274 49       		.uleb128 0x49
 10641 0275 13       		.uleb128 0x13
 10642 0276 02       		.uleb128 0x2
 10643 0277 0A       		.uleb128 0xa
 10644 0278 00       		.byte	0x0
 10645 0279 00       		.byte	0x0
 10646 027a 33       		.uleb128 0x33
 10647 027b 34       		.uleb128 0x34
 10648 027c 00       		.byte	0x0
 10649 027d 03       		.uleb128 0x3
 10650 027e 08       		.uleb128 0x8
 10651 027f 3A       		.uleb128 0x3a
 10652 0280 0B       		.uleb128 0xb
 10653 0281 3B       		.uleb128 0x3b
 10654 0282 0B       		.uleb128 0xb
 10655 0283 49       		.uleb128 0x49
 10656 0284 13       		.uleb128 0x13
 10657 0285 02       		.uleb128 0x2
 10658 0286 06       		.uleb128 0x6
 10659 0287 00       		.byte	0x0
 10660 0288 00       		.byte	0x0
 10661 0289 34       		.uleb128 0x34
 10662 028a 2E       		.uleb128 0x2e
 10663 028b 01       		.byte	0x1
 10664 028c 3F       		.uleb128 0x3f
 10665 028d 0C       		.uleb128 0xc
 10666 028e 03       		.uleb128 0x3
 10667 028f 08       		.uleb128 0x8
 10668 0290 3A       		.uleb128 0x3a
 10669 0291 0B       		.uleb128 0xb
 10670 0292 3B       		.uleb128 0x3b
 10671 0293 0B       		.uleb128 0xb
 10672 0294 27       		.uleb128 0x27
 10673 0295 0C       		.uleb128 0xc
 10674 0296 49       		.uleb128 0x49
 10675 0297 13       		.uleb128 0x13
 10676 0298 11       		.uleb128 0x11
 10677 0299 01       		.uleb128 0x1
 10678 029a 12       		.uleb128 0x12
 10679 029b 01       		.uleb128 0x1
 10680 029c 40       		.uleb128 0x40
 10681 029d 06       		.uleb128 0x6
 10682 029e 00       		.byte	0x0
 10683 029f 00       		.byte	0x0
 10684 02a0 35       		.uleb128 0x35
 10685 02a1 34       		.uleb128 0x34
 10686 02a2 00       		.byte	0x0
 10687 02a3 03       		.uleb128 0x3
 10688 02a4 08       		.uleb128 0x8
 10689 02a5 3A       		.uleb128 0x3a
 10690 02a6 0B       		.uleb128 0xb
 10691 02a7 3B       		.uleb128 0x3b
 10692 02a8 0B       		.uleb128 0xb
GAS LISTING /cygdrive/c/Users/THESCI~1/AppData/Local/Temp/ccu2GGTU.s 			page 228


 10693 02a9 49       		.uleb128 0x49
 10694 02aa 13       		.uleb128 0x13
 10695 02ab 00       		.byte	0x0
 10696 02ac 00       		.byte	0x0
 10697 02ad 00       		.byte	0x0
 10698              		.section	.debug_pubnames,"dr"
 10699 0000 D3000000 		.long	0xd3
 10700 0004 0200     		.word	0x2
 10701 0006 00000000 		.secrel32	Ldebug_info0
 10702 000a DD500000 		.long	0x50dd
 10703 000e 5E4B0000 		.long	0x4b5e
 10704 0012 4A617661 		.ascii "Java_CS229_1Image_ReportError\0"
 10704      5F435332 
 10704      32395F31 
 10704      496D6167 
 10704      655F5265 
 10705 0030 C44B0000 		.long	0x4bc4
 10706 0034 636F6E76 		.ascii "convolute_this\0"
 10706      6F6C7574 
 10706      655F7468 
 10706      697300
 10707 0043 864C0000 		.long	0x4c86
 10708 0047 4A617661 		.ascii "Java_CS229_1Image_Convolute\0"
 10708      5F435332 
 10708      32395F31 
 10708      496D6167 
 10708      655F436F 
 10709 0063 714D0000 		.long	0x4d71
 10710 0067 4A617661 		.ascii "Java_CS229_1Image_Free\0"
 10710      5F435332 
 10710      32395F31 
 10710      496D6167 
 10710      655F4672 
 10711 007e F84D0000 		.long	0x4df8
 10712 0082 4A617661 		.ascii "Java_CS229_1Image_GetPixel\0"
 10712      5F435332 
 10712      32395F31 
 10712      496D6167 
 10712      655F4765 
 10713 009d 334F0000 		.long	0x4f33
 10714 00a1 4A617661 		.ascii "Java_CS229_1Image_Save\0"
 10714      5F435332 
 10714      32395F31 
 10714      496D6167 
 10714      655F5361 
 10715 00b8 0B500000 		.long	0x500b
 10716 00bc 4A617661 		.ascii "Java_CS229_1Image_Load\0"
 10716      5F435332 
 10716      32395F31 
 10716      496D6167 
 10716      655F4C6F 
 10717 00d3 00000000 		.long	0x0
 10718              		.section	.debug_aranges,"dr"
 10719 0000 1C000000 		.long	0x1c
 10720 0004 0200     		.word	0x2
 10721 0006 00000000 		.secrel32	Ldebug_info0
 10722 000a 04       		.byte	0x4
GAS LISTING /cygdrive/c/Users/THESCI~1/AppData/Local/Temp/ccu2GGTU.s 			page 229


 10723 000b 00       		.byte	0x0
 10724 000c 0000     		.word	0x0
 10725 000e 0000     		.word	0x0
 10726 0010 00000000 		.long	Ltext0
 10727 0014 A60D0000 		.long	Letext0-Ltext0
 10728 0018 00000000 		.long	0x0
 10729 001c 00000000 		.long	0x0
 10730              		.section	.debug_ranges,"dr"
 10731              	Ldebug_ranges0:
 10732 0000 84020000 		.long	LBB2-Ltext0
 10733 0004 52040000 		.long	LBE2-Ltext0
 10734 0008 55040000 		.long	LBB3-Ltext0
 10735 000c 58040000 		.long	LBE3-Ltext0
 10736 0010 00000000 		.long	0x0
 10737 0014 00000000 		.long	0x0
 10738 0018 DF040000 		.long	LBB5-Ltext0
 10739 001c 7F050000 		.long	LBE5-Ltext0
 10740 0020 C4060000 		.long	LBB8-Ltext0
 10741 0024 D4060000 		.long	LBE8-Ltext0
 10742 0028 A2060000 		.long	LBB7-Ltext0
 10743 002c C1060000 		.long	LBE7-Ltext0
 10744 0030 90050000 		.long	LBB6-Ltext0
 10745 0034 9F060000 		.long	LBE6-Ltext0
 10746 0038 00000000 		.long	0x0
 10747 003c 00000000 		.long	0x0
 10748 0040 F4070000 		.long	LBB10-Ltext0
 10749 0044 C2090000 		.long	LBE10-Ltext0
 10750 0048 CD090000 		.long	LBB11-Ltext0
 10751 004c D0090000 		.long	LBE11-Ltext0
 10752 0050 00000000 		.long	0x0
 10753 0054 00000000 		.long	0x0
 10754 0058 130B0000 		.long	LBB12-Ltext0
 10755 005c 540D0000 		.long	LBE12-Ltext0
 10756 0060 8E0D0000 		.long	LBB14-Ltext0
 10757 0064 930D0000 		.long	LBE14-Ltext0
 10758 0068 750D0000 		.long	LBB13-Ltext0
 10759 006c 880D0000 		.long	LBE13-Ltext0
 10760 0070 00000000 		.long	0x0
 10761 0074 00000000 		.long	0x0
 10762              		.section	.debug_str,"dr"
 10763              	LASF5:
 10764 0000 4A4E4949 		.ascii "JNIInvokeInterface_\0"
 10764      6E766F6B 
 10764      65496E74 
 10764      65726661 
 10764      63655F00 
 10765              	LASF1:
 10766 0014 4A4E494E 		.ascii "JNINativeInterface_\0"
 10766      61746976 
 10766      65496E74 
 10766      65726661 
 10766      63655F00 
 10767              	LASF6:
 10768 0028 74686973 		.ascii "this\0"
 10768      00
 10769              	LASF3:
 10770 002d 72657365 		.ascii "reserved1\0"
GAS LISTING /cygdrive/c/Users/THESCI~1/AppData/Local/Temp/ccu2GGTU.s 			page 230


 10770      72766564 
 10770      3100
 10771              	LASF4:
 10772 0037 72657365 		.ascii "reserved2\0"
 10772      72766564 
 10772      3200
 10773              	LASF0:
 10774 0041 5F6F6E5F 		.ascii "_on_exit_args\0"
 10774      65786974 
 10774      5F617267 
 10774      7300
 10775              	LASF2:
 10776 004f 72657365 		.ascii "reserved0\0"
 10776      72766564 
 10776      3000
GAS LISTING /cygdrive/c/Users/THESCI~1/AppData/Local/Temp/ccu2GGTU.s 			page 231


DEFINED SYMBOLS
                            *ABS*:00000000 CS229_Image.c
/cygdrive/c/Users/THESCI~1/AppData/Local/Temp/ccu2GGTU.s:13     .text:00000000 _Java_CS229_1Image_ReportError
/cygdrive/c/Users/THESCI~1/AppData/Local/Temp/ccu2GGTU.s:44     .text:00000020 _convolute_this
/cygdrive/c/Users/THESCI~1/AppData/Local/Temp/ccu2GGTU.s:294    .text:00000200 _Java_CS229_1Image_Convolute
/cygdrive/c/Users/THESCI~1/AppData/Local/Temp/ccu2GGTU.s:530    .text:00000470 _Java_CS229_1Image_Free
/cygdrive/c/Users/THESCI~1/AppData/Local/Temp/ccu2GGTU.s:585    .text:000004d0 _Java_CS229_1Image_GetPixel
/cygdrive/c/Users/THESCI~1/AppData/Local/Temp/ccu2GGTU.s:869    .text:00000770 _Java_CS229_1Image_Save
/cygdrive/c/Users/THESCI~1/AppData/Local/Temp/ccu2GGTU.s:1143   .text:00000a20 _Java_CS229_1Image_Load

UNDEFINED SYMBOLS
_read_cs229picture
_write_cs229_image
_coordinate_to_linear_address
_get_pixel
_fopen
_malloc
_fscanf
_fclose
_ReportError
_convolute
_free
