GAS LISTING /cygdrive/c/Users/THESCI~1/AppData/Local/Temp/cchZ1Zdn.s 			page 1


   1              		.file	"Matrix.c"
   2              		.section	.debug_abbrev,"dr"
   3              	Ldebug_abbrev0:
   4              		.section	.debug_info,"dr"
   5              	Ldebug_info0:
   6              		.section	.debug_line,"dr"
   7              	Ldebug_line0:
   8 0000 53010000 		.text
   8      02007300 
   8      00000101 
   8      FB0E0D00 
   8      01010101 
   9              	Ltext0:
  10              		.p2align 4,,15
  11              	.globl _freeeverything
  13              	_freeeverything:
  14              	LFB7:
  15              		.file 1 "./Source/Matrix.c"
   1:./Source/Matrix.c **** /*
   2:./Source/Matrix.c **** ///////////////////////////////////////////////////////////////////////////////////
   3:./Source/Matrix.c **** //////////////////////////////////// Matrix.c /////////////////////////////////////
   4:./Source/Matrix.c **** ///////////////////////////////////////////////////////////////////////////////////
   5:./Source/Matrix.c **** /// Attempts to interact with java in a way that doesn't destroy the minds of   ///
   6:./Source/Matrix.c **** /// all mortals within ten feet and thus multiply some matrixes. Multiplies two ///
   7:./Source/Matrix.c **** /// valid matricies together of any size. The third array must be the exact     ///
   8:./Source/Matrix.c **** /// same size as the resulting matrix from the multiplication.                  ///
   9:./Source/Matrix.c **** ///////////////////////////////////////////////////////////////////////////////////
  10:./Source/Matrix.c **** ///////////////////////////////////////////////////////////////////////////////////
  11:./Source/Matrix.c **** */
  12:./Source/Matrix.c **** #ifndef _MATRIX_C
  13:./Source/Matrix.c **** #define	_MATRIX_C
  14:./Source/Matrix.c **** 
  15:./Source/Matrix.c **** #include <jni.h>
  16:./Source/Matrix.c **** #include <stdlib.h>
  17:./Source/Matrix.c **** #include "../Headers/Matrix.h"
  18:./Source/Matrix.c **** #include "../Headers/Defines.h"
  19:./Source/Matrix.c **** 
  20:./Source/Matrix.c **** /* Free up the memory used by temp arrays */
  21:./Source/Matrix.c **** void freeeverything(jint**,jsize,jint**,jsize,jint**,jsize);
  22:./Source/Matrix.c **** 
  23:./Source/Matrix.c **** /* See start of file. Also note that we seem to assume that arr3 is already defined.
  24:./Source/Matrix.c ****  */
  25:./Source/Matrix.c **** JNIEXPORT void JNICALL Java_Matrix_multiply(JNIEnv* env, jobject this, jobjectArray arr1, jobjectAr
  26:./Source/Matrix.c **** {
  27:./Source/Matrix.c ****     /* Create local variables */
  28:./Source/Matrix.c ****     jint** arr_1;
  29:./Source/Matrix.c ****     jsize len1;
  30:./Source/Matrix.c ****     jsize len1_in;
  31:./Source/Matrix.c ****     jint** arr_2;
  32:./Source/Matrix.c ****     jsize len2;
  33:./Source/Matrix.c ****     jsize len2_in;
  34:./Source/Matrix.c ****     jint** arr_3;
  35:./Source/Matrix.c ****     jsize len3;
  36:./Source/Matrix.c ****     jsize len3_in;
  37:./Source/Matrix.c **** 
  38:./Source/Matrix.c ****     /* Destroy some dumb errors */
  39:./Source/Matrix.c ****     len1_in = 0;
GAS LISTING /cygdrive/c/Users/THESCI~1/AppData/Local/Temp/cchZ1Zdn.s 			page 2


  40:./Source/Matrix.c ****     len2_in = 0;
  41:./Source/Matrix.c **** 
  42:./Source/Matrix.c ****     /* Get the elements of our first array */
  43:./Source/Matrix.c ****     {
  44:./Source/Matrix.c ****         /* Create some local variables */
  45:./Source/Matrix.c ****         uint32_t i;
  46:./Source/Matrix.c ****         
  47:./Source/Matrix.c ****         /* Figure out how long our first array is */
  48:./Source/Matrix.c ****         len1 = (*env)->GetArrayLength(env,arr1);
  49:./Source/Matrix.c **** 
  50:./Source/Matrix.c ****         /* Define our first array level */
  51:./Source/Matrix.c ****         arr_1 = (jint**)malloc((size_t)(sizeof(jint*) * len1));
  52:./Source/Matrix.c ****         
  53:./Source/Matrix.c ****         /* Go through each element of the array and process the sub arrays */
  54:./Source/Matrix.c ****         for(i = 0;i < len1;i++)
  55:./Source/Matrix.c ****         {
  56:./Source/Matrix.c ****             /* Create some local variables */
  57:./Source/Matrix.c ****             jintArray int_arr;
  58:./Source/Matrix.c ****             jint* orig;
  59:./Source/Matrix.c ****             uint32_t j;
  60:./Source/Matrix.c **** 
  61:./Source/Matrix.c ****             /* Get the internal arrays */
  62:./Source/Matrix.c ****             int_arr = (*env)->GetObjectArrayElement(env,arr1,i);
  63:./Source/Matrix.c ****             
  64:./Source/Matrix.c ****             /* Get the length of the ith array */
  65:./Source/Matrix.c ****             len1_in = (*env)->GetArrayLength(env,int_arr);
  66:./Source/Matrix.c **** 
  67:./Source/Matrix.c ****             /* Get the internal int* */
  68:./Source/Matrix.c ****             orig = (*env)->GetIntArrayElements(env,int_arr,0);
  69:./Source/Matrix.c **** 
  70:./Source/Matrix.c ****             /* Create our stoarage array */
  71:./Source/Matrix.c ****             arr_1[i] = (jint*)malloc((size_t)(sizeof(jint) * len1_in));
  72:./Source/Matrix.c **** 
  73:./Source/Matrix.c ****             /* Copy the array elements */
  74:./Source/Matrix.c ****             for(j = 0;j < len1_in;j++)
  75:./Source/Matrix.c ****                 arr_1[i][j] = orig[j];
  76:./Source/Matrix.c **** 
  77:./Source/Matrix.c ****             /* Release the array */
  78:./Source/Matrix.c ****             (*env)->ReleaseIntArrayElements(env,int_arr,orig,0);
  79:./Source/Matrix.c ****         }
  80:./Source/Matrix.c ****     }
  81:./Source/Matrix.c **** 
  82:./Source/Matrix.c ****     /* Get the elements of our second array */
  83:./Source/Matrix.c ****     {
  84:./Source/Matrix.c ****         /* Create some local variables */
  85:./Source/Matrix.c ****         uint32_t i;
  86:./Source/Matrix.c **** 
  87:./Source/Matrix.c ****         /* Figure out how long our first array is */
  88:./Source/Matrix.c ****         len2 = (*env)->GetArrayLength(env,arr2);
  89:./Source/Matrix.c **** 
  90:./Source/Matrix.c ****         /* Define our first array level */
  91:./Source/Matrix.c ****         arr_2 = (jint**)malloc((size_t)(sizeof(jint*) * len2));
  92:./Source/Matrix.c **** 
  93:./Source/Matrix.c ****         /* Go through each element of the array and process the sub arrays */
  94:./Source/Matrix.c ****         for(i = 0;i < len2;i++)
  95:./Source/Matrix.c ****         {
  96:./Source/Matrix.c ****             /* Create some local variables */
GAS LISTING /cygdrive/c/Users/THESCI~1/AppData/Local/Temp/cchZ1Zdn.s 			page 3


  97:./Source/Matrix.c ****             jintArray int_arr;
  98:./Source/Matrix.c ****             jint* orig;
  99:./Source/Matrix.c ****             uint32_t j;
 100:./Source/Matrix.c **** 
 101:./Source/Matrix.c ****             /* Get the internal arrays */
 102:./Source/Matrix.c ****             int_arr = (*env)->GetObjectArrayElement(env,arr2,i);
 103:./Source/Matrix.c ****             
 104:./Source/Matrix.c ****             /* Get the length of the ith array */
 105:./Source/Matrix.c ****             len2_in = (*env)->GetArrayLength(env,int_arr);
 106:./Source/Matrix.c **** 
 107:./Source/Matrix.c ****             /* Get the internal int* */
 108:./Source/Matrix.c ****             orig = (*env)->GetIntArrayElements(env,int_arr,0);
 109:./Source/Matrix.c **** 
 110:./Source/Matrix.c ****             /* Create our stoarage array */
 111:./Source/Matrix.c ****             arr_2[i] = (jint*)malloc((size_t)(sizeof(jint) * len2_in));
 112:./Source/Matrix.c **** 
 113:./Source/Matrix.c ****             /* Copy the array elements */
 114:./Source/Matrix.c ****             for(j = 0;j < len2_in;j++)
 115:./Source/Matrix.c ****                 arr_2[i][j] = orig[j];
 116:./Source/Matrix.c **** 
 117:./Source/Matrix.c ****             /* Release the array */
 118:./Source/Matrix.c ****             (*env)->ReleaseIntArrayElements(env,int_arr,orig,0);
 119:./Source/Matrix.c ****         }
 120:./Source/Matrix.c ****     }
 121:./Source/Matrix.c **** 
 122:./Source/Matrix.c ****     /* Check if the matrixes are valid */
 123:./Source/Matrix.c ****     if(len1_in != len2)
 124:./Source/Matrix.c ****         return;
 125:./Source/Matrix.c **** 
 126:./Source/Matrix.c ****     /* Create our outer array */
 127:./Source/Matrix.c ****     len3 = len1;
 128:./Source/Matrix.c ****     len3_in = len2_in;
 129:./Source/Matrix.c ****     arr_3 = (jint**)malloc((size_t)(sizeof(jint*) * len3));
 130:./Source/Matrix.c **** 
 131:./Source/Matrix.c ****     /* Make a new scope */
 132:./Source/Matrix.c ****     {
 133:./Source/Matrix.c ****         /* Create some local variables */
 134:./Source/Matrix.c ****         uint32_t i;
 135:./Source/Matrix.c **** 
 136:./Source/Matrix.c ****         /* Create our inner arrays */
 137:./Source/Matrix.c ****         for(i = 0;i < len3;i++)
 138:./Source/Matrix.c ****             arr_3[i] = (jint*)malloc((size_t)(sizeof(jint) * len3_in));
 139:./Source/Matrix.c ****     }
 140:./Source/Matrix.c **** 
 141:./Source/Matrix.c ****     /* Define our new array */
 142:./Source/Matrix.c ****     {
 143:./Source/Matrix.c ****         /* Create some local variables */
 144:./Source/Matrix.c ****         uint32_t i;
 145:./Source/Matrix.c ****         uint32_t j;
 146:./Source/Matrix.c **** 
 147:./Source/Matrix.c ****         /* Loop through each array index */
 148:./Source/Matrix.c ****         for(i = 0;i < len3;i++)
 149:./Source/Matrix.c ****             for(j = 0;j < len3_in;j++)
 150:./Source/Matrix.c ****             {
 151:./Source/Matrix.c ****                 /* Create some local variables */
 152:./Source/Matrix.c ****                 uint32_t k;
 153:./Source/Matrix.c ****                 uint32_t val;
GAS LISTING /cygdrive/c/Users/THESCI~1/AppData/Local/Temp/cchZ1Zdn.s 			page 4


 154:./Source/Matrix.c **** 
 155:./Source/Matrix.c ****                 /* Initialize val */
 156:./Source/Matrix.c ****                 val = 0;
 157:./Source/Matrix.c **** 
 158:./Source/Matrix.c ****                 /* Do some math */
 159:./Source/Matrix.c ****                 for(k = 0;k < len1_in;k++)
 160:./Source/Matrix.c ****                     val += arr_1[i][k] * arr_2[k][j];
 161:./Source/Matrix.c **** 
 162:./Source/Matrix.c ****                 /* Set the value in the array */
 163:./Source/Matrix.c ****                 arr_3[i][j] = val;
 164:./Source/Matrix.c ****             }
 165:./Source/Matrix.c ****     }
 166:./Source/Matrix.c **** 
 167:./Source/Matrix.c ****     /* Set the output */
 168:./Source/Matrix.c ****     {
 169:./Source/Matrix.c ****         /* Create some local variables */
 170:./Source/Matrix.c ****         uint32_t i;
 171:./Source/Matrix.c **** 
 172:./Source/Matrix.c ****         /* Check array length */
 173:./Source/Matrix.c ****         if(len3 != (*env)->GetArrayLength(env,arr3))
 174:./Source/Matrix.c ****         {
 175:./Source/Matrix.c ****             freeeverything(arr_1,len1,arr_2,len2,arr_3,len3);
 176:./Source/Matrix.c ****             return;
 177:./Source/Matrix.c ****         }
 178:./Source/Matrix.c **** 
 179:./Source/Matrix.c ****         /* Go through each element of the array and process the sub arrays */
 180:./Source/Matrix.c ****         for(i = 0;i < len1;i++)
 181:./Source/Matrix.c ****         {
 182:./Source/Matrix.c ****             /* Create some local variables */
 183:./Source/Matrix.c ****             jintArray int_arr;
 184:./Source/Matrix.c ****             jint* orig;
 185:./Source/Matrix.c ****             uint32_t j;
 186:./Source/Matrix.c **** 
 187:./Source/Matrix.c ****             /* Get the internal arrays */
 188:./Source/Matrix.c ****             int_arr = (*env)->GetObjectArrayElement(env,arr3,i);
 189:./Source/Matrix.c **** 
 190:./Source/Matrix.c ****             /* Check the length of the ith array */
 191:./Source/Matrix.c ****             if(len3_in != (*env)->GetArrayLength(env,int_arr))
 192:./Source/Matrix.c ****             {
 193:./Source/Matrix.c ****                 freeeverything(arr_1,len1,arr_2,len2,arr_3,len3);
 194:./Source/Matrix.c ****                 return;
 195:./Source/Matrix.c ****             }
 196:./Source/Matrix.c **** 
 197:./Source/Matrix.c ****             /* Get the internal int* */
 198:./Source/Matrix.c ****             orig = (*env)->GetIntArrayElements(env,int_arr,0);
 199:./Source/Matrix.c **** 
 200:./Source/Matrix.c ****             /* Set the array elements */
 201:./Source/Matrix.c ****             for(j = 0;j < len1_in;j++)
 202:./Source/Matrix.c ****                 orig[j] = arr_3[i][j];
 203:./Source/Matrix.c **** 
 204:./Source/Matrix.c ****             /* Release the array */
 205:./Source/Matrix.c ****             (*env)->ReleaseIntArrayElements(env,int_arr,orig,0);
 206:./Source/Matrix.c ****         }
 207:./Source/Matrix.c ****     }
 208:./Source/Matrix.c **** 
 209:./Source/Matrix.c ****     /* Free all of the memory we used */
 210:./Source/Matrix.c ****     freeeverything(arr_1,len1,arr_2,len2,arr_3,len3);
GAS LISTING /cygdrive/c/Users/THESCI~1/AppData/Local/Temp/cchZ1Zdn.s 			page 5


 211:./Source/Matrix.c **** 
 212:./Source/Matrix.c ****     /* Return from the scary function call */
 213:./Source/Matrix.c ****     return;
 214:./Source/Matrix.c **** }
 215:./Source/Matrix.c **** 
 216:./Source/Matrix.c **** #endif
 217:./Source/Matrix.c **** 
 218:./Source/Matrix.c **** /* Free up the memory used by temp arrays */
 219:./Source/Matrix.c **** void freeeverything(jint** arr_1, jsize len1, jint** arr_2, jsize len2, jint** arr_3, jsize len3)
 220:./Source/Matrix.c **** {
  16              		.loc 1 220 0
  17              	LVL0:
  18 0000 55       		pushl	%ebp
  19              	LCFI0:
  20 0001 89E5     		movl	%esp, %ebp
  21              	LCFI1:
  22 0003 57       		pushl	%edi
  23              	LCFI2:
  24 0004 56       		pushl	%esi
  25              	LCFI3:
  26 0005 53       		pushl	%ebx
  27              	LCFI4:
  28 0006 83EC0C   		subl	$12, %esp
  29              	LCFI5:
  30              		.loc 1 220 0
  31 0009 8B750C   		movl	12(%ebp), %esi
  32 000c 8B4510   		movl	16(%ebp), %eax
  33 000f 8B5518   		movl	24(%ebp), %edx
  34 0012 8B7D08   		movl	8(%ebp), %edi
 221:./Source/Matrix.c ****     /* Create some local variables */
 222:./Source/Matrix.c ****     uint32_t i;
 223:./Source/Matrix.c **** 
 224:./Source/Matrix.c ****     /* Delele the first set of internal arrays */
 225:./Source/Matrix.c ****     for(i = 0;i < len1;i++)
  35              		.loc 1 225 0
  36 0015 85F6     		testl	%esi, %esi
 220:./Source/Matrix.c **** {
  37              		.loc 1 220 0
  38 0017 8945F0   		movl	%eax, -16(%ebp)
  39              	LVL1:
  40 001a 8955EC   		movl	%edx, -20(%ebp)
  41              	LVL2:
  42              		.loc 1 225 0
  43 001d 7446     		je	L2
  44              	LVL3:
  45 001f 31DB     		xorl	%ebx, %ebx
  46              	LVL4:
  47              		.p2align 4,,7
  48              	L3:
 226:./Source/Matrix.c ****         free((void*)arr_1[i]);
  49              		.loc 1 226 0
  50 0021 8B049F   		movl	(%edi,%ebx,4), %eax
 225:./Source/Matrix.c ****     for(i = 0;i < len1;i++)
  51              		.loc 1 225 0
  52 0024 83C301   		addl	$1, %ebx
  53              		.loc 1 226 0
  54 0027 890424   		movl	%eax, (%esp)
GAS LISTING /cygdrive/c/Users/THESCI~1/AppData/Local/Temp/cchZ1Zdn.s 			page 6


  55 002a E8000000 		call	_free
  55      00
 225:./Source/Matrix.c ****     for(i = 0;i < len1;i++)
  56              		.loc 1 225 0
  57 002f 39F3     		cmpl	%esi, %ebx
  58 0031 72EE     		jb	L3
  59 0033 31DB     		xorl	%ebx, %ebx
  60              	LVL5:
  61              		.p2align 4,,7
  62              	L4:
 227:./Source/Matrix.c **** 
 228:./Source/Matrix.c ****     /* Delele the second set of internal arrays */
 229:./Source/Matrix.c ****     for(i = 0;i < len1;i++)
 230:./Source/Matrix.c ****         free((void*)arr_2[i]);
  63              		.loc 1 230 0
  64 0035 8B55F0   		movl	-16(%ebp), %edx
  65 0038 8B049A   		movl	(%edx,%ebx,4), %eax
 229:./Source/Matrix.c ****     for(i = 0;i < len1;i++)
  66              		.loc 1 229 0
  67 003b 83C301   		addl	$1, %ebx
  68              		.loc 1 230 0
  69 003e 890424   		movl	%eax, (%esp)
  70 0041 E8000000 		call	_free
  70      00
 229:./Source/Matrix.c ****     for(i = 0;i < len1;i++)
  71              		.loc 1 229 0
  72 0046 39F3     		cmpl	%esi, %ebx
  73 0048 72EB     		jb	L4
  74 004a 31DB     		xorl	%ebx, %ebx
  75              	LVL6:
  76 004c 8D742600 		.p2align 4,,7
  77              	L5:
 231:./Source/Matrix.c **** 
 232:./Source/Matrix.c ****     /* Delele the third set of internal arrays */
 233:./Source/Matrix.c ****     for(i = 0;i < len1;i++)
 234:./Source/Matrix.c ****         free((void*)arr_3[i]);
  78              		.loc 1 234 0
  79 0050 8B55EC   		movl	-20(%ebp), %edx
  80 0053 8B049A   		movl	(%edx,%ebx,4), %eax
 233:./Source/Matrix.c ****     for(i = 0;i < len1;i++)
  81              		.loc 1 233 0
  82 0056 83C301   		addl	$1, %ebx
  83              		.loc 1 234 0
  84 0059 890424   		movl	%eax, (%esp)
  85 005c E8000000 		call	_free
  85      00
 233:./Source/Matrix.c ****     for(i = 0;i < len1;i++)
  86              		.loc 1 233 0
  87 0061 39F3     		cmpl	%esi, %ebx
  88 0063 72EB     		jb	L5
  89              	L2:
 235:./Source/Matrix.c **** 
 236:./Source/Matrix.c ****     /* Delete the external arrrays */
 237:./Source/Matrix.c ****     free((void*)arr_1);
  90              		.loc 1 237 0
  91 0065 893C24   		movl	%edi, (%esp)
  92 0068 E8000000 		call	_free
GAS LISTING /cygdrive/c/Users/THESCI~1/AppData/Local/Temp/cchZ1Zdn.s 			page 7


  92      00
 238:./Source/Matrix.c ****     free((void*)arr_2);
  93              		.loc 1 238 0
  94 006d 8B45F0   		movl	-16(%ebp), %eax
  95 0070 890424   		movl	%eax, (%esp)
  96 0073 E8000000 		call	_free
  96      00
 239:./Source/Matrix.c ****     free((void*)arr_3);
  97              		.loc 1 239 0
  98 0078 8B55EC   		movl	-20(%ebp), %edx
  99 007b 895508   		movl	%edx, 8(%ebp)
 240:./Source/Matrix.c **** 
 241:./Source/Matrix.c ****     /* We're done freeing things */
 242:./Source/Matrix.c ****     return;
 243:./Source/Matrix.c **** }
 100              		.loc 1 243 0
 101 007e 83C40C   		addl	$12, %esp
 102 0081 5B       		popl	%ebx
 103              	LVL7:
 104 0082 5E       		popl	%esi
 105              	LVL8:
 106 0083 5F       		popl	%edi
 107              	LVL9:
 108 0084 5D       		popl	%ebp
 239:./Source/Matrix.c ****     free((void*)arr_3);
 109              		.loc 1 239 0
 110 0085 E9000000 		jmp	_free
 110      00
 111              	LFE7:
 112 008a 8DB60000 		.p2align 4,,15
 112      0000
 113              	.globl _Java_Matrix_multiply
 115              	_Java_Matrix_multiply:
 116              	LFB6:
  26:./Source/Matrix.c **** {
 117              		.loc 1 26 0
 118              	LVL10:
 119 0090 55       		pushl	%ebp
 120              	LCFI6:
 121 0091 89E5     		movl	%esp, %ebp
 122              	LCFI7:
 123 0093 57       		pushl	%edi
 124              	LCFI8:
 125 0094 56       		pushl	%esi
 126              	LCFI9:
 127 0095 53       		pushl	%ebx
 128              	LCFI10:
 129 0096 83EC5C   		subl	$92, %esp
 130              	LCFI11:
 131              	LBB2:
  48:./Source/Matrix.c ****         len1 = (*env)->GetArrayLength(env,arr1);
 132              		.loc 1 48 0
 133 0099 8B5508   		movl	8(%ebp), %edx
 134 009c 8B7510   		movl	16(%ebp), %esi
 135 009f 8B02     		movl	(%edx), %eax
 136 00a1 89742404 		movl	%esi, 4(%esp)
  54:./Source/Matrix.c ****         for(i = 0;i < len1;i++)
GAS LISTING /cygdrive/c/Users/THESCI~1/AppData/Local/Temp/cchZ1Zdn.s 			page 8


 137              		.loc 1 54 0
 138 00a5 31F6     		xorl	%esi, %esi
 139              	LVL11:
  48:./Source/Matrix.c ****         len1 = (*env)->GetArrayLength(env,arr1);
 140              		.loc 1 48 0
 141 00a7 891424   		movl	%edx, (%esp)
 142 00aa FF90AC02 		call	*684(%eax)
 142      0000
 143 00b0 8945D0   		movl	%eax, -48(%ebp)
 144              	LVL12:
  51:./Source/Matrix.c ****         arr_1 = (jint**)malloc((size_t)(sizeof(jint*) * len1));
 145              		.loc 1 51 0
 146 00b3 C1E002   		sall	$2, %eax
 147 00b6 8945C0   		movl	%eax, -64(%ebp)
 148 00b9 890424   		movl	%eax, (%esp)
 149 00bc E8000000 		call	_malloc
 149      00
  54:./Source/Matrix.c ****         for(i = 0;i < len1;i++)
 150              		.loc 1 54 0
 151 00c1 C745D400 		movl	$0, -44(%ebp)
 151      000000
 152              	LVL13:
  51:./Source/Matrix.c ****         arr_1 = (jint**)malloc((size_t)(sizeof(jint*) * len1));
 153              		.loc 1 51 0
 154 00c8 8945C4   		movl	%eax, -60(%ebp)
  54:./Source/Matrix.c ****         for(i = 0;i < len1;i++)
 155              		.loc 1 54 0
 156 00cb 8B45D0   		movl	-48(%ebp), %eax
 157 00ce 85C0     		testl	%eax, %eax
 158 00d0 0F84AE00 		je	L13
 158      0000
 159              	LVL14:
 160              		.p2align 4,,7
 161              	L41:
 162              	LBB3:
  62:./Source/Matrix.c ****             int_arr = (*env)->GetObjectArrayElement(env,arr1,i);
 163              		.loc 1 62 0
 164 00d6 8B5508   		movl	8(%ebp), %edx
 165 00d9 8B02     		movl	(%edx), %eax
 166 00db 89742408 		movl	%esi, 8(%esp)
 167 00df 8B5510   		movl	16(%ebp), %edx
 168 00e2 89542404 		movl	%edx, 4(%esp)
 169 00e6 8B5508   		movl	8(%ebp), %edx
 170 00e9 891424   		movl	%edx, (%esp)
 171 00ec FF90B402 		call	*692(%eax)
 171      0000
  65:./Source/Matrix.c ****             len1_in = (*env)->GetArrayLength(env,int_arr);
 172              		.loc 1 65 0
 173 00f2 8B5508   		movl	8(%ebp), %edx
  62:./Source/Matrix.c ****             int_arr = (*env)->GetObjectArrayElement(env,arr1,i);
 174              		.loc 1 62 0
 175 00f5 89C7     		movl	%eax, %edi
  65:./Source/Matrix.c ****             len1_in = (*env)->GetArrayLength(env,int_arr);
 176              		.loc 1 65 0
 177 00f7 8B02     		movl	(%edx), %eax
 178 00f9 891424   		movl	%edx, (%esp)
 179 00fc 897C2404 		movl	%edi, 4(%esp)
GAS LISTING /cygdrive/c/Users/THESCI~1/AppData/Local/Temp/cchZ1Zdn.s 			page 9


 180 0100 FF90AC02 		call	*684(%eax)
 180      0000
  68:./Source/Matrix.c ****             orig = (*env)->GetIntArrayElements(env,int_arr,0);
 181              		.loc 1 68 0
 182 0106 8B5508   		movl	8(%ebp), %edx
  65:./Source/Matrix.c ****             len1_in = (*env)->GetArrayLength(env,int_arr);
 183              		.loc 1 65 0
 184 0109 8945D4   		movl	%eax, -44(%ebp)
 185              	LVL15:
  68:./Source/Matrix.c ****             orig = (*env)->GetIntArrayElements(env,int_arr,0);
 186              		.loc 1 68 0
 187 010c 8B02     		movl	(%edx), %eax
 188 010e 891424   		movl	%edx, (%esp)
 189 0111 C7442408 		movl	$0, 8(%esp)
 189      00000000 
 190 0119 897C2404 		movl	%edi, 4(%esp)
 191 011d FF90EC02 		call	*748(%eax)
 191      0000
 192 0123 89C3     		movl	%eax, %ebx
  71:./Source/Matrix.c ****             arr_1[i] = (jint*)malloc((size_t)(sizeof(jint) * len1_in));
 193              		.loc 1 71 0
 194 0125 8B45D4   		movl	-44(%ebp), %eax
 195 0128 C1E002   		sall	$2, %eax
 196 012b 890424   		movl	%eax, (%esp)
 197 012e E8000000 		call	_malloc
 197      00
 198 0133 89C1     		movl	%eax, %ecx
 199 0135 8B45C4   		movl	-60(%ebp), %eax
 200 0138 890CB0   		movl	%ecx, (%eax,%esi,4)
  74:./Source/Matrix.c ****             for(j = 0;j < len1_in;j++)
 201              		.loc 1 74 0
 202 013b 8B45D4   		movl	-44(%ebp), %eax
 203 013e 85C0     		testl	%eax, %eax
 204 0140 7418     		je	L14
 205 0142 31D2     		xorl	%edx, %edx
 206              	LVL16:
 207 0144 EB06     		jmp	L15
 208              		.p2align 4,,7
 209              	L48:
 210 0146 8B45C4   		movl	-60(%ebp), %eax
 211 0149 8B0CB0   		movl	(%eax,%esi,4), %ecx
 212              	L15:
  75:./Source/Matrix.c ****                 arr_1[i][j] = orig[j];
 213              		.loc 1 75 0
 214 014c 8B0493   		movl	(%ebx,%edx,4), %eax
 215 014f 890491   		movl	%eax, (%ecx,%edx,4)
  74:./Source/Matrix.c ****             for(j = 0;j < len1_in;j++)
 216              		.loc 1 74 0
 217 0152 83C201   		addl	$1, %edx
 218 0155 3955D4   		cmpl	%edx, -44(%ebp)
 219 0158 77EC     		ja	L48
 220              	L14:
  78:./Source/Matrix.c ****             (*env)->ReleaseIntArrayElements(env,int_arr,orig,0);
 221              		.loc 1 78 0
 222 015a 8B5508   		movl	8(%ebp), %edx
 223              	LVL17:
 224              	LBE3:
GAS LISTING /cygdrive/c/Users/THESCI~1/AppData/Local/Temp/cchZ1Zdn.s 			page 10


  54:./Source/Matrix.c ****         for(i = 0;i < len1;i++)
 225              		.loc 1 54 0
 226 015d 83C601   		addl	$1, %esi
 227              	LBB4:
  78:./Source/Matrix.c ****             (*env)->ReleaseIntArrayElements(env,int_arr,orig,0);
 228              		.loc 1 78 0
 229 0160 8B02     		movl	(%edx), %eax
 230 0162 C744240C 		movl	$0, 12(%esp)
 230      00000000 
 231 016a 895C2408 		movl	%ebx, 8(%esp)
 232 016e 897C2404 		movl	%edi, 4(%esp)
 233 0172 891424   		movl	%edx, (%esp)
 234 0175 FF900C03 		call	*780(%eax)
 234      0000
 235              	LBE4:
  54:./Source/Matrix.c ****         for(i = 0;i < len1;i++)
 236              		.loc 1 54 0
 237 017b 3975D0   		cmpl	%esi, -48(%ebp)
 238 017e 0F8752FF 		ja	L41
 238      FFFF
 239              	L13:
 240              	LBE2:
 241              	LBB5:
  88:./Source/Matrix.c ****         len2 = (*env)->GetArrayLength(env,arr2);
 242              		.loc 1 88 0
 243 0184 8B7508   		movl	8(%ebp), %esi
 244              	LVL18:
  94:./Source/Matrix.c ****         for(i = 0;i < len2;i++)
 245              		.loc 1 94 0
 246 0187 31DB     		xorl	%ebx, %ebx
 247              	LVL19:
  88:./Source/Matrix.c ****         len2 = (*env)->GetArrayLength(env,arr2);
 248              		.loc 1 88 0
 249 0189 8B5514   		movl	20(%ebp), %edx
 250 018c 8B06     		movl	(%esi), %eax
 251 018e 89542404 		movl	%edx, 4(%esp)
 252 0192 893424   		movl	%esi, (%esp)
 253 0195 FF90AC02 		call	*684(%eax)
 253      0000
 254 019b 89C7     		movl	%eax, %edi
 255              	LVL20:
  91:./Source/Matrix.c ****         arr_2 = (jint**)malloc((size_t)(sizeof(jint*) * len2));
 256              		.loc 1 91 0
 257 019d 8D048500 		leal	0(,%eax,4), %eax
 257      000000
 258 01a4 890424   		movl	%eax, (%esp)
 259 01a7 E8000000 		call	_malloc
 259      00
  94:./Source/Matrix.c ****         for(i = 0;i < len2;i++)
 260              		.loc 1 94 0
 261 01ac 85FF     		testl	%edi, %edi
  91:./Source/Matrix.c ****         arr_2 = (jint**)malloc((size_t)(sizeof(jint*) * len2));
 262              		.loc 1 91 0
 263 01ae 8945C8   		movl	%eax, -56(%ebp)
  94:./Source/Matrix.c ****         for(i = 0;i < len2;i++)
 264              		.loc 1 94 0
 265 01b1 0F84B902 		je	L49
GAS LISTING /cygdrive/c/Users/THESCI~1/AppData/Local/Temp/cchZ1Zdn.s 			page 11


 265      0000
 266              	LVL21:
 267              		.p2align 4,,7
 268              	L40:
 269              	LBB7:
 102:./Source/Matrix.c ****             int_arr = (*env)->GetObjectArrayElement(env,arr2,i);
 270              		.loc 1 102 0
 271 01b7 8B7508   		movl	8(%ebp), %esi
 272 01ba 8B06     		movl	(%esi), %eax
 273 01bc 895C2408 		movl	%ebx, 8(%esp)
 274 01c0 8B5514   		movl	20(%ebp), %edx
 275 01c3 893424   		movl	%esi, (%esp)
 276 01c6 89542404 		movl	%edx, 4(%esp)
 277 01ca FF90B402 		call	*692(%eax)
 277      0000
 278 01d0 8945DC   		movl	%eax, -36(%ebp)
 279              	LVL22:
 105:./Source/Matrix.c ****             len2_in = (*env)->GetArrayLength(env,int_arr);
 280              		.loc 1 105 0
 281 01d3 8B06     		movl	(%esi), %eax
 282 01d5 8B75DC   		movl	-36(%ebp), %esi
 283 01d8 89742404 		movl	%esi, 4(%esp)
 284 01dc 8B5508   		movl	8(%ebp), %edx
 285 01df 891424   		movl	%edx, (%esp)
 286 01e2 FF90AC02 		call	*684(%eax)
 286      0000
 108:./Source/Matrix.c ****             orig = (*env)->GetIntArrayElements(env,int_arr,0);
 287              		.loc 1 108 0
 288 01e8 8B7508   		movl	8(%ebp), %esi
 105:./Source/Matrix.c ****             len2_in = (*env)->GetArrayLength(env,int_arr);
 289              		.loc 1 105 0
 290 01eb 8945D8   		movl	%eax, -40(%ebp)
 291              	LVL23:
 108:./Source/Matrix.c ****             orig = (*env)->GetIntArrayElements(env,int_arr,0);
 292              		.loc 1 108 0
 293 01ee 8B06     		movl	(%esi), %eax
 294 01f0 C7442408 		movl	$0, 8(%esp)
 294      00000000 
 295 01f8 8B55DC   		movl	-36(%ebp), %edx
 296 01fb 893424   		movl	%esi, (%esp)
 297 01fe 89542404 		movl	%edx, 4(%esp)
 298 0202 FF90EC02 		call	*748(%eax)
 298      0000
 299 0208 89C6     		movl	%eax, %esi
 300              	LVL24:
 111:./Source/Matrix.c ****             arr_2[i] = (jint*)malloc((size_t)(sizeof(jint) * len2_in));
 301              		.loc 1 111 0
 302 020a 8B45D8   		movl	-40(%ebp), %eax
 303 020d 89C2     		movl	%eax, %edx
 304 020f C1E202   		sall	$2, %edx
 305 0212 8945EC   		movl	%eax, -20(%ebp)
 306 0215 8955F0   		movl	%edx, -16(%ebp)
 307 0218 891424   		movl	%edx, (%esp)
 308 021b E8000000 		call	_malloc
 308      00
 309 0220 89C1     		movl	%eax, %ecx
 310 0222 8B45C8   		movl	-56(%ebp), %eax
GAS LISTING /cygdrive/c/Users/THESCI~1/AppData/Local/Temp/cchZ1Zdn.s 			page 12


 311 0225 890C98   		movl	%ecx, (%eax,%ebx,4)
 114:./Source/Matrix.c ****             for(j = 0;j < len2_in;j++)
 312              		.loc 1 114 0
 313 0228 8B45D8   		movl	-40(%ebp), %eax
 314 022b 85C0     		testl	%eax, %eax
 315 022d 7418     		je	L19
 316 022f 31D2     		xorl	%edx, %edx
 317              	LVL25:
 318 0231 EB06     		jmp	L20
 319              		.p2align 4,,7
 320              	L50:
 321 0233 8B45C8   		movl	-56(%ebp), %eax
 322 0236 8B0C98   		movl	(%eax,%ebx,4), %ecx
 323              	L20:
 115:./Source/Matrix.c ****                 arr_2[i][j] = orig[j];
 324              		.loc 1 115 0
 325 0239 8B0496   		movl	(%esi,%edx,4), %eax
 326 023c 890491   		movl	%eax, (%ecx,%edx,4)
 114:./Source/Matrix.c ****             for(j = 0;j < len2_in;j++)
 327              		.loc 1 114 0
 328 023f 83C201   		addl	$1, %edx
 329 0242 3955D8   		cmpl	%edx, -40(%ebp)
 330 0245 77EC     		ja	L50
 331              	L19:
 118:./Source/Matrix.c ****             (*env)->ReleaseIntArrayElements(env,int_arr,orig,0);
 332              		.loc 1 118 0
 333 0247 8B5508   		movl	8(%ebp), %edx
 334              	LVL26:
 335              	LBE7:
  94:./Source/Matrix.c ****         for(i = 0;i < len2;i++)
 336              		.loc 1 94 0
 337 024a 83C301   		addl	$1, %ebx
 338              	LBB6:
 118:./Source/Matrix.c ****             (*env)->ReleaseIntArrayElements(env,int_arr,orig,0);
 339              		.loc 1 118 0
 340 024d 8B02     		movl	(%edx), %eax
 341 024f C744240C 		movl	$0, 12(%esp)
 341      00000000 
 342 0257 89742408 		movl	%esi, 8(%esp)
 343 025b 8B75DC   		movl	-36(%ebp), %esi
 344              	LVL27:
 345 025e 891424   		movl	%edx, (%esp)
 346 0261 89742404 		movl	%esi, 4(%esp)
 347 0265 FF900C03 		call	*780(%eax)
 347      0000
 348              	LBE6:
  94:./Source/Matrix.c ****         for(i = 0;i < len2;i++)
 349              		.loc 1 94 0
 350 026b 39DF     		cmpl	%ebx, %edi
 351 026d 0F8744FF 		ja	L40
 351      FFFF
 352              	L18:
 353              	LBE5:
 123:./Source/Matrix.c ****     if(len1_in != len2)
 354              		.loc 1 123 0
 355 0273 397DD4   		cmpl	%edi, -44(%ebp)
 356 0276 7409     		je	L51
GAS LISTING /cygdrive/c/Users/THESCI~1/AppData/Local/Temp/cchZ1Zdn.s 			page 13


 357              	LVL28:
 358              	L38:
 214:./Source/Matrix.c **** }
 359              		.loc 1 214 0
 360 0278 83C45C   		addl	$92, %esp
 361 027b 5B       		popl	%ebx
 362              	LVL29:
 363 027c 5E       		popl	%esi
 364 027d 5F       		popl	%edi
 365              	LVL30:
 366 027e 5D       		popl	%ebp
 367 027f 90       		.p2align 4,,1
 368 0280 C3       		ret
 369              	LVL31:
 370              	L51:
 129:./Source/Matrix.c ****     arr_3 = (jint**)malloc((size_t)(sizeof(jint*) * len3));
 371              		.loc 1 129 0
 372 0281 8B45C0   		movl	-64(%ebp), %eax
 373 0284 890424   		movl	%eax, (%esp)
 374 0287 E8000000 		call	_malloc
 374      00
 375              	LBB8:
 137:./Source/Matrix.c ****         for(i = 0;i < len3;i++)
 376              		.loc 1 137 0
 377 028c 8B75D0   		movl	-48(%ebp), %esi
 378 028f 85F6     		testl	%esi, %esi
 379              	LBE8:
 129:./Source/Matrix.c ****     arr_3 = (jint**)malloc((size_t)(sizeof(jint*) * len3));
 380              		.loc 1 129 0
 381 0291 8945CC   		movl	%eax, -52(%ebp)
 382              	LBB9:
 137:./Source/Matrix.c ****         for(i = 0;i < len3;i++)
 383              		.loc 1 137 0
 384 0294 0F849300 		je	L23
 384      0000
 385 029a 31DB     		xorl	%ebx, %ebx
 386              	LVL32:
 387              	L24:
 138:./Source/Matrix.c ****             arr_3[i] = (jint*)malloc((size_t)(sizeof(jint) * len3_in));
 388              		.loc 1 138 0
 389 029c 8B55F0   		movl	-16(%ebp), %edx
 390 029f 891424   		movl	%edx, (%esp)
 391 02a2 E8000000 		call	_malloc
 391      00
 392 02a7 8B75CC   		movl	-52(%ebp), %esi
 393 02aa 89049E   		movl	%eax, (%esi,%ebx,4)
 137:./Source/Matrix.c ****         for(i = 0;i < len3;i++)
 394              		.loc 1 137 0
 395 02ad 83C301   		addl	$1, %ebx
 396 02b0 395DD0   		cmpl	%ebx, -48(%ebp)
 397 02b3 77E7     		ja	L24
 398 02b5 C745E000 		movl	$0, -32(%ebp)
 398      000000
 399              	LVL33:
 400              	L25:
 401              	LBE9:
 402              	LBB10:
GAS LISTING /cygdrive/c/Users/THESCI~1/AppData/Local/Temp/cchZ1Zdn.s 			page 14


 149:./Source/Matrix.c ****             for(j = 0;j < len3_in;j++)
 403              		.loc 1 149 0
 404 02bc 8B5DEC   		movl	-20(%ebp), %ebx
 405              	LVL34:
 406 02bf 85DB     		testl	%ebx, %ebx
 407 02c1 745E     		je	L27
 408 02c3 8B75E0   		movl	-32(%ebp), %esi
 409 02c6 8B45CC   		movl	-52(%ebp), %eax
 410 02c9 C745E400 		movl	$0, -28(%ebp)
 410      000000
 411              	LVL35:
 412 02d0 8B34B0   		movl	(%eax,%esi,4), %esi
 413 02d3 8975BC   		movl	%esi, -68(%ebp)
 414              		.p2align 4,,7
 415              	L30:
 416              	LBB12:
 159:./Source/Matrix.c ****                 for(k = 0;k < len1_in;k++)
 417              		.loc 1 159 0
 418 02d6 85FF     		testl	%edi, %edi
 419 02d8 0F848501 		je	L52
 419      0000
 420 02de 8B55C4   		movl	-60(%ebp), %edx
 421 02e1 31C9     		xorl	%ecx, %ecx
 422 02e3 8B45E0   		movl	-32(%ebp), %eax
 423 02e6 8B5DE4   		movl	-28(%ebp), %ebx
 424 02e9 8B0482   		movl	(%edx,%eax,4), %eax
 425 02ec 31D2     		xorl	%edx, %edx
 426              	LVL36:
 427 02ee C1E302   		sall	$2, %ebx
 428 02f1 8945B8   		movl	%eax, -72(%ebp)
 429              		.p2align 4,,7
 430              	L26:
 160:./Source/Matrix.c ****                     val += arr_1[i][k] * arr_2[k][j];
 431              		.loc 1 160 0
 432 02f4 8B75C8   		movl	-56(%ebp), %esi
 433 02f7 8B0496   		movl	(%esi,%edx,4), %eax
 434 02fa 8B75B8   		movl	-72(%ebp), %esi
 435 02fd 8B0418   		movl	(%eax,%ebx), %eax
 436 0300 0FAF0496 		imull	(%esi,%edx,4), %eax
 159:./Source/Matrix.c ****                 for(k = 0;k < len1_in;k++)
 437              		.loc 1 159 0
 438 0304 83C201   		addl	$1, %edx
 160:./Source/Matrix.c ****                     val += arr_1[i][k] * arr_2[k][j];
 439              		.loc 1 160 0
 440 0307 01C1     		addl	%eax, %ecx
 159:./Source/Matrix.c ****                 for(k = 0;k < len1_in;k++)
 441              		.loc 1 159 0
 442 0309 39D7     		cmpl	%edx, %edi
 443 030b 77E7     		ja	L26
 444 030d 89C8     		movl	%ecx, %eax
 445              	L29:
 163:./Source/Matrix.c ****                 arr_3[i][j] = val;
 446              		.loc 1 163 0
 447 030f 8B55BC   		movl	-68(%ebp), %edx
 448              	LVL37:
 449              	LBE12:
 149:./Source/Matrix.c ****             for(j = 0;j < len3_in;j++)
GAS LISTING /cygdrive/c/Users/THESCI~1/AppData/Local/Temp/cchZ1Zdn.s 			page 15


 450              		.loc 1 149 0
 451 0312 8345E401 		addl	$1, -28(%ebp)
 452              	LVL38:
 453 0316 8B75EC   		movl	-20(%ebp), %esi
 454 0319 3975E4   		cmpl	%esi, -28(%ebp)
 455              	LBB11:
 163:./Source/Matrix.c ****                 arr_3[i][j] = val;
 456              		.loc 1 163 0
 457 031c 89041A   		movl	%eax, (%edx,%ebx)
 458              	LBE11:
 149:./Source/Matrix.c ****             for(j = 0;j < len3_in;j++)
 459              		.loc 1 149 0
 460 031f 72B5     		jb	L30
 461              	L27:
 148:./Source/Matrix.c ****         for(i = 0;i < len3;i++)
 462              		.loc 1 148 0
 463 0321 8345E001 		addl	$1, -32(%ebp)
 464              	LVL39:
 465 0325 8B55E0   		movl	-32(%ebp), %edx
 466 0328 3955D0   		cmpl	%edx, -48(%ebp)
 467 032b 778F     		ja	L25
 468              	LVL40:
 469              	L23:
 470              	LBE10:
 471              	LBB14:
 173:./Source/Matrix.c ****         if(len3 != (*env)->GetArrayLength(env,arr3))
 472              		.loc 1 173 0
 473 032d 8B5508   		movl	8(%ebp), %edx
 474 0330 8B7518   		movl	24(%ebp), %esi
 475 0333 8B02     		movl	(%edx), %eax
 476 0335 89742404 		movl	%esi, 4(%esp)
 477 0339 891424   		movl	%edx, (%esp)
 478 033c FF90AC02 		call	*684(%eax)
 478      0000
 479              	LVL41:
 480 0342 3945D0   		cmpl	%eax, -48(%ebp)
 481 0345 0F85E800 		jne	L31
 481      0000
 482              	LVL42:
 180:./Source/Matrix.c ****         for(i = 0;i < len1;i++)
 483              		.loc 1 180 0
 484 034b 8B4DD0   		movl	-48(%ebp), %ecx
 485              	LBB15:
 201:./Source/Matrix.c ****             for(j = 0;j < len1_in;j++)
 486              		.loc 1 201 0
 487 034e 31FF     		xorl	%edi, %edi
 488              	LVL43:
 489              	LBE15:
 180:./Source/Matrix.c ****         for(i = 0;i < len1;i++)
 490              		.loc 1 180 0
 491 0350 85C9     		testl	%ecx, %ecx
 492 0352 0F84A800 		je	L33
 492      0000
 493              	LVL44:
 494              	L39:
 495              	LBB16:
 188:./Source/Matrix.c ****             int_arr = (*env)->GetObjectArrayElement(env,arr3,i);
GAS LISTING /cygdrive/c/Users/THESCI~1/AppData/Local/Temp/cchZ1Zdn.s 			page 16


 496              		.loc 1 188 0
 497 0358 8B5508   		movl	8(%ebp), %edx
 498 035b 8B02     		movl	(%edx), %eax
 499 035d 897C2408 		movl	%edi, 8(%esp)
 500 0361 8B7518   		movl	24(%ebp), %esi
 501 0364 891424   		movl	%edx, (%esp)
 502 0367 89742404 		movl	%esi, 4(%esp)
 503 036b FF90B402 		call	*692(%eax)
 503      0000
 191:./Source/Matrix.c ****             if(len3_in != (*env)->GetArrayLength(env,int_arr))
 504              		.loc 1 191 0
 505 0371 8B5508   		movl	8(%ebp), %edx
 188:./Source/Matrix.c ****             int_arr = (*env)->GetObjectArrayElement(env,arr3,i);
 506              		.loc 1 188 0
 507 0374 89C6     		movl	%eax, %esi
 508              	LVL45:
 191:./Source/Matrix.c ****             if(len3_in != (*env)->GetArrayLength(env,int_arr))
 509              		.loc 1 191 0
 510 0376 8B02     		movl	(%edx), %eax
 511 0378 89742404 		movl	%esi, 4(%esp)
 512 037c 891424   		movl	%edx, (%esp)
 513 037f FF90AC02 		call	*684(%eax)
 513      0000
 514 0385 3945D8   		cmpl	%eax, -40(%ebp)
 515 0388 0F85FC00 		jne	L53
 515      0000
 198:./Source/Matrix.c ****             orig = (*env)->GetIntArrayElements(env,int_arr,0);
 516              		.loc 1 198 0
 517 038e 8B5508   		movl	8(%ebp), %edx
 518 0391 8B02     		movl	(%edx), %eax
 519 0393 891424   		movl	%edx, (%esp)
 520 0396 C7442408 		movl	$0, 8(%esp)
 520      00000000 
 521 039e 89742404 		movl	%esi, 4(%esp)
 522 03a2 FF90EC02 		call	*748(%eax)
 522      0000
 201:./Source/Matrix.c ****             for(j = 0;j < len1_in;j++)
 523              		.loc 1 201 0
 524 03a8 8B55D4   		movl	-44(%ebp), %edx
 525 03ab 85D2     		testl	%edx, %edx
 198:./Source/Matrix.c ****             orig = (*env)->GetIntArrayElements(env,int_arr,0);
 526              		.loc 1 198 0
 527 03ad 8945E8   		movl	%eax, -24(%ebp)
 528              	LVL46:
 201:./Source/Matrix.c ****             for(j = 0;j < len1_in;j++)
 529              		.loc 1 201 0
 530 03b0 741E     		je	L35
 531 03b2 89C1     		movl	%eax, %ecx
 532 03b4 8B45CC   		movl	-52(%ebp), %eax
 533 03b7 31D2     		xorl	%edx, %edx
 534              	LVL47:
 535 03b9 8B1CB8   		movl	(%eax,%edi,4), %ebx
 536              	LVL48:
 537 03bc 8D742600 		.p2align 4,,7
 538              	L36:
 202:./Source/Matrix.c ****                 orig[j] = arr_3[i][j];
 539              		.loc 1 202 0
GAS LISTING /cygdrive/c/Users/THESCI~1/AppData/Local/Temp/cchZ1Zdn.s 			page 17


 540 03c0 8B0493   		movl	(%ebx,%edx,4), %eax
 201:./Source/Matrix.c ****             for(j = 0;j < len1_in;j++)
 541              		.loc 1 201 0
 542 03c3 83C201   		addl	$1, %edx
 202:./Source/Matrix.c ****                 orig[j] = arr_3[i][j];
 543              		.loc 1 202 0
 544 03c6 8901     		movl	%eax, (%ecx)
 201:./Source/Matrix.c ****             for(j = 0;j < len1_in;j++)
 545              		.loc 1 201 0
 546 03c8 83C104   		addl	$4, %ecx
 547 03cb 3B55D4   		cmpl	-44(%ebp), %edx
 548 03ce 72F0     		jb	L36
 549              	LVL49:
 550              	L35:
 205:./Source/Matrix.c ****             (*env)->ReleaseIntArrayElements(env,int_arr,orig,0);
 551              		.loc 1 205 0
 552 03d0 8B5508   		movl	8(%ebp), %edx
 553              	LVL50:
 554              	LBE16:
 180:./Source/Matrix.c ****         for(i = 0;i < len1;i++)
 555              		.loc 1 180 0
 556 03d3 83C701   		addl	$1, %edi
 557              	LBB17:
 205:./Source/Matrix.c ****             (*env)->ReleaseIntArrayElements(env,int_arr,orig,0);
 558              		.loc 1 205 0
 559 03d6 8B02     		movl	(%edx), %eax
 560 03d8 C744240C 		movl	$0, 12(%esp)
 560      00000000 
 561 03e0 8B55E8   		movl	-24(%ebp), %edx
 562 03e3 89742404 		movl	%esi, 4(%esp)
 563 03e7 89542408 		movl	%edx, 8(%esp)
 564 03eb 8B7508   		movl	8(%ebp), %esi
 565              	LVL51:
 566 03ee 893424   		movl	%esi, (%esp)
 567 03f1 FF900C03 		call	*780(%eax)
 567      0000
 568              	LBE17:
 180:./Source/Matrix.c ****         for(i = 0;i < len1;i++)
 569              		.loc 1 180 0
 570 03f7 397DD0   		cmpl	%edi, -48(%ebp)
 571 03fa 0F8758FF 		ja	L39
 571      FFFF
 572              	L33:
 573              	LBE14:
 210:./Source/Matrix.c ****     freeeverything(arr_1,len1,arr_2,len2,arr_3,len3);
 574              		.loc 1 210 0
 575 0400 8B45D0   		movl	-48(%ebp), %eax
 576 0403 89442414 		movl	%eax, 20(%esp)
 577 0407 8B55CC   		movl	-52(%ebp), %edx
 578 040a 89542410 		movl	%edx, 16(%esp)
 579 040e 8B75D4   		movl	-44(%ebp), %esi
 580 0411 8974240C 		movl	%esi, 12(%esp)
 581 0415 8B45C8   		movl	-56(%ebp), %eax
 582 0418 89442408 		movl	%eax, 8(%esp)
 583 041c 8B55D0   		movl	-48(%ebp), %edx
 584 041f 89542404 		movl	%edx, 4(%esp)
 585 0423 8B75C4   		movl	-60(%ebp), %esi
GAS LISTING /cygdrive/c/Users/THESCI~1/AppData/Local/Temp/cchZ1Zdn.s 			page 18


 586 0426 893424   		movl	%esi, (%esp)
 587 0429 E8D2FBFF 		call	_freeeverything
 587      FF
 588 042e E945FEFF 		jmp	L38
 588      FF
 589              	LVL52:
 590              	L31:
 591              	LBB19:
 175:./Source/Matrix.c ****             freeeverything(arr_1,len1,arr_2,len2,arr_3,len3);
 592              		.loc 1 175 0
 593 0433 8B45D0   		movl	-48(%ebp), %eax
 594 0436 89442414 		movl	%eax, 20(%esp)
 595 043a 8B55CC   		movl	-52(%ebp), %edx
 596 043d 897C240C 		movl	%edi, 12(%esp)
 597 0441 89542410 		movl	%edx, 16(%esp)
 598 0445 8B75C8   		movl	-56(%ebp), %esi
 599 0448 89442404 		movl	%eax, 4(%esp)
 600 044c 89742408 		movl	%esi, 8(%esp)
 601 0450 8B45C4   		movl	-60(%ebp), %eax
 602 0453 890424   		movl	%eax, (%esp)
 603 0456 E8A5FBFF 		call	_freeeverything
 603      FF
 604              	LBE19:
 214:./Source/Matrix.c **** }
 605              		.loc 1 214 0
 606 045b 83C45C   		addl	$92, %esp
 607 045e 5B       		popl	%ebx
 608              	LVL53:
 609 045f 5E       		popl	%esi
 610 0460 5F       		popl	%edi
 611              	LVL54:
 612 0461 5D       		popl	%ebp
 613 0462 C3       		ret
 614              	LVL55:
 615              		.p2align 4,,7
 616              	L52:
 617              	LBB20:
 618              	LBB13:
 159:./Source/Matrix.c ****                 for(k = 0;k < len1_in;k++)
 619              		.loc 1 159 0
 620 0463 8B5DE4   		movl	-28(%ebp), %ebx
 621 0466 31C0     		xorl	%eax, %eax
 622 0468 C1E302   		sall	$2, %ebx
 623 046b E99FFEFF 		jmp	L29
 623      FF
 624              	LVL56:
 625              	L49:
 626              	LBE13:
 627              	LBE20:
 628              	LBB21:
  94:./Source/Matrix.c ****         for(i = 0;i < len2;i++)
 629              		.loc 1 94 0
 630 0470 C745D800 		movl	$0, -40(%ebp)
 630      000000
 631              	LVL57:
 632 0477 C745EC00 		movl	$0, -20(%ebp)
 632      000000
GAS LISTING /cygdrive/c/Users/THESCI~1/AppData/Local/Temp/cchZ1Zdn.s 			page 19


 633 047e C745F000 		movl	$0, -16(%ebp)
 633      000000
 634 0485 E9E9FDFF 		jmp	L18
 634      FF
 635              	LVL58:
 636              	L53:
 637              	LBE21:
 638              	LBB22:
 639              	LBB18:
 193:./Source/Matrix.c ****                 freeeverything(arr_1,len1,arr_2,len2,arr_3,len3);
 640              		.loc 1 193 0
 641 048a 8B75D0   		movl	-48(%ebp), %esi
 642              	LVL59:
 643 048d 89742414 		movl	%esi, 20(%esp)
 644 0491 8B45CC   		movl	-52(%ebp), %eax
 645 0494 89442410 		movl	%eax, 16(%esp)
 646 0498 8B55D4   		movl	-44(%ebp), %edx
 647 049b 8954240C 		movl	%edx, 12(%esp)
 648 049f 8B75C8   		movl	-56(%ebp), %esi
 649 04a2 89742408 		movl	%esi, 8(%esp)
 650 04a6 8B45D0   		movl	-48(%ebp), %eax
 651 04a9 89442404 		movl	%eax, 4(%esp)
 652 04ad 8B55C4   		movl	-60(%ebp), %edx
 653 04b0 891424   		movl	%edx, (%esp)
 654 04b3 E848FBFF 		call	_freeeverything
 654      FF
 655 04b8 E9BBFDFF 		jmp	L38
 655      FF
 656              	LBE18:
 657              	LBE22:
 658              	LFE6:
 659              		.section	.debug_frame,"dr"
 660              	Lframe0:
 661 0000 10000000 		.long	LECIE0-LSCIE0
 662              	LSCIE0:
 663 0004 FFFFFFFF 		.long	0xffffffff
 664 0008 01       		.byte	0x1
 665 0009 00       		.ascii "\0"
 666 000a 01       		.uleb128 0x1
 667 000b 7C       		.sleb128 -4
 668 000c 08       		.byte	0x8
 669 000d 0C       		.byte	0xc
 670 000e 04       		.uleb128 0x4
 671 000f 04       		.uleb128 0x4
 672 0010 88       		.byte	0x88
 673 0011 01       		.uleb128 0x1
 674 0012 0000     		.align 4
 675              	LECIE0:
 676              	LSFDE0:
 677 0014 1C000000 		.long	LEFDE0-LASFDE0
 678              	LASFDE0:
 679 0018 00000000 		.secrel32	Lframe0
 680 001c 00000000 		.long	LFB7
 681 0020 8A000000 		.long	LFE7-LFB7
 682 0024 41       		.byte	0x4
 683              		.long	LCFI0-LFB7
 684 0025 0E       		.byte	0xe
GAS LISTING /cygdrive/c/Users/THESCI~1/AppData/Local/Temp/cchZ1Zdn.s 			page 20


 685 0026 08       		.uleb128 0x8
 686 0027 85       		.byte	0x85
 687 0028 02       		.uleb128 0x2
 688 0029 42       		.byte	0x4
 689              		.long	LCFI1-LCFI0
 690 002a 0D       		.byte	0xd
 691 002b 05       		.uleb128 0x5
 692 002c 46       		.byte	0x4
 693              		.long	LCFI5-LCFI1
 694 002d 83       		.byte	0x83
 695 002e 05       		.uleb128 0x5
 696 002f 86       		.byte	0x86
 697 0030 04       		.uleb128 0x4
 698 0031 87       		.byte	0x87
 699 0032 03       		.uleb128 0x3
 700 0033 00       		.align 4
 701              	LEFDE0:
 702              	LSFDE2:
 703 0034 1C000000 		.long	LEFDE2-LASFDE2
 704              	LASFDE2:
 705 0038 00000000 		.secrel32	Lframe0
 706 003c 90000000 		.long	LFB6
 707 0040 2D040000 		.long	LFE6-LFB6
 708 0044 41       		.byte	0x4
 709              		.long	LCFI6-LFB6
 710 0045 0E       		.byte	0xe
 711 0046 08       		.uleb128 0x8
 712 0047 85       		.byte	0x85
 713 0048 02       		.uleb128 0x2
 714 0049 42       		.byte	0x4
 715              		.long	LCFI7-LCFI6
 716 004a 0D       		.byte	0xd
 717 004b 05       		.uleb128 0x5
 718 004c 46       		.byte	0x4
 719              		.long	LCFI11-LCFI7
 720 004d 83       		.byte	0x83
 721 004e 05       		.uleb128 0x5
 722 004f 86       		.byte	0x86
 723 0050 04       		.uleb128 0x4
 724 0051 87       		.byte	0x87
 725 0052 03       		.uleb128 0x3
 726 0053 00       		.align 4
 727              	LEFDE2:
 728              		.text
 729              	Letext0:
 730 04bd 909090   		.section	.debug_loc,"dr"
 731              	Ldebug_loc0:
 732              	LLST0:
 733 0000 00000000 		.long	LFB7-Ltext0
 734 0004 01000000 		.long	LCFI0-Ltext0
 735 0008 0200     		.word	0x2
 736 000a 74       		.byte	0x74
 737 000b 04       		.sleb128 4
 738 000c 01000000 		.long	LCFI0-Ltext0
 739 0010 03000000 		.long	LCFI1-Ltext0
 740 0014 0200     		.word	0x2
 741 0016 74       		.byte	0x74
GAS LISTING /cygdrive/c/Users/THESCI~1/AppData/Local/Temp/cchZ1Zdn.s 			page 21


 742 0017 08       		.sleb128 8
 743 0018 03000000 		.long	LCFI1-Ltext0
 744 001c 8A000000 		.long	LFE7-Ltext0
 745 0020 0200     		.word	0x2
 746 0022 75       		.byte	0x75
 747 0023 08       		.sleb128 8
 748 0024 00000000 		.long	0x0
 749 0028 00000000 		.long	0x0
 750              	LLST1:
 751 002c 00000000 		.long	LVL0-Ltext0
 752 0030 1F000000 		.long	LVL3-Ltext0
 753 0034 0200     		.word	0x2
 754 0036 91       		.byte	0x91
 755 0037 00       		.sleb128 0
 756 0038 1F000000 		.long	LVL3-Ltext0
 757 003c 84000000 		.long	LVL9-Ltext0
 758 0040 0100     		.word	0x1
 759 0042 57       		.byte	0x57
 760 0043 84000000 		.long	LVL9-Ltext0
 761 0047 8A000000 		.long	LFE7-Ltext0
 762 004b 0200     		.word	0x2
 763 004d 75       		.byte	0x75
 764 004e 08       		.sleb128 8
 765 004f 00000000 		.long	0x0
 766 0053 00000000 		.long	0x0
 767              	LLST2:
 768 0057 00000000 		.long	LVL0-Ltext0
 769 005b 1F000000 		.long	LVL3-Ltext0
 770 005f 0200     		.word	0x2
 771 0061 91       		.byte	0x91
 772 0062 04       		.sleb128 4
 773 0063 1F000000 		.long	LVL3-Ltext0
 774 0067 83000000 		.long	LVL8-Ltext0
 775 006b 0100     		.word	0x1
 776 006d 56       		.byte	0x56
 777 006e 83000000 		.long	LVL8-Ltext0
 778 0072 8A000000 		.long	LFE7-Ltext0
 779 0076 0200     		.word	0x2
 780 0078 75       		.byte	0x75
 781 0079 0C       		.sleb128 12
 782 007a 00000000 		.long	0x0
 783 007e 00000000 		.long	0x0
 784              	LLST3:
 785 0082 00000000 		.long	LVL0-Ltext0
 786 0086 1A000000 		.long	LVL1-Ltext0
 787 008a 0200     		.word	0x2
 788 008c 91       		.byte	0x91
 789 008d 08       		.sleb128 8
 790 008e 1A000000 		.long	LVL1-Ltext0
 791 0092 8A000000 		.long	LFE7-Ltext0
 792 0096 0200     		.word	0x2
 793 0098 75       		.byte	0x75
 794 0099 70       		.sleb128 -16
 795 009a 00000000 		.long	0x0
 796 009e 00000000 		.long	0x0
 797              	LLST4:
 798 00a2 00000000 		.long	LVL0-Ltext0
GAS LISTING /cygdrive/c/Users/THESCI~1/AppData/Local/Temp/cchZ1Zdn.s 			page 22


 799 00a6 1D000000 		.long	LVL2-Ltext0
 800 00aa 0200     		.word	0x2
 801 00ac 91       		.byte	0x91
 802 00ad 10       		.sleb128 16
 803 00ae 1D000000 		.long	LVL2-Ltext0
 804 00b2 8A000000 		.long	LFE7-Ltext0
 805 00b6 0200     		.word	0x2
 806 00b8 75       		.byte	0x75
 807 00b9 6C       		.sleb128 -20
 808 00ba 00000000 		.long	0x0
 809 00be 00000000 		.long	0x0
 810              	LLST5:
 811 00c2 21000000 		.long	LVL4-Ltext0
 812 00c6 82000000 		.long	LVL7-Ltext0
 813 00ca 0100     		.word	0x1
 814 00cc 53       		.byte	0x53
 815 00cd 00000000 		.long	0x0
 816 00d1 00000000 		.long	0x0
 817              	LLST6:
 818 00d5 90000000 		.long	LFB6-Ltext0
 819 00d9 91000000 		.long	LCFI6-Ltext0
 820 00dd 0200     		.word	0x2
 821 00df 74       		.byte	0x74
 822 00e0 04       		.sleb128 4
 823 00e1 91000000 		.long	LCFI6-Ltext0
 824 00e5 93000000 		.long	LCFI7-Ltext0
 825 00e9 0200     		.word	0x2
 826 00eb 74       		.byte	0x74
 827 00ec 08       		.sleb128 8
 828 00ed 93000000 		.long	LCFI7-Ltext0
 829 00f1 BD040000 		.long	LFE6-Ltext0
 830 00f5 0200     		.word	0x2
 831 00f7 75       		.byte	0x75
 832 00f8 08       		.sleb128 8
 833 00f9 00000000 		.long	0x0
 834 00fd 00000000 		.long	0x0
 835              	LLST7:
 836 0101 90000000 		.long	LVL10-Ltext0
 837 0105 D6000000 		.long	LVL14-Ltext0
 838 0109 0200     		.word	0x2
 839 010b 91       		.byte	0x91
 840 010c 00       		.sleb128 0
 841 010d D6000000 		.long	LVL14-Ltext0
 842 0111 BD040000 		.long	LFE6-Ltext0
 843 0115 0200     		.word	0x2
 844 0117 75       		.byte	0x75
 845 0118 08       		.sleb128 8
 846 0119 00000000 		.long	0x0
 847 011d 00000000 		.long	0x0
 848              	LLST8:
 849 0121 90000000 		.long	LVL10-Ltext0
 850 0125 D6000000 		.long	LVL14-Ltext0
 851 0129 0200     		.word	0x2
 852 012b 91       		.byte	0x91
 853 012c 08       		.sleb128 8
 854 012d D6000000 		.long	LVL14-Ltext0
 855 0131 BD040000 		.long	LFE6-Ltext0
GAS LISTING /cygdrive/c/Users/THESCI~1/AppData/Local/Temp/cchZ1Zdn.s 			page 23


 856 0135 0200     		.word	0x2
 857 0137 75       		.byte	0x75
 858 0138 10       		.sleb128 16
 859 0139 00000000 		.long	0x0
 860 013d 00000000 		.long	0x0
 861              	LLST9:
 862 0141 90000000 		.long	LVL10-Ltext0
 863 0145 B7010000 		.long	LVL21-Ltext0
 864 0149 0200     		.word	0x2
 865 014b 91       		.byte	0x91
 866 014c 0C       		.sleb128 12
 867 014d B7010000 		.long	LVL21-Ltext0
 868 0151 BD040000 		.long	LFE6-Ltext0
 869 0155 0200     		.word	0x2
 870 0157 75       		.byte	0x75
 871 0158 14       		.sleb128 20
 872 0159 00000000 		.long	0x0
 873 015d 00000000 		.long	0x0
 874              	LLST10:
 875 0161 90000000 		.long	LVL10-Ltext0
 876 0165 4B030000 		.long	LVL42-Ltext0
 877 0169 0200     		.word	0x2
 878 016b 91       		.byte	0x91
 879 016c 10       		.sleb128 16
 880 016d 4B030000 		.long	LVL42-Ltext0
 881 0171 63040000 		.long	LVL55-Ltext0
 882 0175 0200     		.word	0x2
 883 0177 75       		.byte	0x75
 884 0178 18       		.sleb128 24
 885 0179 63040000 		.long	LVL55-Ltext0
 886 017d 8A040000 		.long	LVL58-Ltext0
 887 0181 0200     		.word	0x2
 888 0183 91       		.byte	0x91
 889 0184 10       		.sleb128 16
 890 0185 8A040000 		.long	LVL58-Ltext0
 891 0189 BD040000 		.long	LFE6-Ltext0
 892 018d 0200     		.word	0x2
 893 018f 75       		.byte	0x75
 894 0190 18       		.sleb128 24
 895 0191 00000000 		.long	0x0
 896 0195 00000000 		.long	0x0
 897              	LLST11:
 898 0199 9D010000 		.long	LVL20-Ltext0
 899 019d 7E020000 		.long	LVL30-Ltext0
 900 01a1 0100     		.word	0x1
 901 01a3 57       		.byte	0x57
 902 01a4 81020000 		.long	LVL31-Ltext0
 903 01a8 50030000 		.long	LVL43-Ltext0
 904 01ac 0100     		.word	0x1
 905 01ae 57       		.byte	0x57
 906 01af 33040000 		.long	LVL52-Ltext0
 907 01b3 61040000 		.long	LVL54-Ltext0
 908 01b7 0100     		.word	0x1
 909 01b9 57       		.byte	0x57
 910 01ba 63040000 		.long	LVL55-Ltext0
 911 01be 8A040000 		.long	LVL58-Ltext0
 912 01c2 0100     		.word	0x1
GAS LISTING /cygdrive/c/Users/THESCI~1/AppData/Local/Temp/cchZ1Zdn.s 			page 24


 913 01c4 57       		.byte	0x57
 914 01c5 00000000 		.long	0x0
 915 01c9 00000000 		.long	0x0
 916              	LLST12:
 917 01cd B7010000 		.long	LVL21-Ltext0
 918 01d1 70040000 		.long	LVL56-Ltext0
 919 01d5 0200     		.word	0x2
 920 01d7 75       		.byte	0x75
 921 01d8 58       		.sleb128 -40
 922 01d9 77040000 		.long	LVL57-Ltext0
 923 01dd BD040000 		.long	LFE6-Ltext0
 924 01e1 0200     		.word	0x2
 925 01e3 75       		.byte	0x75
 926 01e4 58       		.sleb128 -40
 927 01e5 00000000 		.long	0x0
 928 01e9 00000000 		.long	0x0
 929              	LLST13:
 930 01ed A7000000 		.long	LVL11-Ltext0
 931 01f1 87010000 		.long	LVL18-Ltext0
 932 01f5 0100     		.word	0x1
 933 01f7 56       		.byte	0x56
 934 01f8 00000000 		.long	0x0
 935 01fc 00000000 		.long	0x0
 936              	LLST14:
 937 0200 D6000000 		.long	LVL14-Ltext0
 938 0204 9D010000 		.long	LVL20-Ltext0
 939 0208 0100     		.word	0x1
 940 020a 57       		.byte	0x57
 941 020b 00000000 		.long	0x0
 942 020f 00000000 		.long	0x0
 943              	LLST15:
 944 0213 D6000000 		.long	LVL14-Ltext0
 945 0217 89010000 		.long	LVL19-Ltext0
 946 021b 0100     		.word	0x1
 947 021d 53       		.byte	0x53
 948 021e 00000000 		.long	0x0
 949 0222 00000000 		.long	0x0
 950              	LLST16:
 951 0226 44010000 		.long	LVL16-Ltext0
 952 022a 5D010000 		.long	LVL17-Ltext0
 953 022e 0100     		.word	0x1
 954 0230 52       		.byte	0x52
 955 0231 00000000 		.long	0x0
 956 0235 00000000 		.long	0x0
 957              	LLST17:
 958 0239 89010000 		.long	LVL19-Ltext0
 959 023d 7C020000 		.long	LVL29-Ltext0
 960 0241 0100     		.word	0x1
 961 0243 53       		.byte	0x53
 962 0244 81020000 		.long	LVL31-Ltext0
 963 0248 9C020000 		.long	LVL32-Ltext0
 964 024c 0100     		.word	0x1
 965 024e 53       		.byte	0x53
 966 024f 2D030000 		.long	LVL40-Ltext0
 967 0253 BC030000 		.long	LVL48-Ltext0
 968 0257 0100     		.word	0x1
 969 0259 53       		.byte	0x53
GAS LISTING /cygdrive/c/Users/THESCI~1/AppData/Local/Temp/cchZ1Zdn.s 			page 25


 970 025a D0030000 		.long	LVL49-Ltext0
 971 025e 5F040000 		.long	LVL53-Ltext0
 972 0262 0100     		.word	0x1
 973 0264 53       		.byte	0x53
 974 0265 70040000 		.long	LVL56-Ltext0
 975 0269 BD040000 		.long	LFE6-Ltext0
 976 026d 0100     		.word	0x1
 977 026f 53       		.byte	0x53
 978 0270 00000000 		.long	0x0
 979 0274 00000000 		.long	0x0
 980              	LLST18:
 981 0278 B7010000 		.long	LVL21-Ltext0
 982 027c 70040000 		.long	LVL56-Ltext0
 983 0280 0200     		.word	0x2
 984 0282 75       		.byte	0x75
 985 0283 5C       		.sleb128 -36
 986 0284 8A040000 		.long	LVL58-Ltext0
 987 0288 BD040000 		.long	LFE6-Ltext0
 988 028c 0200     		.word	0x2
 989 028e 75       		.byte	0x75
 990 028f 5C       		.sleb128 -36
 991 0290 00000000 		.long	0x0
 992 0294 00000000 		.long	0x0
 993              	LLST19:
 994 0298 0A020000 		.long	LVL24-Ltext0
 995 029c 5E020000 		.long	LVL27-Ltext0
 996 02a0 0100     		.word	0x1
 997 02a2 56       		.byte	0x56
 998 02a3 00000000 		.long	0x0
 999 02a7 00000000 		.long	0x0
 1000              	LLST20:
 1001 02ab 31020000 		.long	LVL25-Ltext0
 1002 02af 4A020000 		.long	LVL26-Ltext0
 1003 02b3 0100     		.word	0x1
 1004 02b5 52       		.byte	0x52
 1005 02b6 00000000 		.long	0x0
 1006 02ba 00000000 		.long	0x0
 1007              	LLST21:
 1008 02be 9C020000 		.long	LVL32-Ltext0
 1009 02c2 BF020000 		.long	LVL34-Ltext0
 1010 02c6 0100     		.word	0x1
 1011 02c8 53       		.byte	0x53
 1012 02c9 00000000 		.long	0x0
 1013 02cd 00000000 		.long	0x0
 1014              	LLST22:
 1015 02d1 78020000 		.long	LVL28-Ltext0
 1016 02d5 81020000 		.long	LVL31-Ltext0
 1017 02d9 0200     		.word	0x2
 1018 02db 75       		.byte	0x75
 1019 02dc 60       		.sleb128 -32
 1020 02dd BC020000 		.long	LVL33-Ltext0
 1021 02e1 70040000 		.long	LVL56-Ltext0
 1022 02e5 0200     		.word	0x2
 1023 02e7 75       		.byte	0x75
 1024 02e8 60       		.sleb128 -32
 1025 02e9 8A040000 		.long	LVL58-Ltext0
 1026 02ed BD040000 		.long	LFE6-Ltext0
GAS LISTING /cygdrive/c/Users/THESCI~1/AppData/Local/Temp/cchZ1Zdn.s 			page 26


 1027 02f1 0200     		.word	0x2
 1028 02f3 75       		.byte	0x75
 1029 02f4 60       		.sleb128 -32
 1030 02f5 00000000 		.long	0x0
 1031 02f9 00000000 		.long	0x0
 1032              	LLST23:
 1033 02fd 78020000 		.long	LVL28-Ltext0
 1034 0301 81020000 		.long	LVL31-Ltext0
 1035 0305 0200     		.word	0x2
 1036 0307 75       		.byte	0x75
 1037 0308 64       		.sleb128 -28
 1038 0309 BC020000 		.long	LVL33-Ltext0
 1039 030d 70040000 		.long	LVL56-Ltext0
 1040 0311 0200     		.word	0x2
 1041 0313 75       		.byte	0x75
 1042 0314 64       		.sleb128 -28
 1043 0315 8A040000 		.long	LVL58-Ltext0
 1044 0319 BD040000 		.long	LFE6-Ltext0
 1045 031d 0200     		.word	0x2
 1046 031f 75       		.byte	0x75
 1047 0320 64       		.sleb128 -28
 1048 0321 00000000 		.long	0x0
 1049 0325 00000000 		.long	0x0
 1050              	LLST24:
 1051 0329 EE020000 		.long	LVL36-Ltext0
 1052 032d 12030000 		.long	LVL37-Ltext0
 1053 0331 0100     		.word	0x1
 1054 0333 52       		.byte	0x52
 1055 0334 00000000 		.long	0x0
 1056 0338 00000000 		.long	0x0
 1057              	LLST25:
 1058 033c BC020000 		.long	LVL33-Ltext0
 1059 0340 42030000 		.long	LVL41-Ltext0
 1060 0344 0100     		.word	0x1
 1061 0346 51       		.byte	0x51
 1062 0347 63040000 		.long	LVL55-Ltext0
 1063 034b 70040000 		.long	LVL56-Ltext0
 1064 034f 0100     		.word	0x1
 1065 0351 51       		.byte	0x51
 1066 0352 00000000 		.long	0x0
 1067 0356 00000000 		.long	0x0
 1068              	LLST26:
 1069 035a 78020000 		.long	LVL28-Ltext0
 1070 035e 7E020000 		.long	LVL30-Ltext0
 1071 0362 0100     		.word	0x1
 1072 0364 57       		.byte	0x57
 1073 0365 50030000 		.long	LVL43-Ltext0
 1074 0369 33040000 		.long	LVL52-Ltext0
 1075 036d 0100     		.word	0x1
 1076 036f 57       		.byte	0x57
 1077 0370 8A040000 		.long	LVL58-Ltext0
 1078 0374 BD040000 		.long	LFE6-Ltext0
 1079 0378 0100     		.word	0x1
 1080 037a 57       		.byte	0x57
 1081 037b 00000000 		.long	0x0
 1082 037f 00000000 		.long	0x0
 1083              	LLST27:
GAS LISTING /cygdrive/c/Users/THESCI~1/AppData/Local/Temp/cchZ1Zdn.s 			page 27


 1084 0383 76030000 		.long	LVL45-Ltext0
 1085 0387 EE030000 		.long	LVL51-Ltext0
 1086 038b 0100     		.word	0x1
 1087 038d 56       		.byte	0x56
 1088 038e 8A040000 		.long	LVL58-Ltext0
 1089 0392 8D040000 		.long	LVL59-Ltext0
 1090 0396 0100     		.word	0x1
 1091 0398 56       		.byte	0x56
 1092 0399 00000000 		.long	0x0
 1093 039d 00000000 		.long	0x0
 1094              	LLST28:
 1095 03a1 78020000 		.long	LVL28-Ltext0
 1096 03a5 81020000 		.long	LVL31-Ltext0
 1097 03a9 0200     		.word	0x2
 1098 03ab 75       		.byte	0x75
 1099 03ac 68       		.sleb128 -24
 1100 03ad 58030000 		.long	LVL44-Ltext0
 1101 03b1 33040000 		.long	LVL52-Ltext0
 1102 03b5 0200     		.word	0x2
 1103 03b7 75       		.byte	0x75
 1104 03b8 68       		.sleb128 -24
 1105 03b9 8A040000 		.long	LVL58-Ltext0
 1106 03bd BD040000 		.long	LFE6-Ltext0
 1107 03c1 0200     		.word	0x2
 1108 03c3 75       		.byte	0x75
 1109 03c4 68       		.sleb128 -24
 1110 03c5 00000000 		.long	0x0
 1111 03c9 00000000 		.long	0x0
 1112              	LLST29:
 1113 03cd B9030000 		.long	LVL47-Ltext0
 1114 03d1 D3030000 		.long	LVL50-Ltext0
 1115 03d5 0100     		.word	0x1
 1116 03d7 52       		.byte	0x52
 1117 03d8 00000000 		.long	0x0
 1118 03dc 00000000 		.long	0x0
 1119              		.file 2 "/usr/lib/gcc/i686-pc-cygwin/4.3.4/include/stdarg.h"
 1120              		.file 3 "/usr/lib/gcc/i686-pc-cygwin/4.3.4/include/jni_md.h"
 1121              		.file 4 "/usr/lib/gcc/i686-pc-cygwin/4.3.4/include/jni.h"
 1122              		.section	.debug_info,"dr"
 1123 0000 34410000 		.long	0x4134
 1124 0004 0200     		.word	0x2
 1125 0006 00000000 		.secrel32	Ldebug_abbrev0
 1126 000a 04       		.byte	0x4
 1127 000b 01       		.uleb128 0x1
 1128 000c 474E5520 		.ascii "GNU C 4.3.4 20090804 (release) 1\0"
 1128      4320342E 
 1128      332E3420 
 1128      32303039 
 1128      30383034 
 1129 002d 01       		.byte	0x1
 1130 002e 2E2F536F 		.ascii "./Source/Matrix.c\0"
 1130      75726365 
 1130      2F4D6174 
 1130      7269782E 
 1130      6300
 1131 0040 2F637967 		.ascii "/cygdrive/c/Users/The Science Guy/Documents/NetBeansProjects/C Project\0"
 1131      64726976 
GAS LISTING /cygdrive/c/Users/THESCI~1/AppData/Local/Temp/cchZ1Zdn.s 			page 28


 1131      652F632F 
 1131      55736572 
 1131      732F5468 
 1132 0087 00000000 		.long	Ltext0
 1133 008b BD040000 		.long	Letext0
 1134 008f 00000000 		.secrel32	Ldebug_line0
 1135 0093 02       		.uleb128 0x2
 1136 0094 04       		.byte	0x4
 1137 0095 07       		.byte	0x7
 1138 0096 756E7369 		.ascii "unsigned int\0"
 1138      676E6564 
 1138      20696E74 
 1138      00
 1139 00a3 03       		.uleb128 0x3
 1140 00a4 5F5F676E 		.ascii "__gnuc_va_list\0"
 1140      75635F76 
 1140      615F6C69 
 1140      737400
 1141 00b3 02       		.byte	0x2
 1142 00b4 2B       		.byte	0x2b
 1143 00b5 B9000000 		.long	0xb9
 1144 00b9 04       		.uleb128 0x4
 1145 00ba 04       		.byte	0x4
 1146 00bb 5F5F6275 		.ascii "__builtin_va_list\0"
 1146      696C7469 
 1146      6E5F7661 
 1146      5F6C6973 
 1146      7400
 1147 00cd D1000000 		.long	0xd1
 1148 00d1 02       		.uleb128 0x2
 1149 00d2 01       		.byte	0x1
 1150 00d3 06       		.byte	0x6
 1151 00d4 63686172 		.ascii "char\0"
 1151      00
 1152 00d9 02       		.uleb128 0x2
 1153 00da 01       		.byte	0x1
 1154 00db 06       		.byte	0x6
 1155 00dc 7369676E 		.ascii "signed char\0"
 1155      65642063 
 1155      68617200 
 1156 00e8 02       		.uleb128 0x2
 1157 00e9 01       		.byte	0x1
 1158 00ea 08       		.byte	0x8
 1159 00eb 756E7369 		.ascii "unsigned char\0"
 1159      676E6564 
 1159      20636861 
 1159      7200
 1160 00f9 02       		.uleb128 0x2
 1161 00fa 02       		.byte	0x2
 1162 00fb 05       		.byte	0x5
 1163 00fc 73686F72 		.ascii "short int\0"
 1163      7420696E 
 1163      7400
 1164 0106 02       		.uleb128 0x2
 1165 0107 02       		.byte	0x2
 1166 0108 07       		.byte	0x7
 1167 0109 73686F72 		.ascii "short unsigned int\0"
GAS LISTING /cygdrive/c/Users/THESCI~1/AppData/Local/Temp/cchZ1Zdn.s 			page 29


 1167      7420756E 
 1167      7369676E 
 1167      65642069 
 1167      6E7400
 1168 011c 02       		.uleb128 0x2
 1169 011d 04       		.byte	0x4
 1170 011e 05       		.byte	0x5
 1171 011f 696E7400 		.ascii "int\0"
 1172 0123 02       		.uleb128 0x2
 1173 0124 08       		.byte	0x8
 1174 0125 05       		.byte	0x5
 1175 0126 6C6F6E67 		.ascii "long long int\0"
 1175      206C6F6E 
 1175      6720696E 
 1175      7400
 1176 0134 02       		.uleb128 0x2
 1177 0135 08       		.byte	0x8
 1178 0136 07       		.byte	0x7
 1179 0137 6C6F6E67 		.ascii "long long unsigned int\0"
 1179      206C6F6E 
 1179      6720756E 
 1179      7369676E 
 1179      65642069 
 1180 014e 05       		.uleb128 0x5
 1181 014f 04       		.byte	0x4
 1182 0150 02       		.uleb128 0x2
 1183 0151 04       		.byte	0x4
 1184 0152 05       		.byte	0x5
 1185 0153 6C6F6E67 		.ascii "long int\0"
 1185      20696E74 
 1185      00
 1186 015c 06       		.uleb128 0x6
 1187 015d 04       		.byte	0x4
 1188 015e 07       		.byte	0x7
 1189 015f 02       		.uleb128 0x2
 1190 0160 04       		.byte	0x4
 1191 0161 07       		.byte	0x7
 1192 0162 6C6F6E67 		.ascii "long unsigned int\0"
 1192      20756E73 
 1192      69676E65 
 1192      6420696E 
 1192      7400
 1193 0174 07       		.uleb128 0x7
 1194 0175 04       		.byte	0x4
 1195 0176 D1000000 		.long	0xd1
 1196 017a 07       		.uleb128 0x7
 1197 017b 04       		.byte	0x4
 1198 017c 80010000 		.long	0x180
 1199 0180 08       		.uleb128 0x8
 1200 0181 D1000000 		.long	0xd1
 1201 0185 03       		.uleb128 0x3
 1202 0186 76615F6C 		.ascii "va_list\0"
 1202      69737400 
 1203 018e 02       		.byte	0x2
 1204 018f 69       		.byte	0x69
 1205 0190 A3000000 		.long	0xa3
 1206 0194 03       		.uleb128 0x3
GAS LISTING /cygdrive/c/Users/THESCI~1/AppData/Local/Temp/cchZ1Zdn.s 			page 30


 1207 0195 6A627974 		.ascii "jbyte\0"
 1207      6500
 1208 019b 03       		.byte	0x3
 1209 019c 4D       		.byte	0x4d
 1210 019d D9000000 		.long	0xd9
 1211 01a1 03       		.uleb128 0x3
 1212 01a2 6A73686F 		.ascii "jshort\0"
 1212      727400
 1213 01a9 03       		.byte	0x3
 1214 01aa 4E       		.byte	0x4e
 1215 01ab F9000000 		.long	0xf9
 1216 01af 03       		.uleb128 0x3
 1217 01b0 6A696E74 		.ascii "jint\0"
 1217      00
 1218 01b5 03       		.byte	0x3
 1219 01b6 4F       		.byte	0x4f
 1220 01b7 1C010000 		.long	0x11c
 1221 01bb 03       		.uleb128 0x3
 1222 01bc 6A6C6F6E 		.ascii "jlong\0"
 1222      6700
 1223 01c2 03       		.byte	0x3
 1224 01c3 50       		.byte	0x50
 1225 01c4 23010000 		.long	0x123
 1226 01c8 03       		.uleb128 0x3
 1227 01c9 6A626F6F 		.ascii "jboolean\0"
 1227      6C65616E 
 1227      00
 1228 01d2 03       		.byte	0x3
 1229 01d3 51       		.byte	0x51
 1230 01d4 D9000000 		.long	0xd9
 1231 01d8 03       		.uleb128 0x3
 1232 01d9 6A636861 		.ascii "jchar\0"
 1232      7200
 1233 01df 03       		.byte	0x3
 1234 01e0 52       		.byte	0x52
 1235 01e1 06010000 		.long	0x106
 1236 01e5 03       		.uleb128 0x3
 1237 01e6 6A666C6F 		.ascii "jfloat\0"
 1237      617400
 1238 01ed 03       		.byte	0x3
 1239 01ee 53       		.byte	0x53
 1240 01ef F3010000 		.long	0x1f3
 1241 01f3 02       		.uleb128 0x2
 1242 01f4 04       		.byte	0x4
 1243 01f5 04       		.byte	0x4
 1244 01f6 666C6F61 		.ascii "float\0"
 1244      7400
 1245 01fc 03       		.uleb128 0x3
 1246 01fd 6A646F75 		.ascii "jdouble\0"
 1246      626C6500 
 1247 0205 03       		.byte	0x3
 1248 0206 54       		.byte	0x54
 1249 0207 0B020000 		.long	0x20b
 1250 020b 02       		.uleb128 0x2
 1251 020c 08       		.byte	0x8
 1252 020d 04       		.byte	0x4
 1253 020e 646F7562 		.ascii "double\0"
GAS LISTING /cygdrive/c/Users/THESCI~1/AppData/Local/Temp/cchZ1Zdn.s 			page 31


 1253      6C6500
 1254 0215 03       		.uleb128 0x3
 1255 0216 6A73697A 		.ascii "jsize\0"
 1255      6500
 1256 021c 03       		.byte	0x3
 1257 021d 55       		.byte	0x55
 1258 021e AF010000 		.long	0x1af
 1259 0222 03       		.uleb128 0x3
 1260 0223 6A6F626A 		.ascii "jobject\0"
 1260      65637400 
 1261 022b 04       		.byte	0x4
 1262 022c 65       		.byte	0x65
 1263 022d 4E010000 		.long	0x14e
 1264 0231 03       		.uleb128 0x3
 1265 0232 6A636C61 		.ascii "jclass\0"
 1265      737300
 1266 0239 04       		.byte	0x4
 1267 023a 66       		.byte	0x66
 1268 023b 22020000 		.long	0x222
 1269 023f 03       		.uleb128 0x3
 1270 0240 6A737472 		.ascii "jstring\0"
 1270      696E6700 
 1271 0248 04       		.byte	0x4
 1272 0249 67       		.byte	0x67
 1273 024a 22020000 		.long	0x222
 1274 024e 03       		.uleb128 0x3
 1275 024f 6A746872 		.ascii "jthrowable\0"
 1275      6F776162 
 1275      6C6500
 1276 025a 04       		.byte	0x4
 1277 025b 68       		.byte	0x68
 1278 025c 22020000 		.long	0x222
 1279 0260 03       		.uleb128 0x3
 1280 0261 6A776561 		.ascii "jweak\0"
 1280      6B00
 1281 0267 04       		.byte	0x4
 1282 0268 69       		.byte	0x69
 1283 0269 22020000 		.long	0x222
 1284 026d 03       		.uleb128 0x3
 1285 026e 6A617272 		.ascii "jarray\0"
 1285      617900
 1286 0275 04       		.byte	0x4
 1287 0276 6A       		.byte	0x6a
 1288 0277 22020000 		.long	0x222
 1289 027b 03       		.uleb128 0x3
 1290 027c 6A6F626A 		.ascii "jobjectArray\0"
 1290      65637441 
 1290      72726179 
 1290      00
 1291 0289 04       		.byte	0x4
 1292 028a 6B       		.byte	0x6b
 1293 028b 22020000 		.long	0x222
 1294 028f 03       		.uleb128 0x3
 1295 0290 6A627974 		.ascii "jbyteArray\0"
 1295      65417272 
 1295      617900
 1296 029b 04       		.byte	0x4
GAS LISTING /cygdrive/c/Users/THESCI~1/AppData/Local/Temp/cchZ1Zdn.s 			page 32


 1297 029c 6C       		.byte	0x6c
 1298 029d 22020000 		.long	0x222
 1299 02a1 03       		.uleb128 0x3
 1300 02a2 6A73686F 		.ascii "jshortArray\0"
 1300      72744172 
 1300      72617900 
 1301 02ae 04       		.byte	0x4
 1302 02af 6D       		.byte	0x6d
 1303 02b0 22020000 		.long	0x222
 1304 02b4 03       		.uleb128 0x3
 1305 02b5 6A696E74 		.ascii "jintArray\0"
 1305      41727261 
 1305      7900
 1306 02bf 04       		.byte	0x4
 1307 02c0 6E       		.byte	0x6e
 1308 02c1 22020000 		.long	0x222
 1309 02c5 03       		.uleb128 0x3
 1310 02c6 6A6C6F6E 		.ascii "jlongArray\0"
 1310      67417272 
 1310      617900
 1311 02d1 04       		.byte	0x4
 1312 02d2 6F       		.byte	0x6f
 1313 02d3 22020000 		.long	0x222
 1314 02d7 03       		.uleb128 0x3
 1315 02d8 6A626F6F 		.ascii "jbooleanArray\0"
 1315      6C65616E 
 1315      41727261 
 1315      7900
 1316 02e6 04       		.byte	0x4
 1317 02e7 70       		.byte	0x70
 1318 02e8 22020000 		.long	0x222
 1319 02ec 03       		.uleb128 0x3
 1320 02ed 6A636861 		.ascii "jcharArray\0"
 1320      72417272 
 1320      617900
 1321 02f8 04       		.byte	0x4
 1322 02f9 71       		.byte	0x71
 1323 02fa 22020000 		.long	0x222
 1324 02fe 03       		.uleb128 0x3
 1325 02ff 6A666C6F 		.ascii "jfloatArray\0"
 1325      61744172 
 1325      72617900 
 1326 030b 04       		.byte	0x4
 1327 030c 72       		.byte	0x72
 1328 030d 22020000 		.long	0x222
 1329 0311 03       		.uleb128 0x3
 1330 0312 6A646F75 		.ascii "jdoubleArray\0"
 1330      626C6541 
 1330      72726179 
 1330      00
 1331 031f 04       		.byte	0x4
 1332 0320 73       		.byte	0x73
 1333 0321 22020000 		.long	0x222
 1334 0325 03       		.uleb128 0x3
 1335 0326 4A4E4945 		.ascii "JNIEnv\0"
 1335      6E7600
 1336 032d 04       		.byte	0x4
GAS LISTING /cygdrive/c/Users/THESCI~1/AppData/Local/Temp/cchZ1Zdn.s 			page 33


 1337 032e 78       		.byte	0x78
 1338 032f 33030000 		.long	0x333
 1339 0333 07       		.uleb128 0x7
 1340 0334 04       		.byte	0x4
 1341 0335 39030000 		.long	0x339
 1342 0339 09       		.uleb128 0x9
 1343 033a 08000000 		.secrel32	LASF3
 1344 033e 42030000 		.long	0x342
 1345 0342 0A       		.uleb128 0xa
 1346 0343 08000000 		.secrel32	LASF3
 1347 0347 A003     		.word	0x3a0
 1348 0349 04       		.byte	0x4
 1349 034a 78       		.byte	0x78
 1350 034b 151F0000 		.long	0x1f15
 1351 034f 0B       		.uleb128 0xb
 1352 0350 1C000000 		.secrel32	LASF0
 1353 0354 04       		.byte	0x4
 1354 0355 D3       		.byte	0xd3
 1355 0356 4E010000 		.long	0x14e
 1356 035a 02       		.byte	0x2
 1357 035b 23       		.byte	0x23
 1358 035c 00       		.uleb128 0x0
 1359 035d 0B       		.uleb128 0xb
 1360 035e 26000000 		.secrel32	LASF1
 1361 0362 04       		.byte	0x4
 1362 0363 D4       		.byte	0xd4
 1363 0364 4E010000 		.long	0x14e
 1364 0368 02       		.byte	0x2
 1365 0369 23       		.byte	0x23
 1366 036a 04       		.uleb128 0x4
 1367 036b 0B       		.uleb128 0xb
 1368 036c 30000000 		.secrel32	LASF2
 1369 0370 04       		.byte	0x4
 1370 0371 D5       		.byte	0xd5
 1371 0372 4E010000 		.long	0x14e
 1372 0376 02       		.byte	0x2
 1373 0377 23       		.byte	0x23
 1374 0378 08       		.uleb128 0x8
 1375 0379 0C       		.uleb128 0xc
 1376 037a 72657365 		.ascii "reserved3\0"
 1376      72766564 
 1376      3300
 1377 0384 04       		.byte	0x4
 1378 0385 D6       		.byte	0xd6
 1379 0386 4E010000 		.long	0x14e
 1380 038a 02       		.byte	0x2
 1381 038b 23       		.byte	0x23
 1382 038c 0C       		.uleb128 0xc
 1383 038d 0C       		.uleb128 0xc
 1384 038e 47657456 		.ascii "GetVersion\0"
 1384      65727369 
 1384      6F6E00
 1385 0399 04       		.byte	0x4
 1386 039a D8       		.byte	0xd8
 1387 039b 1A210000 		.long	0x211a
 1388 039f 02       		.byte	0x2
 1389 03a0 23       		.byte	0x23
GAS LISTING /cygdrive/c/Users/THESCI~1/AppData/Local/Temp/cchZ1Zdn.s 			page 34


 1390 03a1 10       		.uleb128 0x10
 1391 03a2 0C       		.uleb128 0xc
 1392 03a3 44656669 		.ascii "DefineClass\0"
 1392      6E65436C 
 1392      61737300 
 1393 03af 04       		.byte	0x4
 1394 03b0 D9       		.byte	0xd9
 1395 03b1 4F210000 		.long	0x214f
 1396 03b5 02       		.byte	0x2
 1397 03b6 23       		.byte	0x23
 1398 03b7 14       		.uleb128 0x14
 1399 03b8 0C       		.uleb128 0xc
 1400 03b9 46696E64 		.ascii "FindClass\0"
 1400      436C6173 
 1400      7300
 1401 03c3 04       		.byte	0x4
 1402 03c4 DC       		.byte	0xdc
 1403 03c5 6A210000 		.long	0x216a
 1404 03c9 02       		.byte	0x2
 1405 03ca 23       		.byte	0x23
 1406 03cb 18       		.uleb128 0x18
 1407 03cc 0C       		.uleb128 0xc
 1408 03cd 46726F6D 		.ascii "FromReflectedMethod\0"
 1408      5265666C 
 1408      65637465 
 1408      644D6574 
 1408      686F6400 
 1409 03e1 04       		.byte	0x4
 1410 03e2 DE       		.byte	0xde
 1411 03e3 85210000 		.long	0x2185
 1412 03e7 02       		.byte	0x2
 1413 03e8 23       		.byte	0x23
 1414 03e9 1C       		.uleb128 0x1c
 1415 03ea 0C       		.uleb128 0xc
 1416 03eb 46726F6D 		.ascii "FromReflectedField\0"
 1416      5265666C 
 1416      65637465 
 1416      64466965 
 1416      6C6400
 1417 03fe 04       		.byte	0x4
 1418 03ff DF       		.byte	0xdf
 1419 0400 A0210000 		.long	0x21a0
 1420 0404 02       		.byte	0x2
 1421 0405 23       		.byte	0x23
 1422 0406 20       		.uleb128 0x20
 1423 0407 0C       		.uleb128 0xc
 1424 0408 546F5265 		.ascii "ToReflectedMethod\0"
 1424      666C6563 
 1424      7465644D 
 1424      6574686F 
 1424      6400
 1425 041a 04       		.byte	0x4
 1426 041b E0       		.byte	0xe0
 1427 041c C5210000 		.long	0x21c5
 1428 0420 02       		.byte	0x2
 1429 0421 23       		.byte	0x23
 1430 0422 24       		.uleb128 0x24
GAS LISTING /cygdrive/c/Users/THESCI~1/AppData/Local/Temp/cchZ1Zdn.s 			page 35


 1431 0423 0C       		.uleb128 0xc
 1432 0424 47657453 		.ascii "GetSuperclass\0"
 1432      75706572 
 1432      636C6173 
 1432      7300
 1433 0432 04       		.byte	0x4
 1434 0433 E3       		.byte	0xe3
 1435 0434 E0210000 		.long	0x21e0
 1436 0438 02       		.byte	0x2
 1437 0439 23       		.byte	0x23
 1438 043a 28       		.uleb128 0x28
 1439 043b 0C       		.uleb128 0xc
 1440 043c 49734173 		.ascii "IsAssignableFrom\0"
 1440      7369676E 
 1440      61626C65 
 1440      46726F6D 
 1440      00
 1441 044d 04       		.byte	0x4
 1442 044e E4       		.byte	0xe4
 1443 044f 00220000 		.long	0x2200
 1444 0453 02       		.byte	0x2
 1445 0454 23       		.byte	0x23
 1446 0455 2C       		.uleb128 0x2c
 1447 0456 0C       		.uleb128 0xc
 1448 0457 546F5265 		.ascii "ToReflectedField\0"
 1448      666C6563 
 1448      74656446 
 1448      69656C64 
 1448      00
 1449 0468 04       		.byte	0x4
 1450 0469 E6       		.byte	0xe6
 1451 046a 25220000 		.long	0x2225
 1452 046e 02       		.byte	0x2
 1453 046f 23       		.byte	0x23
 1454 0470 30       		.uleb128 0x30
 1455 0471 0C       		.uleb128 0xc
 1456 0472 5468726F 		.ascii "Throw\0"
 1456      7700
 1457 0478 04       		.byte	0x4
 1458 0479 E9       		.byte	0xe9
 1459 047a 40220000 		.long	0x2240
 1460 047e 02       		.byte	0x2
 1461 047f 23       		.byte	0x23
 1462 0480 34       		.uleb128 0x34
 1463 0481 0C       		.uleb128 0xc
 1464 0482 5468726F 		.ascii "ThrowNew\0"
 1464      774E6577 
 1464      00
 1465 048b 04       		.byte	0x4
 1466 048c EA       		.byte	0xea
 1467 048d 60220000 		.long	0x2260
 1468 0491 02       		.byte	0x2
 1469 0492 23       		.byte	0x23
 1470 0493 38       		.uleb128 0x38
 1471 0494 0C       		.uleb128 0xc
 1472 0495 45786365 		.ascii "ExceptionOccurred\0"
 1472      7074696F 
GAS LISTING /cygdrive/c/Users/THESCI~1/AppData/Local/Temp/cchZ1Zdn.s 			page 36


 1472      6E4F6363 
 1472      75727265 
 1472      6400
 1473 04a7 04       		.byte	0x4
 1474 04a8 EC       		.byte	0xec
 1475 04a9 76220000 		.long	0x2276
 1476 04ad 02       		.byte	0x2
 1477 04ae 23       		.byte	0x23
 1478 04af 3C       		.uleb128 0x3c
 1479 04b0 0C       		.uleb128 0xc
 1480 04b1 45786365 		.ascii "ExceptionDescribe\0"
 1480      7074696F 
 1480      6E446573 
 1480      63726962 
 1480      6500
 1481 04c3 04       		.byte	0x4
 1482 04c4 ED       		.byte	0xed
 1483 04c5 88220000 		.long	0x2288
 1484 04c9 02       		.byte	0x2
 1485 04ca 23       		.byte	0x23
 1486 04cb 40       		.uleb128 0x40
 1487 04cc 0C       		.uleb128 0xc
 1488 04cd 45786365 		.ascii "ExceptionClear\0"
 1488      7074696F 
 1488      6E436C65 
 1488      617200
 1489 04dc 04       		.byte	0x4
 1490 04dd EE       		.byte	0xee
 1491 04de 88220000 		.long	0x2288
 1492 04e2 02       		.byte	0x2
 1493 04e3 23       		.byte	0x23
 1494 04e4 44       		.uleb128 0x44
 1495 04e5 0C       		.uleb128 0xc
 1496 04e6 46617461 		.ascii "FatalError\0"
 1496      6C457272 
 1496      6F7200
 1497 04f1 04       		.byte	0x4
 1498 04f2 EF       		.byte	0xef
 1499 04f3 9F220000 		.long	0x229f
 1500 04f7 02       		.byte	0x2
 1501 04f8 23       		.byte	0x23
 1502 04f9 48       		.uleb128 0x48
 1503 04fa 0C       		.uleb128 0xc
 1504 04fb 50757368 		.ascii "PushLocalFrame\0"
 1504      4C6F6361 
 1504      6C467261 
 1504      6D6500
 1505 050a 04       		.byte	0x4
 1506 050b F1       		.byte	0xf1
 1507 050c BA220000 		.long	0x22ba
 1508 0510 02       		.byte	0x2
 1509 0511 23       		.byte	0x23
 1510 0512 4C       		.uleb128 0x4c
 1511 0513 0C       		.uleb128 0xc
 1512 0514 506F704C 		.ascii "PopLocalFrame\0"
 1512      6F63616C 
 1512      4672616D 
GAS LISTING /cygdrive/c/Users/THESCI~1/AppData/Local/Temp/cchZ1Zdn.s 			page 37


 1512      6500
 1513 0522 04       		.byte	0x4
 1514 0523 F2       		.byte	0xf2
 1515 0524 D5220000 		.long	0x22d5
 1516 0528 02       		.byte	0x2
 1517 0529 23       		.byte	0x23
 1518 052a 50       		.uleb128 0x50
 1519 052b 0C       		.uleb128 0xc
 1520 052c 4E657747 		.ascii "NewGlobalRef\0"
 1520      6C6F6261 
 1520      6C526566 
 1520      00
 1521 0539 04       		.byte	0x4
 1522 053a F4       		.byte	0xf4
 1523 053b D5220000 		.long	0x22d5
 1524 053f 02       		.byte	0x2
 1525 0540 23       		.byte	0x23
 1526 0541 54       		.uleb128 0x54
 1527 0542 0C       		.uleb128 0xc
 1528 0543 44656C65 		.ascii "DeleteGlobalRef\0"
 1528      7465476C 
 1528      6F62616C 
 1528      52656600 
 1529 0553 04       		.byte	0x4
 1530 0554 F5       		.byte	0xf5
 1531 0555 EC220000 		.long	0x22ec
 1532 0559 02       		.byte	0x2
 1533 055a 23       		.byte	0x23
 1534 055b 58       		.uleb128 0x58
 1535 055c 0C       		.uleb128 0xc
 1536 055d 44656C65 		.ascii "DeleteLocalRef\0"
 1536      74654C6F 
 1536      63616C52 
 1536      656600
 1537 056c 04       		.byte	0x4
 1538 056d F6       		.byte	0xf6
 1539 056e EC220000 		.long	0x22ec
 1540 0572 02       		.byte	0x2
 1541 0573 23       		.byte	0x23
 1542 0574 5C       		.uleb128 0x5c
 1543 0575 0C       		.uleb128 0xc
 1544 0576 49735361 		.ascii "IsSameObject\0"
 1544      6D654F62 
 1544      6A656374 
 1544      00
 1545 0583 04       		.byte	0x4
 1546 0584 F7       		.byte	0xf7
 1547 0585 0C230000 		.long	0x230c
 1548 0589 02       		.byte	0x2
 1549 058a 23       		.byte	0x23
 1550 058b 60       		.uleb128 0x60
 1551 058c 0C       		.uleb128 0xc
 1552 058d 4E65774C 		.ascii "NewLocalRef\0"
 1552      6F63616C 
 1552      52656600 
 1553 0599 04       		.byte	0x4
 1554 059a FA       		.byte	0xfa
GAS LISTING /cygdrive/c/Users/THESCI~1/AppData/Local/Temp/cchZ1Zdn.s 			page 38


 1555 059b D5220000 		.long	0x22d5
 1556 059f 02       		.byte	0x2
 1557 05a0 23       		.byte	0x23
 1558 05a1 64       		.uleb128 0x64
 1559 05a2 0C       		.uleb128 0xc
 1560 05a3 456E7375 		.ascii "EnsureLocalCapacity\0"
 1560      72654C6F 
 1560      63616C43 
 1560      61706163 
 1560      69747900 
 1561 05b7 04       		.byte	0x4
 1562 05b8 FB       		.byte	0xfb
 1563 05b9 BA220000 		.long	0x22ba
 1564 05bd 02       		.byte	0x2
 1565 05be 23       		.byte	0x23
 1566 05bf 68       		.uleb128 0x68
 1567 05c0 0C       		.uleb128 0xc
 1568 05c1 416C6C6F 		.ascii "AllocObject\0"
 1568      634F626A 
 1568      65637400 
 1569 05cd 04       		.byte	0x4
 1570 05ce FD       		.byte	0xfd
 1571 05cf 27230000 		.long	0x2327
 1572 05d3 02       		.byte	0x2
 1573 05d4 23       		.byte	0x23
 1574 05d5 6C       		.uleb128 0x6c
 1575 05d6 0C       		.uleb128 0xc
 1576 05d7 4E65774F 		.ascii "NewObject\0"
 1576      626A6563 
 1576      7400
 1577 05e1 04       		.byte	0x4
 1578 05e2 FE       		.byte	0xfe
 1579 05e3 48230000 		.long	0x2348
 1580 05e7 02       		.byte	0x2
 1581 05e8 23       		.byte	0x23
 1582 05e9 70       		.uleb128 0x70
 1583 05ea 0D       		.uleb128 0xd
 1584 05eb 4E65774F 		.ascii "NewObjectV\0"
 1584      626A6563 
 1584      745600
 1585 05f6 04       		.byte	0x4
 1586 05f7 0001     		.word	0x100
 1587 05f9 6D230000 		.long	0x236d
 1588 05fd 02       		.byte	0x2
 1589 05fe 23       		.byte	0x23
 1590 05ff 74       		.uleb128 0x74
 1591 0600 0D       		.uleb128 0xd
 1592 0601 4E65774F 		.ascii "NewObjectA\0"
 1592      626A6563 
 1592      744100
 1593 060c 04       		.byte	0x4
 1594 060d 0201     		.word	0x102
 1595 060f 9D230000 		.long	0x239d
 1596 0613 02       		.byte	0x2
 1597 0614 23       		.byte	0x23
 1598 0615 78       		.uleb128 0x78
 1599 0616 0D       		.uleb128 0xd
GAS LISTING /cygdrive/c/Users/THESCI~1/AppData/Local/Temp/cchZ1Zdn.s 			page 39


 1600 0617 4765744F 		.ascii "GetObjectClass\0"
 1600      626A6563 
 1600      74436C61 
 1600      737300
 1601 0626 04       		.byte	0x4
 1602 0627 0501     		.word	0x105
 1603 0629 B8230000 		.long	0x23b8
 1604 062d 02       		.byte	0x2
 1605 062e 23       		.byte	0x23
 1606 062f 7C       		.uleb128 0x7c
 1607 0630 0D       		.uleb128 0xd
 1608 0631 4973496E 		.ascii "IsInstanceOf\0"
 1608      7374616E 
 1608      63654F66 
 1608      00
 1609 063e 04       		.byte	0x4
 1610 063f 0601     		.word	0x106
 1611 0641 D8230000 		.long	0x23d8
 1612 0645 03       		.byte	0x3
 1613 0646 23       		.byte	0x23
 1614 0647 8001     		.uleb128 0x80
 1615 0649 0D       		.uleb128 0xd
 1616 064a 4765744D 		.ascii "GetMethodID\0"
 1616      6574686F 
 1616      64494400 
 1617 0656 04       		.byte	0x4
 1618 0657 0701     		.word	0x107
 1619 0659 FD230000 		.long	0x23fd
 1620 065d 03       		.byte	0x3
 1621 065e 23       		.byte	0x23
 1622 065f 8401     		.uleb128 0x84
 1623 0661 0D       		.uleb128 0xd
 1624 0662 43616C6C 		.ascii "CallObjectMethod\0"
 1624      4F626A65 
 1624      63744D65 
 1624      74686F64 
 1624      00
 1625 0673 04       		.byte	0x4
 1626 0674 0A01     		.word	0x10a
 1627 0676 1E240000 		.long	0x241e
 1628 067a 03       		.byte	0x3
 1629 067b 23       		.byte	0x23
 1630 067c 8801     		.uleb128 0x88
 1631 067e 0D       		.uleb128 0xd
 1632 067f 43616C6C 		.ascii "CallObjectMethodV\0"
 1632      4F626A65 
 1632      63744D65 
 1632      74686F64 
 1632      5600
 1633 0691 04       		.byte	0x4
 1634 0692 0B01     		.word	0x10b
 1635 0694 43240000 		.long	0x2443
 1636 0698 03       		.byte	0x3
 1637 0699 23       		.byte	0x23
 1638 069a 8C01     		.uleb128 0x8c
 1639 069c 0D       		.uleb128 0xd
 1640 069d 43616C6C 		.ascii "CallObjectMethodA\0"
GAS LISTING /cygdrive/c/Users/THESCI~1/AppData/Local/Temp/cchZ1Zdn.s 			page 40


 1640      4F626A65 
 1640      63744D65 
 1640      74686F64 
 1640      4100
 1641 06af 04       		.byte	0x4
 1642 06b0 0D01     		.word	0x10d
 1643 06b2 68240000 		.long	0x2468
 1644 06b6 03       		.byte	0x3
 1645 06b7 23       		.byte	0x23
 1646 06b8 9001     		.uleb128 0x90
 1647 06ba 0D       		.uleb128 0xd
 1648 06bb 43616C6C 		.ascii "CallBooleanMethod\0"
 1648      426F6F6C 
 1648      65616E4D 
 1648      6574686F 
 1648      6400
 1649 06cd 04       		.byte	0x4
 1650 06ce 0F01     		.word	0x10f
 1651 06d0 89240000 		.long	0x2489
 1652 06d4 03       		.byte	0x3
 1653 06d5 23       		.byte	0x23
 1654 06d6 9401     		.uleb128 0x94
 1655 06d8 0D       		.uleb128 0xd
 1656 06d9 43616C6C 		.ascii "CallBooleanMethodV\0"
 1656      426F6F6C 
 1656      65616E4D 
 1656      6574686F 
 1656      645600
 1657 06ec 04       		.byte	0x4
 1658 06ed 1101     		.word	0x111
 1659 06ef AE240000 		.long	0x24ae
 1660 06f3 03       		.byte	0x3
 1661 06f4 23       		.byte	0x23
 1662 06f5 9801     		.uleb128 0x98
 1663 06f7 0D       		.uleb128 0xd
 1664 06f8 43616C6C 		.ascii "CallBooleanMethodA\0"
 1664      426F6F6C 
 1664      65616E4D 
 1664      6574686F 
 1664      644100
 1665 070b 04       		.byte	0x4
 1666 070c 1301     		.word	0x113
 1667 070e D3240000 		.long	0x24d3
 1668 0712 03       		.byte	0x3
 1669 0713 23       		.byte	0x23
 1670 0714 9C01     		.uleb128 0x9c
 1671 0716 0D       		.uleb128 0xd
 1672 0717 43616C6C 		.ascii "CallByteMethod\0"
 1672      42797465 
 1672      4D657468 
 1672      6F6400
 1673 0726 04       		.byte	0x4
 1674 0727 1501     		.word	0x115
 1675 0729 F4240000 		.long	0x24f4
 1676 072d 03       		.byte	0x3
 1677 072e 23       		.byte	0x23
 1678 072f A001     		.uleb128 0xa0
GAS LISTING /cygdrive/c/Users/THESCI~1/AppData/Local/Temp/cchZ1Zdn.s 			page 41


 1679 0731 0D       		.uleb128 0xd
 1680 0732 43616C6C 		.ascii "CallByteMethodV\0"
 1680      42797465 
 1680      4D657468 
 1680      6F645600 
 1681 0742 04       		.byte	0x4
 1682 0743 1601     		.word	0x116
 1683 0745 19250000 		.long	0x2519
 1684 0749 03       		.byte	0x3
 1685 074a 23       		.byte	0x23
 1686 074b A401     		.uleb128 0xa4
 1687 074d 0D       		.uleb128 0xd
 1688 074e 43616C6C 		.ascii "CallByteMethodA\0"
 1688      42797465 
 1688      4D657468 
 1688      6F644100 
 1689 075e 04       		.byte	0x4
 1690 075f 1801     		.word	0x118
 1691 0761 3E250000 		.long	0x253e
 1692 0765 03       		.byte	0x3
 1693 0766 23       		.byte	0x23
 1694 0767 A801     		.uleb128 0xa8
 1695 0769 0D       		.uleb128 0xd
 1696 076a 43616C6C 		.ascii "CallCharMethod\0"
 1696      43686172 
 1696      4D657468 
 1696      6F6400
 1697 0779 04       		.byte	0x4
 1698 077a 1A01     		.word	0x11a
 1699 077c 5F250000 		.long	0x255f
 1700 0780 03       		.byte	0x3
 1701 0781 23       		.byte	0x23
 1702 0782 AC01     		.uleb128 0xac
 1703 0784 0D       		.uleb128 0xd
 1704 0785 43616C6C 		.ascii "CallCharMethodV\0"
 1704      43686172 
 1704      4D657468 
 1704      6F645600 
 1705 0795 04       		.byte	0x4
 1706 0796 1B01     		.word	0x11b
 1707 0798 84250000 		.long	0x2584
 1708 079c 03       		.byte	0x3
 1709 079d 23       		.byte	0x23
 1710 079e B001     		.uleb128 0xb0
 1711 07a0 0D       		.uleb128 0xd
 1712 07a1 43616C6C 		.ascii "CallCharMethodA\0"
 1712      43686172 
 1712      4D657468 
 1712      6F644100 
 1713 07b1 04       		.byte	0x4
 1714 07b2 1D01     		.word	0x11d
 1715 07b4 A9250000 		.long	0x25a9
 1716 07b8 03       		.byte	0x3
 1717 07b9 23       		.byte	0x23
 1718 07ba B401     		.uleb128 0xb4
 1719 07bc 0D       		.uleb128 0xd
 1720 07bd 43616C6C 		.ascii "CallShortMethod\0"
GAS LISTING /cygdrive/c/Users/THESCI~1/AppData/Local/Temp/cchZ1Zdn.s 			page 42


 1720      53686F72 
 1720      744D6574 
 1720      686F6400 
 1721 07cd 04       		.byte	0x4
 1722 07ce 1F01     		.word	0x11f
 1723 07d0 CA250000 		.long	0x25ca
 1724 07d4 03       		.byte	0x3
 1725 07d5 23       		.byte	0x23
 1726 07d6 B801     		.uleb128 0xb8
 1727 07d8 0D       		.uleb128 0xd
 1728 07d9 43616C6C 		.ascii "CallShortMethodV\0"
 1728      53686F72 
 1728      744D6574 
 1728      686F6456 
 1728      00
 1729 07ea 04       		.byte	0x4
 1730 07eb 2001     		.word	0x120
 1731 07ed EF250000 		.long	0x25ef
 1732 07f1 03       		.byte	0x3
 1733 07f2 23       		.byte	0x23
 1734 07f3 BC01     		.uleb128 0xbc
 1735 07f5 0D       		.uleb128 0xd
 1736 07f6 43616C6C 		.ascii "CallShortMethodA\0"
 1736      53686F72 
 1736      744D6574 
 1736      686F6441 
 1736      00
 1737 0807 04       		.byte	0x4
 1738 0808 2201     		.word	0x122
 1739 080a 14260000 		.long	0x2614
 1740 080e 03       		.byte	0x3
 1741 080f 23       		.byte	0x23
 1742 0810 C001     		.uleb128 0xc0
 1743 0812 0D       		.uleb128 0xd
 1744 0813 43616C6C 		.ascii "CallIntMethod\0"
 1744      496E744D 
 1744      6574686F 
 1744      6400
 1745 0821 04       		.byte	0x4
 1746 0822 2401     		.word	0x124
 1747 0824 35260000 		.long	0x2635
 1748 0828 03       		.byte	0x3
 1749 0829 23       		.byte	0x23
 1750 082a C401     		.uleb128 0xc4
 1751 082c 0D       		.uleb128 0xd
 1752 082d 43616C6C 		.ascii "CallIntMethodV\0"
 1752      496E744D 
 1752      6574686F 
 1752      645600
 1753 083c 04       		.byte	0x4
 1754 083d 2501     		.word	0x125
 1755 083f 5A260000 		.long	0x265a
 1756 0843 03       		.byte	0x3
 1757 0844 23       		.byte	0x23
 1758 0845 C801     		.uleb128 0xc8
 1759 0847 0D       		.uleb128 0xd
 1760 0848 43616C6C 		.ascii "CallIntMethodA\0"
GAS LISTING /cygdrive/c/Users/THESCI~1/AppData/Local/Temp/cchZ1Zdn.s 			page 43


 1760      496E744D 
 1760      6574686F 
 1760      644100
 1761 0857 04       		.byte	0x4
 1762 0858 2701     		.word	0x127
 1763 085a 7F260000 		.long	0x267f
 1764 085e 03       		.byte	0x3
 1765 085f 23       		.byte	0x23
 1766 0860 CC01     		.uleb128 0xcc
 1767 0862 0D       		.uleb128 0xd
 1768 0863 43616C6C 		.ascii "CallLongMethod\0"
 1768      4C6F6E67 
 1768      4D657468 
 1768      6F6400
 1769 0872 04       		.byte	0x4
 1770 0873 2901     		.word	0x129
 1771 0875 A0260000 		.long	0x26a0
 1772 0879 03       		.byte	0x3
 1773 087a 23       		.byte	0x23
 1774 087b D001     		.uleb128 0xd0
 1775 087d 0D       		.uleb128 0xd
 1776 087e 43616C6C 		.ascii "CallLongMethodV\0"
 1776      4C6F6E67 
 1776      4D657468 
 1776      6F645600 
 1777 088e 04       		.byte	0x4
 1778 088f 2A01     		.word	0x12a
 1779 0891 C5260000 		.long	0x26c5
 1780 0895 03       		.byte	0x3
 1781 0896 23       		.byte	0x23
 1782 0897 D401     		.uleb128 0xd4
 1783 0899 0D       		.uleb128 0xd
 1784 089a 43616C6C 		.ascii "CallLongMethodA\0"
 1784      4C6F6E67 
 1784      4D657468 
 1784      6F644100 
 1785 08aa 04       		.byte	0x4
 1786 08ab 2C01     		.word	0x12c
 1787 08ad EA260000 		.long	0x26ea
 1788 08b1 03       		.byte	0x3
 1789 08b2 23       		.byte	0x23
 1790 08b3 D801     		.uleb128 0xd8
 1791 08b5 0D       		.uleb128 0xd
 1792 08b6 43616C6C 		.ascii "CallFloatMethod\0"
 1792      466C6F61 
 1792      744D6574 
 1792      686F6400 
 1793 08c6 04       		.byte	0x4
 1794 08c7 2E01     		.word	0x12e
 1795 08c9 0B270000 		.long	0x270b
 1796 08cd 03       		.byte	0x3
 1797 08ce 23       		.byte	0x23
 1798 08cf DC01     		.uleb128 0xdc
 1799 08d1 0D       		.uleb128 0xd
 1800 08d2 43616C6C 		.ascii "CallFloatMethodV\0"
 1800      466C6F61 
 1800      744D6574 
GAS LISTING /cygdrive/c/Users/THESCI~1/AppData/Local/Temp/cchZ1Zdn.s 			page 44


 1800      686F6456 
 1800      00
 1801 08e3 04       		.byte	0x4
 1802 08e4 2F01     		.word	0x12f
 1803 08e6 30270000 		.long	0x2730
 1804 08ea 03       		.byte	0x3
 1805 08eb 23       		.byte	0x23
 1806 08ec E001     		.uleb128 0xe0
 1807 08ee 0D       		.uleb128 0xd
 1808 08ef 43616C6C 		.ascii "CallFloatMethodA\0"
 1808      466C6F61 
 1808      744D6574 
 1808      686F6441 
 1808      00
 1809 0900 04       		.byte	0x4
 1810 0901 3101     		.word	0x131
 1811 0903 55270000 		.long	0x2755
 1812 0907 03       		.byte	0x3
 1813 0908 23       		.byte	0x23
 1814 0909 E401     		.uleb128 0xe4
 1815 090b 0D       		.uleb128 0xd
 1816 090c 43616C6C 		.ascii "CallDoubleMethod\0"
 1816      446F7562 
 1816      6C654D65 
 1816      74686F64 
 1816      00
 1817 091d 04       		.byte	0x4
 1818 091e 3301     		.word	0x133
 1819 0920 76270000 		.long	0x2776
 1820 0924 03       		.byte	0x3
 1821 0925 23       		.byte	0x23
 1822 0926 E801     		.uleb128 0xe8
 1823 0928 0D       		.uleb128 0xd
 1824 0929 43616C6C 		.ascii "CallDoubleMethodV\0"
 1824      446F7562 
 1824      6C654D65 
 1824      74686F64 
 1824      5600
 1825 093b 04       		.byte	0x4
 1826 093c 3401     		.word	0x134
 1827 093e 9B270000 		.long	0x279b
 1828 0942 03       		.byte	0x3
 1829 0943 23       		.byte	0x23
 1830 0944 EC01     		.uleb128 0xec
 1831 0946 0D       		.uleb128 0xd
 1832 0947 43616C6C 		.ascii "CallDoubleMethodA\0"
 1832      446F7562 
 1832      6C654D65 
 1832      74686F64 
 1832      4100
 1833 0959 04       		.byte	0x4
 1834 095a 3601     		.word	0x136
 1835 095c C0270000 		.long	0x27c0
 1836 0960 03       		.byte	0x3
 1837 0961 23       		.byte	0x23
 1838 0962 F001     		.uleb128 0xf0
 1839 0964 0D       		.uleb128 0xd
GAS LISTING /cygdrive/c/Users/THESCI~1/AppData/Local/Temp/cchZ1Zdn.s 			page 45


 1840 0965 43616C6C 		.ascii "CallVoidMethod\0"
 1840      566F6964 
 1840      4D657468 
 1840      6F6400
 1841 0974 04       		.byte	0x4
 1842 0975 3801     		.word	0x138
 1843 0977 DD270000 		.long	0x27dd
 1844 097b 03       		.byte	0x3
 1845 097c 23       		.byte	0x23
 1846 097d F401     		.uleb128 0xf4
 1847 097f 0D       		.uleb128 0xd
 1848 0980 43616C6C 		.ascii "CallVoidMethodV\0"
 1848      566F6964 
 1848      4D657468 
 1848      6F645600 
 1849 0990 04       		.byte	0x4
 1850 0991 3901     		.word	0x139
 1851 0993 FE270000 		.long	0x27fe
 1852 0997 03       		.byte	0x3
 1853 0998 23       		.byte	0x23
 1854 0999 F801     		.uleb128 0xf8
 1855 099b 0D       		.uleb128 0xd
 1856 099c 43616C6C 		.ascii "CallVoidMethodA\0"
 1856      566F6964 
 1856      4D657468 
 1856      6F644100 
 1857 09ac 04       		.byte	0x4
 1858 09ad 3B01     		.word	0x13b
 1859 09af 1F280000 		.long	0x281f
 1860 09b3 03       		.byte	0x3
 1861 09b4 23       		.byte	0x23
 1862 09b5 FC01     		.uleb128 0xfc
 1863 09b7 0D       		.uleb128 0xd
 1864 09b8 43616C6C 		.ascii "CallNonvirtualObjectMethod\0"
 1864      4E6F6E76 
 1864      69727475 
 1864      616C4F62 
 1864      6A656374 
 1865 09d3 04       		.byte	0x4
 1866 09d4 3E01     		.word	0x13e
 1867 09d6 45280000 		.long	0x2845
 1868 09da 03       		.byte	0x3
 1869 09db 23       		.byte	0x23
 1870 09dc 8002     		.uleb128 0x100
 1871 09de 0D       		.uleb128 0xd
 1872 09df 43616C6C 		.ascii "CallNonvirtualObjectMethodV\0"
 1872      4E6F6E76 
 1872      69727475 
 1872      616C4F62 
 1872      6A656374 
 1873 09fb 04       		.byte	0x4
 1874 09fc 4001     		.word	0x140
 1875 09fe 6F280000 		.long	0x286f
 1876 0a02 03       		.byte	0x3
 1877 0a03 23       		.byte	0x23
 1878 0a04 8402     		.uleb128 0x104
 1879 0a06 0D       		.uleb128 0xd
GAS LISTING /cygdrive/c/Users/THESCI~1/AppData/Local/Temp/cchZ1Zdn.s 			page 46


 1880 0a07 43616C6C 		.ascii "CallNonvirtualObjectMethodA\0"
 1880      4E6F6E76 
 1880      69727475 
 1880      616C4F62 
 1880      6A656374 
 1881 0a23 04       		.byte	0x4
 1882 0a24 4201     		.word	0x142
 1883 0a26 99280000 		.long	0x2899
 1884 0a2a 03       		.byte	0x3
 1885 0a2b 23       		.byte	0x23
 1886 0a2c 8802     		.uleb128 0x108
 1887 0a2e 0D       		.uleb128 0xd
 1888 0a2f 43616C6C 		.ascii "CallNonvirtualBooleanMethod\0"
 1888      4E6F6E76 
 1888      69727475 
 1888      616C426F 
 1888      6F6C6561 
 1889 0a4b 04       		.byte	0x4
 1890 0a4c 4401     		.word	0x144
 1891 0a4e BF280000 		.long	0x28bf
 1892 0a52 03       		.byte	0x3
 1893 0a53 23       		.byte	0x23
 1894 0a54 8C02     		.uleb128 0x10c
 1895 0a56 0D       		.uleb128 0xd
 1896 0a57 43616C6C 		.ascii "CallNonvirtualBooleanMethodV\0"
 1896      4E6F6E76 
 1896      69727475 
 1896      616C426F 
 1896      6F6C6561 
 1897 0a74 04       		.byte	0x4
 1898 0a75 4601     		.word	0x146
 1899 0a77 E9280000 		.long	0x28e9
 1900 0a7b 03       		.byte	0x3
 1901 0a7c 23       		.byte	0x23
 1902 0a7d 9002     		.uleb128 0x110
 1903 0a7f 0D       		.uleb128 0xd
 1904 0a80 43616C6C 		.ascii "CallNonvirtualBooleanMethodA\0"
 1904      4E6F6E76 
 1904      69727475 
 1904      616C426F 
 1904      6F6C6561 
 1905 0a9d 04       		.byte	0x4
 1906 0a9e 4801     		.word	0x148
 1907 0aa0 13290000 		.long	0x2913
 1908 0aa4 03       		.byte	0x3
 1909 0aa5 23       		.byte	0x23
 1910 0aa6 9402     		.uleb128 0x114
 1911 0aa8 0D       		.uleb128 0xd
 1912 0aa9 43616C6C 		.ascii "CallNonvirtualByteMethod\0"
 1912      4E6F6E76 
 1912      69727475 
 1912      616C4279 
 1912      74654D65 
 1913 0ac2 04       		.byte	0x4
 1914 0ac3 4A01     		.word	0x14a
 1915 0ac5 39290000 		.long	0x2939
 1916 0ac9 03       		.byte	0x3
GAS LISTING /cygdrive/c/Users/THESCI~1/AppData/Local/Temp/cchZ1Zdn.s 			page 47


 1917 0aca 23       		.byte	0x23
 1918 0acb 9802     		.uleb128 0x118
 1919 0acd 0D       		.uleb128 0xd
 1920 0ace 43616C6C 		.ascii "CallNonvirtualByteMethodV\0"
 1920      4E6F6E76 
 1920      69727475 
 1920      616C4279 
 1920      74654D65 
 1921 0ae8 04       		.byte	0x4
 1922 0ae9 4C01     		.word	0x14c
 1923 0aeb 63290000 		.long	0x2963
 1924 0aef 03       		.byte	0x3
 1925 0af0 23       		.byte	0x23
 1926 0af1 9C02     		.uleb128 0x11c
 1927 0af3 0D       		.uleb128 0xd
 1928 0af4 43616C6C 		.ascii "CallNonvirtualByteMethodA\0"
 1928      4E6F6E76 
 1928      69727475 
 1928      616C4279 
 1928      74654D65 
 1929 0b0e 04       		.byte	0x4
 1930 0b0f 4E01     		.word	0x14e
 1931 0b11 8D290000 		.long	0x298d
 1932 0b15 03       		.byte	0x3
 1933 0b16 23       		.byte	0x23
 1934 0b17 A002     		.uleb128 0x120
 1935 0b19 0D       		.uleb128 0xd
 1936 0b1a 43616C6C 		.ascii "CallNonvirtualCharMethod\0"
 1936      4E6F6E76 
 1936      69727475 
 1936      616C4368 
 1936      61724D65 
 1937 0b33 04       		.byte	0x4
 1938 0b34 5001     		.word	0x150
 1939 0b36 B3290000 		.long	0x29b3
 1940 0b3a 03       		.byte	0x3
 1941 0b3b 23       		.byte	0x23
 1942 0b3c A402     		.uleb128 0x124
 1943 0b3e 0D       		.uleb128 0xd
 1944 0b3f 43616C6C 		.ascii "CallNonvirtualCharMethodV\0"
 1944      4E6F6E76 
 1944      69727475 
 1944      616C4368 
 1944      61724D65 
 1945 0b59 04       		.byte	0x4
 1946 0b5a 5201     		.word	0x152
 1947 0b5c DD290000 		.long	0x29dd
 1948 0b60 03       		.byte	0x3
 1949 0b61 23       		.byte	0x23
 1950 0b62 A802     		.uleb128 0x128
 1951 0b64 0D       		.uleb128 0xd
 1952 0b65 43616C6C 		.ascii "CallNonvirtualCharMethodA\0"
 1952      4E6F6E76 
 1952      69727475 
 1952      616C4368 
 1952      61724D65 
 1953 0b7f 04       		.byte	0x4
GAS LISTING /cygdrive/c/Users/THESCI~1/AppData/Local/Temp/cchZ1Zdn.s 			page 48


 1954 0b80 5401     		.word	0x154
 1955 0b82 072A0000 		.long	0x2a07
 1956 0b86 03       		.byte	0x3
 1957 0b87 23       		.byte	0x23
 1958 0b88 AC02     		.uleb128 0x12c
 1959 0b8a 0D       		.uleb128 0xd
 1960 0b8b 43616C6C 		.ascii "CallNonvirtualShortMethod\0"
 1960      4E6F6E76 
 1960      69727475 
 1960      616C5368 
 1960      6F72744D 
 1961 0ba5 04       		.byte	0x4
 1962 0ba6 5601     		.word	0x156
 1963 0ba8 2D2A0000 		.long	0x2a2d
 1964 0bac 03       		.byte	0x3
 1965 0bad 23       		.byte	0x23
 1966 0bae B002     		.uleb128 0x130
 1967 0bb0 0D       		.uleb128 0xd
 1968 0bb1 43616C6C 		.ascii "CallNonvirtualShortMethodV\0"
 1968      4E6F6E76 
 1968      69727475 
 1968      616C5368 
 1968      6F72744D 
 1969 0bcc 04       		.byte	0x4
 1970 0bcd 5801     		.word	0x158
 1971 0bcf 572A0000 		.long	0x2a57
 1972 0bd3 03       		.byte	0x3
 1973 0bd4 23       		.byte	0x23
 1974 0bd5 B402     		.uleb128 0x134
 1975 0bd7 0D       		.uleb128 0xd
 1976 0bd8 43616C6C 		.ascii "CallNonvirtualShortMethodA\0"
 1976      4E6F6E76 
 1976      69727475 
 1976      616C5368 
 1976      6F72744D 
 1977 0bf3 04       		.byte	0x4
 1978 0bf4 5A01     		.word	0x15a
 1979 0bf6 812A0000 		.long	0x2a81
 1980 0bfa 03       		.byte	0x3
 1981 0bfb 23       		.byte	0x23
 1982 0bfc B802     		.uleb128 0x138
 1983 0bfe 0D       		.uleb128 0xd
 1984 0bff 43616C6C 		.ascii "CallNonvirtualIntMethod\0"
 1984      4E6F6E76 
 1984      69727475 
 1984      616C496E 
 1984      744D6574 
 1985 0c17 04       		.byte	0x4
 1986 0c18 5C01     		.word	0x15c
 1987 0c1a A72A0000 		.long	0x2aa7
 1988 0c1e 03       		.byte	0x3
 1989 0c1f 23       		.byte	0x23
 1990 0c20 BC02     		.uleb128 0x13c
 1991 0c22 0D       		.uleb128 0xd
 1992 0c23 43616C6C 		.ascii "CallNonvirtualIntMethodV\0"
 1992      4E6F6E76 
 1992      69727475 
GAS LISTING /cygdrive/c/Users/THESCI~1/AppData/Local/Temp/cchZ1Zdn.s 			page 49


 1992      616C496E 
 1992      744D6574 
 1993 0c3c 04       		.byte	0x4
 1994 0c3d 5E01     		.word	0x15e
 1995 0c3f D12A0000 		.long	0x2ad1
 1996 0c43 03       		.byte	0x3
 1997 0c44 23       		.byte	0x23
 1998 0c45 C002     		.uleb128 0x140
 1999 0c47 0D       		.uleb128 0xd
 2000 0c48 43616C6C 		.ascii "CallNonvirtualIntMethodA\0"
 2000      4E6F6E76 
 2000      69727475 
 2000      616C496E 
 2000      744D6574 
 2001 0c61 04       		.byte	0x4
 2002 0c62 6001     		.word	0x160
 2003 0c64 FB2A0000 		.long	0x2afb
 2004 0c68 03       		.byte	0x3
 2005 0c69 23       		.byte	0x23
 2006 0c6a C402     		.uleb128 0x144
 2007 0c6c 0D       		.uleb128 0xd
 2008 0c6d 43616C6C 		.ascii "CallNonvirtualLongMethod\0"
 2008      4E6F6E76 
 2008      69727475 
 2008      616C4C6F 
 2008      6E674D65 
 2009 0c86 04       		.byte	0x4
 2010 0c87 6201     		.word	0x162
 2011 0c89 212B0000 		.long	0x2b21
 2012 0c8d 03       		.byte	0x3
 2013 0c8e 23       		.byte	0x23
 2014 0c8f C802     		.uleb128 0x148
 2015 0c91 0D       		.uleb128 0xd
 2016 0c92 43616C6C 		.ascii "CallNonvirtualLongMethodV\0"
 2016      4E6F6E76 
 2016      69727475 
 2016      616C4C6F 
 2016      6E674D65 
 2017 0cac 04       		.byte	0x4
 2018 0cad 6401     		.word	0x164
 2019 0caf 4B2B0000 		.long	0x2b4b
 2020 0cb3 03       		.byte	0x3
 2021 0cb4 23       		.byte	0x23
 2022 0cb5 CC02     		.uleb128 0x14c
 2023 0cb7 0D       		.uleb128 0xd
 2024 0cb8 43616C6C 		.ascii "CallNonvirtualLongMethodA\0"
 2024      4E6F6E76 
 2024      69727475 
 2024      616C4C6F 
 2024      6E674D65 
 2025 0cd2 04       		.byte	0x4
 2026 0cd3 6601     		.word	0x166
 2027 0cd5 752B0000 		.long	0x2b75
 2028 0cd9 03       		.byte	0x3
 2029 0cda 23       		.byte	0x23
 2030 0cdb D002     		.uleb128 0x150
 2031 0cdd 0D       		.uleb128 0xd
GAS LISTING /cygdrive/c/Users/THESCI~1/AppData/Local/Temp/cchZ1Zdn.s 			page 50


 2032 0cde 43616C6C 		.ascii "CallNonvirtualFloatMethod\0"
 2032      4E6F6E76 
 2032      69727475 
 2032      616C466C 
 2032      6F61744D 
 2033 0cf8 04       		.byte	0x4
 2034 0cf9 6801     		.word	0x168
 2035 0cfb 9B2B0000 		.long	0x2b9b
 2036 0cff 03       		.byte	0x3
 2037 0d00 23       		.byte	0x23
 2038 0d01 D402     		.uleb128 0x154
 2039 0d03 0D       		.uleb128 0xd
 2040 0d04 43616C6C 		.ascii "CallNonvirtualFloatMethodV\0"
 2040      4E6F6E76 
 2040      69727475 
 2040      616C466C 
 2040      6F61744D 
 2041 0d1f 04       		.byte	0x4
 2042 0d20 6A01     		.word	0x16a
 2043 0d22 C52B0000 		.long	0x2bc5
 2044 0d26 03       		.byte	0x3
 2045 0d27 23       		.byte	0x23
 2046 0d28 D802     		.uleb128 0x158
 2047 0d2a 0D       		.uleb128 0xd
 2048 0d2b 43616C6C 		.ascii "CallNonvirtualFloatMethodA\0"
 2048      4E6F6E76 
 2048      69727475 
 2048      616C466C 
 2048      6F61744D 
 2049 0d46 04       		.byte	0x4
 2050 0d47 6C01     		.word	0x16c
 2051 0d49 EF2B0000 		.long	0x2bef
 2052 0d4d 03       		.byte	0x3
 2053 0d4e 23       		.byte	0x23
 2054 0d4f DC02     		.uleb128 0x15c
 2055 0d51 0D       		.uleb128 0xd
 2056 0d52 43616C6C 		.ascii "CallNonvirtualDoubleMethod\0"
 2056      4E6F6E76 
 2056      69727475 
 2056      616C446F 
 2056      75626C65 
 2057 0d6d 04       		.byte	0x4
 2058 0d6e 6E01     		.word	0x16e
 2059 0d70 152C0000 		.long	0x2c15
 2060 0d74 03       		.byte	0x3
 2061 0d75 23       		.byte	0x23
 2062 0d76 E002     		.uleb128 0x160
 2063 0d78 0D       		.uleb128 0xd
 2064 0d79 43616C6C 		.ascii "CallNonvirtualDoubleMethodV\0"
 2064      4E6F6E76 
 2064      69727475 
 2064      616C446F 
 2064      75626C65 
 2065 0d95 04       		.byte	0x4
 2066 0d96 7001     		.word	0x170
 2067 0d98 3F2C0000 		.long	0x2c3f
 2068 0d9c 03       		.byte	0x3
GAS LISTING /cygdrive/c/Users/THESCI~1/AppData/Local/Temp/cchZ1Zdn.s 			page 51


 2069 0d9d 23       		.byte	0x23
 2070 0d9e E402     		.uleb128 0x164
 2071 0da0 0D       		.uleb128 0xd
 2072 0da1 43616C6C 		.ascii "CallNonvirtualDoubleMethodA\0"
 2072      4E6F6E76 
 2072      69727475 
 2072      616C446F 
 2072      75626C65 
 2073 0dbd 04       		.byte	0x4
 2074 0dbe 7201     		.word	0x172
 2075 0dc0 692C0000 		.long	0x2c69
 2076 0dc4 03       		.byte	0x3
 2077 0dc5 23       		.byte	0x23
 2078 0dc6 E802     		.uleb128 0x168
 2079 0dc8 0D       		.uleb128 0xd
 2080 0dc9 43616C6C 		.ascii "CallNonvirtualVoidMethod\0"
 2080      4E6F6E76 
 2080      69727475 
 2080      616C566F 
 2080      69644D65 
 2081 0de2 04       		.byte	0x4
 2082 0de3 7401     		.word	0x174
 2083 0de5 8B2C0000 		.long	0x2c8b
 2084 0de9 03       		.byte	0x3
 2085 0dea 23       		.byte	0x23
 2086 0deb EC02     		.uleb128 0x16c
 2087 0ded 0D       		.uleb128 0xd
 2088 0dee 43616C6C 		.ascii "CallNonvirtualVoidMethodV\0"
 2088      4E6F6E76 
 2088      69727475 
 2088      616C566F 
 2088      69644D65 
 2089 0e08 04       		.byte	0x4
 2090 0e09 7601     		.word	0x176
 2091 0e0b B12C0000 		.long	0x2cb1
 2092 0e0f 03       		.byte	0x3
 2093 0e10 23       		.byte	0x23
 2094 0e11 F002     		.uleb128 0x170
 2095 0e13 0D       		.uleb128 0xd
 2096 0e14 43616C6C 		.ascii "CallNonvirtualVoidMethodA\0"
 2096      4E6F6E76 
 2096      69727475 
 2096      616C566F 
 2096      69644D65 
 2097 0e2e 04       		.byte	0x4
 2098 0e2f 7801     		.word	0x178
 2099 0e31 D72C0000 		.long	0x2cd7
 2100 0e35 03       		.byte	0x3
 2101 0e36 23       		.byte	0x23
 2102 0e37 F402     		.uleb128 0x174
 2103 0e39 0D       		.uleb128 0xd
 2104 0e3a 47657446 		.ascii "GetFieldID\0"
 2104      69656C64 
 2104      494400
 2105 0e45 04       		.byte	0x4
 2106 0e46 7B01     		.word	0x17b
 2107 0e48 FC2C0000 		.long	0x2cfc
GAS LISTING /cygdrive/c/Users/THESCI~1/AppData/Local/Temp/cchZ1Zdn.s 			page 52


 2108 0e4c 03       		.byte	0x3
 2109 0e4d 23       		.byte	0x23
 2110 0e4e F802     		.uleb128 0x178
 2111 0e50 0D       		.uleb128 0xd
 2112 0e51 4765744F 		.ascii "GetObjectField\0"
 2112      626A6563 
 2112      74466965 
 2112      6C6400
 2113 0e60 04       		.byte	0x4
 2114 0e61 7E01     		.word	0x17e
 2115 0e63 1C2D0000 		.long	0x2d1c
 2116 0e67 03       		.byte	0x3
 2117 0e68 23       		.byte	0x23
 2118 0e69 FC02     		.uleb128 0x17c
 2119 0e6b 0D       		.uleb128 0xd
 2120 0e6c 47657442 		.ascii "GetBooleanField\0"
 2120      6F6F6C65 
 2120      616E4669 
 2120      656C6400 
 2121 0e7c 04       		.byte	0x4
 2122 0e7d 7F01     		.word	0x17f
 2123 0e7f 3C2D0000 		.long	0x2d3c
 2124 0e83 03       		.byte	0x3
 2125 0e84 23       		.byte	0x23
 2126 0e85 8003     		.uleb128 0x180
 2127 0e87 0D       		.uleb128 0xd
 2128 0e88 47657442 		.ascii "GetByteField\0"
 2128      79746546 
 2128      69656C64 
 2128      00
 2129 0e95 04       		.byte	0x4
 2130 0e96 8001     		.word	0x180
 2131 0e98 5C2D0000 		.long	0x2d5c
 2132 0e9c 03       		.byte	0x3
 2133 0e9d 23       		.byte	0x23
 2134 0e9e 8403     		.uleb128 0x184
 2135 0ea0 0D       		.uleb128 0xd
 2136 0ea1 47657443 		.ascii "GetCharField\0"
 2136      68617246 
 2136      69656C64 
 2136      00
 2137 0eae 04       		.byte	0x4
 2138 0eaf 8101     		.word	0x181
 2139 0eb1 7C2D0000 		.long	0x2d7c
 2140 0eb5 03       		.byte	0x3
 2141 0eb6 23       		.byte	0x23
 2142 0eb7 8803     		.uleb128 0x188
 2143 0eb9 0D       		.uleb128 0xd
 2144 0eba 47657453 		.ascii "GetShortField\0"
 2144      686F7274 
 2144      4669656C 
 2144      6400
 2145 0ec8 04       		.byte	0x4
 2146 0ec9 8201     		.word	0x182
 2147 0ecb 9C2D0000 		.long	0x2d9c
 2148 0ecf 03       		.byte	0x3
 2149 0ed0 23       		.byte	0x23
GAS LISTING /cygdrive/c/Users/THESCI~1/AppData/Local/Temp/cchZ1Zdn.s 			page 53


 2150 0ed1 8C03     		.uleb128 0x18c
 2151 0ed3 0D       		.uleb128 0xd
 2152 0ed4 47657449 		.ascii "GetIntField\0"
 2152      6E744669 
 2152      656C6400 
 2153 0ee0 04       		.byte	0x4
 2154 0ee1 8301     		.word	0x183
 2155 0ee3 BC2D0000 		.long	0x2dbc
 2156 0ee7 03       		.byte	0x3
 2157 0ee8 23       		.byte	0x23
 2158 0ee9 9003     		.uleb128 0x190
 2159 0eeb 0D       		.uleb128 0xd
 2160 0eec 4765744C 		.ascii "GetLongField\0"
 2160      6F6E6746 
 2160      69656C64 
 2160      00
 2161 0ef9 04       		.byte	0x4
 2162 0efa 8401     		.word	0x184
 2163 0efc DC2D0000 		.long	0x2ddc
 2164 0f00 03       		.byte	0x3
 2165 0f01 23       		.byte	0x23
 2166 0f02 9403     		.uleb128 0x194
 2167 0f04 0D       		.uleb128 0xd
 2168 0f05 47657446 		.ascii "GetFloatField\0"
 2168      6C6F6174 
 2168      4669656C 
 2168      6400
 2169 0f13 04       		.byte	0x4
 2170 0f14 8501     		.word	0x185
 2171 0f16 FC2D0000 		.long	0x2dfc
 2172 0f1a 03       		.byte	0x3
 2173 0f1b 23       		.byte	0x23
 2174 0f1c 9803     		.uleb128 0x198
 2175 0f1e 0D       		.uleb128 0xd
 2176 0f1f 47657444 		.ascii "GetDoubleField\0"
 2176      6F75626C 
 2176      65466965 
 2176      6C6400
 2177 0f2e 04       		.byte	0x4
 2178 0f2f 8601     		.word	0x186
 2179 0f31 1C2E0000 		.long	0x2e1c
 2180 0f35 03       		.byte	0x3
 2181 0f36 23       		.byte	0x23
 2182 0f37 9C03     		.uleb128 0x19c
 2183 0f39 0D       		.uleb128 0xd
 2184 0f3a 5365744F 		.ascii "SetObjectField\0"
 2184      626A6563 
 2184      74466965 
 2184      6C6400
 2185 0f49 04       		.byte	0x4
 2186 0f4a 8801     		.word	0x188
 2187 0f4c 3D2E0000 		.long	0x2e3d
 2188 0f50 03       		.byte	0x3
 2189 0f51 23       		.byte	0x23
 2190 0f52 A003     		.uleb128 0x1a0
 2191 0f54 0D       		.uleb128 0xd
 2192 0f55 53657442 		.ascii "SetBooleanField\0"
GAS LISTING /cygdrive/c/Users/THESCI~1/AppData/Local/Temp/cchZ1Zdn.s 			page 54


 2192      6F6F6C65 
 2192      616E4669 
 2192      656C6400 
 2193 0f65 04       		.byte	0x4
 2194 0f66 8A01     		.word	0x18a
 2195 0f68 5E2E0000 		.long	0x2e5e
 2196 0f6c 03       		.byte	0x3
 2197 0f6d 23       		.byte	0x23
 2198 0f6e A403     		.uleb128 0x1a4
 2199 0f70 0D       		.uleb128 0xd
 2200 0f71 53657442 		.ascii "SetByteField\0"
 2200      79746546 
 2200      69656C64 
 2200      00
 2201 0f7e 04       		.byte	0x4
 2202 0f7f 8C01     		.word	0x18c
 2203 0f81 7F2E0000 		.long	0x2e7f
 2204 0f85 03       		.byte	0x3
 2205 0f86 23       		.byte	0x23
 2206 0f87 A803     		.uleb128 0x1a8
 2207 0f89 0D       		.uleb128 0xd
 2208 0f8a 53657443 		.ascii "SetCharField\0"
 2208      68617246 
 2208      69656C64 
 2208      00
 2209 0f97 04       		.byte	0x4
 2210 0f98 8E01     		.word	0x18e
 2211 0f9a A02E0000 		.long	0x2ea0
 2212 0f9e 03       		.byte	0x3
 2213 0f9f 23       		.byte	0x23
 2214 0fa0 AC03     		.uleb128 0x1ac
 2215 0fa2 0D       		.uleb128 0xd
 2216 0fa3 53657453 		.ascii "SetShortField\0"
 2216      686F7274 
 2216      4669656C 
 2216      6400
 2217 0fb1 04       		.byte	0x4
 2218 0fb2 9001     		.word	0x190
 2219 0fb4 C12E0000 		.long	0x2ec1
 2220 0fb8 03       		.byte	0x3
 2221 0fb9 23       		.byte	0x23
 2222 0fba B003     		.uleb128 0x1b0
 2223 0fbc 0D       		.uleb128 0xd
 2224 0fbd 53657449 		.ascii "SetIntField\0"
 2224      6E744669 
 2224      656C6400 
 2225 0fc9 04       		.byte	0x4
 2226 0fca 9201     		.word	0x192
 2227 0fcc E22E0000 		.long	0x2ee2
 2228 0fd0 03       		.byte	0x3
 2229 0fd1 23       		.byte	0x23
 2230 0fd2 B403     		.uleb128 0x1b4
 2231 0fd4 0D       		.uleb128 0xd
 2232 0fd5 5365744C 		.ascii "SetLongField\0"
 2232      6F6E6746 
 2232      69656C64 
 2232      00
GAS LISTING /cygdrive/c/Users/THESCI~1/AppData/Local/Temp/cchZ1Zdn.s 			page 55


 2233 0fe2 04       		.byte	0x4
 2234 0fe3 9401     		.word	0x194
 2235 0fe5 032F0000 		.long	0x2f03
 2236 0fe9 03       		.byte	0x3
 2237 0fea 23       		.byte	0x23
 2238 0feb B803     		.uleb128 0x1b8
 2239 0fed 0D       		.uleb128 0xd
 2240 0fee 53657446 		.ascii "SetFloatField\0"
 2240      6C6F6174 
 2240      4669656C 
 2240      6400
 2241 0ffc 04       		.byte	0x4
 2242 0ffd 9601     		.word	0x196
 2243 0fff 242F0000 		.long	0x2f24
 2244 1003 03       		.byte	0x3
 2245 1004 23       		.byte	0x23
 2246 1005 BC03     		.uleb128 0x1bc
 2247 1007 0D       		.uleb128 0xd
 2248 1008 53657444 		.ascii "SetDoubleField\0"
 2248      6F75626C 
 2248      65466965 
 2248      6C6400
 2249 1017 04       		.byte	0x4
 2250 1018 9801     		.word	0x198
 2251 101a 452F0000 		.long	0x2f45
 2252 101e 03       		.byte	0x3
 2253 101f 23       		.byte	0x23
 2254 1020 C003     		.uleb128 0x1c0
 2255 1022 0D       		.uleb128 0xd
 2256 1023 47657453 		.ascii "GetStaticMethodID\0"
 2256      74617469 
 2256      634D6574 
 2256      686F6449 
 2256      4400
 2257 1035 04       		.byte	0x4
 2258 1036 9B01     		.word	0x19b
 2259 1038 FD230000 		.long	0x23fd
 2260 103c 03       		.byte	0x3
 2261 103d 23       		.byte	0x23
 2262 103e C403     		.uleb128 0x1c4
 2263 1040 0D       		.uleb128 0xd
 2264 1041 43616C6C 		.ascii "CallStaticObjectMethod\0"
 2264      53746174 
 2264      69634F62 
 2264      6A656374 
 2264      4D657468 
 2265 1058 04       		.byte	0x4
 2266 1059 9E01     		.word	0x19e
 2267 105b 48230000 		.long	0x2348
 2268 105f 03       		.byte	0x3
 2269 1060 23       		.byte	0x23
 2270 1061 C803     		.uleb128 0x1c8
 2271 1063 0D       		.uleb128 0xd
 2272 1064 43616C6C 		.ascii "CallStaticObjectMethodV\0"
 2272      53746174 
 2272      69634F62 
 2272      6A656374 
GAS LISTING /cygdrive/c/Users/THESCI~1/AppData/Local/Temp/cchZ1Zdn.s 			page 56


 2272      4D657468 
 2273 107c 04       		.byte	0x4
 2274 107d A001     		.word	0x1a0
 2275 107f 6D230000 		.long	0x236d
 2276 1083 03       		.byte	0x3
 2277 1084 23       		.byte	0x23
 2278 1085 CC03     		.uleb128 0x1cc
 2279 1087 0D       		.uleb128 0xd
 2280 1088 43616C6C 		.ascii "CallStaticObjectMethodA\0"
 2280      53746174 
 2280      69634F62 
 2280      6A656374 
 2280      4D657468 
 2281 10a0 04       		.byte	0x4
 2282 10a1 A201     		.word	0x1a2
 2283 10a3 9D230000 		.long	0x239d
 2284 10a7 03       		.byte	0x3
 2285 10a8 23       		.byte	0x23
 2286 10a9 D003     		.uleb128 0x1d0
 2287 10ab 0D       		.uleb128 0xd
 2288 10ac 43616C6C 		.ascii "CallStaticBooleanMethod\0"
 2288      53746174 
 2288      6963426F 
 2288      6F6C6561 
 2288      6E4D6574 
 2289 10c4 04       		.byte	0x4
 2290 10c5 A401     		.word	0x1a4
 2291 10c7 662F0000 		.long	0x2f66
 2292 10cb 03       		.byte	0x3
 2293 10cc 23       		.byte	0x23
 2294 10cd D403     		.uleb128 0x1d4
 2295 10cf 0D       		.uleb128 0xd
 2296 10d0 43616C6C 		.ascii "CallStaticBooleanMethodV\0"
 2296      53746174 
 2296      6963426F 
 2296      6F6C6561 
 2296      6E4D6574 
 2297 10e9 04       		.byte	0x4
 2298 10ea A601     		.word	0x1a6
 2299 10ec 8B2F0000 		.long	0x2f8b
 2300 10f0 03       		.byte	0x3
 2301 10f1 23       		.byte	0x23
 2302 10f2 D803     		.uleb128 0x1d8
 2303 10f4 0D       		.uleb128 0xd
 2304 10f5 43616C6C 		.ascii "CallStaticBooleanMethodA\0"
 2304      53746174 
 2304      6963426F 
 2304      6F6C6561 
 2304      6E4D6574 
 2305 110e 04       		.byte	0x4
 2306 110f A801     		.word	0x1a8
 2307 1111 B02F0000 		.long	0x2fb0
 2308 1115 03       		.byte	0x3
 2309 1116 23       		.byte	0x23
 2310 1117 DC03     		.uleb128 0x1dc
 2311 1119 0D       		.uleb128 0xd
 2312 111a 43616C6C 		.ascii "CallStaticByteMethod\0"
GAS LISTING /cygdrive/c/Users/THESCI~1/AppData/Local/Temp/cchZ1Zdn.s 			page 57


 2312      53746174 
 2312      69634279 
 2312      74654D65 
 2312      74686F64 
 2313 112f 04       		.byte	0x4
 2314 1130 AA01     		.word	0x1aa
 2315 1132 D12F0000 		.long	0x2fd1
 2316 1136 03       		.byte	0x3
 2317 1137 23       		.byte	0x23
 2318 1138 E003     		.uleb128 0x1e0
 2319 113a 0D       		.uleb128 0xd
 2320 113b 43616C6C 		.ascii "CallStaticByteMethodV\0"
 2320      53746174 
 2320      69634279 
 2320      74654D65 
 2320      74686F64 
 2321 1151 04       		.byte	0x4
 2322 1152 AC01     		.word	0x1ac
 2323 1154 F62F0000 		.long	0x2ff6
 2324 1158 03       		.byte	0x3
 2325 1159 23       		.byte	0x23
 2326 115a E403     		.uleb128 0x1e4
 2327 115c 0D       		.uleb128 0xd
 2328 115d 43616C6C 		.ascii "CallStaticByteMethodA\0"
 2328      53746174 
 2328      69634279 
 2328      74654D65 
 2328      74686F64 
 2329 1173 04       		.byte	0x4
 2330 1174 AE01     		.word	0x1ae
 2331 1176 1B300000 		.long	0x301b
 2332 117a 03       		.byte	0x3
 2333 117b 23       		.byte	0x23
 2334 117c E803     		.uleb128 0x1e8
 2335 117e 0D       		.uleb128 0xd
 2336 117f 43616C6C 		.ascii "CallStaticCharMethod\0"
 2336      53746174 
 2336      69634368 
 2336      61724D65 
 2336      74686F64 
 2337 1194 04       		.byte	0x4
 2338 1195 B001     		.word	0x1b0
 2339 1197 3C300000 		.long	0x303c
 2340 119b 03       		.byte	0x3
 2341 119c 23       		.byte	0x23
 2342 119d EC03     		.uleb128 0x1ec
 2343 119f 0D       		.uleb128 0xd
 2344 11a0 43616C6C 		.ascii "CallStaticCharMethodV\0"
 2344      53746174 
 2344      69634368 
 2344      61724D65 
 2344      74686F64 
 2345 11b6 04       		.byte	0x4
 2346 11b7 B201     		.word	0x1b2
 2347 11b9 61300000 		.long	0x3061
 2348 11bd 03       		.byte	0x3
 2349 11be 23       		.byte	0x23
GAS LISTING /cygdrive/c/Users/THESCI~1/AppData/Local/Temp/cchZ1Zdn.s 			page 58


 2350 11bf F003     		.uleb128 0x1f0
 2351 11c1 0D       		.uleb128 0xd
 2352 11c2 43616C6C 		.ascii "CallStaticCharMethodA\0"
 2352      53746174 
 2352      69634368 
 2352      61724D65 
 2352      74686F64 
 2353 11d8 04       		.byte	0x4
 2354 11d9 B401     		.word	0x1b4
 2355 11db 86300000 		.long	0x3086
 2356 11df 03       		.byte	0x3
 2357 11e0 23       		.byte	0x23
 2358 11e1 F403     		.uleb128 0x1f4
 2359 11e3 0D       		.uleb128 0xd
 2360 11e4 43616C6C 		.ascii "CallStaticShortMethod\0"
 2360      53746174 
 2360      69635368 
 2360      6F72744D 
 2360      6574686F 
 2361 11fa 04       		.byte	0x4
 2362 11fb B601     		.word	0x1b6
 2363 11fd A7300000 		.long	0x30a7
 2364 1201 03       		.byte	0x3
 2365 1202 23       		.byte	0x23
 2366 1203 F803     		.uleb128 0x1f8
 2367 1205 0D       		.uleb128 0xd
 2368 1206 43616C6C 		.ascii "CallStaticShortMethodV\0"
 2368      53746174 
 2368      69635368 
 2368      6F72744D 
 2368      6574686F 
 2369 121d 04       		.byte	0x4
 2370 121e B801     		.word	0x1b8
 2371 1220 CC300000 		.long	0x30cc
 2372 1224 03       		.byte	0x3
 2373 1225 23       		.byte	0x23
 2374 1226 FC03     		.uleb128 0x1fc
 2375 1228 0D       		.uleb128 0xd
 2376 1229 43616C6C 		.ascii "CallStaticShortMethodA\0"
 2376      53746174 
 2376      69635368 
 2376      6F72744D 
 2376      6574686F 
 2377 1240 04       		.byte	0x4
 2378 1241 BA01     		.word	0x1ba
 2379 1243 F1300000 		.long	0x30f1
 2380 1247 03       		.byte	0x3
 2381 1248 23       		.byte	0x23
 2382 1249 8004     		.uleb128 0x200
 2383 124b 0D       		.uleb128 0xd
 2384 124c 43616C6C 		.ascii "CallStaticIntMethod\0"
 2384      53746174 
 2384      6963496E 
 2384      744D6574 
 2384      686F6400 
 2385 1260 04       		.byte	0x4
 2386 1261 BC01     		.word	0x1bc
GAS LISTING /cygdrive/c/Users/THESCI~1/AppData/Local/Temp/cchZ1Zdn.s 			page 59


 2387 1263 12310000 		.long	0x3112
 2388 1267 03       		.byte	0x3
 2389 1268 23       		.byte	0x23
 2390 1269 8404     		.uleb128 0x204
 2391 126b 0D       		.uleb128 0xd
 2392 126c 43616C6C 		.ascii "CallStaticIntMethodV\0"
 2392      53746174 
 2392      6963496E 
 2392      744D6574 
 2392      686F6456 
 2393 1281 04       		.byte	0x4
 2394 1282 BE01     		.word	0x1be
 2395 1284 37310000 		.long	0x3137
 2396 1288 03       		.byte	0x3
 2397 1289 23       		.byte	0x23
 2398 128a 8804     		.uleb128 0x208
 2399 128c 0D       		.uleb128 0xd
 2400 128d 43616C6C 		.ascii "CallStaticIntMethodA\0"
 2400      53746174 
 2400      6963496E 
 2400      744D6574 
 2400      686F6441 
 2401 12a2 04       		.byte	0x4
 2402 12a3 C001     		.word	0x1c0
 2403 12a5 5C310000 		.long	0x315c
 2404 12a9 03       		.byte	0x3
 2405 12aa 23       		.byte	0x23
 2406 12ab 8C04     		.uleb128 0x20c
 2407 12ad 0D       		.uleb128 0xd
 2408 12ae 43616C6C 		.ascii "CallStaticLongMethod\0"
 2408      53746174 
 2408      69634C6F 
 2408      6E674D65 
 2408      74686F64 
 2409 12c3 04       		.byte	0x4
 2410 12c4 C201     		.word	0x1c2
 2411 12c6 7D310000 		.long	0x317d
 2412 12ca 03       		.byte	0x3
 2413 12cb 23       		.byte	0x23
 2414 12cc 9004     		.uleb128 0x210
 2415 12ce 0D       		.uleb128 0xd
 2416 12cf 43616C6C 		.ascii "CallStaticLongMethodV\0"
 2416      53746174 
 2416      69634C6F 
 2416      6E674D65 
 2416      74686F64 
 2417 12e5 04       		.byte	0x4
 2418 12e6 C401     		.word	0x1c4
 2419 12e8 A2310000 		.long	0x31a2
 2420 12ec 03       		.byte	0x3
 2421 12ed 23       		.byte	0x23
 2422 12ee 9404     		.uleb128 0x214
 2423 12f0 0D       		.uleb128 0xd
 2424 12f1 43616C6C 		.ascii "CallStaticLongMethodA\0"
 2424      53746174 
 2424      69634C6F 
 2424      6E674D65 
GAS LISTING /cygdrive/c/Users/THESCI~1/AppData/Local/Temp/cchZ1Zdn.s 			page 60


 2424      74686F64 
 2425 1307 04       		.byte	0x4
 2426 1308 C601     		.word	0x1c6
 2427 130a C7310000 		.long	0x31c7
 2428 130e 03       		.byte	0x3
 2429 130f 23       		.byte	0x23
 2430 1310 9804     		.uleb128 0x218
 2431 1312 0D       		.uleb128 0xd
 2432 1313 43616C6C 		.ascii "CallStaticFloatMethod\0"
 2432      53746174 
 2432      6963466C 
 2432      6F61744D 
 2432      6574686F 
 2433 1329 04       		.byte	0x4
 2434 132a C801     		.word	0x1c8
 2435 132c E8310000 		.long	0x31e8
 2436 1330 03       		.byte	0x3
 2437 1331 23       		.byte	0x23
 2438 1332 9C04     		.uleb128 0x21c
 2439 1334 0D       		.uleb128 0xd
 2440 1335 43616C6C 		.ascii "CallStaticFloatMethodV\0"
 2440      53746174 
 2440      6963466C 
 2440      6F61744D 
 2440      6574686F 
 2441 134c 04       		.byte	0x4
 2442 134d CA01     		.word	0x1ca
 2443 134f 0D320000 		.long	0x320d
 2444 1353 03       		.byte	0x3
 2445 1354 23       		.byte	0x23
 2446 1355 A004     		.uleb128 0x220
 2447 1357 0D       		.uleb128 0xd
 2448 1358 43616C6C 		.ascii "CallStaticFloatMethodA\0"
 2448      53746174 
 2448      6963466C 
 2448      6F61744D 
 2448      6574686F 
 2449 136f 04       		.byte	0x4
 2450 1370 CC01     		.word	0x1cc
 2451 1372 32320000 		.long	0x3232
 2452 1376 03       		.byte	0x3
 2453 1377 23       		.byte	0x23
 2454 1378 A404     		.uleb128 0x224
 2455 137a 0D       		.uleb128 0xd
 2456 137b 43616C6C 		.ascii "CallStaticDoubleMethod\0"
 2456      53746174 
 2456      6963446F 
 2456      75626C65 
 2456      4D657468 
 2457 1392 04       		.byte	0x4
 2458 1393 CE01     		.word	0x1ce
 2459 1395 53320000 		.long	0x3253
 2460 1399 03       		.byte	0x3
 2461 139a 23       		.byte	0x23
 2462 139b A804     		.uleb128 0x228
 2463 139d 0D       		.uleb128 0xd
 2464 139e 43616C6C 		.ascii "CallStaticDoubleMethodV\0"
GAS LISTING /cygdrive/c/Users/THESCI~1/AppData/Local/Temp/cchZ1Zdn.s 			page 61


 2464      53746174 
 2464      6963446F 
 2464      75626C65 
 2464      4D657468 
 2465 13b6 04       		.byte	0x4
 2466 13b7 D001     		.word	0x1d0
 2467 13b9 78320000 		.long	0x3278
 2468 13bd 03       		.byte	0x3
 2469 13be 23       		.byte	0x23
 2470 13bf AC04     		.uleb128 0x22c
 2471 13c1 0D       		.uleb128 0xd
 2472 13c2 43616C6C 		.ascii "CallStaticDoubleMethodA\0"
 2472      53746174 
 2472      6963446F 
 2472      75626C65 
 2472      4D657468 
 2473 13da 04       		.byte	0x4
 2474 13db D201     		.word	0x1d2
 2475 13dd 9D320000 		.long	0x329d
 2476 13e1 03       		.byte	0x3
 2477 13e2 23       		.byte	0x23
 2478 13e3 B004     		.uleb128 0x230
 2479 13e5 0D       		.uleb128 0xd
 2480 13e6 43616C6C 		.ascii "CallStaticVoidMethod\0"
 2480      53746174 
 2480      6963566F 
 2480      69644D65 
 2480      74686F64 
 2481 13fb 04       		.byte	0x4
 2482 13fc D401     		.word	0x1d4
 2483 13fe BA320000 		.long	0x32ba
 2484 1402 03       		.byte	0x3
 2485 1403 23       		.byte	0x23
 2486 1404 B404     		.uleb128 0x234
 2487 1406 0D       		.uleb128 0xd
 2488 1407 43616C6C 		.ascii "CallStaticVoidMethodV\0"
 2488      53746174 
 2488      6963566F 
 2488      69644D65 
 2488      74686F64 
 2489 141d 04       		.byte	0x4
 2490 141e D601     		.word	0x1d6
 2491 1420 DB320000 		.long	0x32db
 2492 1424 03       		.byte	0x3
 2493 1425 23       		.byte	0x23
 2494 1426 B804     		.uleb128 0x238
 2495 1428 0D       		.uleb128 0xd
 2496 1429 43616C6C 		.ascii "CallStaticVoidMethodA\0"
 2496      53746174 
 2496      6963566F 
 2496      69644D65 
 2496      74686F64 
 2497 143f 04       		.byte	0x4
 2498 1440 D801     		.word	0x1d8
 2499 1442 FC320000 		.long	0x32fc
 2500 1446 03       		.byte	0x3
 2501 1447 23       		.byte	0x23
GAS LISTING /cygdrive/c/Users/THESCI~1/AppData/Local/Temp/cchZ1Zdn.s 			page 62


 2502 1448 BC04     		.uleb128 0x23c
 2503 144a 0D       		.uleb128 0xd
 2504 144b 47657453 		.ascii "GetStaticFieldID\0"
 2504      74617469 
 2504      63466965 
 2504      6C644944 
 2504      00
 2505 145c 04       		.byte	0x4
 2506 145d DB01     		.word	0x1db
 2507 145f FC2C0000 		.long	0x2cfc
 2508 1463 03       		.byte	0x3
 2509 1464 23       		.byte	0x23
 2510 1465 C004     		.uleb128 0x240
 2511 1467 0D       		.uleb128 0xd
 2512 1468 47657453 		.ascii "GetStaticObjectField\0"
 2512      74617469 
 2512      634F626A 
 2512      65637446 
 2512      69656C64 
 2513 147d 04       		.byte	0x4
 2514 147e DE01     		.word	0x1de
 2515 1480 1C330000 		.long	0x331c
 2516 1484 03       		.byte	0x3
 2517 1485 23       		.byte	0x23
 2518 1486 C404     		.uleb128 0x244
 2519 1488 0D       		.uleb128 0xd
 2520 1489 47657453 		.ascii "GetStaticBooleanField\0"
 2520      74617469 
 2520      63426F6F 
 2520      6C65616E 
 2520      4669656C 
 2521 149f 04       		.byte	0x4
 2522 14a0 DF01     		.word	0x1df
 2523 14a2 3C330000 		.long	0x333c
 2524 14a6 03       		.byte	0x3
 2525 14a7 23       		.byte	0x23
 2526 14a8 C804     		.uleb128 0x248
 2527 14aa 0D       		.uleb128 0xd
 2528 14ab 47657453 		.ascii "GetStaticByteField\0"
 2528      74617469 
 2528      63427974 
 2528      65466965 
 2528      6C6400
 2529 14be 04       		.byte	0x4
 2530 14bf E001     		.word	0x1e0
 2531 14c1 5C330000 		.long	0x335c
 2532 14c5 03       		.byte	0x3
 2533 14c6 23       		.byte	0x23
 2534 14c7 CC04     		.uleb128 0x24c
 2535 14c9 0D       		.uleb128 0xd
 2536 14ca 47657453 		.ascii "GetStaticCharField\0"
 2536      74617469 
 2536      63436861 
 2536      72466965 
 2536      6C6400
 2537 14dd 04       		.byte	0x4
 2538 14de E101     		.word	0x1e1
GAS LISTING /cygdrive/c/Users/THESCI~1/AppData/Local/Temp/cchZ1Zdn.s 			page 63


 2539 14e0 7C330000 		.long	0x337c
 2540 14e4 03       		.byte	0x3
 2541 14e5 23       		.byte	0x23
 2542 14e6 D004     		.uleb128 0x250
 2543 14e8 0D       		.uleb128 0xd
 2544 14e9 47657453 		.ascii "GetStaticShortField\0"
 2544      74617469 
 2544      6353686F 
 2544      72744669 
 2544      656C6400 
 2545 14fd 04       		.byte	0x4
 2546 14fe E201     		.word	0x1e2
 2547 1500 9C330000 		.long	0x339c
 2548 1504 03       		.byte	0x3
 2549 1505 23       		.byte	0x23
 2550 1506 D404     		.uleb128 0x254
 2551 1508 0D       		.uleb128 0xd
 2552 1509 47657453 		.ascii "GetStaticIntField\0"
 2552      74617469 
 2552      63496E74 
 2552      4669656C 
 2552      6400
 2553 151b 04       		.byte	0x4
 2554 151c E301     		.word	0x1e3
 2555 151e BC330000 		.long	0x33bc
 2556 1522 03       		.byte	0x3
 2557 1523 23       		.byte	0x23
 2558 1524 D804     		.uleb128 0x258
 2559 1526 0D       		.uleb128 0xd
 2560 1527 47657453 		.ascii "GetStaticLongField\0"
 2560      74617469 
 2560      634C6F6E 
 2560      67466965 
 2560      6C6400
 2561 153a 04       		.byte	0x4
 2562 153b E401     		.word	0x1e4
 2563 153d DC330000 		.long	0x33dc
 2564 1541 03       		.byte	0x3
 2565 1542 23       		.byte	0x23
 2566 1543 DC04     		.uleb128 0x25c
 2567 1545 0D       		.uleb128 0xd
 2568 1546 47657453 		.ascii "GetStaticFloatField\0"
 2568      74617469 
 2568      63466C6F 
 2568      61744669 
 2568      656C6400 
 2569 155a 04       		.byte	0x4
 2570 155b E501     		.word	0x1e5
 2571 155d FC330000 		.long	0x33fc
 2572 1561 03       		.byte	0x3
 2573 1562 23       		.byte	0x23
 2574 1563 E004     		.uleb128 0x260
 2575 1565 0D       		.uleb128 0xd
 2576 1566 47657453 		.ascii "GetStaticDoubleField\0"
 2576      74617469 
 2576      63446F75 
 2576      626C6546 
GAS LISTING /cygdrive/c/Users/THESCI~1/AppData/Local/Temp/cchZ1Zdn.s 			page 64


 2576      69656C64 
 2577 157b 04       		.byte	0x4
 2578 157c E601     		.word	0x1e6
 2579 157e 1C340000 		.long	0x341c
 2580 1582 03       		.byte	0x3
 2581 1583 23       		.byte	0x23
 2582 1584 E404     		.uleb128 0x264
 2583 1586 0D       		.uleb128 0xd
 2584 1587 53657453 		.ascii "SetStaticObjectField\0"
 2584      74617469 
 2584      634F626A 
 2584      65637446 
 2584      69656C64 
 2585 159c 04       		.byte	0x4
 2586 159d E801     		.word	0x1e8
 2587 159f 3D340000 		.long	0x343d
 2588 15a3 03       		.byte	0x3
 2589 15a4 23       		.byte	0x23
 2590 15a5 E804     		.uleb128 0x268
 2591 15a7 0D       		.uleb128 0xd
 2592 15a8 53657453 		.ascii "SetStaticBooleanField\0"
 2592      74617469 
 2592      63426F6F 
 2592      6C65616E 
 2592      4669656C 
 2593 15be 04       		.byte	0x4
 2594 15bf EA01     		.word	0x1ea
 2595 15c1 5E340000 		.long	0x345e
 2596 15c5 03       		.byte	0x3
 2597 15c6 23       		.byte	0x23
 2598 15c7 EC04     		.uleb128 0x26c
 2599 15c9 0D       		.uleb128 0xd
 2600 15ca 53657453 		.ascii "SetStaticByteField\0"
 2600      74617469 
 2600      63427974 
 2600      65466965 
 2600      6C6400
 2601 15dd 04       		.byte	0x4
 2602 15de EC01     		.word	0x1ec
 2603 15e0 7F340000 		.long	0x347f
 2604 15e4 03       		.byte	0x3
 2605 15e5 23       		.byte	0x23
 2606 15e6 F004     		.uleb128 0x270
 2607 15e8 0D       		.uleb128 0xd
 2608 15e9 53657453 		.ascii "SetStaticCharField\0"
 2608      74617469 
 2608      63436861 
 2608      72466965 
 2608      6C6400
 2609 15fc 04       		.byte	0x4
 2610 15fd EE01     		.word	0x1ee
 2611 15ff A0340000 		.long	0x34a0
 2612 1603 03       		.byte	0x3
 2613 1604 23       		.byte	0x23
 2614 1605 F404     		.uleb128 0x274
 2615 1607 0D       		.uleb128 0xd
 2616 1608 53657453 		.ascii "SetStaticShortField\0"
GAS LISTING /cygdrive/c/Users/THESCI~1/AppData/Local/Temp/cchZ1Zdn.s 			page 65


 2616      74617469 
 2616      6353686F 
 2616      72744669 
 2616      656C6400 
 2617 161c 04       		.byte	0x4
 2618 161d F001     		.word	0x1f0
 2619 161f C1340000 		.long	0x34c1
 2620 1623 03       		.byte	0x3
 2621 1624 23       		.byte	0x23
 2622 1625 F804     		.uleb128 0x278
 2623 1627 0D       		.uleb128 0xd
 2624 1628 53657453 		.ascii "SetStaticIntField\0"
 2624      74617469 
 2624      63496E74 
 2624      4669656C 
 2624      6400
 2625 163a 04       		.byte	0x4
 2626 163b F201     		.word	0x1f2
 2627 163d E2340000 		.long	0x34e2
 2628 1641 03       		.byte	0x3
 2629 1642 23       		.byte	0x23
 2630 1643 FC04     		.uleb128 0x27c
 2631 1645 0D       		.uleb128 0xd
 2632 1646 53657453 		.ascii "SetStaticLongField\0"
 2632      74617469 
 2632      634C6F6E 
 2632      67466965 
 2632      6C6400
 2633 1659 04       		.byte	0x4
 2634 165a F401     		.word	0x1f4
 2635 165c 03350000 		.long	0x3503
 2636 1660 03       		.byte	0x3
 2637 1661 23       		.byte	0x23
 2638 1662 8005     		.uleb128 0x280
 2639 1664 0D       		.uleb128 0xd
 2640 1665 53657453 		.ascii "SetStaticFloatField\0"
 2640      74617469 
 2640      63466C6F 
 2640      61744669 
 2640      656C6400 
 2641 1679 04       		.byte	0x4
 2642 167a F601     		.word	0x1f6
 2643 167c 24350000 		.long	0x3524
 2644 1680 03       		.byte	0x3
 2645 1681 23       		.byte	0x23
 2646 1682 8405     		.uleb128 0x284
 2647 1684 0D       		.uleb128 0xd
 2648 1685 53657453 		.ascii "SetStaticDoubleField\0"
 2648      74617469 
 2648      63446F75 
 2648      626C6546 
 2648      69656C64 
 2649 169a 04       		.byte	0x4
 2650 169b F801     		.word	0x1f8
 2651 169d 45350000 		.long	0x3545
 2652 16a1 03       		.byte	0x3
 2653 16a2 23       		.byte	0x23
GAS LISTING /cygdrive/c/Users/THESCI~1/AppData/Local/Temp/cchZ1Zdn.s 			page 66


 2654 16a3 8805     		.uleb128 0x288
 2655 16a5 0D       		.uleb128 0xd
 2656 16a6 4E657753 		.ascii "NewString\0"
 2656      7472696E 
 2656      6700
 2657 16b0 04       		.byte	0x4
 2658 16b1 FB01     		.word	0x1fb
 2659 16b3 70350000 		.long	0x3570
 2660 16b7 03       		.byte	0x3
 2661 16b8 23       		.byte	0x23
 2662 16b9 8C05     		.uleb128 0x28c
 2663 16bb 0D       		.uleb128 0xd
 2664 16bc 47657453 		.ascii "GetStringLength\0"
 2664      7472696E 
 2664      674C656E 
 2664      67746800 
 2665 16cc 04       		.byte	0x4
 2666 16cd FC01     		.word	0x1fc
 2667 16cf 8B350000 		.long	0x358b
 2668 16d3 03       		.byte	0x3
 2669 16d4 23       		.byte	0x23
 2670 16d5 9005     		.uleb128 0x290
 2671 16d7 0D       		.uleb128 0xd
 2672 16d8 47657453 		.ascii "GetStringChars\0"
 2672      7472696E 
 2672      67436861 
 2672      727300
 2673 16e7 04       		.byte	0x4
 2674 16e8 FD01     		.word	0x1fd
 2675 16ea B1350000 		.long	0x35b1
 2676 16ee 03       		.byte	0x3
 2677 16ef 23       		.byte	0x23
 2678 16f0 9405     		.uleb128 0x294
 2679 16f2 0D       		.uleb128 0xd
 2680 16f3 52656C65 		.ascii "ReleaseStringChars\0"
 2680      61736553 
 2680      7472696E 
 2680      67436861 
 2680      727300
 2681 1706 04       		.byte	0x4
 2682 1707 FE01     		.word	0x1fe
 2683 1709 CD350000 		.long	0x35cd
 2684 170d 03       		.byte	0x3
 2685 170e 23       		.byte	0x23
 2686 170f 9805     		.uleb128 0x298
 2687 1711 0D       		.uleb128 0xd
 2688 1712 4E657753 		.ascii "NewStringUTF\0"
 2688      7472696E 
 2688      67555446 
 2688      00
 2689 171f 04       		.byte	0x4
 2690 1720 FF01     		.word	0x1ff
 2691 1722 E8350000 		.long	0x35e8
 2692 1726 03       		.byte	0x3
 2693 1727 23       		.byte	0x23
 2694 1728 9C05     		.uleb128 0x29c
 2695 172a 0D       		.uleb128 0xd
GAS LISTING /cygdrive/c/Users/THESCI~1/AppData/Local/Temp/cchZ1Zdn.s 			page 67


 2696 172b 47657453 		.ascii "GetStringUTFLength\0"
 2696      7472696E 
 2696      67555446 
 2696      4C656E67 
 2696      746800
 2697 173e 04       		.byte	0x4
 2698 173f 0002     		.word	0x200
 2699 1741 8B350000 		.long	0x358b
 2700 1745 03       		.byte	0x3
 2701 1746 23       		.byte	0x23
 2702 1747 A005     		.uleb128 0x2a0
 2703 1749 0D       		.uleb128 0xd
 2704 174a 47657453 		.ascii "GetStringUTFChars\0"
 2704      7472696E 
 2704      67555446 
 2704      43686172 
 2704      7300
 2705 175c 04       		.byte	0x4
 2706 175d 0102     		.word	0x201
 2707 175f 08360000 		.long	0x3608
 2708 1763 03       		.byte	0x3
 2709 1764 23       		.byte	0x23
 2710 1765 A405     		.uleb128 0x2a4
 2711 1767 0D       		.uleb128 0xd
 2712 1768 52656C65 		.ascii "ReleaseStringUTFChars\0"
 2712      61736553 
 2712      7472696E 
 2712      67555446 
 2712      43686172 
 2713 177e 04       		.byte	0x4
 2714 177f 0202     		.word	0x202
 2715 1781 24360000 		.long	0x3624
 2716 1785 03       		.byte	0x3
 2717 1786 23       		.byte	0x23
 2718 1787 A805     		.uleb128 0x2a8
 2719 1789 0D       		.uleb128 0xd
 2720 178a 47657441 		.ascii "GetArrayLength\0"
 2720      72726179 
 2720      4C656E67 
 2720      746800
 2721 1799 04       		.byte	0x4
 2722 179a 0302     		.word	0x203
 2723 179c 3F360000 		.long	0x363f
 2724 17a0 03       		.byte	0x3
 2725 17a1 23       		.byte	0x23
 2726 17a2 AC05     		.uleb128 0x2ac
 2727 17a4 0D       		.uleb128 0xd
 2728 17a5 4E65774F 		.ascii "NewObjectArray\0"
 2728      626A6563 
 2728      74417272 
 2728      617900
 2729 17b4 04       		.byte	0x4
 2730 17b5 0402     		.word	0x204
 2731 17b7 64360000 		.long	0x3664
 2732 17bb 03       		.byte	0x3
 2733 17bc 23       		.byte	0x23
 2734 17bd B005     		.uleb128 0x2b0
GAS LISTING /cygdrive/c/Users/THESCI~1/AppData/Local/Temp/cchZ1Zdn.s 			page 68


 2735 17bf 0D       		.uleb128 0xd
 2736 17c0 4765744F 		.ascii "GetObjectArrayElement\0"
 2736      626A6563 
 2736      74417272 
 2736      6179456C 
 2736      656D656E 
 2737 17d6 04       		.byte	0x4
 2738 17d7 0502     		.word	0x205
 2739 17d9 84360000 		.long	0x3684
 2740 17dd 03       		.byte	0x3
 2741 17de 23       		.byte	0x23
 2742 17df B405     		.uleb128 0x2b4
 2743 17e1 0D       		.uleb128 0xd
 2744 17e2 5365744F 		.ascii "SetObjectArrayElement\0"
 2744      626A6563 
 2744      74417272 
 2744      6179456C 
 2744      656D656E 
 2745 17f8 04       		.byte	0x4
 2746 17f9 0602     		.word	0x206
 2747 17fb A5360000 		.long	0x36a5
 2748 17ff 03       		.byte	0x3
 2749 1800 23       		.byte	0x23
 2750 1801 B805     		.uleb128 0x2b8
 2751 1803 0D       		.uleb128 0xd
 2752 1804 4E657742 		.ascii "NewBooleanArray\0"
 2752      6F6F6C65 
 2752      616E4172 
 2752      72617900 
 2753 1814 04       		.byte	0x4
 2754 1815 0902     		.word	0x209
 2755 1817 C0360000 		.long	0x36c0
 2756 181b 03       		.byte	0x3
 2757 181c 23       		.byte	0x23
 2758 181d BC05     		.uleb128 0x2bc
 2759 181f 0D       		.uleb128 0xd
 2760 1820 4E657742 		.ascii "NewByteArray\0"
 2760      79746541 
 2760      72726179 
 2760      00
 2761 182d 04       		.byte	0x4
 2762 182e 0A02     		.word	0x20a
 2763 1830 DB360000 		.long	0x36db
 2764 1834 03       		.byte	0x3
 2765 1835 23       		.byte	0x23
 2766 1836 C005     		.uleb128 0x2c0
 2767 1838 0D       		.uleb128 0xd
 2768 1839 4E657743 		.ascii "NewCharArray\0"
 2768      68617241 
 2768      72726179 
 2768      00
 2769 1846 04       		.byte	0x4
 2770 1847 0B02     		.word	0x20b
 2771 1849 F6360000 		.long	0x36f6
 2772 184d 03       		.byte	0x3
 2773 184e 23       		.byte	0x23
 2774 184f C405     		.uleb128 0x2c4
GAS LISTING /cygdrive/c/Users/THESCI~1/AppData/Local/Temp/cchZ1Zdn.s 			page 69


 2775 1851 0D       		.uleb128 0xd
 2776 1852 4E657753 		.ascii "NewShortArray\0"
 2776      686F7274 
 2776      41727261 
 2776      7900
 2777 1860 04       		.byte	0x4
 2778 1861 0C02     		.word	0x20c
 2779 1863 11370000 		.long	0x3711
 2780 1867 03       		.byte	0x3
 2781 1868 23       		.byte	0x23
 2782 1869 C805     		.uleb128 0x2c8
 2783 186b 0D       		.uleb128 0xd
 2784 186c 4E657749 		.ascii "NewIntArray\0"
 2784      6E744172 
 2784      72617900 
 2785 1878 04       		.byte	0x4
 2786 1879 0D02     		.word	0x20d
 2787 187b 2C370000 		.long	0x372c
 2788 187f 03       		.byte	0x3
 2789 1880 23       		.byte	0x23
 2790 1881 CC05     		.uleb128 0x2cc
 2791 1883 0D       		.uleb128 0xd
 2792 1884 4E65774C 		.ascii "NewLongArray\0"
 2792      6F6E6741 
 2792      72726179 
 2792      00
 2793 1891 04       		.byte	0x4
 2794 1892 0E02     		.word	0x20e
 2795 1894 47370000 		.long	0x3747
 2796 1898 03       		.byte	0x3
 2797 1899 23       		.byte	0x23
 2798 189a D005     		.uleb128 0x2d0
 2799 189c 0D       		.uleb128 0xd
 2800 189d 4E657746 		.ascii "NewFloatArray\0"
 2800      6C6F6174 
 2800      41727261 
 2800      7900
 2801 18ab 04       		.byte	0x4
 2802 18ac 0F02     		.word	0x20f
 2803 18ae 62370000 		.long	0x3762
 2804 18b2 03       		.byte	0x3
 2805 18b3 23       		.byte	0x23
 2806 18b4 D405     		.uleb128 0x2d4
 2807 18b6 0D       		.uleb128 0xd
 2808 18b7 4E657744 		.ascii "NewDoubleArray\0"
 2808      6F75626C 
 2808      65417272 
 2808      617900
 2809 18c6 04       		.byte	0x4
 2810 18c7 1002     		.word	0x210
 2811 18c9 7D370000 		.long	0x377d
 2812 18cd 03       		.byte	0x3
 2813 18ce 23       		.byte	0x23
 2814 18cf D805     		.uleb128 0x2d8
 2815 18d1 0D       		.uleb128 0xd
 2816 18d2 47657442 		.ascii "GetBooleanArrayElements\0"
 2816      6F6F6C65 
GAS LISTING /cygdrive/c/Users/THESCI~1/AppData/Local/Temp/cchZ1Zdn.s 			page 70


 2816      616E4172 
 2816      72617945 
 2816      6C656D65 
 2817 18ea 04       		.byte	0x4
 2818 18eb 1202     		.word	0x212
 2819 18ed 9D370000 		.long	0x379d
 2820 18f1 03       		.byte	0x3
 2821 18f2 23       		.byte	0x23
 2822 18f3 DC05     		.uleb128 0x2dc
 2823 18f5 0D       		.uleb128 0xd
 2824 18f6 47657442 		.ascii "GetByteArrayElements\0"
 2824      79746541 
 2824      72726179 
 2824      456C656D 
 2824      656E7473 
 2825 190b 04       		.byte	0x4
 2826 190c 1402     		.word	0x214
 2827 190e C3370000 		.long	0x37c3
 2828 1912 03       		.byte	0x3
 2829 1913 23       		.byte	0x23
 2830 1914 E005     		.uleb128 0x2e0
 2831 1916 0D       		.uleb128 0xd
 2832 1917 47657443 		.ascii "GetCharArrayElements\0"
 2832      68617241 
 2832      72726179 
 2832      456C656D 
 2832      656E7473 
 2833 192c 04       		.byte	0x4
 2834 192d 1602     		.word	0x216
 2835 192f E9370000 		.long	0x37e9
 2836 1933 03       		.byte	0x3
 2837 1934 23       		.byte	0x23
 2838 1935 E405     		.uleb128 0x2e4
 2839 1937 0D       		.uleb128 0xd
 2840 1938 47657453 		.ascii "GetShortArrayElements\0"
 2840      686F7274 
 2840      41727261 
 2840      79456C65 
 2840      6D656E74 
 2841 194e 04       		.byte	0x4
 2842 194f 1802     		.word	0x218
 2843 1951 0F380000 		.long	0x380f
 2844 1955 03       		.byte	0x3
 2845 1956 23       		.byte	0x23
 2846 1957 E805     		.uleb128 0x2e8
 2847 1959 0D       		.uleb128 0xd
 2848 195a 47657449 		.ascii "GetIntArrayElements\0"
 2848      6E744172 
 2848      72617945 
 2848      6C656D65 
 2848      6E747300 
 2849 196e 04       		.byte	0x4
 2850 196f 1A02     		.word	0x21a
 2851 1971 35380000 		.long	0x3835
 2852 1975 03       		.byte	0x3
 2853 1976 23       		.byte	0x23
 2854 1977 EC05     		.uleb128 0x2ec
GAS LISTING /cygdrive/c/Users/THESCI~1/AppData/Local/Temp/cchZ1Zdn.s 			page 71


 2855 1979 0D       		.uleb128 0xd
 2856 197a 4765744C 		.ascii "GetLongArrayElements\0"
 2856      6F6E6741 
 2856      72726179 
 2856      456C656D 
 2856      656E7473 
 2857 198f 04       		.byte	0x4
 2858 1990 1C02     		.word	0x21c
 2859 1992 5B380000 		.long	0x385b
 2860 1996 03       		.byte	0x3
 2861 1997 23       		.byte	0x23
 2862 1998 F005     		.uleb128 0x2f0
 2863 199a 0D       		.uleb128 0xd
 2864 199b 47657446 		.ascii "GetFloatArrayElements\0"
 2864      6C6F6174 
 2864      41727261 
 2864      79456C65 
 2864      6D656E74 
 2865 19b1 04       		.byte	0x4
 2866 19b2 1E02     		.word	0x21e
 2867 19b4 81380000 		.long	0x3881
 2868 19b8 03       		.byte	0x3
 2869 19b9 23       		.byte	0x23
 2870 19ba F405     		.uleb128 0x2f4
 2871 19bc 0D       		.uleb128 0xd
 2872 19bd 47657444 		.ascii "GetDoubleArrayElements\0"
 2872      6F75626C 
 2872      65417272 
 2872      6179456C 
 2872      656D656E 
 2873 19d4 04       		.byte	0x4
 2874 19d5 2002     		.word	0x220
 2875 19d7 A7380000 		.long	0x38a7
 2876 19db 03       		.byte	0x3
 2877 19dc 23       		.byte	0x23
 2878 19dd F805     		.uleb128 0x2f8
 2879 19df 0D       		.uleb128 0xd
 2880 19e0 52656C65 		.ascii "ReleaseBooleanArrayElements\0"
 2880      61736542 
 2880      6F6F6C65 
 2880      616E4172 
 2880      72617945 
 2881 19fc 04       		.byte	0x4
 2882 19fd 2302     		.word	0x223
 2883 19ff C8380000 		.long	0x38c8
 2884 1a03 03       		.byte	0x3
 2885 1a04 23       		.byte	0x23
 2886 1a05 FC05     		.uleb128 0x2fc
 2887 1a07 0D       		.uleb128 0xd
 2888 1a08 52656C65 		.ascii "ReleaseByteArrayElements\0"
 2888      61736542 
 2888      79746541 
 2888      72726179 
 2888      456C656D 
 2889 1a21 04       		.byte	0x4
 2890 1a22 2502     		.word	0x225
 2891 1a24 E9380000 		.long	0x38e9
GAS LISTING /cygdrive/c/Users/THESCI~1/AppData/Local/Temp/cchZ1Zdn.s 			page 72


 2892 1a28 03       		.byte	0x3
 2893 1a29 23       		.byte	0x23
 2894 1a2a 8006     		.uleb128 0x300
 2895 1a2c 0D       		.uleb128 0xd
 2896 1a2d 52656C65 		.ascii "ReleaseCharArrayElements\0"
 2896      61736543 
 2896      68617241 
 2896      72726179 
 2896      456C656D 
 2897 1a46 04       		.byte	0x4
 2898 1a47 2702     		.word	0x227
 2899 1a49 0A390000 		.long	0x390a
 2900 1a4d 03       		.byte	0x3
 2901 1a4e 23       		.byte	0x23
 2902 1a4f 8406     		.uleb128 0x304
 2903 1a51 0D       		.uleb128 0xd
 2904 1a52 52656C65 		.ascii "ReleaseShortArrayElements\0"
 2904      61736553 
 2904      686F7274 
 2904      41727261 
 2904      79456C65 
 2905 1a6c 04       		.byte	0x4
 2906 1a6d 2902     		.word	0x229
 2907 1a6f 2B390000 		.long	0x392b
 2908 1a73 03       		.byte	0x3
 2909 1a74 23       		.byte	0x23
 2910 1a75 8806     		.uleb128 0x308
 2911 1a77 0D       		.uleb128 0xd
 2912 1a78 52656C65 		.ascii "ReleaseIntArrayElements\0"
 2912      61736549 
 2912      6E744172 
 2912      72617945 
 2912      6C656D65 
 2913 1a90 04       		.byte	0x4
 2914 1a91 2B02     		.word	0x22b
 2915 1a93 4C390000 		.long	0x394c
 2916 1a97 03       		.byte	0x3
 2917 1a98 23       		.byte	0x23
 2918 1a99 8C06     		.uleb128 0x30c
 2919 1a9b 0D       		.uleb128 0xd
 2920 1a9c 52656C65 		.ascii "ReleaseLongArrayElements\0"
 2920      6173654C 
 2920      6F6E6741 
 2920      72726179 
 2920      456C656D 
 2921 1ab5 04       		.byte	0x4
 2922 1ab6 2D02     		.word	0x22d
 2923 1ab8 6D390000 		.long	0x396d
 2924 1abc 03       		.byte	0x3
 2925 1abd 23       		.byte	0x23
 2926 1abe 9006     		.uleb128 0x310
 2927 1ac0 0D       		.uleb128 0xd
 2928 1ac1 52656C65 		.ascii "ReleaseFloatArrayElements\0"
 2928      61736546 
 2928      6C6F6174 
 2928      41727261 
 2928      79456C65 
GAS LISTING /cygdrive/c/Users/THESCI~1/AppData/Local/Temp/cchZ1Zdn.s 			page 73


 2929 1adb 04       		.byte	0x4
 2930 1adc 2F02     		.word	0x22f
 2931 1ade 8E390000 		.long	0x398e
 2932 1ae2 03       		.byte	0x3
 2933 1ae3 23       		.byte	0x23
 2934 1ae4 9406     		.uleb128 0x314
 2935 1ae6 0D       		.uleb128 0xd
 2936 1ae7 52656C65 		.ascii "ReleaseDoubleArrayElements\0"
 2936      61736544 
 2936      6F75626C 
 2936      65417272 
 2936      6179456C 
 2937 1b02 04       		.byte	0x4
 2938 1b03 3102     		.word	0x231
 2939 1b05 AF390000 		.long	0x39af
 2940 1b09 03       		.byte	0x3
 2941 1b0a 23       		.byte	0x23
 2942 1b0b 9806     		.uleb128 0x318
 2943 1b0d 0D       		.uleb128 0xd
 2944 1b0e 47657442 		.ascii "GetBooleanArrayRegion\0"
 2944      6F6F6C65 
 2944      616E4172 
 2944      72617952 
 2944      6567696F 
 2945 1b24 04       		.byte	0x4
 2946 1b25 3402     		.word	0x234
 2947 1b27 D5390000 		.long	0x39d5
 2948 1b2b 03       		.byte	0x3
 2949 1b2c 23       		.byte	0x23
 2950 1b2d 9C06     		.uleb128 0x31c
 2951 1b2f 0D       		.uleb128 0xd
 2952 1b30 47657442 		.ascii "GetByteArrayRegion\0"
 2952      79746541 
 2952      72726179 
 2952      52656769 
 2952      6F6E00
 2953 1b43 04       		.byte	0x4
 2954 1b44 3602     		.word	0x236
 2955 1b46 FB390000 		.long	0x39fb
 2956 1b4a 03       		.byte	0x3
 2957 1b4b 23       		.byte	0x23
 2958 1b4c A006     		.uleb128 0x320
 2959 1b4e 0D       		.uleb128 0xd
 2960 1b4f 47657443 		.ascii "GetCharArrayRegion\0"
 2960      68617241 
 2960      72726179 
 2960      52656769 
 2960      6F6E00
 2961 1b62 04       		.byte	0x4
 2962 1b63 3802     		.word	0x238
 2963 1b65 213A0000 		.long	0x3a21
 2964 1b69 03       		.byte	0x3
 2965 1b6a 23       		.byte	0x23
 2966 1b6b A406     		.uleb128 0x324
 2967 1b6d 0D       		.uleb128 0xd
 2968 1b6e 47657453 		.ascii "GetShortArrayRegion\0"
 2968      686F7274 
GAS LISTING /cygdrive/c/Users/THESCI~1/AppData/Local/Temp/cchZ1Zdn.s 			page 74


 2968      41727261 
 2968      79526567 
 2968      696F6E00 
 2969 1b82 04       		.byte	0x4
 2970 1b83 3A02     		.word	0x23a
 2971 1b85 473A0000 		.long	0x3a47
 2972 1b89 03       		.byte	0x3
 2973 1b8a 23       		.byte	0x23
 2974 1b8b A806     		.uleb128 0x328
 2975 1b8d 0D       		.uleb128 0xd
 2976 1b8e 47657449 		.ascii "GetIntArrayRegion\0"
 2976      6E744172 
 2976      72617952 
 2976      6567696F 
 2976      6E00
 2977 1ba0 04       		.byte	0x4
 2978 1ba1 3C02     		.word	0x23c
 2979 1ba3 6D3A0000 		.long	0x3a6d
 2980 1ba7 03       		.byte	0x3
 2981 1ba8 23       		.byte	0x23
 2982 1ba9 AC06     		.uleb128 0x32c
 2983 1bab 0D       		.uleb128 0xd
 2984 1bac 4765744C 		.ascii "GetLongArrayRegion\0"
 2984      6F6E6741 
 2984      72726179 
 2984      52656769 
 2984      6F6E00
 2985 1bbf 04       		.byte	0x4
 2986 1bc0 3E02     		.word	0x23e
 2987 1bc2 933A0000 		.long	0x3a93
 2988 1bc6 03       		.byte	0x3
 2989 1bc7 23       		.byte	0x23
 2990 1bc8 B006     		.uleb128 0x330
 2991 1bca 0D       		.uleb128 0xd
 2992 1bcb 47657446 		.ascii "GetFloatArrayRegion\0"
 2992      6C6F6174 
 2992      41727261 
 2992      79526567 
 2992      696F6E00 
 2993 1bdf 04       		.byte	0x4
 2994 1be0 4002     		.word	0x240
 2995 1be2 B93A0000 		.long	0x3ab9
 2996 1be6 03       		.byte	0x3
 2997 1be7 23       		.byte	0x23
 2998 1be8 B406     		.uleb128 0x334
 2999 1bea 0D       		.uleb128 0xd
 3000 1beb 47657444 		.ascii "GetDoubleArrayRegion\0"
 3000      6F75626C 
 3000      65417272 
 3000      61795265 
 3000      67696F6E 
 3001 1c00 04       		.byte	0x4
 3002 1c01 4202     		.word	0x242
 3003 1c03 DF3A0000 		.long	0x3adf
 3004 1c07 03       		.byte	0x3
 3005 1c08 23       		.byte	0x23
 3006 1c09 B806     		.uleb128 0x338
GAS LISTING /cygdrive/c/Users/THESCI~1/AppData/Local/Temp/cchZ1Zdn.s 			page 75


 3007 1c0b 0D       		.uleb128 0xd
 3008 1c0c 53657442 		.ascii "SetBooleanArrayRegion\0"
 3008      6F6F6C65 
 3008      616E4172 
 3008      72617952 
 3008      6567696F 
 3009 1c22 04       		.byte	0x4
 3010 1c23 4502     		.word	0x245
 3011 1c25 103B0000 		.long	0x3b10
 3012 1c29 03       		.byte	0x3
 3013 1c2a 23       		.byte	0x23
 3014 1c2b BC06     		.uleb128 0x33c
 3015 1c2d 0D       		.uleb128 0xd
 3016 1c2e 53657442 		.ascii "SetByteArrayRegion\0"
 3016      79746541 
 3016      72726179 
 3016      52656769 
 3016      6F6E00
 3017 1c41 04       		.byte	0x4
 3018 1c42 4802     		.word	0x248
 3019 1c44 363B0000 		.long	0x3b36
 3020 1c48 03       		.byte	0x3
 3021 1c49 23       		.byte	0x23
 3022 1c4a C006     		.uleb128 0x340
 3023 1c4c 0D       		.uleb128 0xd
 3024 1c4d 53657443 		.ascii "SetCharArrayRegion\0"
 3024      68617241 
 3024      72726179 
 3024      52656769 
 3024      6F6E00
 3025 1c60 04       		.byte	0x4
 3026 1c61 4B02     		.word	0x24b
 3027 1c63 5C3B0000 		.long	0x3b5c
 3028 1c67 03       		.byte	0x3
 3029 1c68 23       		.byte	0x23
 3030 1c69 C406     		.uleb128 0x344
 3031 1c6b 0D       		.uleb128 0xd
 3032 1c6c 53657453 		.ascii "SetShortArrayRegion\0"
 3032      686F7274 
 3032      41727261 
 3032      79526567 
 3032      696F6E00 
 3033 1c80 04       		.byte	0x4
 3034 1c81 4E02     		.word	0x24e
 3035 1c83 8D3B0000 		.long	0x3b8d
 3036 1c87 03       		.byte	0x3
 3037 1c88 23       		.byte	0x23
 3038 1c89 C806     		.uleb128 0x348
 3039 1c8b 0D       		.uleb128 0xd
 3040 1c8c 53657449 		.ascii "SetIntArrayRegion\0"
 3040      6E744172 
 3040      72617952 
 3040      6567696F 
 3040      6E00
 3041 1c9e 04       		.byte	0x4
 3042 1c9f 5102     		.word	0x251
 3043 1ca1 BE3B0000 		.long	0x3bbe
GAS LISTING /cygdrive/c/Users/THESCI~1/AppData/Local/Temp/cchZ1Zdn.s 			page 76


 3044 1ca5 03       		.byte	0x3
 3045 1ca6 23       		.byte	0x23
 3046 1ca7 CC06     		.uleb128 0x34c
 3047 1ca9 0D       		.uleb128 0xd
 3048 1caa 5365744C 		.ascii "SetLongArrayRegion\0"
 3048      6F6E6741 
 3048      72726179 
 3048      52656769 
 3048      6F6E00
 3049 1cbd 04       		.byte	0x4
 3050 1cbe 5402     		.word	0x254
 3051 1cc0 EF3B0000 		.long	0x3bef
 3052 1cc4 03       		.byte	0x3
 3053 1cc5 23       		.byte	0x23
 3054 1cc6 D006     		.uleb128 0x350
 3055 1cc8 0D       		.uleb128 0xd
 3056 1cc9 53657446 		.ascii "SetFloatArrayRegion\0"
 3056      6C6F6174 
 3056      41727261 
 3056      79526567 
 3056      696F6E00 
 3057 1cdd 04       		.byte	0x4
 3058 1cde 5702     		.word	0x257
 3059 1ce0 203C0000 		.long	0x3c20
 3060 1ce4 03       		.byte	0x3
 3061 1ce5 23       		.byte	0x23
 3062 1ce6 D406     		.uleb128 0x354
 3063 1ce8 0D       		.uleb128 0xd
 3064 1ce9 53657444 		.ascii "SetDoubleArrayRegion\0"
 3064      6F75626C 
 3064      65417272 
 3064      61795265 
 3064      67696F6E 
 3065 1cfe 04       		.byte	0x4
 3066 1cff 5A02     		.word	0x25a
 3067 1d01 513C0000 		.long	0x3c51
 3068 1d05 03       		.byte	0x3
 3069 1d06 23       		.byte	0x23
 3070 1d07 D806     		.uleb128 0x358
 3071 1d09 0D       		.uleb128 0xd
 3072 1d0a 52656769 		.ascii "RegisterNatives\0"
 3072      73746572 
 3072      4E617469 
 3072      76657300 
 3073 1d1a 04       		.byte	0x4
 3074 1d1b 5E02     		.word	0x25e
 3075 1d1d 813C0000 		.long	0x3c81
 3076 1d21 03       		.byte	0x3
 3077 1d22 23       		.byte	0x23
 3078 1d23 DC06     		.uleb128 0x35c
 3079 1d25 0D       		.uleb128 0xd
 3080 1d26 556E7265 		.ascii "UnregisterNatives\0"
 3080      67697374 
 3080      65724E61 
 3080      74697665 
 3080      7300
 3081 1d38 04       		.byte	0x4
GAS LISTING /cygdrive/c/Users/THESCI~1/AppData/Local/Temp/cchZ1Zdn.s 			page 77


 3082 1d39 6102     		.word	0x261
 3083 1d3b 9C3C0000 		.long	0x3c9c
 3084 1d3f 03       		.byte	0x3
 3085 1d40 23       		.byte	0x23
 3086 1d41 E006     		.uleb128 0x360
 3087 1d43 0D       		.uleb128 0xd
 3088 1d44 4D6F6E69 		.ascii "MonitorEnter\0"
 3088      746F7245 
 3088      6E746572 
 3088      00
 3089 1d51 04       		.byte	0x4
 3090 1d52 6202     		.word	0x262
 3091 1d54 B73C0000 		.long	0x3cb7
 3092 1d58 03       		.byte	0x3
 3093 1d59 23       		.byte	0x23
 3094 1d5a E406     		.uleb128 0x364
 3095 1d5c 0D       		.uleb128 0xd
 3096 1d5d 4D6F6E69 		.ascii "MonitorExit\0"
 3096      746F7245 
 3096      78697400 
 3097 1d69 04       		.byte	0x4
 3098 1d6a 6302     		.word	0x263
 3099 1d6c B73C0000 		.long	0x3cb7
 3100 1d70 03       		.byte	0x3
 3101 1d71 23       		.byte	0x23
 3102 1d72 E806     		.uleb128 0x368
 3103 1d74 0D       		.uleb128 0xd
 3104 1d75 4765744A 		.ascii "GetJavaVM\0"
 3104      61766156 
 3104      4D00
 3105 1d7f 04       		.byte	0x4
 3106 1d80 6402     		.word	0x264
 3107 1d82 DE3C0000 		.long	0x3cde
 3108 1d86 03       		.byte	0x3
 3109 1d87 23       		.byte	0x23
 3110 1d88 EC06     		.uleb128 0x36c
 3111 1d8a 0D       		.uleb128 0xd
 3112 1d8b 47657453 		.ascii "GetStringRegion\0"
 3112      7472696E 
 3112      67526567 
 3112      696F6E00 
 3113 1d9b 04       		.byte	0x4
 3114 1d9c 6702     		.word	0x267
 3115 1d9e 043D0000 		.long	0x3d04
 3116 1da2 03       		.byte	0x3
 3117 1da3 23       		.byte	0x23
 3118 1da4 F006     		.uleb128 0x370
 3119 1da6 0D       		.uleb128 0xd
 3120 1da7 47657453 		.ascii "GetStringUTFRegion\0"
 3120      7472696E 
 3120      67555446 
 3120      52656769 
 3120      6F6E00
 3121 1dba 04       		.byte	0x4
 3122 1dbb 6902     		.word	0x269
 3123 1dbd 2A3D0000 		.long	0x3d2a
 3124 1dc1 03       		.byte	0x3
GAS LISTING /cygdrive/c/Users/THESCI~1/AppData/Local/Temp/cchZ1Zdn.s 			page 78


 3125 1dc2 23       		.byte	0x23
 3126 1dc3 F406     		.uleb128 0x374
 3127 1dc5 0D       		.uleb128 0xd
 3128 1dc6 47657450 		.ascii "GetPrimitiveArrayCritical\0"
 3128      72696D69 
 3128      74697665 
 3128      41727261 
 3128      79437269 
 3129 1de0 04       		.byte	0x4
 3130 1de1 6C02     		.word	0x26c
 3131 1de3 4A3D0000 		.long	0x3d4a
 3132 1de7 03       		.byte	0x3
 3133 1de8 23       		.byte	0x23
 3134 1de9 F806     		.uleb128 0x378
 3135 1deb 0D       		.uleb128 0xd
 3136 1dec 52656C65 		.ascii "ReleasePrimitiveArrayCritical\0"
 3136      61736550 
 3136      72696D69 
 3136      74697665 
 3136      41727261 
 3137 1e0a 04       		.byte	0x4
 3138 1e0b 6E02     		.word	0x26e
 3139 1e0d 6B3D0000 		.long	0x3d6b
 3140 1e11 03       		.byte	0x3
 3141 1e12 23       		.byte	0x23
 3142 1e13 FC06     		.uleb128 0x37c
 3143 1e15 0D       		.uleb128 0xd
 3144 1e16 47657453 		.ascii "GetStringCritical\0"
 3144      7472696E 
 3144      67437269 
 3144      74696361 
 3144      6C00
 3145 1e28 04       		.byte	0x4
 3146 1e29 7102     		.word	0x271
 3147 1e2b B1350000 		.long	0x35b1
 3148 1e2f 03       		.byte	0x3
 3149 1e30 23       		.byte	0x23
 3150 1e31 8007     		.uleb128 0x380
 3151 1e33 0D       		.uleb128 0xd
 3152 1e34 52656C65 		.ascii "ReleaseStringCritical\0"
 3152      61736553 
 3152      7472696E 
 3152      67437269 
 3152      74696361 
 3153 1e4a 04       		.byte	0x4
 3154 1e4b 7302     		.word	0x273
 3155 1e4d CD350000 		.long	0x35cd
 3156 1e51 03       		.byte	0x3
 3157 1e52 23       		.byte	0x23
 3158 1e53 8407     		.uleb128 0x384
 3159 1e55 0D       		.uleb128 0xd
 3160 1e56 4E657757 		.ascii "NewWeakGlobalRef\0"
 3160      65616B47 
 3160      6C6F6261 
 3160      6C526566 
 3160      00
 3161 1e67 04       		.byte	0x4
GAS LISTING /cygdrive/c/Users/THESCI~1/AppData/Local/Temp/cchZ1Zdn.s 			page 79


 3162 1e68 7602     		.word	0x276
 3163 1e6a 863D0000 		.long	0x3d86
 3164 1e6e 03       		.byte	0x3
 3165 1e6f 23       		.byte	0x23
 3166 1e70 8807     		.uleb128 0x388
 3167 1e72 0D       		.uleb128 0xd
 3168 1e73 44656C65 		.ascii "DeleteWeakGlobalRef\0"
 3168      74655765 
 3168      616B476C 
 3168      6F62616C 
 3168      52656600 
 3169 1e87 04       		.byte	0x4
 3170 1e88 7702     		.word	0x277
 3171 1e8a 9D3D0000 		.long	0x3d9d
 3172 1e8e 03       		.byte	0x3
 3173 1e8f 23       		.byte	0x23
 3174 1e90 8C07     		.uleb128 0x38c
 3175 1e92 0D       		.uleb128 0xd
 3176 1e93 45786365 		.ascii "ExceptionCheck\0"
 3176      7074696F 
 3176      6E436865 
 3176      636B00
 3177 1ea2 04       		.byte	0x4
 3178 1ea3 7902     		.word	0x279
 3179 1ea5 B33D0000 		.long	0x3db3
 3180 1ea9 03       		.byte	0x3
 3181 1eaa 23       		.byte	0x23
 3182 1eab 9007     		.uleb128 0x390
 3183 1ead 0D       		.uleb128 0xd
 3184 1eae 4E657744 		.ascii "NewDirectByteBuffer\0"
 3184      69726563 
 3184      74427974 
 3184      65427566 
 3184      66657200 
 3185 1ec2 04       		.byte	0x4
 3186 1ec3 7C02     		.word	0x27c
 3187 1ec5 D33D0000 		.long	0x3dd3
 3188 1ec9 03       		.byte	0x3
 3189 1eca 23       		.byte	0x23
 3190 1ecb 9407     		.uleb128 0x394
 3191 1ecd 0D       		.uleb128 0xd
 3192 1ece 47657444 		.ascii "GetDirectBufferAddress\0"
 3192      69726563 
 3192      74427566 
 3192      66657241 
 3192      64647265 
 3193 1ee5 04       		.byte	0x4
 3194 1ee6 7D02     		.word	0x27d
 3195 1ee8 EE3D0000 		.long	0x3dee
 3196 1eec 03       		.byte	0x3
 3197 1eed 23       		.byte	0x23
 3198 1eee 9807     		.uleb128 0x398
 3199 1ef0 0D       		.uleb128 0xd
 3200 1ef1 47657444 		.ascii "GetDirectBufferCapacity\0"
 3200      69726563 
 3200      74427566 
 3200      66657243 
GAS LISTING /cygdrive/c/Users/THESCI~1/AppData/Local/Temp/cchZ1Zdn.s 			page 80


 3200      61706163 
 3201 1f09 04       		.byte	0x4
 3202 1f0a 7E02     		.word	0x27e
 3203 1f0c 093E0000 		.long	0x3e09
 3204 1f10 03       		.byte	0x3
 3205 1f11 23       		.byte	0x23
 3206 1f12 9C07     		.uleb128 0x39c
 3207 1f14 00       		.byte	0x0
 3208 1f15 03       		.uleb128 0x3
 3209 1f16 4A617661 		.ascii "JavaVM\0"
 3209      564D00
 3210 1f1d 04       		.byte	0x4
 3211 1f1e 79       		.byte	0x79
 3212 1f1f 231F0000 		.long	0x1f23
 3213 1f23 07       		.uleb128 0x7
 3214 1f24 04       		.byte	0x4
 3215 1f25 291F0000 		.long	0x1f29
 3216 1f29 09       		.uleb128 0x9
 3217 1f2a 3A000000 		.secrel32	LASF4
 3218 1f2e 321F0000 		.long	0x1f32
 3219 1f32 0E       		.uleb128 0xe
 3220 1f33 3A000000 		.secrel32	LASF4
 3221 1f37 20       		.byte	0x20
 3222 1f38 04       		.byte	0x4
 3223 1f39 79       		.byte	0x79
 3224 1f3a FC1F0000 		.long	0x1ffc
 3225 1f3e 0F       		.uleb128 0xf
 3226 1f3f 1C000000 		.secrel32	LASF0
 3227 1f43 04       		.byte	0x4
 3228 1f44 0006     		.word	0x600
 3229 1f46 4E010000 		.long	0x14e
 3230 1f4a 02       		.byte	0x2
 3231 1f4b 23       		.byte	0x23
 3232 1f4c 00       		.uleb128 0x0
 3233 1f4d 0F       		.uleb128 0xf
 3234 1f4e 26000000 		.secrel32	LASF1
 3235 1f52 04       		.byte	0x4
 3236 1f53 0106     		.word	0x601
 3237 1f55 4E010000 		.long	0x14e
 3238 1f59 02       		.byte	0x2
 3239 1f5a 23       		.byte	0x23
 3240 1f5b 04       		.uleb128 0x4
 3241 1f5c 0F       		.uleb128 0xf
 3242 1f5d 30000000 		.secrel32	LASF2
 3243 1f61 04       		.byte	0x4
 3244 1f62 0206     		.word	0x602
 3245 1f64 4E010000 		.long	0x14e
 3246 1f68 02       		.byte	0x2
 3247 1f69 23       		.byte	0x23
 3248 1f6a 08       		.uleb128 0x8
 3249 1f6b 0D       		.uleb128 0xd
 3250 1f6c 44657374 		.ascii "DestroyJavaVM\0"
 3250      726F794A 
 3250      61766156 
 3250      4D00
 3251 1f7a 04       		.byte	0x4
 3252 1f7b 0406     		.word	0x604
GAS LISTING /cygdrive/c/Users/THESCI~1/AppData/Local/Temp/cchZ1Zdn.s 			page 81


 3253 1f7d 1F3E0000 		.long	0x3e1f
 3254 1f81 02       		.byte	0x2
 3255 1f82 23       		.byte	0x23
 3256 1f83 0C       		.uleb128 0xc
 3257 1f84 0D       		.uleb128 0xd
 3258 1f85 41747461 		.ascii "AttachCurrentThread\0"
 3258      63684375 
 3258      7272656E 
 3258      74546872 
 3258      65616400 
 3259 1f99 04       		.byte	0x4
 3260 1f9a 0506     		.word	0x605
 3261 1f9c 453E0000 		.long	0x3e45
 3262 1fa0 02       		.byte	0x2
 3263 1fa1 23       		.byte	0x23
 3264 1fa2 10       		.uleb128 0x10
 3265 1fa3 0D       		.uleb128 0xd
 3266 1fa4 44657461 		.ascii "DetachCurrentThread\0"
 3266      63684375 
 3266      7272656E 
 3266      74546872 
 3266      65616400 
 3267 1fb8 04       		.byte	0x4
 3268 1fb9 0606     		.word	0x606
 3269 1fbb 1F3E0000 		.long	0x3e1f
 3270 1fbf 02       		.byte	0x2
 3271 1fc0 23       		.byte	0x23
 3272 1fc1 14       		.uleb128 0x14
 3273 1fc2 0D       		.uleb128 0xd
 3274 1fc3 47657445 		.ascii "GetEnv\0"
 3274      6E7600
 3275 1fca 04       		.byte	0x4
 3276 1fcb 0706     		.word	0x607
 3277 1fcd 653E0000 		.long	0x3e65
 3278 1fd1 02       		.byte	0x2
 3279 1fd2 23       		.byte	0x23
 3280 1fd3 18       		.uleb128 0x18
 3281 1fd4 0D       		.uleb128 0xd
 3282 1fd5 41747461 		.ascii "AttachCurrentThreadAsDaemon\0"
 3282      63684375 
 3282      7272656E 
 3282      74546872 
 3282      65616441 
 3283 1ff1 04       		.byte	0x4
 3284 1ff2 0806     		.word	0x608
 3285 1ff4 453E0000 		.long	0x3e45
 3286 1ff8 02       		.byte	0x2
 3287 1ff9 23       		.byte	0x23
 3288 1ffa 1C       		.uleb128 0x1c
 3289 1ffb 00       		.byte	0x0
 3290 1ffc 03       		.uleb128 0x3
 3291 1ffd 6A666965 		.ascii "jfieldID\0"
 3291      6C644944 
 3291      00
 3292 2006 04       		.byte	0x4
 3293 2007 89       		.byte	0x89
 3294 2008 0C200000 		.long	0x200c
GAS LISTING /cygdrive/c/Users/THESCI~1/AppData/Local/Temp/cchZ1Zdn.s 			page 82


 3295 200c 07       		.uleb128 0x7
 3296 200d 04       		.byte	0x4
 3297 200e 12200000 		.long	0x2012
 3298 2012 10       		.uleb128 0x10
 3299 2013 5F6A6669 		.ascii "_jfieldID\0"
 3299      656C6449 
 3299      4400
 3300 201d 01       		.byte	0x1
 3301 201e 03       		.uleb128 0x3
 3302 201f 6A6D6574 		.ascii "jmethodID\0"
 3302      686F6449 
 3302      4400
 3303 2029 04       		.byte	0x4
 3304 202a 8A       		.byte	0x8a
 3305 202b 2F200000 		.long	0x202f
 3306 202f 07       		.uleb128 0x7
 3307 2030 04       		.byte	0x4
 3308 2031 35200000 		.long	0x2035
 3309 2035 10       		.uleb128 0x10
 3310 2036 5F6A6D65 		.ascii "_jmethodID\0"
 3310      74686F64 
 3310      494400
 3311 2041 01       		.byte	0x1
 3312 2042 11       		.uleb128 0x11
 3313 2043 6A76616C 		.ascii "jvalue\0"
 3313      756500
 3314 204a 08       		.byte	0x8
 3315 204b 04       		.byte	0x4
 3316 204c BD       		.byte	0xbd
 3317 204d A3200000 		.long	0x20a3
 3318 2051 12       		.uleb128 0x12
 3319 2052 7A00     		.ascii "z\0"
 3320 2054 04       		.byte	0x4
 3321 2055 BE       		.byte	0xbe
 3322 2056 C8010000 		.long	0x1c8
 3323 205a 12       		.uleb128 0x12
 3324 205b 6200     		.ascii "b\0"
 3325 205d 04       		.byte	0x4
 3326 205e BF       		.byte	0xbf
 3327 205f 94010000 		.long	0x194
 3328 2063 12       		.uleb128 0x12
 3329 2064 6300     		.ascii "c\0"
 3330 2066 04       		.byte	0x4
 3331 2067 C0       		.byte	0xc0
 3332 2068 D8010000 		.long	0x1d8
 3333 206c 12       		.uleb128 0x12
 3334 206d 7300     		.ascii "s\0"
 3335 206f 04       		.byte	0x4
 3336 2070 C1       		.byte	0xc1
 3337 2071 A1010000 		.long	0x1a1
 3338 2075 12       		.uleb128 0x12
 3339 2076 6900     		.ascii "i\0"
 3340 2078 04       		.byte	0x4
 3341 2079 C2       		.byte	0xc2
 3342 207a AF010000 		.long	0x1af
 3343 207e 12       		.uleb128 0x12
 3344 207f 6A00     		.ascii "j\0"
GAS LISTING /cygdrive/c/Users/THESCI~1/AppData/Local/Temp/cchZ1Zdn.s 			page 83


 3345 2081 04       		.byte	0x4
 3346 2082 C3       		.byte	0xc3
 3347 2083 BB010000 		.long	0x1bb
 3348 2087 12       		.uleb128 0x12
 3349 2088 6600     		.ascii "f\0"
 3350 208a 04       		.byte	0x4
 3351 208b C4       		.byte	0xc4
 3352 208c E5010000 		.long	0x1e5
 3353 2090 12       		.uleb128 0x12
 3354 2091 6400     		.ascii "d\0"
 3355 2093 04       		.byte	0x4
 3356 2094 C5       		.byte	0xc5
 3357 2095 FC010000 		.long	0x1fc
 3358 2099 12       		.uleb128 0x12
 3359 209a 6C00     		.ascii "l\0"
 3360 209c 04       		.byte	0x4
 3361 209d C6       		.byte	0xc6
 3362 209e 22020000 		.long	0x222
 3363 20a2 00       		.byte	0x0
 3364 20a3 03       		.uleb128 0x3
 3365 20a4 6A76616C 		.ascii "jvalue\0"
 3365      756500
 3366 20ab 04       		.byte	0x4
 3367 20ac C7       		.byte	0xc7
 3368 20ad 42200000 		.long	0x2042
 3369 20b1 13       		.uleb128 0x13
 3370 20b2 0C       		.byte	0xc
 3371 20b3 04       		.byte	0x4
 3372 20b4 CB       		.byte	0xcb
 3373 20b5 ED200000 		.long	0x20ed
 3374 20b9 0C       		.uleb128 0xc
 3375 20ba 6E616D65 		.ascii "name\0"
 3375      00
 3376 20bf 04       		.byte	0x4
 3377 20c0 CC       		.byte	0xcc
 3378 20c1 74010000 		.long	0x174
 3379 20c5 02       		.byte	0x2
 3380 20c6 23       		.byte	0x23
 3381 20c7 00       		.uleb128 0x0
 3382 20c8 0C       		.uleb128 0xc
 3383 20c9 7369676E 		.ascii "signature\0"
 3383      61747572 
 3383      6500
 3384 20d3 04       		.byte	0x4
 3385 20d4 CD       		.byte	0xcd
 3386 20d5 74010000 		.long	0x174
 3387 20d9 02       		.byte	0x2
 3388 20da 23       		.byte	0x23
 3389 20db 04       		.uleb128 0x4
 3390 20dc 0C       		.uleb128 0xc
 3391 20dd 666E5074 		.ascii "fnPtr\0"
 3391      7200
 3392 20e3 04       		.byte	0x4
 3393 20e4 CE       		.byte	0xce
 3394 20e5 4E010000 		.long	0x14e
 3395 20e9 02       		.byte	0x2
 3396 20ea 23       		.byte	0x23
GAS LISTING /cygdrive/c/Users/THESCI~1/AppData/Local/Temp/cchZ1Zdn.s 			page 84


 3397 20eb 08       		.uleb128 0x8
 3398 20ec 00       		.byte	0x0
 3399 20ed 03       		.uleb128 0x3
 3400 20ee 4A4E494E 		.ascii "JNINativeMethod\0"
 3400      61746976 
 3400      654D6574 
 3400      686F6400 
 3401 20fe 04       		.byte	0x4
 3402 20ff CF       		.byte	0xcf
 3403 2100 B1200000 		.long	0x20b1
 3404 2104 14       		.uleb128 0x14
 3405 2105 01       		.byte	0x1
 3406 2106 AF010000 		.long	0x1af
 3407 210a 14210000 		.long	0x2114
 3408 210e 15       		.uleb128 0x15
 3409 210f 14210000 		.long	0x2114
 3410 2113 00       		.byte	0x0
 3411 2114 07       		.uleb128 0x7
 3412 2115 04       		.byte	0x4
 3413 2116 25030000 		.long	0x325
 3414 211a 07       		.uleb128 0x7
 3415 211b 04       		.byte	0x4
 3416 211c 04210000 		.long	0x2104
 3417 2120 14       		.uleb128 0x14
 3418 2121 01       		.byte	0x1
 3419 2122 31020000 		.long	0x231
 3420 2126 44210000 		.long	0x2144
 3421 212a 15       		.uleb128 0x15
 3422 212b 14210000 		.long	0x2114
 3423 212f 15       		.uleb128 0x15
 3424 2130 7A010000 		.long	0x17a
 3425 2134 15       		.uleb128 0x15
 3426 2135 22020000 		.long	0x222
 3427 2139 15       		.uleb128 0x15
 3428 213a 44210000 		.long	0x2144
 3429 213e 15       		.uleb128 0x15
 3430 213f 15020000 		.long	0x215
 3431 2143 00       		.byte	0x0
 3432 2144 07       		.uleb128 0x7
 3433 2145 04       		.byte	0x4
 3434 2146 4A210000 		.long	0x214a
 3435 214a 08       		.uleb128 0x8
 3436 214b 94010000 		.long	0x194
 3437 214f 07       		.uleb128 0x7
 3438 2150 04       		.byte	0x4
 3439 2151 20210000 		.long	0x2120
 3440 2155 14       		.uleb128 0x14
 3441 2156 01       		.byte	0x1
 3442 2157 31020000 		.long	0x231
 3443 215b 6A210000 		.long	0x216a
 3444 215f 15       		.uleb128 0x15
 3445 2160 14210000 		.long	0x2114
 3446 2164 15       		.uleb128 0x15
 3447 2165 7A010000 		.long	0x17a
 3448 2169 00       		.byte	0x0
 3449 216a 07       		.uleb128 0x7
 3450 216b 04       		.byte	0x4
GAS LISTING /cygdrive/c/Users/THESCI~1/AppData/Local/Temp/cchZ1Zdn.s 			page 85


 3451 216c 55210000 		.long	0x2155
 3452 2170 14       		.uleb128 0x14
 3453 2171 01       		.byte	0x1
 3454 2172 1E200000 		.long	0x201e
 3455 2176 85210000 		.long	0x2185
 3456 217a 15       		.uleb128 0x15
 3457 217b 14210000 		.long	0x2114
 3458 217f 15       		.uleb128 0x15
 3459 2180 22020000 		.long	0x222
 3460 2184 00       		.byte	0x0
 3461 2185 07       		.uleb128 0x7
 3462 2186 04       		.byte	0x4
 3463 2187 70210000 		.long	0x2170
 3464 218b 14       		.uleb128 0x14
 3465 218c 01       		.byte	0x1
 3466 218d FC1F0000 		.long	0x1ffc
 3467 2191 A0210000 		.long	0x21a0
 3468 2195 15       		.uleb128 0x15
 3469 2196 14210000 		.long	0x2114
 3470 219a 15       		.uleb128 0x15
 3471 219b 22020000 		.long	0x222
 3472 219f 00       		.byte	0x0
 3473 21a0 07       		.uleb128 0x7
 3474 21a1 04       		.byte	0x4
 3475 21a2 8B210000 		.long	0x218b
 3476 21a6 14       		.uleb128 0x14
 3477 21a7 01       		.byte	0x1
 3478 21a8 22020000 		.long	0x222
 3479 21ac C5210000 		.long	0x21c5
 3480 21b0 15       		.uleb128 0x15
 3481 21b1 14210000 		.long	0x2114
 3482 21b5 15       		.uleb128 0x15
 3483 21b6 31020000 		.long	0x231
 3484 21ba 15       		.uleb128 0x15
 3485 21bb 1E200000 		.long	0x201e
 3486 21bf 15       		.uleb128 0x15
 3487 21c0 C8010000 		.long	0x1c8
 3488 21c4 00       		.byte	0x0
 3489 21c5 07       		.uleb128 0x7
 3490 21c6 04       		.byte	0x4
 3491 21c7 A6210000 		.long	0x21a6
 3492 21cb 14       		.uleb128 0x14
 3493 21cc 01       		.byte	0x1
 3494 21cd 31020000 		.long	0x231
 3495 21d1 E0210000 		.long	0x21e0
 3496 21d5 15       		.uleb128 0x15
 3497 21d6 14210000 		.long	0x2114
 3498 21da 15       		.uleb128 0x15
 3499 21db 31020000 		.long	0x231
 3500 21df 00       		.byte	0x0
 3501 21e0 07       		.uleb128 0x7
 3502 21e1 04       		.byte	0x4
 3503 21e2 CB210000 		.long	0x21cb
 3504 21e6 14       		.uleb128 0x14
 3505 21e7 01       		.byte	0x1
 3506 21e8 C8010000 		.long	0x1c8
 3507 21ec 00220000 		.long	0x2200
GAS LISTING /cygdrive/c/Users/THESCI~1/AppData/Local/Temp/cchZ1Zdn.s 			page 86


 3508 21f0 15       		.uleb128 0x15
 3509 21f1 14210000 		.long	0x2114
 3510 21f5 15       		.uleb128 0x15
 3511 21f6 31020000 		.long	0x231
 3512 21fa 15       		.uleb128 0x15
 3513 21fb 31020000 		.long	0x231
 3514 21ff 00       		.byte	0x0
 3515 2200 07       		.uleb128 0x7
 3516 2201 04       		.byte	0x4
 3517 2202 E6210000 		.long	0x21e6
 3518 2206 14       		.uleb128 0x14
 3519 2207 01       		.byte	0x1
 3520 2208 22020000 		.long	0x222
 3521 220c 25220000 		.long	0x2225
 3522 2210 15       		.uleb128 0x15
 3523 2211 14210000 		.long	0x2114
 3524 2215 15       		.uleb128 0x15
 3525 2216 31020000 		.long	0x231
 3526 221a 15       		.uleb128 0x15
 3527 221b FC1F0000 		.long	0x1ffc
 3528 221f 15       		.uleb128 0x15
 3529 2220 C8010000 		.long	0x1c8
 3530 2224 00       		.byte	0x0
 3531 2225 07       		.uleb128 0x7
 3532 2226 04       		.byte	0x4
 3533 2227 06220000 		.long	0x2206
 3534 222b 14       		.uleb128 0x14
 3535 222c 01       		.byte	0x1
 3536 222d AF010000 		.long	0x1af
 3537 2231 40220000 		.long	0x2240
 3538 2235 15       		.uleb128 0x15
 3539 2236 14210000 		.long	0x2114
 3540 223a 15       		.uleb128 0x15
 3541 223b 4E020000 		.long	0x24e
 3542 223f 00       		.byte	0x0
 3543 2240 07       		.uleb128 0x7
 3544 2241 04       		.byte	0x4
 3545 2242 2B220000 		.long	0x222b
 3546 2246 14       		.uleb128 0x14
 3547 2247 01       		.byte	0x1
 3548 2248 AF010000 		.long	0x1af
 3549 224c 60220000 		.long	0x2260
 3550 2250 15       		.uleb128 0x15
 3551 2251 14210000 		.long	0x2114
 3552 2255 15       		.uleb128 0x15
 3553 2256 31020000 		.long	0x231
 3554 225a 15       		.uleb128 0x15
 3555 225b 7A010000 		.long	0x17a
 3556 225f 00       		.byte	0x0
 3557 2260 07       		.uleb128 0x7
 3558 2261 04       		.byte	0x4
 3559 2262 46220000 		.long	0x2246
 3560 2266 14       		.uleb128 0x14
 3561 2267 01       		.byte	0x1
 3562 2268 4E020000 		.long	0x24e
 3563 226c 76220000 		.long	0x2276
 3564 2270 15       		.uleb128 0x15
GAS LISTING /cygdrive/c/Users/THESCI~1/AppData/Local/Temp/cchZ1Zdn.s 			page 87


 3565 2271 14210000 		.long	0x2114
 3566 2275 00       		.byte	0x0
 3567 2276 07       		.uleb128 0x7
 3568 2277 04       		.byte	0x4
 3569 2278 66220000 		.long	0x2266
 3570 227c 16       		.uleb128 0x16
 3571 227d 01       		.byte	0x1
 3572 227e 88220000 		.long	0x2288
 3573 2282 15       		.uleb128 0x15
 3574 2283 14210000 		.long	0x2114
 3575 2287 00       		.byte	0x0
 3576 2288 07       		.uleb128 0x7
 3577 2289 04       		.byte	0x4
 3578 228a 7C220000 		.long	0x227c
 3579 228e 16       		.uleb128 0x16
 3580 228f 01       		.byte	0x1
 3581 2290 9F220000 		.long	0x229f
 3582 2294 15       		.uleb128 0x15
 3583 2295 14210000 		.long	0x2114
 3584 2299 15       		.uleb128 0x15
 3585 229a 7A010000 		.long	0x17a
 3586 229e 00       		.byte	0x0
 3587 229f 07       		.uleb128 0x7
 3588 22a0 04       		.byte	0x4
 3589 22a1 8E220000 		.long	0x228e
 3590 22a5 14       		.uleb128 0x14
 3591 22a6 01       		.byte	0x1
 3592 22a7 AF010000 		.long	0x1af
 3593 22ab BA220000 		.long	0x22ba
 3594 22af 15       		.uleb128 0x15
 3595 22b0 14210000 		.long	0x2114
 3596 22b4 15       		.uleb128 0x15
 3597 22b5 AF010000 		.long	0x1af
 3598 22b9 00       		.byte	0x0
 3599 22ba 07       		.uleb128 0x7
 3600 22bb 04       		.byte	0x4
 3601 22bc A5220000 		.long	0x22a5
 3602 22c0 14       		.uleb128 0x14
 3603 22c1 01       		.byte	0x1
 3604 22c2 22020000 		.long	0x222
 3605 22c6 D5220000 		.long	0x22d5
 3606 22ca 15       		.uleb128 0x15
 3607 22cb 14210000 		.long	0x2114
 3608 22cf 15       		.uleb128 0x15
 3609 22d0 22020000 		.long	0x222
 3610 22d4 00       		.byte	0x0
 3611 22d5 07       		.uleb128 0x7
 3612 22d6 04       		.byte	0x4
 3613 22d7 C0220000 		.long	0x22c0
 3614 22db 16       		.uleb128 0x16
 3615 22dc 01       		.byte	0x1
 3616 22dd EC220000 		.long	0x22ec
 3617 22e1 15       		.uleb128 0x15
 3618 22e2 14210000 		.long	0x2114
 3619 22e6 15       		.uleb128 0x15
 3620 22e7 22020000 		.long	0x222
 3621 22eb 00       		.byte	0x0
GAS LISTING /cygdrive/c/Users/THESCI~1/AppData/Local/Temp/cchZ1Zdn.s 			page 88


 3622 22ec 07       		.uleb128 0x7
 3623 22ed 04       		.byte	0x4
 3624 22ee DB220000 		.long	0x22db
 3625 22f2 14       		.uleb128 0x14
 3626 22f3 01       		.byte	0x1
 3627 22f4 C8010000 		.long	0x1c8
 3628 22f8 0C230000 		.long	0x230c
 3629 22fc 15       		.uleb128 0x15
 3630 22fd 14210000 		.long	0x2114
 3631 2301 15       		.uleb128 0x15
 3632 2302 22020000 		.long	0x222
 3633 2306 15       		.uleb128 0x15
 3634 2307 22020000 		.long	0x222
 3635 230b 00       		.byte	0x0
 3636 230c 07       		.uleb128 0x7
 3637 230d 04       		.byte	0x4
 3638 230e F2220000 		.long	0x22f2
 3639 2312 14       		.uleb128 0x14
 3640 2313 01       		.byte	0x1
 3641 2314 22020000 		.long	0x222
 3642 2318 27230000 		.long	0x2327
 3643 231c 15       		.uleb128 0x15
 3644 231d 14210000 		.long	0x2114
 3645 2321 15       		.uleb128 0x15
 3646 2322 31020000 		.long	0x231
 3647 2326 00       		.byte	0x0
 3648 2327 07       		.uleb128 0x7
 3649 2328 04       		.byte	0x4
 3650 2329 12230000 		.long	0x2312
 3651 232d 14       		.uleb128 0x14
 3652 232e 01       		.byte	0x1
 3653 232f 22020000 		.long	0x222
 3654 2333 48230000 		.long	0x2348
 3655 2337 15       		.uleb128 0x15
 3656 2338 14210000 		.long	0x2114
 3657 233c 15       		.uleb128 0x15
 3658 233d 31020000 		.long	0x231
 3659 2341 15       		.uleb128 0x15
 3660 2342 1E200000 		.long	0x201e
 3661 2346 17       		.uleb128 0x17
 3662 2347 00       		.byte	0x0
 3663 2348 07       		.uleb128 0x7
 3664 2349 04       		.byte	0x4
 3665 234a 2D230000 		.long	0x232d
 3666 234e 14       		.uleb128 0x14
 3667 234f 01       		.byte	0x1
 3668 2350 22020000 		.long	0x222
 3669 2354 6D230000 		.long	0x236d
 3670 2358 15       		.uleb128 0x15
 3671 2359 14210000 		.long	0x2114
 3672 235d 15       		.uleb128 0x15
 3673 235e 31020000 		.long	0x231
 3674 2362 15       		.uleb128 0x15
 3675 2363 1E200000 		.long	0x201e
 3676 2367 15       		.uleb128 0x15
 3677 2368 85010000 		.long	0x185
 3678 236c 00       		.byte	0x0
GAS LISTING /cygdrive/c/Users/THESCI~1/AppData/Local/Temp/cchZ1Zdn.s 			page 89


 3679 236d 07       		.uleb128 0x7
 3680 236e 04       		.byte	0x4
 3681 236f 4E230000 		.long	0x234e
 3682 2373 14       		.uleb128 0x14
 3683 2374 01       		.byte	0x1
 3684 2375 22020000 		.long	0x222
 3685 2379 92230000 		.long	0x2392
 3686 237d 15       		.uleb128 0x15
 3687 237e 14210000 		.long	0x2114
 3688 2382 15       		.uleb128 0x15
 3689 2383 31020000 		.long	0x231
 3690 2387 15       		.uleb128 0x15
 3691 2388 1E200000 		.long	0x201e
 3692 238c 15       		.uleb128 0x15
 3693 238d 92230000 		.long	0x2392
 3694 2391 00       		.byte	0x0
 3695 2392 07       		.uleb128 0x7
 3696 2393 04       		.byte	0x4
 3697 2394 98230000 		.long	0x2398
 3698 2398 08       		.uleb128 0x8
 3699 2399 A3200000 		.long	0x20a3
 3700 239d 07       		.uleb128 0x7
 3701 239e 04       		.byte	0x4
 3702 239f 73230000 		.long	0x2373
 3703 23a3 14       		.uleb128 0x14
 3704 23a4 01       		.byte	0x1
 3705 23a5 31020000 		.long	0x231
 3706 23a9 B8230000 		.long	0x23b8
 3707 23ad 15       		.uleb128 0x15
 3708 23ae 14210000 		.long	0x2114
 3709 23b2 15       		.uleb128 0x15
 3710 23b3 22020000 		.long	0x222
 3711 23b7 00       		.byte	0x0
 3712 23b8 07       		.uleb128 0x7
 3713 23b9 04       		.byte	0x4
 3714 23ba A3230000 		.long	0x23a3
 3715 23be 14       		.uleb128 0x14
 3716 23bf 01       		.byte	0x1
 3717 23c0 C8010000 		.long	0x1c8
 3718 23c4 D8230000 		.long	0x23d8
 3719 23c8 15       		.uleb128 0x15
 3720 23c9 14210000 		.long	0x2114
 3721 23cd 15       		.uleb128 0x15
 3722 23ce 22020000 		.long	0x222
 3723 23d2 15       		.uleb128 0x15
 3724 23d3 31020000 		.long	0x231
 3725 23d7 00       		.byte	0x0
 3726 23d8 07       		.uleb128 0x7
 3727 23d9 04       		.byte	0x4
 3728 23da BE230000 		.long	0x23be
 3729 23de 14       		.uleb128 0x14
 3730 23df 01       		.byte	0x1
 3731 23e0 1E200000 		.long	0x201e
 3732 23e4 FD230000 		.long	0x23fd
 3733 23e8 15       		.uleb128 0x15
 3734 23e9 14210000 		.long	0x2114
 3735 23ed 15       		.uleb128 0x15
GAS LISTING /cygdrive/c/Users/THESCI~1/AppData/Local/Temp/cchZ1Zdn.s 			page 90


 3736 23ee 31020000 		.long	0x231
 3737 23f2 15       		.uleb128 0x15
 3738 23f3 7A010000 		.long	0x17a
 3739 23f7 15       		.uleb128 0x15
 3740 23f8 7A010000 		.long	0x17a
 3741 23fc 00       		.byte	0x0
 3742 23fd 07       		.uleb128 0x7
 3743 23fe 04       		.byte	0x4
 3744 23ff DE230000 		.long	0x23de
 3745 2403 14       		.uleb128 0x14
 3746 2404 01       		.byte	0x1
 3747 2405 22020000 		.long	0x222
 3748 2409 1E240000 		.long	0x241e
 3749 240d 15       		.uleb128 0x15
 3750 240e 14210000 		.long	0x2114
 3751 2412 15       		.uleb128 0x15
 3752 2413 22020000 		.long	0x222
 3753 2417 15       		.uleb128 0x15
 3754 2418 1E200000 		.long	0x201e
 3755 241c 17       		.uleb128 0x17
 3756 241d 00       		.byte	0x0
 3757 241e 07       		.uleb128 0x7
 3758 241f 04       		.byte	0x4
 3759 2420 03240000 		.long	0x2403
 3760 2424 14       		.uleb128 0x14
 3761 2425 01       		.byte	0x1
 3762 2426 22020000 		.long	0x222
 3763 242a 43240000 		.long	0x2443
 3764 242e 15       		.uleb128 0x15
 3765 242f 14210000 		.long	0x2114
 3766 2433 15       		.uleb128 0x15
 3767 2434 22020000 		.long	0x222
 3768 2438 15       		.uleb128 0x15
 3769 2439 1E200000 		.long	0x201e
 3770 243d 15       		.uleb128 0x15
 3771 243e 85010000 		.long	0x185
 3772 2442 00       		.byte	0x0
 3773 2443 07       		.uleb128 0x7
 3774 2444 04       		.byte	0x4
 3775 2445 24240000 		.long	0x2424
 3776 2449 14       		.uleb128 0x14
 3777 244a 01       		.byte	0x1
 3778 244b 22020000 		.long	0x222
 3779 244f 68240000 		.long	0x2468
 3780 2453 15       		.uleb128 0x15
 3781 2454 14210000 		.long	0x2114
 3782 2458 15       		.uleb128 0x15
 3783 2459 22020000 		.long	0x222
 3784 245d 15       		.uleb128 0x15
 3785 245e 1E200000 		.long	0x201e
 3786 2462 15       		.uleb128 0x15
 3787 2463 92230000 		.long	0x2392
 3788 2467 00       		.byte	0x0
 3789 2468 07       		.uleb128 0x7
 3790 2469 04       		.byte	0x4
 3791 246a 49240000 		.long	0x2449
 3792 246e 14       		.uleb128 0x14
GAS LISTING /cygdrive/c/Users/THESCI~1/AppData/Local/Temp/cchZ1Zdn.s 			page 91


 3793 246f 01       		.byte	0x1
 3794 2470 C8010000 		.long	0x1c8
 3795 2474 89240000 		.long	0x2489
 3796 2478 15       		.uleb128 0x15
 3797 2479 14210000 		.long	0x2114
 3798 247d 15       		.uleb128 0x15
 3799 247e 22020000 		.long	0x222
 3800 2482 15       		.uleb128 0x15
 3801 2483 1E200000 		.long	0x201e
 3802 2487 17       		.uleb128 0x17
 3803 2488 00       		.byte	0x0
 3804 2489 07       		.uleb128 0x7
 3805 248a 04       		.byte	0x4
 3806 248b 6E240000 		.long	0x246e
 3807 248f 14       		.uleb128 0x14
 3808 2490 01       		.byte	0x1
 3809 2491 C8010000 		.long	0x1c8
 3810 2495 AE240000 		.long	0x24ae
 3811 2499 15       		.uleb128 0x15
 3812 249a 14210000 		.long	0x2114
 3813 249e 15       		.uleb128 0x15
 3814 249f 22020000 		.long	0x222
 3815 24a3 15       		.uleb128 0x15
 3816 24a4 1E200000 		.long	0x201e
 3817 24a8 15       		.uleb128 0x15
 3818 24a9 85010000 		.long	0x185
 3819 24ad 00       		.byte	0x0
 3820 24ae 07       		.uleb128 0x7
 3821 24af 04       		.byte	0x4
 3822 24b0 8F240000 		.long	0x248f
 3823 24b4 14       		.uleb128 0x14
 3824 24b5 01       		.byte	0x1
 3825 24b6 C8010000 		.long	0x1c8
 3826 24ba D3240000 		.long	0x24d3
 3827 24be 15       		.uleb128 0x15
 3828 24bf 14210000 		.long	0x2114
 3829 24c3 15       		.uleb128 0x15
 3830 24c4 22020000 		.long	0x222
 3831 24c8 15       		.uleb128 0x15
 3832 24c9 1E200000 		.long	0x201e
 3833 24cd 15       		.uleb128 0x15
 3834 24ce 92230000 		.long	0x2392
 3835 24d2 00       		.byte	0x0
 3836 24d3 07       		.uleb128 0x7
 3837 24d4 04       		.byte	0x4
 3838 24d5 B4240000 		.long	0x24b4
 3839 24d9 14       		.uleb128 0x14
 3840 24da 01       		.byte	0x1
 3841 24db 94010000 		.long	0x194
 3842 24df F4240000 		.long	0x24f4
 3843 24e3 15       		.uleb128 0x15
 3844 24e4 14210000 		.long	0x2114
 3845 24e8 15       		.uleb128 0x15
 3846 24e9 22020000 		.long	0x222
 3847 24ed 15       		.uleb128 0x15
 3848 24ee 1E200000 		.long	0x201e
 3849 24f2 17       		.uleb128 0x17
GAS LISTING /cygdrive/c/Users/THESCI~1/AppData/Local/Temp/cchZ1Zdn.s 			page 92


 3850 24f3 00       		.byte	0x0
 3851 24f4 07       		.uleb128 0x7
 3852 24f5 04       		.byte	0x4
 3853 24f6 D9240000 		.long	0x24d9
 3854 24fa 14       		.uleb128 0x14
 3855 24fb 01       		.byte	0x1
 3856 24fc 94010000 		.long	0x194
 3857 2500 19250000 		.long	0x2519
 3858 2504 15       		.uleb128 0x15
 3859 2505 14210000 		.long	0x2114
 3860 2509 15       		.uleb128 0x15
 3861 250a 22020000 		.long	0x222
 3862 250e 15       		.uleb128 0x15
 3863 250f 1E200000 		.long	0x201e
 3864 2513 15       		.uleb128 0x15
 3865 2514 85010000 		.long	0x185
 3866 2518 00       		.byte	0x0
 3867 2519 07       		.uleb128 0x7
 3868 251a 04       		.byte	0x4
 3869 251b FA240000 		.long	0x24fa
 3870 251f 14       		.uleb128 0x14
 3871 2520 01       		.byte	0x1
 3872 2521 94010000 		.long	0x194
 3873 2525 3E250000 		.long	0x253e
 3874 2529 15       		.uleb128 0x15
 3875 252a 14210000 		.long	0x2114
 3876 252e 15       		.uleb128 0x15
 3877 252f 22020000 		.long	0x222
 3878 2533 15       		.uleb128 0x15
 3879 2534 1E200000 		.long	0x201e
 3880 2538 15       		.uleb128 0x15
 3881 2539 92230000 		.long	0x2392
 3882 253d 00       		.byte	0x0
 3883 253e 07       		.uleb128 0x7
 3884 253f 04       		.byte	0x4
 3885 2540 1F250000 		.long	0x251f
 3886 2544 14       		.uleb128 0x14
 3887 2545 01       		.byte	0x1
 3888 2546 D8010000 		.long	0x1d8
 3889 254a 5F250000 		.long	0x255f
 3890 254e 15       		.uleb128 0x15
 3891 254f 14210000 		.long	0x2114
 3892 2553 15       		.uleb128 0x15
 3893 2554 22020000 		.long	0x222
 3894 2558 15       		.uleb128 0x15
 3895 2559 1E200000 		.long	0x201e
 3896 255d 17       		.uleb128 0x17
 3897 255e 00       		.byte	0x0
 3898 255f 07       		.uleb128 0x7
 3899 2560 04       		.byte	0x4
 3900 2561 44250000 		.long	0x2544
 3901 2565 14       		.uleb128 0x14
 3902 2566 01       		.byte	0x1
 3903 2567 D8010000 		.long	0x1d8
 3904 256b 84250000 		.long	0x2584
 3905 256f 15       		.uleb128 0x15
 3906 2570 14210000 		.long	0x2114
GAS LISTING /cygdrive/c/Users/THESCI~1/AppData/Local/Temp/cchZ1Zdn.s 			page 93


 3907 2574 15       		.uleb128 0x15
 3908 2575 22020000 		.long	0x222
 3909 2579 15       		.uleb128 0x15
 3910 257a 1E200000 		.long	0x201e
 3911 257e 15       		.uleb128 0x15
 3912 257f 85010000 		.long	0x185
 3913 2583 00       		.byte	0x0
 3914 2584 07       		.uleb128 0x7
 3915 2585 04       		.byte	0x4
 3916 2586 65250000 		.long	0x2565
 3917 258a 14       		.uleb128 0x14
 3918 258b 01       		.byte	0x1
 3919 258c D8010000 		.long	0x1d8
 3920 2590 A9250000 		.long	0x25a9
 3921 2594 15       		.uleb128 0x15
 3922 2595 14210000 		.long	0x2114
 3923 2599 15       		.uleb128 0x15
 3924 259a 22020000 		.long	0x222
 3925 259e 15       		.uleb128 0x15
 3926 259f 1E200000 		.long	0x201e
 3927 25a3 15       		.uleb128 0x15
 3928 25a4 92230000 		.long	0x2392
 3929 25a8 00       		.byte	0x0
 3930 25a9 07       		.uleb128 0x7
 3931 25aa 04       		.byte	0x4
 3932 25ab 8A250000 		.long	0x258a
 3933 25af 14       		.uleb128 0x14
 3934 25b0 01       		.byte	0x1
 3935 25b1 A1010000 		.long	0x1a1
 3936 25b5 CA250000 		.long	0x25ca
 3937 25b9 15       		.uleb128 0x15
 3938 25ba 14210000 		.long	0x2114
 3939 25be 15       		.uleb128 0x15
 3940 25bf 22020000 		.long	0x222
 3941 25c3 15       		.uleb128 0x15
 3942 25c4 1E200000 		.long	0x201e
 3943 25c8 17       		.uleb128 0x17
 3944 25c9 00       		.byte	0x0
 3945 25ca 07       		.uleb128 0x7
 3946 25cb 04       		.byte	0x4
 3947 25cc AF250000 		.long	0x25af
 3948 25d0 14       		.uleb128 0x14
 3949 25d1 01       		.byte	0x1
 3950 25d2 A1010000 		.long	0x1a1
 3951 25d6 EF250000 		.long	0x25ef
 3952 25da 15       		.uleb128 0x15
 3953 25db 14210000 		.long	0x2114
 3954 25df 15       		.uleb128 0x15
 3955 25e0 22020000 		.long	0x222
 3956 25e4 15       		.uleb128 0x15
 3957 25e5 1E200000 		.long	0x201e
 3958 25e9 15       		.uleb128 0x15
 3959 25ea 85010000 		.long	0x185
 3960 25ee 00       		.byte	0x0
 3961 25ef 07       		.uleb128 0x7
 3962 25f0 04       		.byte	0x4
 3963 25f1 D0250000 		.long	0x25d0
GAS LISTING /cygdrive/c/Users/THESCI~1/AppData/Local/Temp/cchZ1Zdn.s 			page 94


 3964 25f5 14       		.uleb128 0x14
 3965 25f6 01       		.byte	0x1
 3966 25f7 A1010000 		.long	0x1a1
 3967 25fb 14260000 		.long	0x2614
 3968 25ff 15       		.uleb128 0x15
 3969 2600 14210000 		.long	0x2114
 3970 2604 15       		.uleb128 0x15
 3971 2605 22020000 		.long	0x222
 3972 2609 15       		.uleb128 0x15
 3973 260a 1E200000 		.long	0x201e
 3974 260e 15       		.uleb128 0x15
 3975 260f 92230000 		.long	0x2392
 3976 2613 00       		.byte	0x0
 3977 2614 07       		.uleb128 0x7
 3978 2615 04       		.byte	0x4
 3979 2616 F5250000 		.long	0x25f5
 3980 261a 14       		.uleb128 0x14
 3981 261b 01       		.byte	0x1
 3982 261c AF010000 		.long	0x1af
 3983 2620 35260000 		.long	0x2635
 3984 2624 15       		.uleb128 0x15
 3985 2625 14210000 		.long	0x2114
 3986 2629 15       		.uleb128 0x15
 3987 262a 22020000 		.long	0x222
 3988 262e 15       		.uleb128 0x15
 3989 262f 1E200000 		.long	0x201e
 3990 2633 17       		.uleb128 0x17
 3991 2634 00       		.byte	0x0
 3992 2635 07       		.uleb128 0x7
 3993 2636 04       		.byte	0x4
 3994 2637 1A260000 		.long	0x261a
 3995 263b 14       		.uleb128 0x14
 3996 263c 01       		.byte	0x1
 3997 263d AF010000 		.long	0x1af
 3998 2641 5A260000 		.long	0x265a
 3999 2645 15       		.uleb128 0x15
 4000 2646 14210000 		.long	0x2114
 4001 264a 15       		.uleb128 0x15
 4002 264b 22020000 		.long	0x222
 4003 264f 15       		.uleb128 0x15
 4004 2650 1E200000 		.long	0x201e
 4005 2654 15       		.uleb128 0x15
 4006 2655 85010000 		.long	0x185
 4007 2659 00       		.byte	0x0
 4008 265a 07       		.uleb128 0x7
 4009 265b 04       		.byte	0x4
 4010 265c 3B260000 		.long	0x263b
 4011 2660 14       		.uleb128 0x14
 4012 2661 01       		.byte	0x1
 4013 2662 AF010000 		.long	0x1af
 4014 2666 7F260000 		.long	0x267f
 4015 266a 15       		.uleb128 0x15
 4016 266b 14210000 		.long	0x2114
 4017 266f 15       		.uleb128 0x15
 4018 2670 22020000 		.long	0x222
 4019 2674 15       		.uleb128 0x15
 4020 2675 1E200000 		.long	0x201e
GAS LISTING /cygdrive/c/Users/THESCI~1/AppData/Local/Temp/cchZ1Zdn.s 			page 95


 4021 2679 15       		.uleb128 0x15
 4022 267a 92230000 		.long	0x2392
 4023 267e 00       		.byte	0x0
 4024 267f 07       		.uleb128 0x7
 4025 2680 04       		.byte	0x4
 4026 2681 60260000 		.long	0x2660
 4027 2685 14       		.uleb128 0x14
 4028 2686 01       		.byte	0x1
 4029 2687 BB010000 		.long	0x1bb
 4030 268b A0260000 		.long	0x26a0
 4031 268f 15       		.uleb128 0x15
 4032 2690 14210000 		.long	0x2114
 4033 2694 15       		.uleb128 0x15
 4034 2695 22020000 		.long	0x222
 4035 2699 15       		.uleb128 0x15
 4036 269a 1E200000 		.long	0x201e
 4037 269e 17       		.uleb128 0x17
 4038 269f 00       		.byte	0x0
 4039 26a0 07       		.uleb128 0x7
 4040 26a1 04       		.byte	0x4
 4041 26a2 85260000 		.long	0x2685
 4042 26a6 14       		.uleb128 0x14
 4043 26a7 01       		.byte	0x1
 4044 26a8 BB010000 		.long	0x1bb
 4045 26ac C5260000 		.long	0x26c5
 4046 26b0 15       		.uleb128 0x15
 4047 26b1 14210000 		.long	0x2114
 4048 26b5 15       		.uleb128 0x15
 4049 26b6 22020000 		.long	0x222
 4050 26ba 15       		.uleb128 0x15
 4051 26bb 1E200000 		.long	0x201e
 4052 26bf 15       		.uleb128 0x15
 4053 26c0 85010000 		.long	0x185
 4054 26c4 00       		.byte	0x0
 4055 26c5 07       		.uleb128 0x7
 4056 26c6 04       		.byte	0x4
 4057 26c7 A6260000 		.long	0x26a6
 4058 26cb 14       		.uleb128 0x14
 4059 26cc 01       		.byte	0x1
 4060 26cd BB010000 		.long	0x1bb
 4061 26d1 EA260000 		.long	0x26ea
 4062 26d5 15       		.uleb128 0x15
 4063 26d6 14210000 		.long	0x2114
 4064 26da 15       		.uleb128 0x15
 4065 26db 22020000 		.long	0x222
 4066 26df 15       		.uleb128 0x15
 4067 26e0 1E200000 		.long	0x201e
 4068 26e4 15       		.uleb128 0x15
 4069 26e5 92230000 		.long	0x2392
 4070 26e9 00       		.byte	0x0
 4071 26ea 07       		.uleb128 0x7
 4072 26eb 04       		.byte	0x4
 4073 26ec CB260000 		.long	0x26cb
 4074 26f0 14       		.uleb128 0x14
 4075 26f1 01       		.byte	0x1
 4076 26f2 E5010000 		.long	0x1e5
 4077 26f6 0B270000 		.long	0x270b
GAS LISTING /cygdrive/c/Users/THESCI~1/AppData/Local/Temp/cchZ1Zdn.s 			page 96


 4078 26fa 15       		.uleb128 0x15
 4079 26fb 14210000 		.long	0x2114
 4080 26ff 15       		.uleb128 0x15
 4081 2700 22020000 		.long	0x222
 4082 2704 15       		.uleb128 0x15
 4083 2705 1E200000 		.long	0x201e
 4084 2709 17       		.uleb128 0x17
 4085 270a 00       		.byte	0x0
 4086 270b 07       		.uleb128 0x7
 4087 270c 04       		.byte	0x4
 4088 270d F0260000 		.long	0x26f0
 4089 2711 14       		.uleb128 0x14
 4090 2712 01       		.byte	0x1
 4091 2713 E5010000 		.long	0x1e5
 4092 2717 30270000 		.long	0x2730
 4093 271b 15       		.uleb128 0x15
 4094 271c 14210000 		.long	0x2114
 4095 2720 15       		.uleb128 0x15
 4096 2721 22020000 		.long	0x222
 4097 2725 15       		.uleb128 0x15
 4098 2726 1E200000 		.long	0x201e
 4099 272a 15       		.uleb128 0x15
 4100 272b 85010000 		.long	0x185
 4101 272f 00       		.byte	0x0
 4102 2730 07       		.uleb128 0x7
 4103 2731 04       		.byte	0x4
 4104 2732 11270000 		.long	0x2711
 4105 2736 14       		.uleb128 0x14
 4106 2737 01       		.byte	0x1
 4107 2738 E5010000 		.long	0x1e5
 4108 273c 55270000 		.long	0x2755
 4109 2740 15       		.uleb128 0x15
 4110 2741 14210000 		.long	0x2114
 4111 2745 15       		.uleb128 0x15
 4112 2746 22020000 		.long	0x222
 4113 274a 15       		.uleb128 0x15
 4114 274b 1E200000 		.long	0x201e
 4115 274f 15       		.uleb128 0x15
 4116 2750 92230000 		.long	0x2392
 4117 2754 00       		.byte	0x0
 4118 2755 07       		.uleb128 0x7
 4119 2756 04       		.byte	0x4
 4120 2757 36270000 		.long	0x2736
 4121 275b 14       		.uleb128 0x14
 4122 275c 01       		.byte	0x1
 4123 275d FC010000 		.long	0x1fc
 4124 2761 76270000 		.long	0x2776
 4125 2765 15       		.uleb128 0x15
 4126 2766 14210000 		.long	0x2114
 4127 276a 15       		.uleb128 0x15
 4128 276b 22020000 		.long	0x222
 4129 276f 15       		.uleb128 0x15
 4130 2770 1E200000 		.long	0x201e
 4131 2774 17       		.uleb128 0x17
 4132 2775 00       		.byte	0x0
 4133 2776 07       		.uleb128 0x7
 4134 2777 04       		.byte	0x4
GAS LISTING /cygdrive/c/Users/THESCI~1/AppData/Local/Temp/cchZ1Zdn.s 			page 97


 4135 2778 5B270000 		.long	0x275b
 4136 277c 14       		.uleb128 0x14
 4137 277d 01       		.byte	0x1
 4138 277e FC010000 		.long	0x1fc
 4139 2782 9B270000 		.long	0x279b
 4140 2786 15       		.uleb128 0x15
 4141 2787 14210000 		.long	0x2114
 4142 278b 15       		.uleb128 0x15
 4143 278c 22020000 		.long	0x222
 4144 2790 15       		.uleb128 0x15
 4145 2791 1E200000 		.long	0x201e
 4146 2795 15       		.uleb128 0x15
 4147 2796 85010000 		.long	0x185
 4148 279a 00       		.byte	0x0
 4149 279b 07       		.uleb128 0x7
 4150 279c 04       		.byte	0x4
 4151 279d 7C270000 		.long	0x277c
 4152 27a1 14       		.uleb128 0x14
 4153 27a2 01       		.byte	0x1
 4154 27a3 FC010000 		.long	0x1fc
 4155 27a7 C0270000 		.long	0x27c0
 4156 27ab 15       		.uleb128 0x15
 4157 27ac 14210000 		.long	0x2114
 4158 27b0 15       		.uleb128 0x15
 4159 27b1 22020000 		.long	0x222
 4160 27b5 15       		.uleb128 0x15
 4161 27b6 1E200000 		.long	0x201e
 4162 27ba 15       		.uleb128 0x15
 4163 27bb 92230000 		.long	0x2392
 4164 27bf 00       		.byte	0x0
 4165 27c0 07       		.uleb128 0x7
 4166 27c1 04       		.byte	0x4
 4167 27c2 A1270000 		.long	0x27a1
 4168 27c6 16       		.uleb128 0x16
 4169 27c7 01       		.byte	0x1
 4170 27c8 DD270000 		.long	0x27dd
 4171 27cc 15       		.uleb128 0x15
 4172 27cd 14210000 		.long	0x2114
 4173 27d1 15       		.uleb128 0x15
 4174 27d2 22020000 		.long	0x222
 4175 27d6 15       		.uleb128 0x15
 4176 27d7 1E200000 		.long	0x201e
 4177 27db 17       		.uleb128 0x17
 4178 27dc 00       		.byte	0x0
 4179 27dd 07       		.uleb128 0x7
 4180 27de 04       		.byte	0x4
 4181 27df C6270000 		.long	0x27c6
 4182 27e3 16       		.uleb128 0x16
 4183 27e4 01       		.byte	0x1
 4184 27e5 FE270000 		.long	0x27fe
 4185 27e9 15       		.uleb128 0x15
 4186 27ea 14210000 		.long	0x2114
 4187 27ee 15       		.uleb128 0x15
 4188 27ef 22020000 		.long	0x222
 4189 27f3 15       		.uleb128 0x15
 4190 27f4 1E200000 		.long	0x201e
 4191 27f8 15       		.uleb128 0x15
GAS LISTING /cygdrive/c/Users/THESCI~1/AppData/Local/Temp/cchZ1Zdn.s 			page 98


 4192 27f9 85010000 		.long	0x185
 4193 27fd 00       		.byte	0x0
 4194 27fe 07       		.uleb128 0x7
 4195 27ff 04       		.byte	0x4
 4196 2800 E3270000 		.long	0x27e3
 4197 2804 16       		.uleb128 0x16
 4198 2805 01       		.byte	0x1
 4199 2806 1F280000 		.long	0x281f
 4200 280a 15       		.uleb128 0x15
 4201 280b 14210000 		.long	0x2114
 4202 280f 15       		.uleb128 0x15
 4203 2810 22020000 		.long	0x222
 4204 2814 15       		.uleb128 0x15
 4205 2815 1E200000 		.long	0x201e
 4206 2819 15       		.uleb128 0x15
 4207 281a 92230000 		.long	0x2392
 4208 281e 00       		.byte	0x0
 4209 281f 07       		.uleb128 0x7
 4210 2820 04       		.byte	0x4
 4211 2821 04280000 		.long	0x2804
 4212 2825 14       		.uleb128 0x14
 4213 2826 01       		.byte	0x1
 4214 2827 22020000 		.long	0x222
 4215 282b 45280000 		.long	0x2845
 4216 282f 15       		.uleb128 0x15
 4217 2830 14210000 		.long	0x2114
 4218 2834 15       		.uleb128 0x15
 4219 2835 22020000 		.long	0x222
 4220 2839 15       		.uleb128 0x15
 4221 283a 31020000 		.long	0x231
 4222 283e 15       		.uleb128 0x15
 4223 283f 1E200000 		.long	0x201e
 4224 2843 17       		.uleb128 0x17
 4225 2844 00       		.byte	0x0
 4226 2845 07       		.uleb128 0x7
 4227 2846 04       		.byte	0x4
 4228 2847 25280000 		.long	0x2825
 4229 284b 14       		.uleb128 0x14
 4230 284c 01       		.byte	0x1
 4231 284d 22020000 		.long	0x222
 4232 2851 6F280000 		.long	0x286f
 4233 2855 15       		.uleb128 0x15
 4234 2856 14210000 		.long	0x2114
 4235 285a 15       		.uleb128 0x15
 4236 285b 22020000 		.long	0x222
 4237 285f 15       		.uleb128 0x15
 4238 2860 31020000 		.long	0x231
 4239 2864 15       		.uleb128 0x15
 4240 2865 1E200000 		.long	0x201e
 4241 2869 15       		.uleb128 0x15
 4242 286a 85010000 		.long	0x185
 4243 286e 00       		.byte	0x0
 4244 286f 07       		.uleb128 0x7
 4245 2870 04       		.byte	0x4
 4246 2871 4B280000 		.long	0x284b
 4247 2875 14       		.uleb128 0x14
 4248 2876 01       		.byte	0x1
GAS LISTING /cygdrive/c/Users/THESCI~1/AppData/Local/Temp/cchZ1Zdn.s 			page 99


 4249 2877 22020000 		.long	0x222
 4250 287b 99280000 		.long	0x2899
 4251 287f 15       		.uleb128 0x15
 4252 2880 14210000 		.long	0x2114
 4253 2884 15       		.uleb128 0x15
 4254 2885 22020000 		.long	0x222
 4255 2889 15       		.uleb128 0x15
 4256 288a 31020000 		.long	0x231
 4257 288e 15       		.uleb128 0x15
 4258 288f 1E200000 		.long	0x201e
 4259 2893 15       		.uleb128 0x15
 4260 2894 92230000 		.long	0x2392
 4261 2898 00       		.byte	0x0
 4262 2899 07       		.uleb128 0x7
 4263 289a 04       		.byte	0x4
 4264 289b 75280000 		.long	0x2875
 4265 289f 14       		.uleb128 0x14
 4266 28a0 01       		.byte	0x1
 4267 28a1 C8010000 		.long	0x1c8
 4268 28a5 BF280000 		.long	0x28bf
 4269 28a9 15       		.uleb128 0x15
 4270 28aa 14210000 		.long	0x2114
 4271 28ae 15       		.uleb128 0x15
 4272 28af 22020000 		.long	0x222
 4273 28b3 15       		.uleb128 0x15
 4274 28b4 31020000 		.long	0x231
 4275 28b8 15       		.uleb128 0x15
 4276 28b9 1E200000 		.long	0x201e
 4277 28bd 17       		.uleb128 0x17
 4278 28be 00       		.byte	0x0
 4279 28bf 07       		.uleb128 0x7
 4280 28c0 04       		.byte	0x4
 4281 28c1 9F280000 		.long	0x289f
 4282 28c5 14       		.uleb128 0x14
 4283 28c6 01       		.byte	0x1
 4284 28c7 C8010000 		.long	0x1c8
 4285 28cb E9280000 		.long	0x28e9
 4286 28cf 15       		.uleb128 0x15
 4287 28d0 14210000 		.long	0x2114
 4288 28d4 15       		.uleb128 0x15
 4289 28d5 22020000 		.long	0x222
 4290 28d9 15       		.uleb128 0x15
 4291 28da 31020000 		.long	0x231
 4292 28de 15       		.uleb128 0x15
 4293 28df 1E200000 		.long	0x201e
 4294 28e3 15       		.uleb128 0x15
 4295 28e4 85010000 		.long	0x185
 4296 28e8 00       		.byte	0x0
 4297 28e9 07       		.uleb128 0x7
 4298 28ea 04       		.byte	0x4
 4299 28eb C5280000 		.long	0x28c5
 4300 28ef 14       		.uleb128 0x14
 4301 28f0 01       		.byte	0x1
 4302 28f1 C8010000 		.long	0x1c8
 4303 28f5 13290000 		.long	0x2913
 4304 28f9 15       		.uleb128 0x15
 4305 28fa 14210000 		.long	0x2114
GAS LISTING /cygdrive/c/Users/THESCI~1/AppData/Local/Temp/cchZ1Zdn.s 			page 100


 4306 28fe 15       		.uleb128 0x15
 4307 28ff 22020000 		.long	0x222
 4308 2903 15       		.uleb128 0x15
 4309 2904 31020000 		.long	0x231
 4310 2908 15       		.uleb128 0x15
 4311 2909 1E200000 		.long	0x201e
 4312 290d 15       		.uleb128 0x15
 4313 290e 92230000 		.long	0x2392
 4314 2912 00       		.byte	0x0
 4315 2913 07       		.uleb128 0x7
 4316 2914 04       		.byte	0x4
 4317 2915 EF280000 		.long	0x28ef
 4318 2919 14       		.uleb128 0x14
 4319 291a 01       		.byte	0x1
 4320 291b 94010000 		.long	0x194
 4321 291f 39290000 		.long	0x2939
 4322 2923 15       		.uleb128 0x15
 4323 2924 14210000 		.long	0x2114
 4324 2928 15       		.uleb128 0x15
 4325 2929 22020000 		.long	0x222
 4326 292d 15       		.uleb128 0x15
 4327 292e 31020000 		.long	0x231
 4328 2932 15       		.uleb128 0x15
 4329 2933 1E200000 		.long	0x201e
 4330 2937 17       		.uleb128 0x17
 4331 2938 00       		.byte	0x0
 4332 2939 07       		.uleb128 0x7
 4333 293a 04       		.byte	0x4
 4334 293b 19290000 		.long	0x2919
 4335 293f 14       		.uleb128 0x14
 4336 2940 01       		.byte	0x1
 4337 2941 94010000 		.long	0x194
 4338 2945 63290000 		.long	0x2963
 4339 2949 15       		.uleb128 0x15
 4340 294a 14210000 		.long	0x2114
 4341 294e 15       		.uleb128 0x15
 4342 294f 22020000 		.long	0x222
 4343 2953 15       		.uleb128 0x15
 4344 2954 31020000 		.long	0x231
 4345 2958 15       		.uleb128 0x15
 4346 2959 1E200000 		.long	0x201e
 4347 295d 15       		.uleb128 0x15
 4348 295e 85010000 		.long	0x185
 4349 2962 00       		.byte	0x0
 4350 2963 07       		.uleb128 0x7
 4351 2964 04       		.byte	0x4
 4352 2965 3F290000 		.long	0x293f
 4353 2969 14       		.uleb128 0x14
 4354 296a 01       		.byte	0x1
 4355 296b 94010000 		.long	0x194
 4356 296f 8D290000 		.long	0x298d
 4357 2973 15       		.uleb128 0x15
 4358 2974 14210000 		.long	0x2114
 4359 2978 15       		.uleb128 0x15
 4360 2979 22020000 		.long	0x222
 4361 297d 15       		.uleb128 0x15
 4362 297e 31020000 		.long	0x231
GAS LISTING /cygdrive/c/Users/THESCI~1/AppData/Local/Temp/cchZ1Zdn.s 			page 101


 4363 2982 15       		.uleb128 0x15
 4364 2983 1E200000 		.long	0x201e
 4365 2987 15       		.uleb128 0x15
 4366 2988 92230000 		.long	0x2392
 4367 298c 00       		.byte	0x0
 4368 298d 07       		.uleb128 0x7
 4369 298e 04       		.byte	0x4
 4370 298f 69290000 		.long	0x2969
 4371 2993 14       		.uleb128 0x14
 4372 2994 01       		.byte	0x1
 4373 2995 D8010000 		.long	0x1d8
 4374 2999 B3290000 		.long	0x29b3
 4375 299d 15       		.uleb128 0x15
 4376 299e 14210000 		.long	0x2114
 4377 29a2 15       		.uleb128 0x15
 4378 29a3 22020000 		.long	0x222
 4379 29a7 15       		.uleb128 0x15
 4380 29a8 31020000 		.long	0x231
 4381 29ac 15       		.uleb128 0x15
 4382 29ad 1E200000 		.long	0x201e
 4383 29b1 17       		.uleb128 0x17
 4384 29b2 00       		.byte	0x0
 4385 29b3 07       		.uleb128 0x7
 4386 29b4 04       		.byte	0x4
 4387 29b5 93290000 		.long	0x2993
 4388 29b9 14       		.uleb128 0x14
 4389 29ba 01       		.byte	0x1
 4390 29bb D8010000 		.long	0x1d8
 4391 29bf DD290000 		.long	0x29dd
 4392 29c3 15       		.uleb128 0x15
 4393 29c4 14210000 		.long	0x2114
 4394 29c8 15       		.uleb128 0x15
 4395 29c9 22020000 		.long	0x222
 4396 29cd 15       		.uleb128 0x15
 4397 29ce 31020000 		.long	0x231
 4398 29d2 15       		.uleb128 0x15
 4399 29d3 1E200000 		.long	0x201e
 4400 29d7 15       		.uleb128 0x15
 4401 29d8 85010000 		.long	0x185
 4402 29dc 00       		.byte	0x0
 4403 29dd 07       		.uleb128 0x7
 4404 29de 04       		.byte	0x4
 4405 29df B9290000 		.long	0x29b9
 4406 29e3 14       		.uleb128 0x14
 4407 29e4 01       		.byte	0x1
 4408 29e5 D8010000 		.long	0x1d8
 4409 29e9 072A0000 		.long	0x2a07
 4410 29ed 15       		.uleb128 0x15
 4411 29ee 14210000 		.long	0x2114
 4412 29f2 15       		.uleb128 0x15
 4413 29f3 22020000 		.long	0x222
 4414 29f7 15       		.uleb128 0x15
 4415 29f8 31020000 		.long	0x231
 4416 29fc 15       		.uleb128 0x15
 4417 29fd 1E200000 		.long	0x201e
 4418 2a01 15       		.uleb128 0x15
 4419 2a02 92230000 		.long	0x2392
GAS LISTING /cygdrive/c/Users/THESCI~1/AppData/Local/Temp/cchZ1Zdn.s 			page 102


 4420 2a06 00       		.byte	0x0
 4421 2a07 07       		.uleb128 0x7
 4422 2a08 04       		.byte	0x4
 4423 2a09 E3290000 		.long	0x29e3
 4424 2a0d 14       		.uleb128 0x14
 4425 2a0e 01       		.byte	0x1
 4426 2a0f A1010000 		.long	0x1a1
 4427 2a13 2D2A0000 		.long	0x2a2d
 4428 2a17 15       		.uleb128 0x15
 4429 2a18 14210000 		.long	0x2114
 4430 2a1c 15       		.uleb128 0x15
 4431 2a1d 22020000 		.long	0x222
 4432 2a21 15       		.uleb128 0x15
 4433 2a22 31020000 		.long	0x231
 4434 2a26 15       		.uleb128 0x15
 4435 2a27 1E200000 		.long	0x201e
 4436 2a2b 17       		.uleb128 0x17
 4437 2a2c 00       		.byte	0x0
 4438 2a2d 07       		.uleb128 0x7
 4439 2a2e 04       		.byte	0x4
 4440 2a2f 0D2A0000 		.long	0x2a0d
 4441 2a33 14       		.uleb128 0x14
 4442 2a34 01       		.byte	0x1
 4443 2a35 A1010000 		.long	0x1a1
 4444 2a39 572A0000 		.long	0x2a57
 4445 2a3d 15       		.uleb128 0x15
 4446 2a3e 14210000 		.long	0x2114
 4447 2a42 15       		.uleb128 0x15
 4448 2a43 22020000 		.long	0x222
 4449 2a47 15       		.uleb128 0x15
 4450 2a48 31020000 		.long	0x231
 4451 2a4c 15       		.uleb128 0x15
 4452 2a4d 1E200000 		.long	0x201e
 4453 2a51 15       		.uleb128 0x15
 4454 2a52 85010000 		.long	0x185
 4455 2a56 00       		.byte	0x0
 4456 2a57 07       		.uleb128 0x7
 4457 2a58 04       		.byte	0x4
 4458 2a59 332A0000 		.long	0x2a33
 4459 2a5d 14       		.uleb128 0x14
 4460 2a5e 01       		.byte	0x1
 4461 2a5f A1010000 		.long	0x1a1
 4462 2a63 812A0000 		.long	0x2a81
 4463 2a67 15       		.uleb128 0x15
 4464 2a68 14210000 		.long	0x2114
 4465 2a6c 15       		.uleb128 0x15
 4466 2a6d 22020000 		.long	0x222
 4467 2a71 15       		.uleb128 0x15
 4468 2a72 31020000 		.long	0x231
 4469 2a76 15       		.uleb128 0x15
 4470 2a77 1E200000 		.long	0x201e
 4471 2a7b 15       		.uleb128 0x15
 4472 2a7c 92230000 		.long	0x2392
 4473 2a80 00       		.byte	0x0
 4474 2a81 07       		.uleb128 0x7
 4475 2a82 04       		.byte	0x4
 4476 2a83 5D2A0000 		.long	0x2a5d
GAS LISTING /cygdrive/c/Users/THESCI~1/AppData/Local/Temp/cchZ1Zdn.s 			page 103


 4477 2a87 14       		.uleb128 0x14
 4478 2a88 01       		.byte	0x1
 4479 2a89 AF010000 		.long	0x1af
 4480 2a8d A72A0000 		.long	0x2aa7
 4481 2a91 15       		.uleb128 0x15
 4482 2a92 14210000 		.long	0x2114
 4483 2a96 15       		.uleb128 0x15
 4484 2a97 22020000 		.long	0x222
 4485 2a9b 15       		.uleb128 0x15
 4486 2a9c 31020000 		.long	0x231
 4487 2aa0 15       		.uleb128 0x15
 4488 2aa1 1E200000 		.long	0x201e
 4489 2aa5 17       		.uleb128 0x17
 4490 2aa6 00       		.byte	0x0
 4491 2aa7 07       		.uleb128 0x7
 4492 2aa8 04       		.byte	0x4
 4493 2aa9 872A0000 		.long	0x2a87
 4494 2aad 14       		.uleb128 0x14
 4495 2aae 01       		.byte	0x1
 4496 2aaf AF010000 		.long	0x1af
 4497 2ab3 D12A0000 		.long	0x2ad1
 4498 2ab7 15       		.uleb128 0x15
 4499 2ab8 14210000 		.long	0x2114
 4500 2abc 15       		.uleb128 0x15
 4501 2abd 22020000 		.long	0x222
 4502 2ac1 15       		.uleb128 0x15
 4503 2ac2 31020000 		.long	0x231
 4504 2ac6 15       		.uleb128 0x15
 4505 2ac7 1E200000 		.long	0x201e
 4506 2acb 15       		.uleb128 0x15
 4507 2acc 85010000 		.long	0x185
 4508 2ad0 00       		.byte	0x0
 4509 2ad1 07       		.uleb128 0x7
 4510 2ad2 04       		.byte	0x4
 4511 2ad3 AD2A0000 		.long	0x2aad
 4512 2ad7 14       		.uleb128 0x14
 4513 2ad8 01       		.byte	0x1
 4514 2ad9 AF010000 		.long	0x1af
 4515 2add FB2A0000 		.long	0x2afb
 4516 2ae1 15       		.uleb128 0x15
 4517 2ae2 14210000 		.long	0x2114
 4518 2ae6 15       		.uleb128 0x15
 4519 2ae7 22020000 		.long	0x222
 4520 2aeb 15       		.uleb128 0x15
 4521 2aec 31020000 		.long	0x231
 4522 2af0 15       		.uleb128 0x15
 4523 2af1 1E200000 		.long	0x201e
 4524 2af5 15       		.uleb128 0x15
 4525 2af6 92230000 		.long	0x2392
 4526 2afa 00       		.byte	0x0
 4527 2afb 07       		.uleb128 0x7
 4528 2afc 04       		.byte	0x4
 4529 2afd D72A0000 		.long	0x2ad7
 4530 2b01 14       		.uleb128 0x14
 4531 2b02 01       		.byte	0x1
 4532 2b03 BB010000 		.long	0x1bb
 4533 2b07 212B0000 		.long	0x2b21
GAS LISTING /cygdrive/c/Users/THESCI~1/AppData/Local/Temp/cchZ1Zdn.s 			page 104


 4534 2b0b 15       		.uleb128 0x15
 4535 2b0c 14210000 		.long	0x2114
 4536 2b10 15       		.uleb128 0x15
 4537 2b11 22020000 		.long	0x222
 4538 2b15 15       		.uleb128 0x15
 4539 2b16 31020000 		.long	0x231
 4540 2b1a 15       		.uleb128 0x15
 4541 2b1b 1E200000 		.long	0x201e
 4542 2b1f 17       		.uleb128 0x17
 4543 2b20 00       		.byte	0x0
 4544 2b21 07       		.uleb128 0x7
 4545 2b22 04       		.byte	0x4
 4546 2b23 012B0000 		.long	0x2b01
 4547 2b27 14       		.uleb128 0x14
 4548 2b28 01       		.byte	0x1
 4549 2b29 BB010000 		.long	0x1bb
 4550 2b2d 4B2B0000 		.long	0x2b4b
 4551 2b31 15       		.uleb128 0x15
 4552 2b32 14210000 		.long	0x2114
 4553 2b36 15       		.uleb128 0x15
 4554 2b37 22020000 		.long	0x222
 4555 2b3b 15       		.uleb128 0x15
 4556 2b3c 31020000 		.long	0x231
 4557 2b40 15       		.uleb128 0x15
 4558 2b41 1E200000 		.long	0x201e
 4559 2b45 15       		.uleb128 0x15
 4560 2b46 85010000 		.long	0x185
 4561 2b4a 00       		.byte	0x0
 4562 2b4b 07       		.uleb128 0x7
 4563 2b4c 04       		.byte	0x4
 4564 2b4d 272B0000 		.long	0x2b27
 4565 2b51 14       		.uleb128 0x14
 4566 2b52 01       		.byte	0x1
 4567 2b53 BB010000 		.long	0x1bb
 4568 2b57 752B0000 		.long	0x2b75
 4569 2b5b 15       		.uleb128 0x15
 4570 2b5c 14210000 		.long	0x2114
 4571 2b60 15       		.uleb128 0x15
 4572 2b61 22020000 		.long	0x222
 4573 2b65 15       		.uleb128 0x15
 4574 2b66 31020000 		.long	0x231
 4575 2b6a 15       		.uleb128 0x15
 4576 2b6b 1E200000 		.long	0x201e
 4577 2b6f 15       		.uleb128 0x15
 4578 2b70 92230000 		.long	0x2392
 4579 2b74 00       		.byte	0x0
 4580 2b75 07       		.uleb128 0x7
 4581 2b76 04       		.byte	0x4
 4582 2b77 512B0000 		.long	0x2b51
 4583 2b7b 14       		.uleb128 0x14
 4584 2b7c 01       		.byte	0x1
 4585 2b7d E5010000 		.long	0x1e5
 4586 2b81 9B2B0000 		.long	0x2b9b
 4587 2b85 15       		.uleb128 0x15
 4588 2b86 14210000 		.long	0x2114
 4589 2b8a 15       		.uleb128 0x15
 4590 2b8b 22020000 		.long	0x222
GAS LISTING /cygdrive/c/Users/THESCI~1/AppData/Local/Temp/cchZ1Zdn.s 			page 105


 4591 2b8f 15       		.uleb128 0x15
 4592 2b90 31020000 		.long	0x231
 4593 2b94 15       		.uleb128 0x15
 4594 2b95 1E200000 		.long	0x201e
 4595 2b99 17       		.uleb128 0x17
 4596 2b9a 00       		.byte	0x0
 4597 2b9b 07       		.uleb128 0x7
 4598 2b9c 04       		.byte	0x4
 4599 2b9d 7B2B0000 		.long	0x2b7b
 4600 2ba1 14       		.uleb128 0x14
 4601 2ba2 01       		.byte	0x1
 4602 2ba3 E5010000 		.long	0x1e5
 4603 2ba7 C52B0000 		.long	0x2bc5
 4604 2bab 15       		.uleb128 0x15
 4605 2bac 14210000 		.long	0x2114
 4606 2bb0 15       		.uleb128 0x15
 4607 2bb1 22020000 		.long	0x222
 4608 2bb5 15       		.uleb128 0x15
 4609 2bb6 31020000 		.long	0x231
 4610 2bba 15       		.uleb128 0x15
 4611 2bbb 1E200000 		.long	0x201e
 4612 2bbf 15       		.uleb128 0x15
 4613 2bc0 85010000 		.long	0x185
 4614 2bc4 00       		.byte	0x0
 4615 2bc5 07       		.uleb128 0x7
 4616 2bc6 04       		.byte	0x4
 4617 2bc7 A12B0000 		.long	0x2ba1
 4618 2bcb 14       		.uleb128 0x14
 4619 2bcc 01       		.byte	0x1
 4620 2bcd E5010000 		.long	0x1e5
 4621 2bd1 EF2B0000 		.long	0x2bef
 4622 2bd5 15       		.uleb128 0x15
 4623 2bd6 14210000 		.long	0x2114
 4624 2bda 15       		.uleb128 0x15
 4625 2bdb 22020000 		.long	0x222
 4626 2bdf 15       		.uleb128 0x15
 4627 2be0 31020000 		.long	0x231
 4628 2be4 15       		.uleb128 0x15
 4629 2be5 1E200000 		.long	0x201e
 4630 2be9 15       		.uleb128 0x15
 4631 2bea 92230000 		.long	0x2392
 4632 2bee 00       		.byte	0x0
 4633 2bef 07       		.uleb128 0x7
 4634 2bf0 04       		.byte	0x4
 4635 2bf1 CB2B0000 		.long	0x2bcb
 4636 2bf5 14       		.uleb128 0x14
 4637 2bf6 01       		.byte	0x1
 4638 2bf7 FC010000 		.long	0x1fc
 4639 2bfb 152C0000 		.long	0x2c15
 4640 2bff 15       		.uleb128 0x15
 4641 2c00 14210000 		.long	0x2114
 4642 2c04 15       		.uleb128 0x15
 4643 2c05 22020000 		.long	0x222
 4644 2c09 15       		.uleb128 0x15
 4645 2c0a 31020000 		.long	0x231
 4646 2c0e 15       		.uleb128 0x15
 4647 2c0f 1E200000 		.long	0x201e
GAS LISTING /cygdrive/c/Users/THESCI~1/AppData/Local/Temp/cchZ1Zdn.s 			page 106


 4648 2c13 17       		.uleb128 0x17
 4649 2c14 00       		.byte	0x0
 4650 2c15 07       		.uleb128 0x7
 4651 2c16 04       		.byte	0x4
 4652 2c17 F52B0000 		.long	0x2bf5
 4653 2c1b 14       		.uleb128 0x14
 4654 2c1c 01       		.byte	0x1
 4655 2c1d FC010000 		.long	0x1fc
 4656 2c21 3F2C0000 		.long	0x2c3f
 4657 2c25 15       		.uleb128 0x15
 4658 2c26 14210000 		.long	0x2114
 4659 2c2a 15       		.uleb128 0x15
 4660 2c2b 22020000 		.long	0x222
 4661 2c2f 15       		.uleb128 0x15
 4662 2c30 31020000 		.long	0x231
 4663 2c34 15       		.uleb128 0x15
 4664 2c35 1E200000 		.long	0x201e
 4665 2c39 15       		.uleb128 0x15
 4666 2c3a 85010000 		.long	0x185
 4667 2c3e 00       		.byte	0x0
 4668 2c3f 07       		.uleb128 0x7
 4669 2c40 04       		.byte	0x4
 4670 2c41 1B2C0000 		.long	0x2c1b
 4671 2c45 14       		.uleb128 0x14
 4672 2c46 01       		.byte	0x1
 4673 2c47 FC010000 		.long	0x1fc
 4674 2c4b 692C0000 		.long	0x2c69
 4675 2c4f 15       		.uleb128 0x15
 4676 2c50 14210000 		.long	0x2114
 4677 2c54 15       		.uleb128 0x15
 4678 2c55 22020000 		.long	0x222
 4679 2c59 15       		.uleb128 0x15
 4680 2c5a 31020000 		.long	0x231
 4681 2c5e 15       		.uleb128 0x15
 4682 2c5f 1E200000 		.long	0x201e
 4683 2c63 15       		.uleb128 0x15
 4684 2c64 92230000 		.long	0x2392
 4685 2c68 00       		.byte	0x0
 4686 2c69 07       		.uleb128 0x7
 4687 2c6a 04       		.byte	0x4
 4688 2c6b 452C0000 		.long	0x2c45
 4689 2c6f 16       		.uleb128 0x16
 4690 2c70 01       		.byte	0x1
 4691 2c71 8B2C0000 		.long	0x2c8b
 4692 2c75 15       		.uleb128 0x15
 4693 2c76 14210000 		.long	0x2114
 4694 2c7a 15       		.uleb128 0x15
 4695 2c7b 22020000 		.long	0x222
 4696 2c7f 15       		.uleb128 0x15
 4697 2c80 31020000 		.long	0x231
 4698 2c84 15       		.uleb128 0x15
 4699 2c85 1E200000 		.long	0x201e
 4700 2c89 17       		.uleb128 0x17
 4701 2c8a 00       		.byte	0x0
 4702 2c8b 07       		.uleb128 0x7
 4703 2c8c 04       		.byte	0x4
 4704 2c8d 6F2C0000 		.long	0x2c6f
GAS LISTING /cygdrive/c/Users/THESCI~1/AppData/Local/Temp/cchZ1Zdn.s 			page 107


 4705 2c91 16       		.uleb128 0x16
 4706 2c92 01       		.byte	0x1
 4707 2c93 B12C0000 		.long	0x2cb1
 4708 2c97 15       		.uleb128 0x15
 4709 2c98 14210000 		.long	0x2114
 4710 2c9c 15       		.uleb128 0x15
 4711 2c9d 22020000 		.long	0x222
 4712 2ca1 15       		.uleb128 0x15
 4713 2ca2 31020000 		.long	0x231
 4714 2ca6 15       		.uleb128 0x15
 4715 2ca7 1E200000 		.long	0x201e
 4716 2cab 15       		.uleb128 0x15
 4717 2cac 85010000 		.long	0x185
 4718 2cb0 00       		.byte	0x0
 4719 2cb1 07       		.uleb128 0x7
 4720 2cb2 04       		.byte	0x4
 4721 2cb3 912C0000 		.long	0x2c91
 4722 2cb7 16       		.uleb128 0x16
 4723 2cb8 01       		.byte	0x1
 4724 2cb9 D72C0000 		.long	0x2cd7
 4725 2cbd 15       		.uleb128 0x15
 4726 2cbe 14210000 		.long	0x2114
 4727 2cc2 15       		.uleb128 0x15
 4728 2cc3 22020000 		.long	0x222
 4729 2cc7 15       		.uleb128 0x15
 4730 2cc8 31020000 		.long	0x231
 4731 2ccc 15       		.uleb128 0x15
 4732 2ccd 1E200000 		.long	0x201e
 4733 2cd1 15       		.uleb128 0x15
 4734 2cd2 92230000 		.long	0x2392
 4735 2cd6 00       		.byte	0x0
 4736 2cd7 07       		.uleb128 0x7
 4737 2cd8 04       		.byte	0x4
 4738 2cd9 B72C0000 		.long	0x2cb7
 4739 2cdd 14       		.uleb128 0x14
 4740 2cde 01       		.byte	0x1
 4741 2cdf FC1F0000 		.long	0x1ffc
 4742 2ce3 FC2C0000 		.long	0x2cfc
 4743 2ce7 15       		.uleb128 0x15
 4744 2ce8 14210000 		.long	0x2114
 4745 2cec 15       		.uleb128 0x15
 4746 2ced 31020000 		.long	0x231
 4747 2cf1 15       		.uleb128 0x15
 4748 2cf2 7A010000 		.long	0x17a
 4749 2cf6 15       		.uleb128 0x15
 4750 2cf7 7A010000 		.long	0x17a
 4751 2cfb 00       		.byte	0x0
 4752 2cfc 07       		.uleb128 0x7
 4753 2cfd 04       		.byte	0x4
 4754 2cfe DD2C0000 		.long	0x2cdd
 4755 2d02 14       		.uleb128 0x14
 4756 2d03 01       		.byte	0x1
 4757 2d04 22020000 		.long	0x222
 4758 2d08 1C2D0000 		.long	0x2d1c
 4759 2d0c 15       		.uleb128 0x15
 4760 2d0d 14210000 		.long	0x2114
 4761 2d11 15       		.uleb128 0x15
GAS LISTING /cygdrive/c/Users/THESCI~1/AppData/Local/Temp/cchZ1Zdn.s 			page 108


 4762 2d12 22020000 		.long	0x222
 4763 2d16 15       		.uleb128 0x15
 4764 2d17 FC1F0000 		.long	0x1ffc
 4765 2d1b 00       		.byte	0x0
 4766 2d1c 07       		.uleb128 0x7
 4767 2d1d 04       		.byte	0x4
 4768 2d1e 022D0000 		.long	0x2d02
 4769 2d22 14       		.uleb128 0x14
 4770 2d23 01       		.byte	0x1
 4771 2d24 C8010000 		.long	0x1c8
 4772 2d28 3C2D0000 		.long	0x2d3c
 4773 2d2c 15       		.uleb128 0x15
 4774 2d2d 14210000 		.long	0x2114
 4775 2d31 15       		.uleb128 0x15
 4776 2d32 22020000 		.long	0x222
 4777 2d36 15       		.uleb128 0x15
 4778 2d37 FC1F0000 		.long	0x1ffc
 4779 2d3b 00       		.byte	0x0
 4780 2d3c 07       		.uleb128 0x7
 4781 2d3d 04       		.byte	0x4
 4782 2d3e 222D0000 		.long	0x2d22
 4783 2d42 14       		.uleb128 0x14
 4784 2d43 01       		.byte	0x1
 4785 2d44 94010000 		.long	0x194
 4786 2d48 5C2D0000 		.long	0x2d5c
 4787 2d4c 15       		.uleb128 0x15
 4788 2d4d 14210000 		.long	0x2114
 4789 2d51 15       		.uleb128 0x15
 4790 2d52 22020000 		.long	0x222
 4791 2d56 15       		.uleb128 0x15
 4792 2d57 FC1F0000 		.long	0x1ffc
 4793 2d5b 00       		.byte	0x0
 4794 2d5c 07       		.uleb128 0x7
 4795 2d5d 04       		.byte	0x4
 4796 2d5e 422D0000 		.long	0x2d42
 4797 2d62 14       		.uleb128 0x14
 4798 2d63 01       		.byte	0x1
 4799 2d64 D8010000 		.long	0x1d8
 4800 2d68 7C2D0000 		.long	0x2d7c
 4801 2d6c 15       		.uleb128 0x15
 4802 2d6d 14210000 		.long	0x2114
 4803 2d71 15       		.uleb128 0x15
 4804 2d72 22020000 		.long	0x222
 4805 2d76 15       		.uleb128 0x15
 4806 2d77 FC1F0000 		.long	0x1ffc
 4807 2d7b 00       		.byte	0x0
 4808 2d7c 07       		.uleb128 0x7
 4809 2d7d 04       		.byte	0x4
 4810 2d7e 622D0000 		.long	0x2d62
 4811 2d82 14       		.uleb128 0x14
 4812 2d83 01       		.byte	0x1
 4813 2d84 A1010000 		.long	0x1a1
 4814 2d88 9C2D0000 		.long	0x2d9c
 4815 2d8c 15       		.uleb128 0x15
 4816 2d8d 14210000 		.long	0x2114
 4817 2d91 15       		.uleb128 0x15
 4818 2d92 22020000 		.long	0x222
GAS LISTING /cygdrive/c/Users/THESCI~1/AppData/Local/Temp/cchZ1Zdn.s 			page 109


 4819 2d96 15       		.uleb128 0x15
 4820 2d97 FC1F0000 		.long	0x1ffc
 4821 2d9b 00       		.byte	0x0
 4822 2d9c 07       		.uleb128 0x7
 4823 2d9d 04       		.byte	0x4
 4824 2d9e 822D0000 		.long	0x2d82
 4825 2da2 14       		.uleb128 0x14
 4826 2da3 01       		.byte	0x1
 4827 2da4 AF010000 		.long	0x1af
 4828 2da8 BC2D0000 		.long	0x2dbc
 4829 2dac 15       		.uleb128 0x15
 4830 2dad 14210000 		.long	0x2114
 4831 2db1 15       		.uleb128 0x15
 4832 2db2 22020000 		.long	0x222
 4833 2db6 15       		.uleb128 0x15
 4834 2db7 FC1F0000 		.long	0x1ffc
 4835 2dbb 00       		.byte	0x0
 4836 2dbc 07       		.uleb128 0x7
 4837 2dbd 04       		.byte	0x4
 4838 2dbe A22D0000 		.long	0x2da2
 4839 2dc2 14       		.uleb128 0x14
 4840 2dc3 01       		.byte	0x1
 4841 2dc4 BB010000 		.long	0x1bb
 4842 2dc8 DC2D0000 		.long	0x2ddc
 4843 2dcc 15       		.uleb128 0x15
 4844 2dcd 14210000 		.long	0x2114
 4845 2dd1 15       		.uleb128 0x15
 4846 2dd2 22020000 		.long	0x222
 4847 2dd6 15       		.uleb128 0x15
 4848 2dd7 FC1F0000 		.long	0x1ffc
 4849 2ddb 00       		.byte	0x0
 4850 2ddc 07       		.uleb128 0x7
 4851 2ddd 04       		.byte	0x4
 4852 2dde C22D0000 		.long	0x2dc2
 4853 2de2 14       		.uleb128 0x14
 4854 2de3 01       		.byte	0x1
 4855 2de4 E5010000 		.long	0x1e5
 4856 2de8 FC2D0000 		.long	0x2dfc
 4857 2dec 15       		.uleb128 0x15
 4858 2ded 14210000 		.long	0x2114
 4859 2df1 15       		.uleb128 0x15
 4860 2df2 22020000 		.long	0x222
 4861 2df6 15       		.uleb128 0x15
 4862 2df7 FC1F0000 		.long	0x1ffc
 4863 2dfb 00       		.byte	0x0
 4864 2dfc 07       		.uleb128 0x7
 4865 2dfd 04       		.byte	0x4
 4866 2dfe E22D0000 		.long	0x2de2
 4867 2e02 14       		.uleb128 0x14
 4868 2e03 01       		.byte	0x1
 4869 2e04 FC010000 		.long	0x1fc
 4870 2e08 1C2E0000 		.long	0x2e1c
 4871 2e0c 15       		.uleb128 0x15
 4872 2e0d 14210000 		.long	0x2114
 4873 2e11 15       		.uleb128 0x15
 4874 2e12 22020000 		.long	0x222
 4875 2e16 15       		.uleb128 0x15
GAS LISTING /cygdrive/c/Users/THESCI~1/AppData/Local/Temp/cchZ1Zdn.s 			page 110


 4876 2e17 FC1F0000 		.long	0x1ffc
 4877 2e1b 00       		.byte	0x0
 4878 2e1c 07       		.uleb128 0x7
 4879 2e1d 04       		.byte	0x4
 4880 2e1e 022E0000 		.long	0x2e02
 4881 2e22 16       		.uleb128 0x16
 4882 2e23 01       		.byte	0x1
 4883 2e24 3D2E0000 		.long	0x2e3d
 4884 2e28 15       		.uleb128 0x15
 4885 2e29 14210000 		.long	0x2114
 4886 2e2d 15       		.uleb128 0x15
 4887 2e2e 22020000 		.long	0x222
 4888 2e32 15       		.uleb128 0x15
 4889 2e33 FC1F0000 		.long	0x1ffc
 4890 2e37 15       		.uleb128 0x15
 4891 2e38 22020000 		.long	0x222
 4892 2e3c 00       		.byte	0x0
 4893 2e3d 07       		.uleb128 0x7
 4894 2e3e 04       		.byte	0x4
 4895 2e3f 222E0000 		.long	0x2e22
 4896 2e43 16       		.uleb128 0x16
 4897 2e44 01       		.byte	0x1
 4898 2e45 5E2E0000 		.long	0x2e5e
 4899 2e49 15       		.uleb128 0x15
 4900 2e4a 14210000 		.long	0x2114
 4901 2e4e 15       		.uleb128 0x15
 4902 2e4f 22020000 		.long	0x222
 4903 2e53 15       		.uleb128 0x15
 4904 2e54 FC1F0000 		.long	0x1ffc
 4905 2e58 15       		.uleb128 0x15
 4906 2e59 C8010000 		.long	0x1c8
 4907 2e5d 00       		.byte	0x0
 4908 2e5e 07       		.uleb128 0x7
 4909 2e5f 04       		.byte	0x4
 4910 2e60 432E0000 		.long	0x2e43
 4911 2e64 16       		.uleb128 0x16
 4912 2e65 01       		.byte	0x1
 4913 2e66 7F2E0000 		.long	0x2e7f
 4914 2e6a 15       		.uleb128 0x15
 4915 2e6b 14210000 		.long	0x2114
 4916 2e6f 15       		.uleb128 0x15
 4917 2e70 22020000 		.long	0x222
 4918 2e74 15       		.uleb128 0x15
 4919 2e75 FC1F0000 		.long	0x1ffc
 4920 2e79 15       		.uleb128 0x15
 4921 2e7a 94010000 		.long	0x194
 4922 2e7e 00       		.byte	0x0
 4923 2e7f 07       		.uleb128 0x7
 4924 2e80 04       		.byte	0x4
 4925 2e81 642E0000 		.long	0x2e64
 4926 2e85 16       		.uleb128 0x16
 4927 2e86 01       		.byte	0x1
 4928 2e87 A02E0000 		.long	0x2ea0
 4929 2e8b 15       		.uleb128 0x15
 4930 2e8c 14210000 		.long	0x2114
 4931 2e90 15       		.uleb128 0x15
 4932 2e91 22020000 		.long	0x222
GAS LISTING /cygdrive/c/Users/THESCI~1/AppData/Local/Temp/cchZ1Zdn.s 			page 111


 4933 2e95 15       		.uleb128 0x15
 4934 2e96 FC1F0000 		.long	0x1ffc
 4935 2e9a 15       		.uleb128 0x15
 4936 2e9b D8010000 		.long	0x1d8
 4937 2e9f 00       		.byte	0x0
 4938 2ea0 07       		.uleb128 0x7
 4939 2ea1 04       		.byte	0x4
 4940 2ea2 852E0000 		.long	0x2e85
 4941 2ea6 16       		.uleb128 0x16
 4942 2ea7 01       		.byte	0x1
 4943 2ea8 C12E0000 		.long	0x2ec1
 4944 2eac 15       		.uleb128 0x15
 4945 2ead 14210000 		.long	0x2114
 4946 2eb1 15       		.uleb128 0x15
 4947 2eb2 22020000 		.long	0x222
 4948 2eb6 15       		.uleb128 0x15
 4949 2eb7 FC1F0000 		.long	0x1ffc
 4950 2ebb 15       		.uleb128 0x15
 4951 2ebc A1010000 		.long	0x1a1
 4952 2ec0 00       		.byte	0x0
 4953 2ec1 07       		.uleb128 0x7
 4954 2ec2 04       		.byte	0x4
 4955 2ec3 A62E0000 		.long	0x2ea6
 4956 2ec7 16       		.uleb128 0x16
 4957 2ec8 01       		.byte	0x1
 4958 2ec9 E22E0000 		.long	0x2ee2
 4959 2ecd 15       		.uleb128 0x15
 4960 2ece 14210000 		.long	0x2114
 4961 2ed2 15       		.uleb128 0x15
 4962 2ed3 22020000 		.long	0x222
 4963 2ed7 15       		.uleb128 0x15
 4964 2ed8 FC1F0000 		.long	0x1ffc
 4965 2edc 15       		.uleb128 0x15
 4966 2edd AF010000 		.long	0x1af
 4967 2ee1 00       		.byte	0x0
 4968 2ee2 07       		.uleb128 0x7
 4969 2ee3 04       		.byte	0x4
 4970 2ee4 C72E0000 		.long	0x2ec7
 4971 2ee8 16       		.uleb128 0x16
 4972 2ee9 01       		.byte	0x1
 4973 2eea 032F0000 		.long	0x2f03
 4974 2eee 15       		.uleb128 0x15
 4975 2eef 14210000 		.long	0x2114
 4976 2ef3 15       		.uleb128 0x15
 4977 2ef4 22020000 		.long	0x222
 4978 2ef8 15       		.uleb128 0x15
 4979 2ef9 FC1F0000 		.long	0x1ffc
 4980 2efd 15       		.uleb128 0x15
 4981 2efe BB010000 		.long	0x1bb
 4982 2f02 00       		.byte	0x0
 4983 2f03 07       		.uleb128 0x7
 4984 2f04 04       		.byte	0x4
 4985 2f05 E82E0000 		.long	0x2ee8
 4986 2f09 16       		.uleb128 0x16
 4987 2f0a 01       		.byte	0x1
 4988 2f0b 242F0000 		.long	0x2f24
 4989 2f0f 15       		.uleb128 0x15
GAS LISTING /cygdrive/c/Users/THESCI~1/AppData/Local/Temp/cchZ1Zdn.s 			page 112


 4990 2f10 14210000 		.long	0x2114
 4991 2f14 15       		.uleb128 0x15
 4992 2f15 22020000 		.long	0x222
 4993 2f19 15       		.uleb128 0x15
 4994 2f1a FC1F0000 		.long	0x1ffc
 4995 2f1e 15       		.uleb128 0x15
 4996 2f1f E5010000 		.long	0x1e5
 4997 2f23 00       		.byte	0x0
 4998 2f24 07       		.uleb128 0x7
 4999 2f25 04       		.byte	0x4
 5000 2f26 092F0000 		.long	0x2f09
 5001 2f2a 16       		.uleb128 0x16
 5002 2f2b 01       		.byte	0x1
 5003 2f2c 452F0000 		.long	0x2f45
 5004 2f30 15       		.uleb128 0x15
 5005 2f31 14210000 		.long	0x2114
 5006 2f35 15       		.uleb128 0x15
 5007 2f36 22020000 		.long	0x222
 5008 2f3a 15       		.uleb128 0x15
 5009 2f3b FC1F0000 		.long	0x1ffc
 5010 2f3f 15       		.uleb128 0x15
 5011 2f40 FC010000 		.long	0x1fc
 5012 2f44 00       		.byte	0x0
 5013 2f45 07       		.uleb128 0x7
 5014 2f46 04       		.byte	0x4
 5015 2f47 2A2F0000 		.long	0x2f2a
 5016 2f4b 14       		.uleb128 0x14
 5017 2f4c 01       		.byte	0x1
 5018 2f4d C8010000 		.long	0x1c8
 5019 2f51 662F0000 		.long	0x2f66
 5020 2f55 15       		.uleb128 0x15
 5021 2f56 14210000 		.long	0x2114
 5022 2f5a 15       		.uleb128 0x15
 5023 2f5b 31020000 		.long	0x231
 5024 2f5f 15       		.uleb128 0x15
 5025 2f60 1E200000 		.long	0x201e
 5026 2f64 17       		.uleb128 0x17
 5027 2f65 00       		.byte	0x0
 5028 2f66 07       		.uleb128 0x7
 5029 2f67 04       		.byte	0x4
 5030 2f68 4B2F0000 		.long	0x2f4b
 5031 2f6c 14       		.uleb128 0x14
 5032 2f6d 01       		.byte	0x1
 5033 2f6e C8010000 		.long	0x1c8
 5034 2f72 8B2F0000 		.long	0x2f8b
 5035 2f76 15       		.uleb128 0x15
 5036 2f77 14210000 		.long	0x2114
 5037 2f7b 15       		.uleb128 0x15
 5038 2f7c 31020000 		.long	0x231
 5039 2f80 15       		.uleb128 0x15
 5040 2f81 1E200000 		.long	0x201e
 5041 2f85 15       		.uleb128 0x15
 5042 2f86 85010000 		.long	0x185
 5043 2f8a 00       		.byte	0x0
 5044 2f8b 07       		.uleb128 0x7
 5045 2f8c 04       		.byte	0x4
 5046 2f8d 6C2F0000 		.long	0x2f6c
GAS LISTING /cygdrive/c/Users/THESCI~1/AppData/Local/Temp/cchZ1Zdn.s 			page 113


 5047 2f91 14       		.uleb128 0x14
 5048 2f92 01       		.byte	0x1
 5049 2f93 C8010000 		.long	0x1c8
 5050 2f97 B02F0000 		.long	0x2fb0
 5051 2f9b 15       		.uleb128 0x15
 5052 2f9c 14210000 		.long	0x2114
 5053 2fa0 15       		.uleb128 0x15
 5054 2fa1 31020000 		.long	0x231
 5055 2fa5 15       		.uleb128 0x15
 5056 2fa6 1E200000 		.long	0x201e
 5057 2faa 15       		.uleb128 0x15
 5058 2fab 92230000 		.long	0x2392
 5059 2faf 00       		.byte	0x0
 5060 2fb0 07       		.uleb128 0x7
 5061 2fb1 04       		.byte	0x4
 5062 2fb2 912F0000 		.long	0x2f91
 5063 2fb6 14       		.uleb128 0x14
 5064 2fb7 01       		.byte	0x1
 5065 2fb8 94010000 		.long	0x194
 5066 2fbc D12F0000 		.long	0x2fd1
 5067 2fc0 15       		.uleb128 0x15
 5068 2fc1 14210000 		.long	0x2114
 5069 2fc5 15       		.uleb128 0x15
 5070 2fc6 31020000 		.long	0x231
 5071 2fca 15       		.uleb128 0x15
 5072 2fcb 1E200000 		.long	0x201e
 5073 2fcf 17       		.uleb128 0x17
 5074 2fd0 00       		.byte	0x0
 5075 2fd1 07       		.uleb128 0x7
 5076 2fd2 04       		.byte	0x4
 5077 2fd3 B62F0000 		.long	0x2fb6
 5078 2fd7 14       		.uleb128 0x14
 5079 2fd8 01       		.byte	0x1
 5080 2fd9 94010000 		.long	0x194
 5081 2fdd F62F0000 		.long	0x2ff6
 5082 2fe1 15       		.uleb128 0x15
 5083 2fe2 14210000 		.long	0x2114
 5084 2fe6 15       		.uleb128 0x15
 5085 2fe7 31020000 		.long	0x231
 5086 2feb 15       		.uleb128 0x15
 5087 2fec 1E200000 		.long	0x201e
 5088 2ff0 15       		.uleb128 0x15
 5089 2ff1 85010000 		.long	0x185
 5090 2ff5 00       		.byte	0x0
 5091 2ff6 07       		.uleb128 0x7
 5092 2ff7 04       		.byte	0x4
 5093 2ff8 D72F0000 		.long	0x2fd7
 5094 2ffc 14       		.uleb128 0x14
 5095 2ffd 01       		.byte	0x1
 5096 2ffe 94010000 		.long	0x194
 5097 3002 1B300000 		.long	0x301b
 5098 3006 15       		.uleb128 0x15
 5099 3007 14210000 		.long	0x2114
 5100 300b 15       		.uleb128 0x15
 5101 300c 31020000 		.long	0x231
 5102 3010 15       		.uleb128 0x15
 5103 3011 1E200000 		.long	0x201e
GAS LISTING /cygdrive/c/Users/THESCI~1/AppData/Local/Temp/cchZ1Zdn.s 			page 114


 5104 3015 15       		.uleb128 0x15
 5105 3016 92230000 		.long	0x2392
 5106 301a 00       		.byte	0x0
 5107 301b 07       		.uleb128 0x7
 5108 301c 04       		.byte	0x4
 5109 301d FC2F0000 		.long	0x2ffc
 5110 3021 14       		.uleb128 0x14
 5111 3022 01       		.byte	0x1
 5112 3023 D8010000 		.long	0x1d8
 5113 3027 3C300000 		.long	0x303c
 5114 302b 15       		.uleb128 0x15
 5115 302c 14210000 		.long	0x2114
 5116 3030 15       		.uleb128 0x15
 5117 3031 31020000 		.long	0x231
 5118 3035 15       		.uleb128 0x15
 5119 3036 1E200000 		.long	0x201e
 5120 303a 17       		.uleb128 0x17
 5121 303b 00       		.byte	0x0
 5122 303c 07       		.uleb128 0x7
 5123 303d 04       		.byte	0x4
 5124 303e 21300000 		.long	0x3021
 5125 3042 14       		.uleb128 0x14
 5126 3043 01       		.byte	0x1
 5127 3044 D8010000 		.long	0x1d8
 5128 3048 61300000 		.long	0x3061
 5129 304c 15       		.uleb128 0x15
 5130 304d 14210000 		.long	0x2114
 5131 3051 15       		.uleb128 0x15
 5132 3052 31020000 		.long	0x231
 5133 3056 15       		.uleb128 0x15
 5134 3057 1E200000 		.long	0x201e
 5135 305b 15       		.uleb128 0x15
 5136 305c 85010000 		.long	0x185
 5137 3060 00       		.byte	0x0
 5138 3061 07       		.uleb128 0x7
 5139 3062 04       		.byte	0x4
 5140 3063 42300000 		.long	0x3042
 5141 3067 14       		.uleb128 0x14
 5142 3068 01       		.byte	0x1
 5143 3069 D8010000 		.long	0x1d8
 5144 306d 86300000 		.long	0x3086
 5145 3071 15       		.uleb128 0x15
 5146 3072 14210000 		.long	0x2114
 5147 3076 15       		.uleb128 0x15
 5148 3077 31020000 		.long	0x231
 5149 307b 15       		.uleb128 0x15
 5150 307c 1E200000 		.long	0x201e
 5151 3080 15       		.uleb128 0x15
 5152 3081 92230000 		.long	0x2392
 5153 3085 00       		.byte	0x0
 5154 3086 07       		.uleb128 0x7
 5155 3087 04       		.byte	0x4
 5156 3088 67300000 		.long	0x3067
 5157 308c 14       		.uleb128 0x14
 5158 308d 01       		.byte	0x1
 5159 308e A1010000 		.long	0x1a1
 5160 3092 A7300000 		.long	0x30a7
GAS LISTING /cygdrive/c/Users/THESCI~1/AppData/Local/Temp/cchZ1Zdn.s 			page 115


 5161 3096 15       		.uleb128 0x15
 5162 3097 14210000 		.long	0x2114
 5163 309b 15       		.uleb128 0x15
 5164 309c 31020000 		.long	0x231
 5165 30a0 15       		.uleb128 0x15
 5166 30a1 1E200000 		.long	0x201e
 5167 30a5 17       		.uleb128 0x17
 5168 30a6 00       		.byte	0x0
 5169 30a7 07       		.uleb128 0x7
 5170 30a8 04       		.byte	0x4
 5171 30a9 8C300000 		.long	0x308c
 5172 30ad 14       		.uleb128 0x14
 5173 30ae 01       		.byte	0x1
 5174 30af A1010000 		.long	0x1a1
 5175 30b3 CC300000 		.long	0x30cc
 5176 30b7 15       		.uleb128 0x15
 5177 30b8 14210000 		.long	0x2114
 5178 30bc 15       		.uleb128 0x15
 5179 30bd 31020000 		.long	0x231
 5180 30c1 15       		.uleb128 0x15
 5181 30c2 1E200000 		.long	0x201e
 5182 30c6 15       		.uleb128 0x15
 5183 30c7 85010000 		.long	0x185
 5184 30cb 00       		.byte	0x0
 5185 30cc 07       		.uleb128 0x7
 5186 30cd 04       		.byte	0x4
 5187 30ce AD300000 		.long	0x30ad
 5188 30d2 14       		.uleb128 0x14
 5189 30d3 01       		.byte	0x1
 5190 30d4 A1010000 		.long	0x1a1
 5191 30d8 F1300000 		.long	0x30f1
 5192 30dc 15       		.uleb128 0x15
 5193 30dd 14210000 		.long	0x2114
 5194 30e1 15       		.uleb128 0x15
 5195 30e2 31020000 		.long	0x231
 5196 30e6 15       		.uleb128 0x15
 5197 30e7 1E200000 		.long	0x201e
 5198 30eb 15       		.uleb128 0x15
 5199 30ec 92230000 		.long	0x2392
 5200 30f0 00       		.byte	0x0
 5201 30f1 07       		.uleb128 0x7
 5202 30f2 04       		.byte	0x4
 5203 30f3 D2300000 		.long	0x30d2
 5204 30f7 14       		.uleb128 0x14
 5205 30f8 01       		.byte	0x1
 5206 30f9 AF010000 		.long	0x1af
 5207 30fd 12310000 		.long	0x3112
 5208 3101 15       		.uleb128 0x15
 5209 3102 14210000 		.long	0x2114
 5210 3106 15       		.uleb128 0x15
 5211 3107 31020000 		.long	0x231
 5212 310b 15       		.uleb128 0x15
 5213 310c 1E200000 		.long	0x201e
 5214 3110 17       		.uleb128 0x17
 5215 3111 00       		.byte	0x0
 5216 3112 07       		.uleb128 0x7
 5217 3113 04       		.byte	0x4
GAS LISTING /cygdrive/c/Users/THESCI~1/AppData/Local/Temp/cchZ1Zdn.s 			page 116


 5218 3114 F7300000 		.long	0x30f7
 5219 3118 14       		.uleb128 0x14
 5220 3119 01       		.byte	0x1
 5221 311a AF010000 		.long	0x1af
 5222 311e 37310000 		.long	0x3137
 5223 3122 15       		.uleb128 0x15
 5224 3123 14210000 		.long	0x2114
 5225 3127 15       		.uleb128 0x15
 5226 3128 31020000 		.long	0x231
 5227 312c 15       		.uleb128 0x15
 5228 312d 1E200000 		.long	0x201e
 5229 3131 15       		.uleb128 0x15
 5230 3132 85010000 		.long	0x185
 5231 3136 00       		.byte	0x0
 5232 3137 07       		.uleb128 0x7
 5233 3138 04       		.byte	0x4
 5234 3139 18310000 		.long	0x3118
 5235 313d 14       		.uleb128 0x14
 5236 313e 01       		.byte	0x1
 5237 313f AF010000 		.long	0x1af
 5238 3143 5C310000 		.long	0x315c
 5239 3147 15       		.uleb128 0x15
 5240 3148 14210000 		.long	0x2114
 5241 314c 15       		.uleb128 0x15
 5242 314d 31020000 		.long	0x231
 5243 3151 15       		.uleb128 0x15
 5244 3152 1E200000 		.long	0x201e
 5245 3156 15       		.uleb128 0x15
 5246 3157 92230000 		.long	0x2392
 5247 315b 00       		.byte	0x0
 5248 315c 07       		.uleb128 0x7
 5249 315d 04       		.byte	0x4
 5250 315e 3D310000 		.long	0x313d
 5251 3162 14       		.uleb128 0x14
 5252 3163 01       		.byte	0x1
 5253 3164 BB010000 		.long	0x1bb
 5254 3168 7D310000 		.long	0x317d
 5255 316c 15       		.uleb128 0x15
 5256 316d 14210000 		.long	0x2114
 5257 3171 15       		.uleb128 0x15
 5258 3172 31020000 		.long	0x231
 5259 3176 15       		.uleb128 0x15
 5260 3177 1E200000 		.long	0x201e
 5261 317b 17       		.uleb128 0x17
 5262 317c 00       		.byte	0x0
 5263 317d 07       		.uleb128 0x7
 5264 317e 04       		.byte	0x4
 5265 317f 62310000 		.long	0x3162
 5266 3183 14       		.uleb128 0x14
 5267 3184 01       		.byte	0x1
 5268 3185 BB010000 		.long	0x1bb
 5269 3189 A2310000 		.long	0x31a2
 5270 318d 15       		.uleb128 0x15
 5271 318e 14210000 		.long	0x2114
 5272 3192 15       		.uleb128 0x15
 5273 3193 31020000 		.long	0x231
 5274 3197 15       		.uleb128 0x15
GAS LISTING /cygdrive/c/Users/THESCI~1/AppData/Local/Temp/cchZ1Zdn.s 			page 117


 5275 3198 1E200000 		.long	0x201e
 5276 319c 15       		.uleb128 0x15
 5277 319d 85010000 		.long	0x185
 5278 31a1 00       		.byte	0x0
 5279 31a2 07       		.uleb128 0x7
 5280 31a3 04       		.byte	0x4
 5281 31a4 83310000 		.long	0x3183
 5282 31a8 14       		.uleb128 0x14
 5283 31a9 01       		.byte	0x1
 5284 31aa BB010000 		.long	0x1bb
 5285 31ae C7310000 		.long	0x31c7
 5286 31b2 15       		.uleb128 0x15
 5287 31b3 14210000 		.long	0x2114
 5288 31b7 15       		.uleb128 0x15
 5289 31b8 31020000 		.long	0x231
 5290 31bc 15       		.uleb128 0x15
 5291 31bd 1E200000 		.long	0x201e
 5292 31c1 15       		.uleb128 0x15
 5293 31c2 92230000 		.long	0x2392
 5294 31c6 00       		.byte	0x0
 5295 31c7 07       		.uleb128 0x7
 5296 31c8 04       		.byte	0x4
 5297 31c9 A8310000 		.long	0x31a8
 5298 31cd 14       		.uleb128 0x14
 5299 31ce 01       		.byte	0x1
 5300 31cf E5010000 		.long	0x1e5
 5301 31d3 E8310000 		.long	0x31e8
 5302 31d7 15       		.uleb128 0x15
 5303 31d8 14210000 		.long	0x2114
 5304 31dc 15       		.uleb128 0x15
 5305 31dd 31020000 		.long	0x231
 5306 31e1 15       		.uleb128 0x15
 5307 31e2 1E200000 		.long	0x201e
 5308 31e6 17       		.uleb128 0x17
 5309 31e7 00       		.byte	0x0
 5310 31e8 07       		.uleb128 0x7
 5311 31e9 04       		.byte	0x4
 5312 31ea CD310000 		.long	0x31cd
 5313 31ee 14       		.uleb128 0x14
 5314 31ef 01       		.byte	0x1
 5315 31f0 E5010000 		.long	0x1e5
 5316 31f4 0D320000 		.long	0x320d
 5317 31f8 15       		.uleb128 0x15
 5318 31f9 14210000 		.long	0x2114
 5319 31fd 15       		.uleb128 0x15
 5320 31fe 31020000 		.long	0x231
 5321 3202 15       		.uleb128 0x15
 5322 3203 1E200000 		.long	0x201e
 5323 3207 15       		.uleb128 0x15
 5324 3208 85010000 		.long	0x185
 5325 320c 00       		.byte	0x0
 5326 320d 07       		.uleb128 0x7
 5327 320e 04       		.byte	0x4
 5328 320f EE310000 		.long	0x31ee
 5329 3213 14       		.uleb128 0x14
 5330 3214 01       		.byte	0x1
 5331 3215 E5010000 		.long	0x1e5
GAS LISTING /cygdrive/c/Users/THESCI~1/AppData/Local/Temp/cchZ1Zdn.s 			page 118


 5332 3219 32320000 		.long	0x3232
 5333 321d 15       		.uleb128 0x15
 5334 321e 14210000 		.long	0x2114
 5335 3222 15       		.uleb128 0x15
 5336 3223 31020000 		.long	0x231
 5337 3227 15       		.uleb128 0x15
 5338 3228 1E200000 		.long	0x201e
 5339 322c 15       		.uleb128 0x15
 5340 322d 92230000 		.long	0x2392
 5341 3231 00       		.byte	0x0
 5342 3232 07       		.uleb128 0x7
 5343 3233 04       		.byte	0x4
 5344 3234 13320000 		.long	0x3213
 5345 3238 14       		.uleb128 0x14
 5346 3239 01       		.byte	0x1
 5347 323a FC010000 		.long	0x1fc
 5348 323e 53320000 		.long	0x3253
 5349 3242 15       		.uleb128 0x15
 5350 3243 14210000 		.long	0x2114
 5351 3247 15       		.uleb128 0x15
 5352 3248 31020000 		.long	0x231
 5353 324c 15       		.uleb128 0x15
 5354 324d 1E200000 		.long	0x201e
 5355 3251 17       		.uleb128 0x17
 5356 3252 00       		.byte	0x0
 5357 3253 07       		.uleb128 0x7
 5358 3254 04       		.byte	0x4
 5359 3255 38320000 		.long	0x3238
 5360 3259 14       		.uleb128 0x14
 5361 325a 01       		.byte	0x1
 5362 325b FC010000 		.long	0x1fc
 5363 325f 78320000 		.long	0x3278
 5364 3263 15       		.uleb128 0x15
 5365 3264 14210000 		.long	0x2114
 5366 3268 15       		.uleb128 0x15
 5367 3269 31020000 		.long	0x231
 5368 326d 15       		.uleb128 0x15
 5369 326e 1E200000 		.long	0x201e
 5370 3272 15       		.uleb128 0x15
 5371 3273 85010000 		.long	0x185
 5372 3277 00       		.byte	0x0
 5373 3278 07       		.uleb128 0x7
 5374 3279 04       		.byte	0x4
 5375 327a 59320000 		.long	0x3259
 5376 327e 14       		.uleb128 0x14
 5377 327f 01       		.byte	0x1
 5378 3280 FC010000 		.long	0x1fc
 5379 3284 9D320000 		.long	0x329d
 5380 3288 15       		.uleb128 0x15
 5381 3289 14210000 		.long	0x2114
 5382 328d 15       		.uleb128 0x15
 5383 328e 31020000 		.long	0x231
 5384 3292 15       		.uleb128 0x15
 5385 3293 1E200000 		.long	0x201e
 5386 3297 15       		.uleb128 0x15
 5387 3298 92230000 		.long	0x2392
 5388 329c 00       		.byte	0x0
GAS LISTING /cygdrive/c/Users/THESCI~1/AppData/Local/Temp/cchZ1Zdn.s 			page 119


 5389 329d 07       		.uleb128 0x7
 5390 329e 04       		.byte	0x4
 5391 329f 7E320000 		.long	0x327e
 5392 32a3 16       		.uleb128 0x16
 5393 32a4 01       		.byte	0x1
 5394 32a5 BA320000 		.long	0x32ba
 5395 32a9 15       		.uleb128 0x15
 5396 32aa 14210000 		.long	0x2114
 5397 32ae 15       		.uleb128 0x15
 5398 32af 31020000 		.long	0x231
 5399 32b3 15       		.uleb128 0x15
 5400 32b4 1E200000 		.long	0x201e
 5401 32b8 17       		.uleb128 0x17
 5402 32b9 00       		.byte	0x0
 5403 32ba 07       		.uleb128 0x7
 5404 32bb 04       		.byte	0x4
 5405 32bc A3320000 		.long	0x32a3
 5406 32c0 16       		.uleb128 0x16
 5407 32c1 01       		.byte	0x1
 5408 32c2 DB320000 		.long	0x32db
 5409 32c6 15       		.uleb128 0x15
 5410 32c7 14210000 		.long	0x2114
 5411 32cb 15       		.uleb128 0x15
 5412 32cc 31020000 		.long	0x231
 5413 32d0 15       		.uleb128 0x15
 5414 32d1 1E200000 		.long	0x201e
 5415 32d5 15       		.uleb128 0x15
 5416 32d6 85010000 		.long	0x185
 5417 32da 00       		.byte	0x0
 5418 32db 07       		.uleb128 0x7
 5419 32dc 04       		.byte	0x4
 5420 32dd C0320000 		.long	0x32c0
 5421 32e1 16       		.uleb128 0x16
 5422 32e2 01       		.byte	0x1
 5423 32e3 FC320000 		.long	0x32fc
 5424 32e7 15       		.uleb128 0x15
 5425 32e8 14210000 		.long	0x2114
 5426 32ec 15       		.uleb128 0x15
 5427 32ed 31020000 		.long	0x231
 5428 32f1 15       		.uleb128 0x15
 5429 32f2 1E200000 		.long	0x201e
 5430 32f6 15       		.uleb128 0x15
 5431 32f7 92230000 		.long	0x2392
 5432 32fb 00       		.byte	0x0
 5433 32fc 07       		.uleb128 0x7
 5434 32fd 04       		.byte	0x4
 5435 32fe E1320000 		.long	0x32e1
 5436 3302 14       		.uleb128 0x14
 5437 3303 01       		.byte	0x1
 5438 3304 22020000 		.long	0x222
 5439 3308 1C330000 		.long	0x331c
 5440 330c 15       		.uleb128 0x15
 5441 330d 14210000 		.long	0x2114
 5442 3311 15       		.uleb128 0x15
 5443 3312 31020000 		.long	0x231
 5444 3316 15       		.uleb128 0x15
 5445 3317 FC1F0000 		.long	0x1ffc
GAS LISTING /cygdrive/c/Users/THESCI~1/AppData/Local/Temp/cchZ1Zdn.s 			page 120


 5446 331b 00       		.byte	0x0
 5447 331c 07       		.uleb128 0x7
 5448 331d 04       		.byte	0x4
 5449 331e 02330000 		.long	0x3302
 5450 3322 14       		.uleb128 0x14
 5451 3323 01       		.byte	0x1
 5452 3324 C8010000 		.long	0x1c8
 5453 3328 3C330000 		.long	0x333c
 5454 332c 15       		.uleb128 0x15
 5455 332d 14210000 		.long	0x2114
 5456 3331 15       		.uleb128 0x15
 5457 3332 31020000 		.long	0x231
 5458 3336 15       		.uleb128 0x15
 5459 3337 FC1F0000 		.long	0x1ffc
 5460 333b 00       		.byte	0x0
 5461 333c 07       		.uleb128 0x7
 5462 333d 04       		.byte	0x4
 5463 333e 22330000 		.long	0x3322
 5464 3342 14       		.uleb128 0x14
 5465 3343 01       		.byte	0x1
 5466 3344 94010000 		.long	0x194
 5467 3348 5C330000 		.long	0x335c
 5468 334c 15       		.uleb128 0x15
 5469 334d 14210000 		.long	0x2114
 5470 3351 15       		.uleb128 0x15
 5471 3352 31020000 		.long	0x231
 5472 3356 15       		.uleb128 0x15
 5473 3357 FC1F0000 		.long	0x1ffc
 5474 335b 00       		.byte	0x0
 5475 335c 07       		.uleb128 0x7
 5476 335d 04       		.byte	0x4
 5477 335e 42330000 		.long	0x3342
 5478 3362 14       		.uleb128 0x14
 5479 3363 01       		.byte	0x1
 5480 3364 D8010000 		.long	0x1d8
 5481 3368 7C330000 		.long	0x337c
 5482 336c 15       		.uleb128 0x15
 5483 336d 14210000 		.long	0x2114
 5484 3371 15       		.uleb128 0x15
 5485 3372 31020000 		.long	0x231
 5486 3376 15       		.uleb128 0x15
 5487 3377 FC1F0000 		.long	0x1ffc
 5488 337b 00       		.byte	0x0
 5489 337c 07       		.uleb128 0x7
 5490 337d 04       		.byte	0x4
 5491 337e 62330000 		.long	0x3362
 5492 3382 14       		.uleb128 0x14
 5493 3383 01       		.byte	0x1
 5494 3384 A1010000 		.long	0x1a1
 5495 3388 9C330000 		.long	0x339c
 5496 338c 15       		.uleb128 0x15
 5497 338d 14210000 		.long	0x2114
 5498 3391 15       		.uleb128 0x15
 5499 3392 31020000 		.long	0x231
 5500 3396 15       		.uleb128 0x15
 5501 3397 FC1F0000 		.long	0x1ffc
 5502 339b 00       		.byte	0x0
GAS LISTING /cygdrive/c/Users/THESCI~1/AppData/Local/Temp/cchZ1Zdn.s 			page 121


 5503 339c 07       		.uleb128 0x7
 5504 339d 04       		.byte	0x4
 5505 339e 82330000 		.long	0x3382
 5506 33a2 14       		.uleb128 0x14
 5507 33a3 01       		.byte	0x1
 5508 33a4 AF010000 		.long	0x1af
 5509 33a8 BC330000 		.long	0x33bc
 5510 33ac 15       		.uleb128 0x15
 5511 33ad 14210000 		.long	0x2114
 5512 33b1 15       		.uleb128 0x15
 5513 33b2 31020000 		.long	0x231
 5514 33b6 15       		.uleb128 0x15
 5515 33b7 FC1F0000 		.long	0x1ffc
 5516 33bb 00       		.byte	0x0
 5517 33bc 07       		.uleb128 0x7
 5518 33bd 04       		.byte	0x4
 5519 33be A2330000 		.long	0x33a2
 5520 33c2 14       		.uleb128 0x14
 5521 33c3 01       		.byte	0x1
 5522 33c4 BB010000 		.long	0x1bb
 5523 33c8 DC330000 		.long	0x33dc
 5524 33cc 15       		.uleb128 0x15
 5525 33cd 14210000 		.long	0x2114
 5526 33d1 15       		.uleb128 0x15
 5527 33d2 31020000 		.long	0x231
 5528 33d6 15       		.uleb128 0x15
 5529 33d7 FC1F0000 		.long	0x1ffc
 5530 33db 00       		.byte	0x0
 5531 33dc 07       		.uleb128 0x7
 5532 33dd 04       		.byte	0x4
 5533 33de C2330000 		.long	0x33c2
 5534 33e2 14       		.uleb128 0x14
 5535 33e3 01       		.byte	0x1
 5536 33e4 E5010000 		.long	0x1e5
 5537 33e8 FC330000 		.long	0x33fc
 5538 33ec 15       		.uleb128 0x15
 5539 33ed 14210000 		.long	0x2114
 5540 33f1 15       		.uleb128 0x15
 5541 33f2 31020000 		.long	0x231
 5542 33f6 15       		.uleb128 0x15
 5543 33f7 FC1F0000 		.long	0x1ffc
 5544 33fb 00       		.byte	0x0
 5545 33fc 07       		.uleb128 0x7
 5546 33fd 04       		.byte	0x4
 5547 33fe E2330000 		.long	0x33e2
 5548 3402 14       		.uleb128 0x14
 5549 3403 01       		.byte	0x1
 5550 3404 FC010000 		.long	0x1fc
 5551 3408 1C340000 		.long	0x341c
 5552 340c 15       		.uleb128 0x15
 5553 340d 14210000 		.long	0x2114
 5554 3411 15       		.uleb128 0x15
 5555 3412 31020000 		.long	0x231
 5556 3416 15       		.uleb128 0x15
 5557 3417 FC1F0000 		.long	0x1ffc
 5558 341b 00       		.byte	0x0
 5559 341c 07       		.uleb128 0x7
GAS LISTING /cygdrive/c/Users/THESCI~1/AppData/Local/Temp/cchZ1Zdn.s 			page 122


 5560 341d 04       		.byte	0x4
 5561 341e 02340000 		.long	0x3402
 5562 3422 16       		.uleb128 0x16
 5563 3423 01       		.byte	0x1
 5564 3424 3D340000 		.long	0x343d
 5565 3428 15       		.uleb128 0x15
 5566 3429 14210000 		.long	0x2114
 5567 342d 15       		.uleb128 0x15
 5568 342e 31020000 		.long	0x231
 5569 3432 15       		.uleb128 0x15
 5570 3433 FC1F0000 		.long	0x1ffc
 5571 3437 15       		.uleb128 0x15
 5572 3438 22020000 		.long	0x222
 5573 343c 00       		.byte	0x0
 5574 343d 07       		.uleb128 0x7
 5575 343e 04       		.byte	0x4
 5576 343f 22340000 		.long	0x3422
 5577 3443 16       		.uleb128 0x16
 5578 3444 01       		.byte	0x1
 5579 3445 5E340000 		.long	0x345e
 5580 3449 15       		.uleb128 0x15
 5581 344a 14210000 		.long	0x2114
 5582 344e 15       		.uleb128 0x15
 5583 344f 31020000 		.long	0x231
 5584 3453 15       		.uleb128 0x15
 5585 3454 FC1F0000 		.long	0x1ffc
 5586 3458 15       		.uleb128 0x15
 5587 3459 C8010000 		.long	0x1c8
 5588 345d 00       		.byte	0x0
 5589 345e 07       		.uleb128 0x7
 5590 345f 04       		.byte	0x4
 5591 3460 43340000 		.long	0x3443
 5592 3464 16       		.uleb128 0x16
 5593 3465 01       		.byte	0x1
 5594 3466 7F340000 		.long	0x347f
 5595 346a 15       		.uleb128 0x15
 5596 346b 14210000 		.long	0x2114
 5597 346f 15       		.uleb128 0x15
 5598 3470 31020000 		.long	0x231
 5599 3474 15       		.uleb128 0x15
 5600 3475 FC1F0000 		.long	0x1ffc
 5601 3479 15       		.uleb128 0x15
 5602 347a 94010000 		.long	0x194
 5603 347e 00       		.byte	0x0
 5604 347f 07       		.uleb128 0x7
 5605 3480 04       		.byte	0x4
 5606 3481 64340000 		.long	0x3464
 5607 3485 16       		.uleb128 0x16
 5608 3486 01       		.byte	0x1
 5609 3487 A0340000 		.long	0x34a0
 5610 348b 15       		.uleb128 0x15
 5611 348c 14210000 		.long	0x2114
 5612 3490 15       		.uleb128 0x15
 5613 3491 31020000 		.long	0x231
 5614 3495 15       		.uleb128 0x15
 5615 3496 FC1F0000 		.long	0x1ffc
 5616 349a 15       		.uleb128 0x15
GAS LISTING /cygdrive/c/Users/THESCI~1/AppData/Local/Temp/cchZ1Zdn.s 			page 123


 5617 349b D8010000 		.long	0x1d8
 5618 349f 00       		.byte	0x0
 5619 34a0 07       		.uleb128 0x7
 5620 34a1 04       		.byte	0x4
 5621 34a2 85340000 		.long	0x3485
 5622 34a6 16       		.uleb128 0x16
 5623 34a7 01       		.byte	0x1
 5624 34a8 C1340000 		.long	0x34c1
 5625 34ac 15       		.uleb128 0x15
 5626 34ad 14210000 		.long	0x2114
 5627 34b1 15       		.uleb128 0x15
 5628 34b2 31020000 		.long	0x231
 5629 34b6 15       		.uleb128 0x15
 5630 34b7 FC1F0000 		.long	0x1ffc
 5631 34bb 15       		.uleb128 0x15
 5632 34bc A1010000 		.long	0x1a1
 5633 34c0 00       		.byte	0x0
 5634 34c1 07       		.uleb128 0x7
 5635 34c2 04       		.byte	0x4
 5636 34c3 A6340000 		.long	0x34a6
 5637 34c7 16       		.uleb128 0x16
 5638 34c8 01       		.byte	0x1
 5639 34c9 E2340000 		.long	0x34e2
 5640 34cd 15       		.uleb128 0x15
 5641 34ce 14210000 		.long	0x2114
 5642 34d2 15       		.uleb128 0x15
 5643 34d3 31020000 		.long	0x231
 5644 34d7 15       		.uleb128 0x15
 5645 34d8 FC1F0000 		.long	0x1ffc
 5646 34dc 15       		.uleb128 0x15
 5647 34dd AF010000 		.long	0x1af
 5648 34e1 00       		.byte	0x0
 5649 34e2 07       		.uleb128 0x7
 5650 34e3 04       		.byte	0x4
 5651 34e4 C7340000 		.long	0x34c7
 5652 34e8 16       		.uleb128 0x16
 5653 34e9 01       		.byte	0x1
 5654 34ea 03350000 		.long	0x3503
 5655 34ee 15       		.uleb128 0x15
 5656 34ef 14210000 		.long	0x2114
 5657 34f3 15       		.uleb128 0x15
 5658 34f4 31020000 		.long	0x231
 5659 34f8 15       		.uleb128 0x15
 5660 34f9 FC1F0000 		.long	0x1ffc
 5661 34fd 15       		.uleb128 0x15
 5662 34fe BB010000 		.long	0x1bb
 5663 3502 00       		.byte	0x0
 5664 3503 07       		.uleb128 0x7
 5665 3504 04       		.byte	0x4
 5666 3505 E8340000 		.long	0x34e8
 5667 3509 16       		.uleb128 0x16
 5668 350a 01       		.byte	0x1
 5669 350b 24350000 		.long	0x3524
 5670 350f 15       		.uleb128 0x15
 5671 3510 14210000 		.long	0x2114
 5672 3514 15       		.uleb128 0x15
 5673 3515 31020000 		.long	0x231
GAS LISTING /cygdrive/c/Users/THESCI~1/AppData/Local/Temp/cchZ1Zdn.s 			page 124


 5674 3519 15       		.uleb128 0x15
 5675 351a FC1F0000 		.long	0x1ffc
 5676 351e 15       		.uleb128 0x15
 5677 351f E5010000 		.long	0x1e5
 5678 3523 00       		.byte	0x0
 5679 3524 07       		.uleb128 0x7
 5680 3525 04       		.byte	0x4
 5681 3526 09350000 		.long	0x3509
 5682 352a 16       		.uleb128 0x16
 5683 352b 01       		.byte	0x1
 5684 352c 45350000 		.long	0x3545
 5685 3530 15       		.uleb128 0x15
 5686 3531 14210000 		.long	0x2114
 5687 3535 15       		.uleb128 0x15
 5688 3536 31020000 		.long	0x231
 5689 353a 15       		.uleb128 0x15
 5690 353b FC1F0000 		.long	0x1ffc
 5691 353f 15       		.uleb128 0x15
 5692 3540 FC010000 		.long	0x1fc
 5693 3544 00       		.byte	0x0
 5694 3545 07       		.uleb128 0x7
 5695 3546 04       		.byte	0x4
 5696 3547 2A350000 		.long	0x352a
 5697 354b 14       		.uleb128 0x14
 5698 354c 01       		.byte	0x1
 5699 354d 3F020000 		.long	0x23f
 5700 3551 65350000 		.long	0x3565
 5701 3555 15       		.uleb128 0x15
 5702 3556 14210000 		.long	0x2114
 5703 355a 15       		.uleb128 0x15
 5704 355b 65350000 		.long	0x3565
 5705 355f 15       		.uleb128 0x15
 5706 3560 15020000 		.long	0x215
 5707 3564 00       		.byte	0x0
 5708 3565 07       		.uleb128 0x7
 5709 3566 04       		.byte	0x4
 5710 3567 6B350000 		.long	0x356b
 5711 356b 08       		.uleb128 0x8
 5712 356c D8010000 		.long	0x1d8
 5713 3570 07       		.uleb128 0x7
 5714 3571 04       		.byte	0x4
 5715 3572 4B350000 		.long	0x354b
 5716 3576 14       		.uleb128 0x14
 5717 3577 01       		.byte	0x1
 5718 3578 15020000 		.long	0x215
 5719 357c 8B350000 		.long	0x358b
 5720 3580 15       		.uleb128 0x15
 5721 3581 14210000 		.long	0x2114
 5722 3585 15       		.uleb128 0x15
 5723 3586 3F020000 		.long	0x23f
 5724 358a 00       		.byte	0x0
 5725 358b 07       		.uleb128 0x7
 5726 358c 04       		.byte	0x4
 5727 358d 76350000 		.long	0x3576
 5728 3591 14       		.uleb128 0x14
 5729 3592 01       		.byte	0x1
 5730 3593 65350000 		.long	0x3565
GAS LISTING /cygdrive/c/Users/THESCI~1/AppData/Local/Temp/cchZ1Zdn.s 			page 125


 5731 3597 AB350000 		.long	0x35ab
 5732 359b 15       		.uleb128 0x15
 5733 359c 14210000 		.long	0x2114
 5734 35a0 15       		.uleb128 0x15
 5735 35a1 3F020000 		.long	0x23f
 5736 35a5 15       		.uleb128 0x15
 5737 35a6 AB350000 		.long	0x35ab
 5738 35aa 00       		.byte	0x0
 5739 35ab 07       		.uleb128 0x7
 5740 35ac 04       		.byte	0x4
 5741 35ad C8010000 		.long	0x1c8
 5742 35b1 07       		.uleb128 0x7
 5743 35b2 04       		.byte	0x4
 5744 35b3 91350000 		.long	0x3591
 5745 35b7 16       		.uleb128 0x16
 5746 35b8 01       		.byte	0x1
 5747 35b9 CD350000 		.long	0x35cd
 5748 35bd 15       		.uleb128 0x15
 5749 35be 14210000 		.long	0x2114
 5750 35c2 15       		.uleb128 0x15
 5751 35c3 3F020000 		.long	0x23f
 5752 35c7 15       		.uleb128 0x15
 5753 35c8 65350000 		.long	0x3565
 5754 35cc 00       		.byte	0x0
 5755 35cd 07       		.uleb128 0x7
 5756 35ce 04       		.byte	0x4
 5757 35cf B7350000 		.long	0x35b7
 5758 35d3 14       		.uleb128 0x14
 5759 35d4 01       		.byte	0x1
 5760 35d5 3F020000 		.long	0x23f
 5761 35d9 E8350000 		.long	0x35e8
 5762 35dd 15       		.uleb128 0x15
 5763 35de 14210000 		.long	0x2114
 5764 35e2 15       		.uleb128 0x15
 5765 35e3 7A010000 		.long	0x17a
 5766 35e7 00       		.byte	0x0
 5767 35e8 07       		.uleb128 0x7
 5768 35e9 04       		.byte	0x4
 5769 35ea D3350000 		.long	0x35d3
 5770 35ee 14       		.uleb128 0x14
 5771 35ef 01       		.byte	0x1
 5772 35f0 7A010000 		.long	0x17a
 5773 35f4 08360000 		.long	0x3608
 5774 35f8 15       		.uleb128 0x15
 5775 35f9 14210000 		.long	0x2114
 5776 35fd 15       		.uleb128 0x15
 5777 35fe 3F020000 		.long	0x23f
 5778 3602 15       		.uleb128 0x15
 5779 3603 AB350000 		.long	0x35ab
 5780 3607 00       		.byte	0x0
 5781 3608 07       		.uleb128 0x7
 5782 3609 04       		.byte	0x4
 5783 360a EE350000 		.long	0x35ee
 5784 360e 16       		.uleb128 0x16
 5785 360f 01       		.byte	0x1
 5786 3610 24360000 		.long	0x3624
 5787 3614 15       		.uleb128 0x15
GAS LISTING /cygdrive/c/Users/THESCI~1/AppData/Local/Temp/cchZ1Zdn.s 			page 126


 5788 3615 14210000 		.long	0x2114
 5789 3619 15       		.uleb128 0x15
 5790 361a 3F020000 		.long	0x23f
 5791 361e 15       		.uleb128 0x15
 5792 361f 7A010000 		.long	0x17a
 5793 3623 00       		.byte	0x0
 5794 3624 07       		.uleb128 0x7
 5795 3625 04       		.byte	0x4
 5796 3626 0E360000 		.long	0x360e
 5797 362a 14       		.uleb128 0x14
 5798 362b 01       		.byte	0x1
 5799 362c 15020000 		.long	0x215
 5800 3630 3F360000 		.long	0x363f
 5801 3634 15       		.uleb128 0x15
 5802 3635 14210000 		.long	0x2114
 5803 3639 15       		.uleb128 0x15
 5804 363a 6D020000 		.long	0x26d
 5805 363e 00       		.byte	0x0
 5806 363f 07       		.uleb128 0x7
 5807 3640 04       		.byte	0x4
 5808 3641 2A360000 		.long	0x362a
 5809 3645 14       		.uleb128 0x14
 5810 3646 01       		.byte	0x1
 5811 3647 7B020000 		.long	0x27b
 5812 364b 64360000 		.long	0x3664
 5813 364f 15       		.uleb128 0x15
 5814 3650 14210000 		.long	0x2114
 5815 3654 15       		.uleb128 0x15
 5816 3655 15020000 		.long	0x215
 5817 3659 15       		.uleb128 0x15
 5818 365a 31020000 		.long	0x231
 5819 365e 15       		.uleb128 0x15
 5820 365f 22020000 		.long	0x222
 5821 3663 00       		.byte	0x0
 5822 3664 07       		.uleb128 0x7
 5823 3665 04       		.byte	0x4
 5824 3666 45360000 		.long	0x3645
 5825 366a 14       		.uleb128 0x14
 5826 366b 01       		.byte	0x1
 5827 366c 22020000 		.long	0x222
 5828 3670 84360000 		.long	0x3684
 5829 3674 15       		.uleb128 0x15
 5830 3675 14210000 		.long	0x2114
 5831 3679 15       		.uleb128 0x15
 5832 367a 7B020000 		.long	0x27b
 5833 367e 15       		.uleb128 0x15
 5834 367f 15020000 		.long	0x215
 5835 3683 00       		.byte	0x0
 5836 3684 07       		.uleb128 0x7
 5837 3685 04       		.byte	0x4
 5838 3686 6A360000 		.long	0x366a
 5839 368a 16       		.uleb128 0x16
 5840 368b 01       		.byte	0x1
 5841 368c A5360000 		.long	0x36a5
 5842 3690 15       		.uleb128 0x15
 5843 3691 14210000 		.long	0x2114
 5844 3695 15       		.uleb128 0x15
GAS LISTING /cygdrive/c/Users/THESCI~1/AppData/Local/Temp/cchZ1Zdn.s 			page 127


 5845 3696 7B020000 		.long	0x27b
 5846 369a 15       		.uleb128 0x15
 5847 369b 15020000 		.long	0x215
 5848 369f 15       		.uleb128 0x15
 5849 36a0 22020000 		.long	0x222
 5850 36a4 00       		.byte	0x0
 5851 36a5 07       		.uleb128 0x7
 5852 36a6 04       		.byte	0x4
 5853 36a7 8A360000 		.long	0x368a
 5854 36ab 14       		.uleb128 0x14
 5855 36ac 01       		.byte	0x1
 5856 36ad D7020000 		.long	0x2d7
 5857 36b1 C0360000 		.long	0x36c0
 5858 36b5 15       		.uleb128 0x15
 5859 36b6 14210000 		.long	0x2114
 5860 36ba 15       		.uleb128 0x15
 5861 36bb 15020000 		.long	0x215
 5862 36bf 00       		.byte	0x0
 5863 36c0 07       		.uleb128 0x7
 5864 36c1 04       		.byte	0x4
 5865 36c2 AB360000 		.long	0x36ab
 5866 36c6 14       		.uleb128 0x14
 5867 36c7 01       		.byte	0x1
 5868 36c8 8F020000 		.long	0x28f
 5869 36cc DB360000 		.long	0x36db
 5870 36d0 15       		.uleb128 0x15
 5871 36d1 14210000 		.long	0x2114
 5872 36d5 15       		.uleb128 0x15
 5873 36d6 15020000 		.long	0x215
 5874 36da 00       		.byte	0x0
 5875 36db 07       		.uleb128 0x7
 5876 36dc 04       		.byte	0x4
 5877 36dd C6360000 		.long	0x36c6
 5878 36e1 14       		.uleb128 0x14
 5879 36e2 01       		.byte	0x1
 5880 36e3 EC020000 		.long	0x2ec
 5881 36e7 F6360000 		.long	0x36f6
 5882 36eb 15       		.uleb128 0x15
 5883 36ec 14210000 		.long	0x2114
 5884 36f0 15       		.uleb128 0x15
 5885 36f1 15020000 		.long	0x215
 5886 36f5 00       		.byte	0x0
 5887 36f6 07       		.uleb128 0x7
 5888 36f7 04       		.byte	0x4
 5889 36f8 E1360000 		.long	0x36e1
 5890 36fc 14       		.uleb128 0x14
 5891 36fd 01       		.byte	0x1
 5892 36fe A1020000 		.long	0x2a1
 5893 3702 11370000 		.long	0x3711
 5894 3706 15       		.uleb128 0x15
 5895 3707 14210000 		.long	0x2114
 5896 370b 15       		.uleb128 0x15
 5897 370c 15020000 		.long	0x215
 5898 3710 00       		.byte	0x0
 5899 3711 07       		.uleb128 0x7
 5900 3712 04       		.byte	0x4
 5901 3713 FC360000 		.long	0x36fc
GAS LISTING /cygdrive/c/Users/THESCI~1/AppData/Local/Temp/cchZ1Zdn.s 			page 128


 5902 3717 14       		.uleb128 0x14
 5903 3718 01       		.byte	0x1
 5904 3719 B4020000 		.long	0x2b4
 5905 371d 2C370000 		.long	0x372c
 5906 3721 15       		.uleb128 0x15
 5907 3722 14210000 		.long	0x2114
 5908 3726 15       		.uleb128 0x15
 5909 3727 15020000 		.long	0x215
 5910 372b 00       		.byte	0x0
 5911 372c 07       		.uleb128 0x7
 5912 372d 04       		.byte	0x4
 5913 372e 17370000 		.long	0x3717
 5914 3732 14       		.uleb128 0x14
 5915 3733 01       		.byte	0x1
 5916 3734 C5020000 		.long	0x2c5
 5917 3738 47370000 		.long	0x3747
 5918 373c 15       		.uleb128 0x15
 5919 373d 14210000 		.long	0x2114
 5920 3741 15       		.uleb128 0x15
 5921 3742 15020000 		.long	0x215
 5922 3746 00       		.byte	0x0
 5923 3747 07       		.uleb128 0x7
 5924 3748 04       		.byte	0x4
 5925 3749 32370000 		.long	0x3732
 5926 374d 14       		.uleb128 0x14
 5927 374e 01       		.byte	0x1
 5928 374f FE020000 		.long	0x2fe
 5929 3753 62370000 		.long	0x3762
 5930 3757 15       		.uleb128 0x15
 5931 3758 14210000 		.long	0x2114
 5932 375c 15       		.uleb128 0x15
 5933 375d 15020000 		.long	0x215
 5934 3761 00       		.byte	0x0
 5935 3762 07       		.uleb128 0x7
 5936 3763 04       		.byte	0x4
 5937 3764 4D370000 		.long	0x374d
 5938 3768 14       		.uleb128 0x14
 5939 3769 01       		.byte	0x1
 5940 376a 11030000 		.long	0x311
 5941 376e 7D370000 		.long	0x377d
 5942 3772 15       		.uleb128 0x15
 5943 3773 14210000 		.long	0x2114
 5944 3777 15       		.uleb128 0x15
 5945 3778 15020000 		.long	0x215
 5946 377c 00       		.byte	0x0
 5947 377d 07       		.uleb128 0x7
 5948 377e 04       		.byte	0x4
 5949 377f 68370000 		.long	0x3768
 5950 3783 14       		.uleb128 0x14
 5951 3784 01       		.byte	0x1
 5952 3785 AB350000 		.long	0x35ab
 5953 3789 9D370000 		.long	0x379d
 5954 378d 15       		.uleb128 0x15
 5955 378e 14210000 		.long	0x2114
 5956 3792 15       		.uleb128 0x15
 5957 3793 D7020000 		.long	0x2d7
 5958 3797 15       		.uleb128 0x15
GAS LISTING /cygdrive/c/Users/THESCI~1/AppData/Local/Temp/cchZ1Zdn.s 			page 129


 5959 3798 AB350000 		.long	0x35ab
 5960 379c 00       		.byte	0x0
 5961 379d 07       		.uleb128 0x7
 5962 379e 04       		.byte	0x4
 5963 379f 83370000 		.long	0x3783
 5964 37a3 14       		.uleb128 0x14
 5965 37a4 01       		.byte	0x1
 5966 37a5 BD370000 		.long	0x37bd
 5967 37a9 BD370000 		.long	0x37bd
 5968 37ad 15       		.uleb128 0x15
 5969 37ae 14210000 		.long	0x2114
 5970 37b2 15       		.uleb128 0x15
 5971 37b3 8F020000 		.long	0x28f
 5972 37b7 15       		.uleb128 0x15
 5973 37b8 AB350000 		.long	0x35ab
 5974 37bc 00       		.byte	0x0
 5975 37bd 07       		.uleb128 0x7
 5976 37be 04       		.byte	0x4
 5977 37bf 94010000 		.long	0x194
 5978 37c3 07       		.uleb128 0x7
 5979 37c4 04       		.byte	0x4
 5980 37c5 A3370000 		.long	0x37a3
 5981 37c9 14       		.uleb128 0x14
 5982 37ca 01       		.byte	0x1
 5983 37cb E3370000 		.long	0x37e3
 5984 37cf E3370000 		.long	0x37e3
 5985 37d3 15       		.uleb128 0x15
 5986 37d4 14210000 		.long	0x2114
 5987 37d8 15       		.uleb128 0x15
 5988 37d9 EC020000 		.long	0x2ec
 5989 37dd 15       		.uleb128 0x15
 5990 37de AB350000 		.long	0x35ab
 5991 37e2 00       		.byte	0x0
 5992 37e3 07       		.uleb128 0x7
 5993 37e4 04       		.byte	0x4
 5994 37e5 D8010000 		.long	0x1d8
 5995 37e9 07       		.uleb128 0x7
 5996 37ea 04       		.byte	0x4
 5997 37eb C9370000 		.long	0x37c9
 5998 37ef 14       		.uleb128 0x14
 5999 37f0 01       		.byte	0x1
 6000 37f1 09380000 		.long	0x3809
 6001 37f5 09380000 		.long	0x3809
 6002 37f9 15       		.uleb128 0x15
 6003 37fa 14210000 		.long	0x2114
 6004 37fe 15       		.uleb128 0x15
 6005 37ff A1020000 		.long	0x2a1
 6006 3803 15       		.uleb128 0x15
 6007 3804 AB350000 		.long	0x35ab
 6008 3808 00       		.byte	0x0
 6009 3809 07       		.uleb128 0x7
 6010 380a 04       		.byte	0x4
 6011 380b A1010000 		.long	0x1a1
 6012 380f 07       		.uleb128 0x7
 6013 3810 04       		.byte	0x4
 6014 3811 EF370000 		.long	0x37ef
 6015 3815 14       		.uleb128 0x14
GAS LISTING /cygdrive/c/Users/THESCI~1/AppData/Local/Temp/cchZ1Zdn.s 			page 130


 6016 3816 01       		.byte	0x1
 6017 3817 2F380000 		.long	0x382f
 6018 381b 2F380000 		.long	0x382f
 6019 381f 15       		.uleb128 0x15
 6020 3820 14210000 		.long	0x2114
 6021 3824 15       		.uleb128 0x15
 6022 3825 B4020000 		.long	0x2b4
 6023 3829 15       		.uleb128 0x15
 6024 382a AB350000 		.long	0x35ab
 6025 382e 00       		.byte	0x0
 6026 382f 07       		.uleb128 0x7
 6027 3830 04       		.byte	0x4
 6028 3831 AF010000 		.long	0x1af
 6029 3835 07       		.uleb128 0x7
 6030 3836 04       		.byte	0x4
 6031 3837 15380000 		.long	0x3815
 6032 383b 14       		.uleb128 0x14
 6033 383c 01       		.byte	0x1
 6034 383d 55380000 		.long	0x3855
 6035 3841 55380000 		.long	0x3855
 6036 3845 15       		.uleb128 0x15
 6037 3846 14210000 		.long	0x2114
 6038 384a 15       		.uleb128 0x15
 6039 384b C5020000 		.long	0x2c5
 6040 384f 15       		.uleb128 0x15
 6041 3850 AB350000 		.long	0x35ab
 6042 3854 00       		.byte	0x0
 6043 3855 07       		.uleb128 0x7
 6044 3856 04       		.byte	0x4
 6045 3857 BB010000 		.long	0x1bb
 6046 385b 07       		.uleb128 0x7
 6047 385c 04       		.byte	0x4
 6048 385d 3B380000 		.long	0x383b
 6049 3861 14       		.uleb128 0x14
 6050 3862 01       		.byte	0x1
 6051 3863 7B380000 		.long	0x387b
 6052 3867 7B380000 		.long	0x387b
 6053 386b 15       		.uleb128 0x15
 6054 386c 14210000 		.long	0x2114
 6055 3870 15       		.uleb128 0x15
 6056 3871 FE020000 		.long	0x2fe
 6057 3875 15       		.uleb128 0x15
 6058 3876 AB350000 		.long	0x35ab
 6059 387a 00       		.byte	0x0
 6060 387b 07       		.uleb128 0x7
 6061 387c 04       		.byte	0x4
 6062 387d E5010000 		.long	0x1e5
 6063 3881 07       		.uleb128 0x7
 6064 3882 04       		.byte	0x4
 6065 3883 61380000 		.long	0x3861
 6066 3887 14       		.uleb128 0x14
 6067 3888 01       		.byte	0x1
 6068 3889 A1380000 		.long	0x38a1
 6069 388d A1380000 		.long	0x38a1
 6070 3891 15       		.uleb128 0x15
 6071 3892 14210000 		.long	0x2114
 6072 3896 15       		.uleb128 0x15
GAS LISTING /cygdrive/c/Users/THESCI~1/AppData/Local/Temp/cchZ1Zdn.s 			page 131


 6073 3897 11030000 		.long	0x311
 6074 389b 15       		.uleb128 0x15
 6075 389c AB350000 		.long	0x35ab
 6076 38a0 00       		.byte	0x0
 6077 38a1 07       		.uleb128 0x7
 6078 38a2 04       		.byte	0x4
 6079 38a3 FC010000 		.long	0x1fc
 6080 38a7 07       		.uleb128 0x7
 6081 38a8 04       		.byte	0x4
 6082 38a9 87380000 		.long	0x3887
 6083 38ad 16       		.uleb128 0x16
 6084 38ae 01       		.byte	0x1
 6085 38af C8380000 		.long	0x38c8
 6086 38b3 15       		.uleb128 0x15
 6087 38b4 14210000 		.long	0x2114
 6088 38b8 15       		.uleb128 0x15
 6089 38b9 D7020000 		.long	0x2d7
 6090 38bd 15       		.uleb128 0x15
 6091 38be AB350000 		.long	0x35ab
 6092 38c2 15       		.uleb128 0x15
 6093 38c3 AF010000 		.long	0x1af
 6094 38c7 00       		.byte	0x0
 6095 38c8 07       		.uleb128 0x7
 6096 38c9 04       		.byte	0x4
 6097 38ca AD380000 		.long	0x38ad
 6098 38ce 16       		.uleb128 0x16
 6099 38cf 01       		.byte	0x1
 6100 38d0 E9380000 		.long	0x38e9
 6101 38d4 15       		.uleb128 0x15
 6102 38d5 14210000 		.long	0x2114
 6103 38d9 15       		.uleb128 0x15
 6104 38da 8F020000 		.long	0x28f
 6105 38de 15       		.uleb128 0x15
 6106 38df BD370000 		.long	0x37bd
 6107 38e3 15       		.uleb128 0x15
 6108 38e4 AF010000 		.long	0x1af
 6109 38e8 00       		.byte	0x0
 6110 38e9 07       		.uleb128 0x7
 6111 38ea 04       		.byte	0x4
 6112 38eb CE380000 		.long	0x38ce
 6113 38ef 16       		.uleb128 0x16
 6114 38f0 01       		.byte	0x1
 6115 38f1 0A390000 		.long	0x390a
 6116 38f5 15       		.uleb128 0x15
 6117 38f6 14210000 		.long	0x2114
 6118 38fa 15       		.uleb128 0x15
 6119 38fb EC020000 		.long	0x2ec
 6120 38ff 15       		.uleb128 0x15
 6121 3900 E3370000 		.long	0x37e3
 6122 3904 15       		.uleb128 0x15
 6123 3905 AF010000 		.long	0x1af
 6124 3909 00       		.byte	0x0
 6125 390a 07       		.uleb128 0x7
 6126 390b 04       		.byte	0x4
 6127 390c EF380000 		.long	0x38ef
 6128 3910 16       		.uleb128 0x16
 6129 3911 01       		.byte	0x1
GAS LISTING /cygdrive/c/Users/THESCI~1/AppData/Local/Temp/cchZ1Zdn.s 			page 132


 6130 3912 2B390000 		.long	0x392b
 6131 3916 15       		.uleb128 0x15
 6132 3917 14210000 		.long	0x2114
 6133 391b 15       		.uleb128 0x15
 6134 391c A1020000 		.long	0x2a1
 6135 3920 15       		.uleb128 0x15
 6136 3921 09380000 		.long	0x3809
 6137 3925 15       		.uleb128 0x15
 6138 3926 AF010000 		.long	0x1af
 6139 392a 00       		.byte	0x0
 6140 392b 07       		.uleb128 0x7
 6141 392c 04       		.byte	0x4
 6142 392d 10390000 		.long	0x3910
 6143 3931 16       		.uleb128 0x16
 6144 3932 01       		.byte	0x1
 6145 3933 4C390000 		.long	0x394c
 6146 3937 15       		.uleb128 0x15
 6147 3938 14210000 		.long	0x2114
 6148 393c 15       		.uleb128 0x15
 6149 393d B4020000 		.long	0x2b4
 6150 3941 15       		.uleb128 0x15
 6151 3942 2F380000 		.long	0x382f
 6152 3946 15       		.uleb128 0x15
 6153 3947 AF010000 		.long	0x1af
 6154 394b 00       		.byte	0x0
 6155 394c 07       		.uleb128 0x7
 6156 394d 04       		.byte	0x4
 6157 394e 31390000 		.long	0x3931
 6158 3952 16       		.uleb128 0x16
 6159 3953 01       		.byte	0x1
 6160 3954 6D390000 		.long	0x396d
 6161 3958 15       		.uleb128 0x15
 6162 3959 14210000 		.long	0x2114
 6163 395d 15       		.uleb128 0x15
 6164 395e C5020000 		.long	0x2c5
 6165 3962 15       		.uleb128 0x15
 6166 3963 55380000 		.long	0x3855
 6167 3967 15       		.uleb128 0x15
 6168 3968 AF010000 		.long	0x1af
 6169 396c 00       		.byte	0x0
 6170 396d 07       		.uleb128 0x7
 6171 396e 04       		.byte	0x4
 6172 396f 52390000 		.long	0x3952
 6173 3973 16       		.uleb128 0x16
 6174 3974 01       		.byte	0x1
 6175 3975 8E390000 		.long	0x398e
 6176 3979 15       		.uleb128 0x15
 6177 397a 14210000 		.long	0x2114
 6178 397e 15       		.uleb128 0x15
 6179 397f FE020000 		.long	0x2fe
 6180 3983 15       		.uleb128 0x15
 6181 3984 7B380000 		.long	0x387b
 6182 3988 15       		.uleb128 0x15
 6183 3989 AF010000 		.long	0x1af
 6184 398d 00       		.byte	0x0
 6185 398e 07       		.uleb128 0x7
 6186 398f 04       		.byte	0x4
GAS LISTING /cygdrive/c/Users/THESCI~1/AppData/Local/Temp/cchZ1Zdn.s 			page 133


 6187 3990 73390000 		.long	0x3973
 6188 3994 16       		.uleb128 0x16
 6189 3995 01       		.byte	0x1
 6190 3996 AF390000 		.long	0x39af
 6191 399a 15       		.uleb128 0x15
 6192 399b 14210000 		.long	0x2114
 6193 399f 15       		.uleb128 0x15
 6194 39a0 11030000 		.long	0x311
 6195 39a4 15       		.uleb128 0x15
 6196 39a5 A1380000 		.long	0x38a1
 6197 39a9 15       		.uleb128 0x15
 6198 39aa AF010000 		.long	0x1af
 6199 39ae 00       		.byte	0x0
 6200 39af 07       		.uleb128 0x7
 6201 39b0 04       		.byte	0x4
 6202 39b1 94390000 		.long	0x3994
 6203 39b5 16       		.uleb128 0x16
 6204 39b6 01       		.byte	0x1
 6205 39b7 D5390000 		.long	0x39d5
 6206 39bb 15       		.uleb128 0x15
 6207 39bc 14210000 		.long	0x2114
 6208 39c0 15       		.uleb128 0x15
 6209 39c1 D7020000 		.long	0x2d7
 6210 39c5 15       		.uleb128 0x15
 6211 39c6 15020000 		.long	0x215
 6212 39ca 15       		.uleb128 0x15
 6213 39cb 15020000 		.long	0x215
 6214 39cf 15       		.uleb128 0x15
 6215 39d0 AB350000 		.long	0x35ab
 6216 39d4 00       		.byte	0x0
 6217 39d5 07       		.uleb128 0x7
 6218 39d6 04       		.byte	0x4
 6219 39d7 B5390000 		.long	0x39b5
 6220 39db 16       		.uleb128 0x16
 6221 39dc 01       		.byte	0x1
 6222 39dd FB390000 		.long	0x39fb
 6223 39e1 15       		.uleb128 0x15
 6224 39e2 14210000 		.long	0x2114
 6225 39e6 15       		.uleb128 0x15
 6226 39e7 8F020000 		.long	0x28f
 6227 39eb 15       		.uleb128 0x15
 6228 39ec 15020000 		.long	0x215
 6229 39f0 15       		.uleb128 0x15
 6230 39f1 15020000 		.long	0x215
 6231 39f5 15       		.uleb128 0x15
 6232 39f6 BD370000 		.long	0x37bd
 6233 39fa 00       		.byte	0x0
 6234 39fb 07       		.uleb128 0x7
 6235 39fc 04       		.byte	0x4
 6236 39fd DB390000 		.long	0x39db
 6237 3a01 16       		.uleb128 0x16
 6238 3a02 01       		.byte	0x1
 6239 3a03 213A0000 		.long	0x3a21
 6240 3a07 15       		.uleb128 0x15
 6241 3a08 14210000 		.long	0x2114
 6242 3a0c 15       		.uleb128 0x15
 6243 3a0d EC020000 		.long	0x2ec
GAS LISTING /cygdrive/c/Users/THESCI~1/AppData/Local/Temp/cchZ1Zdn.s 			page 134


 6244 3a11 15       		.uleb128 0x15
 6245 3a12 15020000 		.long	0x215
 6246 3a16 15       		.uleb128 0x15
 6247 3a17 15020000 		.long	0x215
 6248 3a1b 15       		.uleb128 0x15
 6249 3a1c E3370000 		.long	0x37e3
 6250 3a20 00       		.byte	0x0
 6251 3a21 07       		.uleb128 0x7
 6252 3a22 04       		.byte	0x4
 6253 3a23 013A0000 		.long	0x3a01
 6254 3a27 16       		.uleb128 0x16
 6255 3a28 01       		.byte	0x1
 6256 3a29 473A0000 		.long	0x3a47
 6257 3a2d 15       		.uleb128 0x15
 6258 3a2e 14210000 		.long	0x2114
 6259 3a32 15       		.uleb128 0x15
 6260 3a33 A1020000 		.long	0x2a1
 6261 3a37 15       		.uleb128 0x15
 6262 3a38 15020000 		.long	0x215
 6263 3a3c 15       		.uleb128 0x15
 6264 3a3d 15020000 		.long	0x215
 6265 3a41 15       		.uleb128 0x15
 6266 3a42 09380000 		.long	0x3809
 6267 3a46 00       		.byte	0x0
 6268 3a47 07       		.uleb128 0x7
 6269 3a48 04       		.byte	0x4
 6270 3a49 273A0000 		.long	0x3a27
 6271 3a4d 16       		.uleb128 0x16
 6272 3a4e 01       		.byte	0x1
 6273 3a4f 6D3A0000 		.long	0x3a6d
 6274 3a53 15       		.uleb128 0x15
 6275 3a54 14210000 		.long	0x2114
 6276 3a58 15       		.uleb128 0x15
 6277 3a59 B4020000 		.long	0x2b4
 6278 3a5d 15       		.uleb128 0x15
 6279 3a5e 15020000 		.long	0x215
 6280 3a62 15       		.uleb128 0x15
 6281 3a63 15020000 		.long	0x215
 6282 3a67 15       		.uleb128 0x15
 6283 3a68 2F380000 		.long	0x382f
 6284 3a6c 00       		.byte	0x0
 6285 3a6d 07       		.uleb128 0x7
 6286 3a6e 04       		.byte	0x4
 6287 3a6f 4D3A0000 		.long	0x3a4d
 6288 3a73 16       		.uleb128 0x16
 6289 3a74 01       		.byte	0x1
 6290 3a75 933A0000 		.long	0x3a93
 6291 3a79 15       		.uleb128 0x15
 6292 3a7a 14210000 		.long	0x2114
 6293 3a7e 15       		.uleb128 0x15
 6294 3a7f C5020000 		.long	0x2c5
 6295 3a83 15       		.uleb128 0x15
 6296 3a84 15020000 		.long	0x215
 6297 3a88 15       		.uleb128 0x15
 6298 3a89 15020000 		.long	0x215
 6299 3a8d 15       		.uleb128 0x15
 6300 3a8e 55380000 		.long	0x3855
GAS LISTING /cygdrive/c/Users/THESCI~1/AppData/Local/Temp/cchZ1Zdn.s 			page 135


 6301 3a92 00       		.byte	0x0
 6302 3a93 07       		.uleb128 0x7
 6303 3a94 04       		.byte	0x4
 6304 3a95 733A0000 		.long	0x3a73
 6305 3a99 16       		.uleb128 0x16
 6306 3a9a 01       		.byte	0x1
 6307 3a9b B93A0000 		.long	0x3ab9
 6308 3a9f 15       		.uleb128 0x15
 6309 3aa0 14210000 		.long	0x2114
 6310 3aa4 15       		.uleb128 0x15
 6311 3aa5 FE020000 		.long	0x2fe
 6312 3aa9 15       		.uleb128 0x15
 6313 3aaa 15020000 		.long	0x215
 6314 3aae 15       		.uleb128 0x15
 6315 3aaf 15020000 		.long	0x215
 6316 3ab3 15       		.uleb128 0x15
 6317 3ab4 7B380000 		.long	0x387b
 6318 3ab8 00       		.byte	0x0
 6319 3ab9 07       		.uleb128 0x7
 6320 3aba 04       		.byte	0x4
 6321 3abb 993A0000 		.long	0x3a99
 6322 3abf 16       		.uleb128 0x16
 6323 3ac0 01       		.byte	0x1
 6324 3ac1 DF3A0000 		.long	0x3adf
 6325 3ac5 15       		.uleb128 0x15
 6326 3ac6 14210000 		.long	0x2114
 6327 3aca 15       		.uleb128 0x15
 6328 3acb 11030000 		.long	0x311
 6329 3acf 15       		.uleb128 0x15
 6330 3ad0 15020000 		.long	0x215
 6331 3ad4 15       		.uleb128 0x15
 6332 3ad5 15020000 		.long	0x215
 6333 3ad9 15       		.uleb128 0x15
 6334 3ada A1380000 		.long	0x38a1
 6335 3ade 00       		.byte	0x0
 6336 3adf 07       		.uleb128 0x7
 6337 3ae0 04       		.byte	0x4
 6338 3ae1 BF3A0000 		.long	0x3abf
 6339 3ae5 16       		.uleb128 0x16
 6340 3ae6 01       		.byte	0x1
 6341 3ae7 053B0000 		.long	0x3b05
 6342 3aeb 15       		.uleb128 0x15
 6343 3aec 14210000 		.long	0x2114
 6344 3af0 15       		.uleb128 0x15
 6345 3af1 D7020000 		.long	0x2d7
 6346 3af5 15       		.uleb128 0x15
 6347 3af6 15020000 		.long	0x215
 6348 3afa 15       		.uleb128 0x15
 6349 3afb 15020000 		.long	0x215
 6350 3aff 15       		.uleb128 0x15
 6351 3b00 053B0000 		.long	0x3b05
 6352 3b04 00       		.byte	0x0
 6353 3b05 07       		.uleb128 0x7
 6354 3b06 04       		.byte	0x4
 6355 3b07 0B3B0000 		.long	0x3b0b
 6356 3b0b 08       		.uleb128 0x8
 6357 3b0c C8010000 		.long	0x1c8
GAS LISTING /cygdrive/c/Users/THESCI~1/AppData/Local/Temp/cchZ1Zdn.s 			page 136


 6358 3b10 07       		.uleb128 0x7
 6359 3b11 04       		.byte	0x4
 6360 3b12 E53A0000 		.long	0x3ae5
 6361 3b16 16       		.uleb128 0x16
 6362 3b17 01       		.byte	0x1
 6363 3b18 363B0000 		.long	0x3b36
 6364 3b1c 15       		.uleb128 0x15
 6365 3b1d 14210000 		.long	0x2114
 6366 3b21 15       		.uleb128 0x15
 6367 3b22 8F020000 		.long	0x28f
 6368 3b26 15       		.uleb128 0x15
 6369 3b27 15020000 		.long	0x215
 6370 3b2b 15       		.uleb128 0x15
 6371 3b2c 15020000 		.long	0x215
 6372 3b30 15       		.uleb128 0x15
 6373 3b31 44210000 		.long	0x2144
 6374 3b35 00       		.byte	0x0
 6375 3b36 07       		.uleb128 0x7
 6376 3b37 04       		.byte	0x4
 6377 3b38 163B0000 		.long	0x3b16
 6378 3b3c 16       		.uleb128 0x16
 6379 3b3d 01       		.byte	0x1
 6380 3b3e 5C3B0000 		.long	0x3b5c
 6381 3b42 15       		.uleb128 0x15
 6382 3b43 14210000 		.long	0x2114
 6383 3b47 15       		.uleb128 0x15
 6384 3b48 EC020000 		.long	0x2ec
 6385 3b4c 15       		.uleb128 0x15
 6386 3b4d 15020000 		.long	0x215
 6387 3b51 15       		.uleb128 0x15
 6388 3b52 15020000 		.long	0x215
 6389 3b56 15       		.uleb128 0x15
 6390 3b57 65350000 		.long	0x3565
 6391 3b5b 00       		.byte	0x0
 6392 3b5c 07       		.uleb128 0x7
 6393 3b5d 04       		.byte	0x4
 6394 3b5e 3C3B0000 		.long	0x3b3c
 6395 3b62 16       		.uleb128 0x16
 6396 3b63 01       		.byte	0x1
 6397 3b64 823B0000 		.long	0x3b82
 6398 3b68 15       		.uleb128 0x15
 6399 3b69 14210000 		.long	0x2114
 6400 3b6d 15       		.uleb128 0x15
 6401 3b6e A1020000 		.long	0x2a1
 6402 3b72 15       		.uleb128 0x15
 6403 3b73 15020000 		.long	0x215
 6404 3b77 15       		.uleb128 0x15
 6405 3b78 15020000 		.long	0x215
 6406 3b7c 15       		.uleb128 0x15
 6407 3b7d 823B0000 		.long	0x3b82
 6408 3b81 00       		.byte	0x0
 6409 3b82 07       		.uleb128 0x7
 6410 3b83 04       		.byte	0x4
 6411 3b84 883B0000 		.long	0x3b88
 6412 3b88 08       		.uleb128 0x8
 6413 3b89 A1010000 		.long	0x1a1
 6414 3b8d 07       		.uleb128 0x7
GAS LISTING /cygdrive/c/Users/THESCI~1/AppData/Local/Temp/cchZ1Zdn.s 			page 137


 6415 3b8e 04       		.byte	0x4
 6416 3b8f 623B0000 		.long	0x3b62
 6417 3b93 16       		.uleb128 0x16
 6418 3b94 01       		.byte	0x1
 6419 3b95 B33B0000 		.long	0x3bb3
 6420 3b99 15       		.uleb128 0x15
 6421 3b9a 14210000 		.long	0x2114
 6422 3b9e 15       		.uleb128 0x15
 6423 3b9f B4020000 		.long	0x2b4
 6424 3ba3 15       		.uleb128 0x15
 6425 3ba4 15020000 		.long	0x215
 6426 3ba8 15       		.uleb128 0x15
 6427 3ba9 15020000 		.long	0x215
 6428 3bad 15       		.uleb128 0x15
 6429 3bae B33B0000 		.long	0x3bb3
 6430 3bb2 00       		.byte	0x0
 6431 3bb3 07       		.uleb128 0x7
 6432 3bb4 04       		.byte	0x4
 6433 3bb5 B93B0000 		.long	0x3bb9
 6434 3bb9 08       		.uleb128 0x8
 6435 3bba AF010000 		.long	0x1af
 6436 3bbe 07       		.uleb128 0x7
 6437 3bbf 04       		.byte	0x4
 6438 3bc0 933B0000 		.long	0x3b93
 6439 3bc4 16       		.uleb128 0x16
 6440 3bc5 01       		.byte	0x1
 6441 3bc6 E43B0000 		.long	0x3be4
 6442 3bca 15       		.uleb128 0x15
 6443 3bcb 14210000 		.long	0x2114
 6444 3bcf 15       		.uleb128 0x15
 6445 3bd0 C5020000 		.long	0x2c5
 6446 3bd4 15       		.uleb128 0x15
 6447 3bd5 15020000 		.long	0x215
 6448 3bd9 15       		.uleb128 0x15
 6449 3bda 15020000 		.long	0x215
 6450 3bde 15       		.uleb128 0x15
 6451 3bdf E43B0000 		.long	0x3be4
 6452 3be3 00       		.byte	0x0
 6453 3be4 07       		.uleb128 0x7
 6454 3be5 04       		.byte	0x4
 6455 3be6 EA3B0000 		.long	0x3bea
 6456 3bea 08       		.uleb128 0x8
 6457 3beb BB010000 		.long	0x1bb
 6458 3bef 07       		.uleb128 0x7
 6459 3bf0 04       		.byte	0x4
 6460 3bf1 C43B0000 		.long	0x3bc4
 6461 3bf5 16       		.uleb128 0x16
 6462 3bf6 01       		.byte	0x1
 6463 3bf7 153C0000 		.long	0x3c15
 6464 3bfb 15       		.uleb128 0x15
 6465 3bfc 14210000 		.long	0x2114
 6466 3c00 15       		.uleb128 0x15
 6467 3c01 FE020000 		.long	0x2fe
 6468 3c05 15       		.uleb128 0x15
 6469 3c06 15020000 		.long	0x215
 6470 3c0a 15       		.uleb128 0x15
 6471 3c0b 15020000 		.long	0x215
GAS LISTING /cygdrive/c/Users/THESCI~1/AppData/Local/Temp/cchZ1Zdn.s 			page 138


 6472 3c0f 15       		.uleb128 0x15
 6473 3c10 153C0000 		.long	0x3c15
 6474 3c14 00       		.byte	0x0
 6475 3c15 07       		.uleb128 0x7
 6476 3c16 04       		.byte	0x4
 6477 3c17 1B3C0000 		.long	0x3c1b
 6478 3c1b 08       		.uleb128 0x8
 6479 3c1c E5010000 		.long	0x1e5
 6480 3c20 07       		.uleb128 0x7
 6481 3c21 04       		.byte	0x4
 6482 3c22 F53B0000 		.long	0x3bf5
 6483 3c26 16       		.uleb128 0x16
 6484 3c27 01       		.byte	0x1
 6485 3c28 463C0000 		.long	0x3c46
 6486 3c2c 15       		.uleb128 0x15
 6487 3c2d 14210000 		.long	0x2114
 6488 3c31 15       		.uleb128 0x15
 6489 3c32 11030000 		.long	0x311
 6490 3c36 15       		.uleb128 0x15
 6491 3c37 15020000 		.long	0x215
 6492 3c3b 15       		.uleb128 0x15
 6493 3c3c 15020000 		.long	0x215
 6494 3c40 15       		.uleb128 0x15
 6495 3c41 463C0000 		.long	0x3c46
 6496 3c45 00       		.byte	0x0
 6497 3c46 07       		.uleb128 0x7
 6498 3c47 04       		.byte	0x4
 6499 3c48 4C3C0000 		.long	0x3c4c
 6500 3c4c 08       		.uleb128 0x8
 6501 3c4d FC010000 		.long	0x1fc
 6502 3c51 07       		.uleb128 0x7
 6503 3c52 04       		.byte	0x4
 6504 3c53 263C0000 		.long	0x3c26
 6505 3c57 14       		.uleb128 0x14
 6506 3c58 01       		.byte	0x1
 6507 3c59 AF010000 		.long	0x1af
 6508 3c5d 763C0000 		.long	0x3c76
 6509 3c61 15       		.uleb128 0x15
 6510 3c62 14210000 		.long	0x2114
 6511 3c66 15       		.uleb128 0x15
 6512 3c67 31020000 		.long	0x231
 6513 3c6b 15       		.uleb128 0x15
 6514 3c6c 763C0000 		.long	0x3c76
 6515 3c70 15       		.uleb128 0x15
 6516 3c71 AF010000 		.long	0x1af
 6517 3c75 00       		.byte	0x0
 6518 3c76 07       		.uleb128 0x7
 6519 3c77 04       		.byte	0x4
 6520 3c78 7C3C0000 		.long	0x3c7c
 6521 3c7c 08       		.uleb128 0x8
 6522 3c7d ED200000 		.long	0x20ed
 6523 3c81 07       		.uleb128 0x7
 6524 3c82 04       		.byte	0x4
 6525 3c83 573C0000 		.long	0x3c57
 6526 3c87 14       		.uleb128 0x14
 6527 3c88 01       		.byte	0x1
 6528 3c89 AF010000 		.long	0x1af
GAS LISTING /cygdrive/c/Users/THESCI~1/AppData/Local/Temp/cchZ1Zdn.s 			page 139


 6529 3c8d 9C3C0000 		.long	0x3c9c
 6530 3c91 15       		.uleb128 0x15
 6531 3c92 14210000 		.long	0x2114
 6532 3c96 15       		.uleb128 0x15
 6533 3c97 31020000 		.long	0x231
 6534 3c9b 00       		.byte	0x0
 6535 3c9c 07       		.uleb128 0x7
 6536 3c9d 04       		.byte	0x4
 6537 3c9e 873C0000 		.long	0x3c87
 6538 3ca2 14       		.uleb128 0x14
 6539 3ca3 01       		.byte	0x1
 6540 3ca4 AF010000 		.long	0x1af
 6541 3ca8 B73C0000 		.long	0x3cb7
 6542 3cac 15       		.uleb128 0x15
 6543 3cad 14210000 		.long	0x2114
 6544 3cb1 15       		.uleb128 0x15
 6545 3cb2 22020000 		.long	0x222
 6546 3cb6 00       		.byte	0x0
 6547 3cb7 07       		.uleb128 0x7
 6548 3cb8 04       		.byte	0x4
 6549 3cb9 A23C0000 		.long	0x3ca2
 6550 3cbd 14       		.uleb128 0x14
 6551 3cbe 01       		.byte	0x1
 6552 3cbf AF010000 		.long	0x1af
 6553 3cc3 D23C0000 		.long	0x3cd2
 6554 3cc7 15       		.uleb128 0x15
 6555 3cc8 14210000 		.long	0x2114
 6556 3ccc 15       		.uleb128 0x15
 6557 3ccd D23C0000 		.long	0x3cd2
 6558 3cd1 00       		.byte	0x0
 6559 3cd2 07       		.uleb128 0x7
 6560 3cd3 04       		.byte	0x4
 6561 3cd4 D83C0000 		.long	0x3cd8
 6562 3cd8 07       		.uleb128 0x7
 6563 3cd9 04       		.byte	0x4
 6564 3cda 151F0000 		.long	0x1f15
 6565 3cde 07       		.uleb128 0x7
 6566 3cdf 04       		.byte	0x4
 6567 3ce0 BD3C0000 		.long	0x3cbd
 6568 3ce4 16       		.uleb128 0x16
 6569 3ce5 01       		.byte	0x1
 6570 3ce6 043D0000 		.long	0x3d04
 6571 3cea 15       		.uleb128 0x15
 6572 3ceb 14210000 		.long	0x2114
 6573 3cef 15       		.uleb128 0x15
 6574 3cf0 3F020000 		.long	0x23f
 6575 3cf4 15       		.uleb128 0x15
 6576 3cf5 15020000 		.long	0x215
 6577 3cf9 15       		.uleb128 0x15
 6578 3cfa 15020000 		.long	0x215
 6579 3cfe 15       		.uleb128 0x15
 6580 3cff E3370000 		.long	0x37e3
 6581 3d03 00       		.byte	0x0
 6582 3d04 07       		.uleb128 0x7
 6583 3d05 04       		.byte	0x4
 6584 3d06 E43C0000 		.long	0x3ce4
 6585 3d0a 16       		.uleb128 0x16
GAS LISTING /cygdrive/c/Users/THESCI~1/AppData/Local/Temp/cchZ1Zdn.s 			page 140


 6586 3d0b 01       		.byte	0x1
 6587 3d0c 2A3D0000 		.long	0x3d2a
 6588 3d10 15       		.uleb128 0x15
 6589 3d11 14210000 		.long	0x2114
 6590 3d15 15       		.uleb128 0x15
 6591 3d16 3F020000 		.long	0x23f
 6592 3d1a 15       		.uleb128 0x15
 6593 3d1b 15020000 		.long	0x215
 6594 3d1f 15       		.uleb128 0x15
 6595 3d20 15020000 		.long	0x215
 6596 3d24 15       		.uleb128 0x15
 6597 3d25 74010000 		.long	0x174
 6598 3d29 00       		.byte	0x0
 6599 3d2a 07       		.uleb128 0x7
 6600 3d2b 04       		.byte	0x4
 6601 3d2c 0A3D0000 		.long	0x3d0a
 6602 3d30 14       		.uleb128 0x14
 6603 3d31 01       		.byte	0x1
 6604 3d32 4E010000 		.long	0x14e
 6605 3d36 4A3D0000 		.long	0x3d4a
 6606 3d3a 15       		.uleb128 0x15
 6607 3d3b 14210000 		.long	0x2114
 6608 3d3f 15       		.uleb128 0x15
 6609 3d40 6D020000 		.long	0x26d
 6610 3d44 15       		.uleb128 0x15
 6611 3d45 AB350000 		.long	0x35ab
 6612 3d49 00       		.byte	0x0
 6613 3d4a 07       		.uleb128 0x7
 6614 3d4b 04       		.byte	0x4
 6615 3d4c 303D0000 		.long	0x3d30
 6616 3d50 16       		.uleb128 0x16
 6617 3d51 01       		.byte	0x1
 6618 3d52 6B3D0000 		.long	0x3d6b
 6619 3d56 15       		.uleb128 0x15
 6620 3d57 14210000 		.long	0x2114
 6621 3d5b 15       		.uleb128 0x15
 6622 3d5c 6D020000 		.long	0x26d
 6623 3d60 15       		.uleb128 0x15
 6624 3d61 4E010000 		.long	0x14e
 6625 3d65 15       		.uleb128 0x15
 6626 3d66 AF010000 		.long	0x1af
 6627 3d6a 00       		.byte	0x0
 6628 3d6b 07       		.uleb128 0x7
 6629 3d6c 04       		.byte	0x4
 6630 3d6d 503D0000 		.long	0x3d50
 6631 3d71 14       		.uleb128 0x14
 6632 3d72 01       		.byte	0x1
 6633 3d73 60020000 		.long	0x260
 6634 3d77 863D0000 		.long	0x3d86
 6635 3d7b 15       		.uleb128 0x15
 6636 3d7c 14210000 		.long	0x2114
 6637 3d80 15       		.uleb128 0x15
 6638 3d81 22020000 		.long	0x222
 6639 3d85 00       		.byte	0x0
 6640 3d86 07       		.uleb128 0x7
 6641 3d87 04       		.byte	0x4
 6642 3d88 713D0000 		.long	0x3d71
GAS LISTING /cygdrive/c/Users/THESCI~1/AppData/Local/Temp/cchZ1Zdn.s 			page 141


 6643 3d8c 16       		.uleb128 0x16
 6644 3d8d 01       		.byte	0x1
 6645 3d8e 9D3D0000 		.long	0x3d9d
 6646 3d92 15       		.uleb128 0x15
 6647 3d93 14210000 		.long	0x2114
 6648 3d97 15       		.uleb128 0x15
 6649 3d98 60020000 		.long	0x260
 6650 3d9c 00       		.byte	0x0
 6651 3d9d 07       		.uleb128 0x7
 6652 3d9e 04       		.byte	0x4
 6653 3d9f 8C3D0000 		.long	0x3d8c
 6654 3da3 14       		.uleb128 0x14
 6655 3da4 01       		.byte	0x1
 6656 3da5 C8010000 		.long	0x1c8
 6657 3da9 B33D0000 		.long	0x3db3
 6658 3dad 15       		.uleb128 0x15
 6659 3dae 14210000 		.long	0x2114
 6660 3db2 00       		.byte	0x0
 6661 3db3 07       		.uleb128 0x7
 6662 3db4 04       		.byte	0x4
 6663 3db5 A33D0000 		.long	0x3da3
 6664 3db9 14       		.uleb128 0x14
 6665 3dba 01       		.byte	0x1
 6666 3dbb 22020000 		.long	0x222
 6667 3dbf D33D0000 		.long	0x3dd3
 6668 3dc3 15       		.uleb128 0x15
 6669 3dc4 14210000 		.long	0x2114
 6670 3dc8 15       		.uleb128 0x15
 6671 3dc9 4E010000 		.long	0x14e
 6672 3dcd 15       		.uleb128 0x15
 6673 3dce BB010000 		.long	0x1bb
 6674 3dd2 00       		.byte	0x0
 6675 3dd3 07       		.uleb128 0x7
 6676 3dd4 04       		.byte	0x4
 6677 3dd5 B93D0000 		.long	0x3db9
 6678 3dd9 14       		.uleb128 0x14
 6679 3dda 01       		.byte	0x1
 6680 3ddb 4E010000 		.long	0x14e
 6681 3ddf EE3D0000 		.long	0x3dee
 6682 3de3 15       		.uleb128 0x15
 6683 3de4 14210000 		.long	0x2114
 6684 3de8 15       		.uleb128 0x15
 6685 3de9 22020000 		.long	0x222
 6686 3ded 00       		.byte	0x0
 6687 3dee 07       		.uleb128 0x7
 6688 3def 04       		.byte	0x4
 6689 3df0 D93D0000 		.long	0x3dd9
 6690 3df4 14       		.uleb128 0x14
 6691 3df5 01       		.byte	0x1
 6692 3df6 BB010000 		.long	0x1bb
 6693 3dfa 093E0000 		.long	0x3e09
 6694 3dfe 15       		.uleb128 0x15
 6695 3dff 14210000 		.long	0x2114
 6696 3e03 15       		.uleb128 0x15
 6697 3e04 22020000 		.long	0x222
 6698 3e08 00       		.byte	0x0
 6699 3e09 07       		.uleb128 0x7
GAS LISTING /cygdrive/c/Users/THESCI~1/AppData/Local/Temp/cchZ1Zdn.s 			page 142


 6700 3e0a 04       		.byte	0x4
 6701 3e0b F43D0000 		.long	0x3df4
 6702 3e0f 14       		.uleb128 0x14
 6703 3e10 01       		.byte	0x1
 6704 3e11 AF010000 		.long	0x1af
 6705 3e15 1F3E0000 		.long	0x3e1f
 6706 3e19 15       		.uleb128 0x15
 6707 3e1a D83C0000 		.long	0x3cd8
 6708 3e1e 00       		.byte	0x0
 6709 3e1f 07       		.uleb128 0x7
 6710 3e20 04       		.byte	0x4
 6711 3e21 0F3E0000 		.long	0x3e0f
 6712 3e25 14       		.uleb128 0x14
 6713 3e26 01       		.byte	0x1
 6714 3e27 AF010000 		.long	0x1af
 6715 3e2b 3F3E0000 		.long	0x3e3f
 6716 3e2f 15       		.uleb128 0x15
 6717 3e30 D83C0000 		.long	0x3cd8
 6718 3e34 15       		.uleb128 0x15
 6719 3e35 3F3E0000 		.long	0x3e3f
 6720 3e39 15       		.uleb128 0x15
 6721 3e3a 4E010000 		.long	0x14e
 6722 3e3e 00       		.byte	0x0
 6723 3e3f 07       		.uleb128 0x7
 6724 3e40 04       		.byte	0x4
 6725 3e41 4E010000 		.long	0x14e
 6726 3e45 07       		.uleb128 0x7
 6727 3e46 04       		.byte	0x4
 6728 3e47 253E0000 		.long	0x3e25
 6729 3e4b 14       		.uleb128 0x14
 6730 3e4c 01       		.byte	0x1
 6731 3e4d AF010000 		.long	0x1af
 6732 3e51 653E0000 		.long	0x3e65
 6733 3e55 15       		.uleb128 0x15
 6734 3e56 D83C0000 		.long	0x3cd8
 6735 3e5a 15       		.uleb128 0x15
 6736 3e5b 3F3E0000 		.long	0x3e3f
 6737 3e5f 15       		.uleb128 0x15
 6738 3e60 AF010000 		.long	0x1af
 6739 3e64 00       		.byte	0x0
 6740 3e65 07       		.uleb128 0x7
 6741 3e66 04       		.byte	0x4
 6742 3e67 4B3E0000 		.long	0x3e4b
 6743 3e6b 18       		.uleb128 0x18
 6744 3e6c 01       		.byte	0x1
 6745 3e6d 66726565 		.ascii "freeeverything\0"
 6745      65766572 
 6745      79746869 
 6745      6E6700
 6746 3e7c 01       		.byte	0x1
 6747 3e7d DC       		.byte	0xdc
 6748 3e7e 01       		.byte	0x1
 6749 3e7f 00000000 		.long	LFB7
 6750 3e83 8A000000 		.long	LFE7
 6751 3e87 00000000 		.secrel32	LLST0
 6752 3e8b FE3E0000 		.long	0x3efe
 6753 3e8f 19       		.uleb128 0x19
GAS LISTING /cygdrive/c/Users/THESCI~1/AppData/Local/Temp/cchZ1Zdn.s 			page 143


 6754 3e90 6172725F 		.ascii "arr_1\0"
 6754      3100
 6755 3e96 01       		.byte	0x1
 6756 3e97 DB       		.byte	0xdb
 6757 3e98 FE3E0000 		.long	0x3efe
 6758 3e9c 2C000000 		.secrel32	LLST1
 6759 3ea0 19       		.uleb128 0x19
 6760 3ea1 6C656E31 		.ascii "len1\0"
 6760      00
 6761 3ea6 01       		.byte	0x1
 6762 3ea7 DB       		.byte	0xdb
 6763 3ea8 15020000 		.long	0x215
 6764 3eac 57000000 		.secrel32	LLST2
 6765 3eb0 19       		.uleb128 0x19
 6766 3eb1 6172725F 		.ascii "arr_2\0"
 6766      3200
 6767 3eb7 01       		.byte	0x1
 6768 3eb8 DB       		.byte	0xdb
 6769 3eb9 FE3E0000 		.long	0x3efe
 6770 3ebd 82000000 		.secrel32	LLST3
 6771 3ec1 1A       		.uleb128 0x1a
 6772 3ec2 6C656E32 		.ascii "len2\0"
 6772      00
 6773 3ec7 01       		.byte	0x1
 6774 3ec8 DB       		.byte	0xdb
 6775 3ec9 15020000 		.long	0x215
 6776 3ecd 02       		.byte	0x2
 6777 3ece 91       		.byte	0x91
 6778 3ecf 0C       		.sleb128 12
 6779 3ed0 19       		.uleb128 0x19
 6780 3ed1 6172725F 		.ascii "arr_3\0"
 6780      3300
 6781 3ed7 01       		.byte	0x1
 6782 3ed8 DB       		.byte	0xdb
 6783 3ed9 FE3E0000 		.long	0x3efe
 6784 3edd A2000000 		.secrel32	LLST4
 6785 3ee1 1A       		.uleb128 0x1a
 6786 3ee2 6C656E33 		.ascii "len3\0"
 6786      00
 6787 3ee7 01       		.byte	0x1
 6788 3ee8 DB       		.byte	0xdb
 6789 3ee9 15020000 		.long	0x215
 6790 3eed 02       		.byte	0x2
 6791 3eee 91       		.byte	0x91
 6792 3eef 14       		.sleb128 20
 6793 3ef0 1B       		.uleb128 0x1b
 6794 3ef1 6900     		.ascii "i\0"
 6795 3ef3 01       		.byte	0x1
 6796 3ef4 DE       		.byte	0xde
 6797 3ef5 93000000 		.long	0x93
 6798 3ef9 C2000000 		.secrel32	LLST5
 6799 3efd 00       		.byte	0x0
 6800 3efe 07       		.uleb128 0x7
 6801 3eff 04       		.byte	0x4
 6802 3f00 2F380000 		.long	0x382f
 6803 3f04 1C       		.uleb128 0x1c
 6804 3f05 01       		.byte	0x1
GAS LISTING /cygdrive/c/Users/THESCI~1/AppData/Local/Temp/cchZ1Zdn.s 			page 144


 6805 3f06 4A617661 		.ascii "Java_Matrix_multiply\0"
 6805      5F4D6174 
 6805      7269785F 
 6805      6D756C74 
 6805      69706C79 
 6806 3f1b 01       		.byte	0x1
 6807 3f1c 1A       		.byte	0x1a
 6808 3f1d 01       		.byte	0x1
 6809 3f1e 90000000 		.long	LFB6
 6810 3f22 BD040000 		.long	LFE6
 6811 3f26 D5000000 		.secrel32	LLST6
 6812 3f2a 19       		.uleb128 0x19
 6813 3f2b 656E7600 		.ascii "env\0"
 6814 3f2f 01       		.byte	0x1
 6815 3f30 19       		.byte	0x19
 6816 3f31 14210000 		.long	0x2114
 6817 3f35 01010000 		.secrel32	LLST7
 6818 3f39 1A       		.uleb128 0x1a
 6819 3f3a 74686973 		.ascii "this\0"
 6819      00
 6820 3f3f 01       		.byte	0x1
 6821 3f40 19       		.byte	0x19
 6822 3f41 22020000 		.long	0x222
 6823 3f45 02       		.byte	0x2
 6824 3f46 91       		.byte	0x91
 6825 3f47 04       		.sleb128 4
 6826 3f48 19       		.uleb128 0x19
 6827 3f49 61727231 		.ascii "arr1\0"
 6827      00
 6828 3f4e 01       		.byte	0x1
 6829 3f4f 19       		.byte	0x19
 6830 3f50 7B020000 		.long	0x27b
 6831 3f54 21010000 		.secrel32	LLST8
 6832 3f58 19       		.uleb128 0x19
 6833 3f59 61727232 		.ascii "arr2\0"
 6833      00
 6834 3f5e 01       		.byte	0x1
 6835 3f5f 19       		.byte	0x19
 6836 3f60 7B020000 		.long	0x27b
 6837 3f64 41010000 		.secrel32	LLST9
 6838 3f68 19       		.uleb128 0x19
 6839 3f69 61727233 		.ascii "arr3\0"
 6839      00
 6840 3f6e 01       		.byte	0x1
 6841 3f6f 19       		.byte	0x19
 6842 3f70 7B020000 		.long	0x27b
 6843 3f74 61010000 		.secrel32	LLST10
 6844 3f78 1D       		.uleb128 0x1d
 6845 3f79 6172725F 		.ascii "arr_1\0"
 6845      3100
 6846 3f7f 01       		.byte	0x1
 6847 3f80 1C       		.byte	0x1c
 6848 3f81 FE3E0000 		.long	0x3efe
 6849 3f85 1E       		.uleb128 0x1e
 6850 3f86 6C656E31 		.ascii "len1\0"
 6850      00
 6851 3f8b 01       		.byte	0x1
GAS LISTING /cygdrive/c/Users/THESCI~1/AppData/Local/Temp/cchZ1Zdn.s 			page 145


 6852 3f8c 1D       		.byte	0x1d
 6853 3f8d 15020000 		.long	0x215
 6854 3f91 02       		.byte	0x2
 6855 3f92 75       		.byte	0x75
 6856 3f93 50       		.sleb128 -48
 6857 3f94 1E       		.uleb128 0x1e
 6858 3f95 6C656E31 		.ascii "len1_in\0"
 6858      5F696E00 
 6859 3f9d 01       		.byte	0x1
 6860 3f9e 1E       		.byte	0x1e
 6861 3f9f 15020000 		.long	0x215
 6862 3fa3 02       		.byte	0x2
 6863 3fa4 75       		.byte	0x75
 6864 3fa5 54       		.sleb128 -44
 6865 3fa6 1D       		.uleb128 0x1d
 6866 3fa7 6172725F 		.ascii "arr_2\0"
 6866      3200
 6867 3fad 01       		.byte	0x1
 6868 3fae 1F       		.byte	0x1f
 6869 3faf FE3E0000 		.long	0x3efe
 6870 3fb3 1B       		.uleb128 0x1b
 6871 3fb4 6C656E32 		.ascii "len2\0"
 6871      00
 6872 3fb9 01       		.byte	0x1
 6873 3fba 20       		.byte	0x20
 6874 3fbb 15020000 		.long	0x215
 6875 3fbf 99010000 		.secrel32	LLST11
 6876 3fc3 1B       		.uleb128 0x1b
 6877 3fc4 6C656E32 		.ascii "len2_in\0"
 6877      5F696E00 
 6878 3fcc 01       		.byte	0x1
 6879 3fcd 21       		.byte	0x21
 6880 3fce 15020000 		.long	0x215
 6881 3fd2 CD010000 		.secrel32	LLST12
 6882 3fd6 1D       		.uleb128 0x1d
 6883 3fd7 6172725F 		.ascii "arr_3\0"
 6883      3300
 6884 3fdd 01       		.byte	0x1
 6885 3fde 22       		.byte	0x22
 6886 3fdf FE3E0000 		.long	0x3efe
 6887 3fe3 1D       		.uleb128 0x1d
 6888 3fe4 6C656E33 		.ascii "len3\0"
 6888      00
 6889 3fe9 01       		.byte	0x1
 6890 3fea 23       		.byte	0x23
 6891 3feb 15020000 		.long	0x215
 6892 3fef 1D       		.uleb128 0x1d
 6893 3ff0 6C656E33 		.ascii "len3_in\0"
 6893      5F696E00 
 6894 3ff8 01       		.byte	0x1
 6895 3ff9 24       		.byte	0x24
 6896 3ffa 15020000 		.long	0x215
 6897 3ffe 1F       		.uleb128 0x1f
 6898 3fff 99000000 		.long	LBB2
 6899 4003 84010000 		.long	LBE2
 6900 4007 4B400000 		.long	0x404b
 6901 400b 1B       		.uleb128 0x1b
GAS LISTING /cygdrive/c/Users/THESCI~1/AppData/Local/Temp/cchZ1Zdn.s 			page 146


 6902 400c 6900     		.ascii "i\0"
 6903 400e 01       		.byte	0x1
 6904 400f 2D       		.byte	0x2d
 6905 4010 93000000 		.long	0x93
 6906 4014 ED010000 		.secrel32	LLST13
 6907 4018 20       		.uleb128 0x20
 6908 4019 00000000 		.secrel32	Ldebug_ranges0+0x0
 6909 401d 21       		.uleb128 0x21
 6910 401e 00000000 		.secrel32	LASF5
 6911 4022 01       		.byte	0x1
 6912 4023 39       		.byte	0x39
 6913 4024 B4020000 		.long	0x2b4
 6914 4028 00020000 		.secrel32	LLST14
 6915 402c 1B       		.uleb128 0x1b
 6916 402d 6F726967 		.ascii "orig\0"
 6916      00
 6917 4032 01       		.byte	0x1
 6918 4033 3A       		.byte	0x3a
 6919 4034 2F380000 		.long	0x382f
 6920 4038 13020000 		.secrel32	LLST15
 6921 403c 1B       		.uleb128 0x1b
 6922 403d 6A00     		.ascii "j\0"
 6923 403f 01       		.byte	0x1
 6924 4040 3B       		.byte	0x3b
 6925 4041 93000000 		.long	0x93
 6926 4045 26020000 		.secrel32	LLST16
 6927 4049 00       		.byte	0x0
 6928 404a 00       		.byte	0x0
 6929 404b 22       		.uleb128 0x22
 6930 404c 18000000 		.secrel32	Ldebug_ranges0+0x18
 6931 4050 94400000 		.long	0x4094
 6932 4054 1B       		.uleb128 0x1b
 6933 4055 6900     		.ascii "i\0"
 6934 4057 01       		.byte	0x1
 6935 4058 55       		.byte	0x55
 6936 4059 93000000 		.long	0x93
 6937 405d 39020000 		.secrel32	LLST17
 6938 4061 20       		.uleb128 0x20
 6939 4062 30000000 		.secrel32	Ldebug_ranges0+0x30
 6940 4066 21       		.uleb128 0x21
 6941 4067 00000000 		.secrel32	LASF5
 6942 406b 01       		.byte	0x1
 6943 406c 61       		.byte	0x61
 6944 406d B4020000 		.long	0x2b4
 6945 4071 78020000 		.secrel32	LLST18
 6946 4075 1B       		.uleb128 0x1b
 6947 4076 6F726967 		.ascii "orig\0"
 6947      00
 6948 407b 01       		.byte	0x1
 6949 407c 62       		.byte	0x62
 6950 407d 2F380000 		.long	0x382f
 6951 4081 98020000 		.secrel32	LLST19
 6952 4085 1B       		.uleb128 0x1b
 6953 4086 6A00     		.ascii "j\0"
 6954 4088 01       		.byte	0x1
 6955 4089 63       		.byte	0x63
 6956 408a 93000000 		.long	0x93
GAS LISTING /cygdrive/c/Users/THESCI~1/AppData/Local/Temp/cchZ1Zdn.s 			page 147


 6957 408e AB020000 		.secrel32	LLST20
 6958 4092 00       		.byte	0x0
 6959 4093 00       		.byte	0x0
 6960 4094 22       		.uleb128 0x22
 6961 4095 48000000 		.secrel32	Ldebug_ranges0+0x48
 6962 4099 AB400000 		.long	0x40ab
 6963 409d 1B       		.uleb128 0x1b
 6964 409e 6900     		.ascii "i\0"
 6965 40a0 01       		.byte	0x1
 6966 40a1 86       		.byte	0x86
 6967 40a2 93000000 		.long	0x93
 6968 40a6 BE020000 		.secrel32	LLST21
 6969 40aa 00       		.byte	0x0
 6970 40ab 22       		.uleb128 0x22
 6971 40ac 60000000 		.secrel32	Ldebug_ranges0+0x60
 6972 40b0 F1400000 		.long	0x40f1
 6973 40b4 1B       		.uleb128 0x1b
 6974 40b5 6900     		.ascii "i\0"
 6975 40b7 01       		.byte	0x1
 6976 40b8 90       		.byte	0x90
 6977 40b9 93000000 		.long	0x93
 6978 40bd D1020000 		.secrel32	LLST22
 6979 40c1 1B       		.uleb128 0x1b
 6980 40c2 6A00     		.ascii "j\0"
 6981 40c4 01       		.byte	0x1
 6982 40c5 91       		.byte	0x91
 6983 40c6 93000000 		.long	0x93
 6984 40ca FD020000 		.secrel32	LLST23
 6985 40ce 20       		.uleb128 0x20
 6986 40cf 78000000 		.secrel32	Ldebug_ranges0+0x78
 6987 40d3 1B       		.uleb128 0x1b
 6988 40d4 6B00     		.ascii "k\0"
 6989 40d6 01       		.byte	0x1
 6990 40d7 98       		.byte	0x98
 6991 40d8 93000000 		.long	0x93
 6992 40dc 29030000 		.secrel32	LLST24
 6993 40e0 1B       		.uleb128 0x1b
 6994 40e1 76616C00 		.ascii "val\0"
 6995 40e5 01       		.byte	0x1
 6996 40e6 99       		.byte	0x99
 6997 40e7 93000000 		.long	0x93
 6998 40eb 3C030000 		.secrel32	LLST25
 6999 40ef 00       		.byte	0x0
 7000 40f0 00       		.byte	0x0
 7001 40f1 20       		.uleb128 0x20
 7002 40f2 98000000 		.secrel32	Ldebug_ranges0+0x98
 7003 40f6 1B       		.uleb128 0x1b
 7004 40f7 6900     		.ascii "i\0"
 7005 40f9 01       		.byte	0x1
 7006 40fa AA       		.byte	0xaa
 7007 40fb 93000000 		.long	0x93
 7008 40ff 5A030000 		.secrel32	LLST26
 7009 4103 20       		.uleb128 0x20
 7010 4104 B8000000 		.secrel32	Ldebug_ranges0+0xb8
 7011 4108 21       		.uleb128 0x21
 7012 4109 00000000 		.secrel32	LASF5
 7013 410d 01       		.byte	0x1
GAS LISTING /cygdrive/c/Users/THESCI~1/AppData/Local/Temp/cchZ1Zdn.s 			page 148


 7014 410e B7       		.byte	0xb7
 7015 410f B4020000 		.long	0x2b4
 7016 4113 83030000 		.secrel32	LLST27
 7017 4117 1B       		.uleb128 0x1b
 7018 4118 6F726967 		.ascii "orig\0"
 7018      00
 7019 411d 01       		.byte	0x1
 7020 411e B8       		.byte	0xb8
 7021 411f 2F380000 		.long	0x382f
 7022 4123 A1030000 		.secrel32	LLST28
 7023 4127 1B       		.uleb128 0x1b
 7024 4128 6A00     		.ascii "j\0"
 7025 412a 01       		.byte	0x1
 7026 412b B9       		.byte	0xb9
 7027 412c 93000000 		.long	0x93
 7028 4130 CD030000 		.secrel32	LLST29
 7029 4134 00       		.byte	0x0
 7030 4135 00       		.byte	0x0
 7031 4136 00       		.byte	0x0
 7032 4137 00       		.byte	0x0
 7033              		.section	.debug_abbrev,"dr"
 7034 0000 01       		.uleb128 0x1
 7035 0001 11       		.uleb128 0x11
 7036 0002 01       		.byte	0x1
 7037 0003 25       		.uleb128 0x25
 7038 0004 08       		.uleb128 0x8
 7039 0005 13       		.uleb128 0x13
 7040 0006 0B       		.uleb128 0xb
 7041 0007 03       		.uleb128 0x3
 7042 0008 08       		.uleb128 0x8
 7043 0009 1B       		.uleb128 0x1b
 7044 000a 08       		.uleb128 0x8
 7045 000b 11       		.uleb128 0x11
 7046 000c 01       		.uleb128 0x1
 7047 000d 12       		.uleb128 0x12
 7048 000e 01       		.uleb128 0x1
 7049 000f 10       		.uleb128 0x10
 7050 0010 06       		.uleb128 0x6
 7051 0011 00       		.byte	0x0
 7052 0012 00       		.byte	0x0
 7053 0013 02       		.uleb128 0x2
 7054 0014 24       		.uleb128 0x24
 7055 0015 00       		.byte	0x0
 7056 0016 0B       		.uleb128 0xb
 7057 0017 0B       		.uleb128 0xb
 7058 0018 3E       		.uleb128 0x3e
 7059 0019 0B       		.uleb128 0xb
 7060 001a 03       		.uleb128 0x3
 7061 001b 08       		.uleb128 0x8
 7062 001c 00       		.byte	0x0
 7063 001d 00       		.byte	0x0
 7064 001e 03       		.uleb128 0x3
 7065 001f 16       		.uleb128 0x16
 7066 0020 00       		.byte	0x0
 7067 0021 03       		.uleb128 0x3
 7068 0022 08       		.uleb128 0x8
 7069 0023 3A       		.uleb128 0x3a
GAS LISTING /cygdrive/c/Users/THESCI~1/AppData/Local/Temp/cchZ1Zdn.s 			page 149


 7070 0024 0B       		.uleb128 0xb
 7071 0025 3B       		.uleb128 0x3b
 7072 0026 0B       		.uleb128 0xb
 7073 0027 49       		.uleb128 0x49
 7074 0028 13       		.uleb128 0x13
 7075 0029 00       		.byte	0x0
 7076 002a 00       		.byte	0x0
 7077 002b 04       		.uleb128 0x4
 7078 002c 0F       		.uleb128 0xf
 7079 002d 00       		.byte	0x0
 7080 002e 0B       		.uleb128 0xb
 7081 002f 0B       		.uleb128 0xb
 7082 0030 03       		.uleb128 0x3
 7083 0031 08       		.uleb128 0x8
 7084 0032 49       		.uleb128 0x49
 7085 0033 13       		.uleb128 0x13
 7086 0034 00       		.byte	0x0
 7087 0035 00       		.byte	0x0
 7088 0036 05       		.uleb128 0x5
 7089 0037 0F       		.uleb128 0xf
 7090 0038 00       		.byte	0x0
 7091 0039 0B       		.uleb128 0xb
 7092 003a 0B       		.uleb128 0xb
 7093 003b 00       		.byte	0x0
 7094 003c 00       		.byte	0x0
 7095 003d 06       		.uleb128 0x6
 7096 003e 24       		.uleb128 0x24
 7097 003f 00       		.byte	0x0
 7098 0040 0B       		.uleb128 0xb
 7099 0041 0B       		.uleb128 0xb
 7100 0042 3E       		.uleb128 0x3e
 7101 0043 0B       		.uleb128 0xb
 7102 0044 00       		.byte	0x0
 7103 0045 00       		.byte	0x0
 7104 0046 07       		.uleb128 0x7
 7105 0047 0F       		.uleb128 0xf
 7106 0048 00       		.byte	0x0
 7107 0049 0B       		.uleb128 0xb
 7108 004a 0B       		.uleb128 0xb
 7109 004b 49       		.uleb128 0x49
 7110 004c 13       		.uleb128 0x13
 7111 004d 00       		.byte	0x0
 7112 004e 00       		.byte	0x0
 7113 004f 08       		.uleb128 0x8
 7114 0050 26       		.uleb128 0x26
 7115 0051 00       		.byte	0x0
 7116 0052 49       		.uleb128 0x49
 7117 0053 13       		.uleb128 0x13
 7118 0054 00       		.byte	0x0
 7119 0055 00       		.byte	0x0
 7120 0056 09       		.uleb128 0x9
 7121 0057 26       		.uleb128 0x26
 7122 0058 00       		.byte	0x0
 7123 0059 03       		.uleb128 0x3
 7124 005a 0E       		.uleb128 0xe
 7125 005b 49       		.uleb128 0x49
 7126 005c 13       		.uleb128 0x13
GAS LISTING /cygdrive/c/Users/THESCI~1/AppData/Local/Temp/cchZ1Zdn.s 			page 150


 7127 005d 00       		.byte	0x0
 7128 005e 00       		.byte	0x0
 7129 005f 0A       		.uleb128 0xa
 7130 0060 13       		.uleb128 0x13
 7131 0061 01       		.byte	0x1
 7132 0062 03       		.uleb128 0x3
 7133 0063 0E       		.uleb128 0xe
 7134 0064 0B       		.uleb128 0xb
 7135 0065 05       		.uleb128 0x5
 7136 0066 3A       		.uleb128 0x3a
 7137 0067 0B       		.uleb128 0xb
 7138 0068 3B       		.uleb128 0x3b
 7139 0069 0B       		.uleb128 0xb
 7140 006a 01       		.uleb128 0x1
 7141 006b 13       		.uleb128 0x13
 7142 006c 00       		.byte	0x0
 7143 006d 00       		.byte	0x0
 7144 006e 0B       		.uleb128 0xb
 7145 006f 0D       		.uleb128 0xd
 7146 0070 00       		.byte	0x0
 7147 0071 03       		.uleb128 0x3
 7148 0072 0E       		.uleb128 0xe
 7149 0073 3A       		.uleb128 0x3a
 7150 0074 0B       		.uleb128 0xb
 7151 0075 3B       		.uleb128 0x3b
 7152 0076 0B       		.uleb128 0xb
 7153 0077 49       		.uleb128 0x49
 7154 0078 13       		.uleb128 0x13
 7155 0079 38       		.uleb128 0x38
 7156 007a 0A       		.uleb128 0xa
 7157 007b 00       		.byte	0x0
 7158 007c 00       		.byte	0x0
 7159 007d 0C       		.uleb128 0xc
 7160 007e 0D       		.uleb128 0xd
 7161 007f 00       		.byte	0x0
 7162 0080 03       		.uleb128 0x3
 7163 0081 08       		.uleb128 0x8
 7164 0082 3A       		.uleb128 0x3a
 7165 0083 0B       		.uleb128 0xb
 7166 0084 3B       		.uleb128 0x3b
 7167 0085 0B       		.uleb128 0xb
 7168 0086 49       		.uleb128 0x49
 7169 0087 13       		.uleb128 0x13
 7170 0088 38       		.uleb128 0x38
 7171 0089 0A       		.uleb128 0xa
 7172 008a 00       		.byte	0x0
 7173 008b 00       		.byte	0x0
 7174 008c 0D       		.uleb128 0xd
 7175 008d 0D       		.uleb128 0xd
 7176 008e 00       		.byte	0x0
 7177 008f 03       		.uleb128 0x3
 7178 0090 08       		.uleb128 0x8
 7179 0091 3A       		.uleb128 0x3a
 7180 0092 0B       		.uleb128 0xb
 7181 0093 3B       		.uleb128 0x3b
 7182 0094 05       		.uleb128 0x5
 7183 0095 49       		.uleb128 0x49
GAS LISTING /cygdrive/c/Users/THESCI~1/AppData/Local/Temp/cchZ1Zdn.s 			page 151


 7184 0096 13       		.uleb128 0x13
 7185 0097 38       		.uleb128 0x38
 7186 0098 0A       		.uleb128 0xa
 7187 0099 00       		.byte	0x0
 7188 009a 00       		.byte	0x0
 7189 009b 0E       		.uleb128 0xe
 7190 009c 13       		.uleb128 0x13
 7191 009d 01       		.byte	0x1
 7192 009e 03       		.uleb128 0x3
 7193 009f 0E       		.uleb128 0xe
 7194 00a0 0B       		.uleb128 0xb
 7195 00a1 0B       		.uleb128 0xb
 7196 00a2 3A       		.uleb128 0x3a
 7197 00a3 0B       		.uleb128 0xb
 7198 00a4 3B       		.uleb128 0x3b
 7199 00a5 0B       		.uleb128 0xb
 7200 00a6 01       		.uleb128 0x1
 7201 00a7 13       		.uleb128 0x13
 7202 00a8 00       		.byte	0x0
 7203 00a9 00       		.byte	0x0
 7204 00aa 0F       		.uleb128 0xf
 7205 00ab 0D       		.uleb128 0xd
 7206 00ac 00       		.byte	0x0
 7207 00ad 03       		.uleb128 0x3
 7208 00ae 0E       		.uleb128 0xe
 7209 00af 3A       		.uleb128 0x3a
 7210 00b0 0B       		.uleb128 0xb
 7211 00b1 3B       		.uleb128 0x3b
 7212 00b2 05       		.uleb128 0x5
 7213 00b3 49       		.uleb128 0x49
 7214 00b4 13       		.uleb128 0x13
 7215 00b5 38       		.uleb128 0x38
 7216 00b6 0A       		.uleb128 0xa
 7217 00b7 00       		.byte	0x0
 7218 00b8 00       		.byte	0x0
 7219 00b9 10       		.uleb128 0x10
 7220 00ba 13       		.uleb128 0x13
 7221 00bb 00       		.byte	0x0
 7222 00bc 03       		.uleb128 0x3
 7223 00bd 08       		.uleb128 0x8
 7224 00be 3C       		.uleb128 0x3c
 7225 00bf 0C       		.uleb128 0xc
 7226 00c0 00       		.byte	0x0
 7227 00c1 00       		.byte	0x0
 7228 00c2 11       		.uleb128 0x11
 7229 00c3 17       		.uleb128 0x17
 7230 00c4 01       		.byte	0x1
 7231 00c5 03       		.uleb128 0x3
 7232 00c6 08       		.uleb128 0x8
 7233 00c7 0B       		.uleb128 0xb
 7234 00c8 0B       		.uleb128 0xb
 7235 00c9 3A       		.uleb128 0x3a
 7236 00ca 0B       		.uleb128 0xb
 7237 00cb 3B       		.uleb128 0x3b
 7238 00cc 0B       		.uleb128 0xb
 7239 00cd 01       		.uleb128 0x1
 7240 00ce 13       		.uleb128 0x13
GAS LISTING /cygdrive/c/Users/THESCI~1/AppData/Local/Temp/cchZ1Zdn.s 			page 152


 7241 00cf 00       		.byte	0x0
 7242 00d0 00       		.byte	0x0
 7243 00d1 12       		.uleb128 0x12
 7244 00d2 0D       		.uleb128 0xd
 7245 00d3 00       		.byte	0x0
 7246 00d4 03       		.uleb128 0x3
 7247 00d5 08       		.uleb128 0x8
 7248 00d6 3A       		.uleb128 0x3a
 7249 00d7 0B       		.uleb128 0xb
 7250 00d8 3B       		.uleb128 0x3b
 7251 00d9 0B       		.uleb128 0xb
 7252 00da 49       		.uleb128 0x49
 7253 00db 13       		.uleb128 0x13
 7254 00dc 00       		.byte	0x0
 7255 00dd 00       		.byte	0x0
 7256 00de 13       		.uleb128 0x13
 7257 00df 13       		.uleb128 0x13
 7258 00e0 01       		.byte	0x1
 7259 00e1 0B       		.uleb128 0xb
 7260 00e2 0B       		.uleb128 0xb
 7261 00e3 3A       		.uleb128 0x3a
 7262 00e4 0B       		.uleb128 0xb
 7263 00e5 3B       		.uleb128 0x3b
 7264 00e6 0B       		.uleb128 0xb
 7265 00e7 01       		.uleb128 0x1
 7266 00e8 13       		.uleb128 0x13
 7267 00e9 00       		.byte	0x0
 7268 00ea 00       		.byte	0x0
 7269 00eb 14       		.uleb128 0x14
 7270 00ec 15       		.uleb128 0x15
 7271 00ed 01       		.byte	0x1
 7272 00ee 27       		.uleb128 0x27
 7273 00ef 0C       		.uleb128 0xc
 7274 00f0 49       		.uleb128 0x49
 7275 00f1 13       		.uleb128 0x13
 7276 00f2 01       		.uleb128 0x1
 7277 00f3 13       		.uleb128 0x13
 7278 00f4 00       		.byte	0x0
 7279 00f5 00       		.byte	0x0
 7280 00f6 15       		.uleb128 0x15
 7281 00f7 05       		.uleb128 0x5
 7282 00f8 00       		.byte	0x0
 7283 00f9 49       		.uleb128 0x49
 7284 00fa 13       		.uleb128 0x13
 7285 00fb 00       		.byte	0x0
 7286 00fc 00       		.byte	0x0
 7287 00fd 16       		.uleb128 0x16
 7288 00fe 15       		.uleb128 0x15
 7289 00ff 01       		.byte	0x1
 7290 0100 27       		.uleb128 0x27
 7291 0101 0C       		.uleb128 0xc
 7292 0102 01       		.uleb128 0x1
 7293 0103 13       		.uleb128 0x13
 7294 0104 00       		.byte	0x0
 7295 0105 00       		.byte	0x0
 7296 0106 17       		.uleb128 0x17
 7297 0107 18       		.uleb128 0x18
GAS LISTING /cygdrive/c/Users/THESCI~1/AppData/Local/Temp/cchZ1Zdn.s 			page 153


 7298 0108 00       		.byte	0x0
 7299 0109 00       		.byte	0x0
 7300 010a 00       		.byte	0x0
 7301 010b 18       		.uleb128 0x18
 7302 010c 2E       		.uleb128 0x2e
 7303 010d 01       		.byte	0x1
 7304 010e 3F       		.uleb128 0x3f
 7305 010f 0C       		.uleb128 0xc
 7306 0110 03       		.uleb128 0x3
 7307 0111 08       		.uleb128 0x8
 7308 0112 3A       		.uleb128 0x3a
 7309 0113 0B       		.uleb128 0xb
 7310 0114 3B       		.uleb128 0x3b
 7311 0115 0B       		.uleb128 0xb
 7312 0116 27       		.uleb128 0x27
 7313 0117 0C       		.uleb128 0xc
 7314 0118 11       		.uleb128 0x11
 7315 0119 01       		.uleb128 0x1
 7316 011a 12       		.uleb128 0x12
 7317 011b 01       		.uleb128 0x1
 7318 011c 40       		.uleb128 0x40
 7319 011d 06       		.uleb128 0x6
 7320 011e 01       		.uleb128 0x1
 7321 011f 13       		.uleb128 0x13
 7322 0120 00       		.byte	0x0
 7323 0121 00       		.byte	0x0
 7324 0122 19       		.uleb128 0x19
 7325 0123 05       		.uleb128 0x5
 7326 0124 00       		.byte	0x0
 7327 0125 03       		.uleb128 0x3
 7328 0126 08       		.uleb128 0x8
 7329 0127 3A       		.uleb128 0x3a
 7330 0128 0B       		.uleb128 0xb
 7331 0129 3B       		.uleb128 0x3b
 7332 012a 0B       		.uleb128 0xb
 7333 012b 49       		.uleb128 0x49
 7334 012c 13       		.uleb128 0x13
 7335 012d 02       		.uleb128 0x2
 7336 012e 06       		.uleb128 0x6
 7337 012f 00       		.byte	0x0
 7338 0130 00       		.byte	0x0
 7339 0131 1A       		.uleb128 0x1a
 7340 0132 05       		.uleb128 0x5
 7341 0133 00       		.byte	0x0
 7342 0134 03       		.uleb128 0x3
 7343 0135 08       		.uleb128 0x8
 7344 0136 3A       		.uleb128 0x3a
 7345 0137 0B       		.uleb128 0xb
 7346 0138 3B       		.uleb128 0x3b
 7347 0139 0B       		.uleb128 0xb
 7348 013a 49       		.uleb128 0x49
 7349 013b 13       		.uleb128 0x13
 7350 013c 02       		.uleb128 0x2
 7351 013d 0A       		.uleb128 0xa
 7352 013e 00       		.byte	0x0
 7353 013f 00       		.byte	0x0
 7354 0140 1B       		.uleb128 0x1b
GAS LISTING /cygdrive/c/Users/THESCI~1/AppData/Local/Temp/cchZ1Zdn.s 			page 154


 7355 0141 34       		.uleb128 0x34
 7356 0142 00       		.byte	0x0
 7357 0143 03       		.uleb128 0x3
 7358 0144 08       		.uleb128 0x8
 7359 0145 3A       		.uleb128 0x3a
 7360 0146 0B       		.uleb128 0xb
 7361 0147 3B       		.uleb128 0x3b
 7362 0148 0B       		.uleb128 0xb
 7363 0149 49       		.uleb128 0x49
 7364 014a 13       		.uleb128 0x13
 7365 014b 02       		.uleb128 0x2
 7366 014c 06       		.uleb128 0x6
 7367 014d 00       		.byte	0x0
 7368 014e 00       		.byte	0x0
 7369 014f 1C       		.uleb128 0x1c
 7370 0150 2E       		.uleb128 0x2e
 7371 0151 01       		.byte	0x1
 7372 0152 3F       		.uleb128 0x3f
 7373 0153 0C       		.uleb128 0xc
 7374 0154 03       		.uleb128 0x3
 7375 0155 08       		.uleb128 0x8
 7376 0156 3A       		.uleb128 0x3a
 7377 0157 0B       		.uleb128 0xb
 7378 0158 3B       		.uleb128 0x3b
 7379 0159 0B       		.uleb128 0xb
 7380 015a 27       		.uleb128 0x27
 7381 015b 0C       		.uleb128 0xc
 7382 015c 11       		.uleb128 0x11
 7383 015d 01       		.uleb128 0x1
 7384 015e 12       		.uleb128 0x12
 7385 015f 01       		.uleb128 0x1
 7386 0160 40       		.uleb128 0x40
 7387 0161 06       		.uleb128 0x6
 7388 0162 00       		.byte	0x0
 7389 0163 00       		.byte	0x0
 7390 0164 1D       		.uleb128 0x1d
 7391 0165 34       		.uleb128 0x34
 7392 0166 00       		.byte	0x0
 7393 0167 03       		.uleb128 0x3
 7394 0168 08       		.uleb128 0x8
 7395 0169 3A       		.uleb128 0x3a
 7396 016a 0B       		.uleb128 0xb
 7397 016b 3B       		.uleb128 0x3b
 7398 016c 0B       		.uleb128 0xb
 7399 016d 49       		.uleb128 0x49
 7400 016e 13       		.uleb128 0x13
 7401 016f 00       		.byte	0x0
 7402 0170 00       		.byte	0x0
 7403 0171 1E       		.uleb128 0x1e
 7404 0172 34       		.uleb128 0x34
 7405 0173 00       		.byte	0x0
 7406 0174 03       		.uleb128 0x3
 7407 0175 08       		.uleb128 0x8
 7408 0176 3A       		.uleb128 0x3a
 7409 0177 0B       		.uleb128 0xb
 7410 0178 3B       		.uleb128 0x3b
 7411 0179 0B       		.uleb128 0xb
GAS LISTING /cygdrive/c/Users/THESCI~1/AppData/Local/Temp/cchZ1Zdn.s 			page 155


 7412 017a 49       		.uleb128 0x49
 7413 017b 13       		.uleb128 0x13
 7414 017c 02       		.uleb128 0x2
 7415 017d 0A       		.uleb128 0xa
 7416 017e 00       		.byte	0x0
 7417 017f 00       		.byte	0x0
 7418 0180 1F       		.uleb128 0x1f
 7419 0181 0B       		.uleb128 0xb
 7420 0182 01       		.byte	0x1
 7421 0183 11       		.uleb128 0x11
 7422 0184 01       		.uleb128 0x1
 7423 0185 12       		.uleb128 0x12
 7424 0186 01       		.uleb128 0x1
 7425 0187 01       		.uleb128 0x1
 7426 0188 13       		.uleb128 0x13
 7427 0189 00       		.byte	0x0
 7428 018a 00       		.byte	0x0
 7429 018b 20       		.uleb128 0x20
 7430 018c 0B       		.uleb128 0xb
 7431 018d 01       		.byte	0x1
 7432 018e 55       		.uleb128 0x55
 7433 018f 06       		.uleb128 0x6
 7434 0190 00       		.byte	0x0
 7435 0191 00       		.byte	0x0
 7436 0192 21       		.uleb128 0x21
 7437 0193 34       		.uleb128 0x34
 7438 0194 00       		.byte	0x0
 7439 0195 03       		.uleb128 0x3
 7440 0196 0E       		.uleb128 0xe
 7441 0197 3A       		.uleb128 0x3a
 7442 0198 0B       		.uleb128 0xb
 7443 0199 3B       		.uleb128 0x3b
 7444 019a 0B       		.uleb128 0xb
 7445 019b 49       		.uleb128 0x49
 7446 019c 13       		.uleb128 0x13
 7447 019d 02       		.uleb128 0x2
 7448 019e 06       		.uleb128 0x6
 7449 019f 00       		.byte	0x0
 7450 01a0 00       		.byte	0x0
 7451 01a1 22       		.uleb128 0x22
 7452 01a2 0B       		.uleb128 0xb
 7453 01a3 01       		.byte	0x1
 7454 01a4 55       		.uleb128 0x55
 7455 01a5 06       		.uleb128 0x6
 7456 01a6 01       		.uleb128 0x1
 7457 01a7 13       		.uleb128 0x13
 7458 01a8 00       		.byte	0x0
 7459 01a9 00       		.byte	0x0
 7460 01aa 00       		.byte	0x0
 7461              		.section	.debug_pubnames,"dr"
 7462 0000 3A000000 		.long	0x3a
 7463 0004 0200     		.word	0x2
 7464 0006 00000000 		.secrel32	Ldebug_info0
 7465 000a 38410000 		.long	0x4138
 7466 000e 6B3E0000 		.long	0x3e6b
 7467 0012 66726565 		.ascii "freeeverything\0"
 7467      65766572 
GAS LISTING /cygdrive/c/Users/THESCI~1/AppData/Local/Temp/cchZ1Zdn.s 			page 156


 7467      79746869 
 7467      6E6700
 7468 0021 043F0000 		.long	0x3f04
 7469 0025 4A617661 		.ascii "Java_Matrix_multiply\0"
 7469      5F4D6174 
 7469      7269785F 
 7469      6D756C74 
 7469      69706C79 
 7470 003a 00000000 		.long	0x0
 7471              		.section	.debug_aranges,"dr"
 7472 0000 1C000000 		.long	0x1c
 7473 0004 0200     		.word	0x2
 7474 0006 00000000 		.secrel32	Ldebug_info0
 7475 000a 04       		.byte	0x4
 7476 000b 00       		.byte	0x0
 7477 000c 0000     		.word	0x0
 7478 000e 0000     		.word	0x0
 7479 0010 00000000 		.long	Ltext0
 7480 0014 BD040000 		.long	Letext0-Ltext0
 7481 0018 00000000 		.long	0x0
 7482 001c 00000000 		.long	0x0
 7483              		.section	.debug_ranges,"dr"
 7484              	Ldebug_ranges0:
 7485 0000 D6000000 		.long	LBB3-Ltext0
 7486 0004 5D010000 		.long	LBE3-Ltext0
 7487 0008 60010000 		.long	LBB4-Ltext0
 7488 000c 7B010000 		.long	LBE4-Ltext0
 7489 0010 00000000 		.long	0x0
 7490 0014 00000000 		.long	0x0
 7491 0018 84010000 		.long	LBB5-Ltext0
 7492 001c 73020000 		.long	LBE5-Ltext0
 7493 0020 70040000 		.long	LBB21-Ltext0
 7494 0024 8A040000 		.long	LBE21-Ltext0
 7495 0028 00000000 		.long	0x0
 7496 002c 00000000 		.long	0x0
 7497 0030 B7010000 		.long	LBB7-Ltext0
 7498 0034 4A020000 		.long	LBE7-Ltext0
 7499 0038 4D020000 		.long	LBB6-Ltext0
 7500 003c 6B020000 		.long	LBE6-Ltext0
 7501 0040 00000000 		.long	0x0
 7502 0044 00000000 		.long	0x0
 7503 0048 8C020000 		.long	LBB8-Ltext0
 7504 004c 91020000 		.long	LBE8-Ltext0
 7505 0050 94020000 		.long	LBB9-Ltext0
 7506 0054 BC020000 		.long	LBE9-Ltext0
 7507 0058 00000000 		.long	0x0
 7508 005c 00000000 		.long	0x0
 7509 0060 BC020000 		.long	LBB10-Ltext0
 7510 0064 2D030000 		.long	LBE10-Ltext0
 7511 0068 63040000 		.long	LBB20-Ltext0
 7512 006c 70040000 		.long	LBE20-Ltext0
 7513 0070 00000000 		.long	0x0
 7514 0074 00000000 		.long	0x0
 7515 0078 D6020000 		.long	LBB12-Ltext0
 7516 007c 12030000 		.long	LBE12-Ltext0
 7517 0080 63040000 		.long	LBB13-Ltext0
 7518 0084 70040000 		.long	LBE13-Ltext0
GAS LISTING /cygdrive/c/Users/THESCI~1/AppData/Local/Temp/cchZ1Zdn.s 			page 157


 7519 0088 1C030000 		.long	LBB11-Ltext0
 7520 008c 1F030000 		.long	LBE11-Ltext0
 7521 0090 00000000 		.long	0x0
 7522 0094 00000000 		.long	0x0
 7523 0098 2D030000 		.long	LBB14-Ltext0
 7524 009c 00040000 		.long	LBE14-Ltext0
 7525 00a0 8A040000 		.long	LBB22-Ltext0
 7526 00a4 BD040000 		.long	LBE22-Ltext0
 7527 00a8 33040000 		.long	LBB19-Ltext0
 7528 00ac 5B040000 		.long	LBE19-Ltext0
 7529 00b0 00000000 		.long	0x0
 7530 00b4 00000000 		.long	0x0
 7531 00b8 4E030000 		.long	LBB15-Ltext0
 7532 00bc 50030000 		.long	LBE15-Ltext0
 7533 00c0 8A040000 		.long	LBB18-Ltext0
 7534 00c4 BD040000 		.long	LBE18-Ltext0
 7535 00c8 D6030000 		.long	LBB17-Ltext0
 7536 00cc F7030000 		.long	LBE17-Ltext0
 7537 00d0 58030000 		.long	LBB16-Ltext0
 7538 00d4 D3030000 		.long	LBE16-Ltext0
 7539 00d8 00000000 		.long	0x0
 7540 00dc 00000000 		.long	0x0
 7541              		.section	.debug_str,"dr"
 7542              	LASF5:
 7543 0000 696E745F 		.ascii "int_arr\0"
 7543      61727200 
 7544              	LASF3:
 7545 0008 4A4E494E 		.ascii "JNINativeInterface_\0"
 7545      61746976 
 7545      65496E74 
 7545      65726661 
 7545      63655F00 
 7546              	LASF0:
 7547 001c 72657365 		.ascii "reserved0\0"
 7547      72766564 
 7547      3000
 7548              	LASF1:
 7549 0026 72657365 		.ascii "reserved1\0"
 7549      72766564 
 7549      3100
 7550              	LASF2:
 7551 0030 72657365 		.ascii "reserved2\0"
 7551      72766564 
 7551      3200
 7552              	LASF4:
 7553 003a 4A4E4949 		.ascii "JNIInvokeInterface_\0"
 7553      6E766F6B 
 7553      65496E74 
 7553      65726661 
 7553      63655F00 
GAS LISTING /cygdrive/c/Users/THESCI~1/AppData/Local/Temp/cchZ1Zdn.s 			page 158


DEFINED SYMBOLS
                            *ABS*:00000000 Matrix.c
/cygdrive/c/Users/THESCI~1/AppData/Local/Temp/cchZ1Zdn.s:13     .text:00000000 _freeeverything
/cygdrive/c/Users/THESCI~1/AppData/Local/Temp/cchZ1Zdn.s:115    .text:00000090 _Java_Matrix_multiply

UNDEFINED SYMBOLS
_malloc
_free
