; Listing generated by Microsoft (R) Optimizing Compiler Version 15.00.21022.08 

	TITLE	c:\Users\FireEmblem16\Documents\Visual Studio 2008\Projects\Chronicles\Chronicles\Source\File Handler.cpp
	.686P
	.XMM
	include listing.inc
	.model	flat

INCLUDELIB LIBCMTD
INCLUDELIB OLDNAMES

PUBLIC	??_C@_0P@GHFPNOJB@bad?5allocation?$AA@		; `string'
_DATA	SEGMENT
__bad_alloc_Message DD FLAT:??_C@_0P@GHFPNOJB@bad?5allocation?$AA@
_DATA	ENDS
;	COMDAT ??_C@_0P@GHFPNOJB@bad?5allocation?$AA@
CONST	SEGMENT
??_C@_0P@GHFPNOJB@bad?5allocation?$AA@ DB 'bad allocation', 00H ; `string'
CONST	ENDS
PUBLIC	??0SaveFile@@QAE@E@Z				; SaveFile::SaveFile
; Function compile flags: /Odtp /ZI
; File c:\users\fireemblem16\documents\visual studio 2008\projects\chronicles\chronicles\source\file handler.cpp
;	COMDAT ??0SaveFile@@QAE@E@Z
_TEXT	SEGMENT
_this$ = -4						; size = 4
_EncryptionKey$ = 8					; size = 1
??0SaveFile@@QAE@E@Z PROC				; SaveFile::SaveFile, COMDAT
; _this$ = ecx

; 22   : {

  00000	55		 push	 ebp
  00001	8b ec		 mov	 ebp, esp
  00003	83 ec 44	 sub	 esp, 68			; 00000044H
  00006	53		 push	 ebx
  00007	56		 push	 esi
  00008	57		 push	 edi
  00009	89 4d fc	 mov	 DWORD PTR _this$[ebp], ecx

; 23   : 	this->Key=EncryptionKey;

  0000c	8b 45 fc	 mov	 eax, DWORD PTR _this$[ebp]
  0000f	8a 4d 08	 mov	 cl, BYTE PTR _EncryptionKey$[ebp]
  00012	88 48 08	 mov	 BYTE PTR [eax+8], cl

; 24   : }

  00015	8b 45 fc	 mov	 eax, DWORD PTR _this$[ebp]
  00018	5f		 pop	 edi
  00019	5e		 pop	 esi
  0001a	5b		 pop	 ebx
  0001b	8b e5		 mov	 esp, ebp
  0001d	5d		 pop	 ebp
  0001e	c2 04 00	 ret	 4
??0SaveFile@@QAE@E@Z ENDP				; SaveFile::SaveFile
_TEXT	ENDS
END
