; Listing generated by Microsoft (R) Optimizing Compiler Version 15.00.21022.08 

	TITLE	c:\Users\FireEmblem16\Documents\Visual Studio 2008\Projects\Chronicles\Chronicles\Source\Input.cpp
	.686P
	.XMM
	include listing.inc
	.model	flat

INCLUDELIB LIBCMTD
INCLUDELIB OLDNAMES

PUBLIC	??_C@_0P@GHFPNOJB@bad?5allocation?$AA@		; `string'
_DATA	SEGMENT
__bad_alloc_Message DD FLAT:??_C@_0P@GHFPNOJB@bad?5allocation?$AA@
_DATA	ENDS
;	COMDAT ??_C@_0P@GHFPNOJB@bad?5allocation?$AA@
CONST	SEGMENT
??_C@_0P@GHFPNOJB@bad?5allocation?$AA@ DB 'bad allocation', 00H ; `string'
CONST	ENDS
PUBLIC	__real@3f800000
PUBLIC	??_C@_00CNPNBAHC@?$AA@				; `string'
PUBLIC	??0MouseHandler@@QAE@_NPADPAVWindow@@M@Z	; MouseHandler::MouseHandler
EXTRN	?dbMouseZ@@YAHXZ:PROC				; dbMouseZ
EXTRN	?dbMouseY@@YAHXZ:PROC				; dbMouseY
EXTRN	?dbMouseX@@YAHXZ:PROC				; dbMouseX
EXTRN	?dbHideMouse@@YAXXZ:PROC			; dbHideMouse
EXTRN	?dbShowMouse@@YAXXZ:PROC			; dbShowMouse
EXTRN	?dbGetImageWidth@@YAHH@Z:PROC			; dbGetImageWidth
EXTRN	?dbGetImageHeight@@YAHH@Z:PROC			; dbGetImageHeight
EXTRN	?dbLoadImage@@YAXPADHH@Z:PROC			; dbLoadImage
EXTRN	?dbImageExist@@YAHH@Z:PROC			; dbImageExist
EXTRN	?dbLoadImage@@YAXPADH@Z:PROC			; dbLoadImage
EXTRN	?dbFileExist@@YAHPAD@Z:PROC			; dbFileExist
EXTRN	__fltused:DWORD
;	COMDAT __real@3f800000
; File c:\users\fireemblem16\documents\visual studio 2008\projects\chronicles\chronicles\source\input.cpp
CONST	SEGMENT
__real@3f800000 DD 03f800000r			; 1
CONST	ENDS
;	COMDAT ??_C@_00CNPNBAHC@?$AA@
CONST	SEGMENT
??_C@_00CNPNBAHC@?$AA@ DB 00H				; `string'
; Function compile flags: /Odtp /ZI
CONST	ENDS
;	COMDAT ??0MouseHandler@@QAE@_NPADPAVWindow@@M@Z
_TEXT	SEGMENT
_i$91061 = -12						; size = 4
_i$91057 = -8						; size = 4
_this$ = -4						; size = 4
_SeeMouse$ = 8						; size = 1
_MouseCursor$ = 12					; size = 4
_Win$ = 16						; size = 4
_Speeder$ = 20						; size = 4
??0MouseHandler@@QAE@_NPADPAVWindow@@M@Z PROC		; MouseHandler::MouseHandler, COMDAT
; _this$ = ecx

; 22   : {

	push	ebp
	mov	ebp, esp
	sub	esp, 76					; 0000004cH
	push	ebx
	push	esi
	push	edi
	mov	DWORD PTR _this$[ebp], ecx

; 23   : 	this->ShowMouse=SeeMouse;

	mov	eax, DWORD PTR _this$[ebp]
	mov	cl, BYTE PTR _SeeMouse$[ebp]
	mov	BYTE PTR [eax+1], cl

; 24   : 	this->CursorName=MouseCursor;

	mov	eax, DWORD PTR _this$[ebp]
	mov	ecx, DWORD PTR _MouseCursor$[ebp]
	mov	DWORD PTR [eax+404], ecx

; 25   : 	this->CurrentWindow=Win;

	mov	eax, DWORD PTR _this$[ebp]
	mov	ecx, DWORD PTR _Win$[ebp]
	mov	DWORD PTR [eax+544], ecx

; 26   : 	this->BindMouseToPosition=true;

	mov	eax, DWORD PTR _this$[ebp]
	mov	BYTE PTR [eax], 1

; 27   : 
; 28   : 	if(this->CursorName!="")

	mov	eax, DWORD PTR _this$[ebp]
	cmp	DWORD PTR [eax+404], OFFSET ??_C@_00CNPNBAHC@?$AA@
	je	SHORT $LN16@MouseHandl

; 29   : 		this->Multiplier=Speeder;

	mov	eax, DWORD PTR _this$[ebp]
	fld	DWORD PTR _Speeder$[ebp]
	fstp	DWORD PTR [eax+408]

; 30   : 	else

	jmp	SHORT $LN15@MouseHandl
$LN16@MouseHandl:

; 31   : 		this->Multiplier=1.0f;

	mov	eax, DWORD PTR _this$[ebp]
	fld1
	fstp	DWORD PTR [eax+408]
$LN15@MouseHandl:

; 32   : 
; 33   : 	for(int i=0;i<100;i++)

	mov	DWORD PTR _i$91057[ebp], 0
	jmp	SHORT $LN14@MouseHandl
$LN13@MouseHandl:
	mov	eax, DWORD PTR _i$91057[ebp]
	add	eax, 1
	mov	DWORD PTR _i$91057[ebp], eax
$LN14@MouseHandl:
	cmp	DWORD PTR _i$91057[ebp], 100		; 00000064H
	jge	SHORT $LN12@MouseHandl

; 34   : 	{
; 35   : 		this->LeftClick[i]=false;

	mov	eax, DWORD PTR _this$[ebp]
	add	eax, DWORD PTR _i$91057[ebp]
	mov	BYTE PTR [eax+2], 0

; 36   : 		this->RightClick[i]=false;

	mov	eax, DWORD PTR _this$[ebp]
	add	eax, DWORD PTR _i$91057[ebp]
	mov	BYTE PTR [eax+302], 0

; 37   : 		this->MouseButton3[i]=false;

	mov	eax, DWORD PTR _this$[ebp]
	add	eax, DWORD PTR _i$91057[ebp]
	mov	BYTE PTR [eax+102], 0

; 38   : 		this->MouseButton4[i]=false;

	mov	eax, DWORD PTR _this$[ebp]
	add	eax, DWORD PTR _i$91057[ebp]
	mov	BYTE PTR [eax+202], 0

; 39   : 	}

	jmp	SHORT $LN13@MouseHandl
$LN12@MouseHandl:

; 40   : 
; 41   : 	for(int i=0;i<10;i++)

	mov	DWORD PTR _i$91061[ebp], 0
	jmp	SHORT $LN11@MouseHandl
$LN10@MouseHandl:
	mov	eax, DWORD PTR _i$91061[ebp]
	add	eax, 1
	mov	DWORD PTR _i$91061[ebp], eax
$LN11@MouseHandl:
	cmp	DWORD PTR _i$91061[ebp], 10		; 0000000aH
	jge	SHORT $LN9@MouseHandl

; 42   : 	{
; 43   : 		this->MousePosX[i]=0;

	mov	eax, DWORD PTR _i$91061[ebp]
	mov	ecx, DWORD PTR _this$[ebp]
	mov	DWORD PTR [ecx+eax*4+424], 0

; 44   : 		this->MousePosY[i]=0;

	mov	eax, DWORD PTR _i$91061[ebp]
	mov	ecx, DWORD PTR _this$[ebp]
	mov	DWORD PTR [ecx+eax*4+464], 0

; 45   : 		this->MousePosZ[i]=0;

	mov	eax, DWORD PTR _i$91061[ebp]
	mov	ecx, DWORD PTR _this$[ebp]
	mov	DWORD PTR [ecx+eax*4+504], 0

; 46   : 	}

	jmp	SHORT $LN10@MouseHandl
$LN9@MouseHandl:

; 47   : 
; 48   : 	if(this->CursorName!="")

	mov	eax, DWORD PTR _this$[ebp]
	cmp	DWORD PTR [eax+404], OFFSET ??_C@_00CNPNBAHC@?$AA@
	je	$LN3@MouseHandl

; 49   : 	{
; 50   : 		if(dbFileExist(this->CursorName)==1)

	mov	eax, DWORD PTR _this$[ebp]
	mov	ecx, DWORD PTR [eax+404]
	push	ecx
	call	?dbFileExist@@YAHPAD@Z			; dbFileExist
	add	esp, 4
	cmp	eax, 1
	jne	$LN7@MouseHandl

; 51   : 		{
; 52   : 			dbLoadImage(this->CursorName,1);

	push	1
	mov	eax, DWORD PTR _this$[ebp]
	mov	ecx, DWORD PTR [eax+404]
	push	ecx
	call	?dbLoadImage@@YAXPADH@Z			; dbLoadImage
	add	esp, 8

; 53   : 			for(this->CursorImage=1;dbImageExist(this->CursorImage)==1;this->CursorImage++);

	mov	eax, DWORD PTR _this$[ebp]
	mov	DWORD PTR [eax+416], 1
	jmp	SHORT $LN6@MouseHandl
$LN5@MouseHandl:
	mov	eax, DWORD PTR _this$[ebp]
	mov	ecx, DWORD PTR [eax+416]
	add	ecx, 1
	mov	edx, DWORD PTR _this$[ebp]
	mov	DWORD PTR [edx+416], ecx
$LN6@MouseHandl:
	mov	eax, DWORD PTR _this$[ebp]
	mov	ecx, DWORD PTR [eax+416]
	push	ecx
	call	?dbImageExist@@YAHH@Z			; dbImageExist
	add	esp, 4
	cmp	eax, 1
	jne	SHORT $LN4@MouseHandl
	jmp	SHORT $LN5@MouseHandl
$LN4@MouseHandl:

; 54   : 			dbLoadImage(this->CursorName,this->CursorImage,1);

	push	1
	mov	eax, DWORD PTR _this$[ebp]
	mov	ecx, DWORD PTR [eax+416]
	push	ecx
	mov	edx, DWORD PTR _this$[ebp]
	mov	eax, DWORD PTR [edx+404]
	push	eax
	call	?dbLoadImage@@YAXPADHH@Z		; dbLoadImage
	add	esp, 12					; 0000000cH

; 55   : 
; 56   : 			this->CursorHeight=dbGetImageHeight(this->CursorImage);

	mov	eax, DWORD PTR _this$[ebp]
	mov	ecx, DWORD PTR [eax+416]
	push	ecx
	call	?dbGetImageHeight@@YAHH@Z		; dbGetImageHeight
	add	esp, 4
	mov	edx, DWORD PTR _this$[ebp]
	mov	DWORD PTR [edx+412], eax

; 57   : 			this->CursorWidth=dbGetImageWidth(this->CursorImage);

	mov	eax, DWORD PTR _this$[ebp]
	mov	ecx, DWORD PTR [eax+416]
	push	ecx
	call	?dbGetImageWidth@@YAHH@Z		; dbGetImageWidth
	add	esp, 4
	mov	edx, DWORD PTR _this$[ebp]
	mov	DWORD PTR [edx+420], eax

; 58   : 		}
; 59   : 		else

	jmp	SHORT $LN3@MouseHandl
$LN7@MouseHandl:

; 60   : 		{
; 61   : 			this->CursorName="";

	mov	eax, DWORD PTR _this$[ebp]
	mov	DWORD PTR [eax+404], OFFSET ??_C@_00CNPNBAHC@?$AA@

; 62   : 			this->CursorImage=0;

	mov	eax, DWORD PTR _this$[ebp]
	mov	DWORD PTR [eax+416], 0

; 63   : 			this->CursorHeight=0;

	mov	eax, DWORD PTR _this$[ebp]
	mov	DWORD PTR [eax+412], 0

; 64   : 			this->CursorWidth=0;

	mov	eax, DWORD PTR _this$[ebp]
	mov	DWORD PTR [eax+420], 0
$LN3@MouseHandl:

; 65   : 		}
; 66   : 	}
; 67   : 
; 68   : 	if(this->ShowMouse&&this->CursorName=="")

	mov	eax, DWORD PTR _this$[ebp]
	movzx	ecx, BYTE PTR [eax+1]
	test	ecx, ecx
	je	SHORT $LN2@MouseHandl
	mov	eax, DWORD PTR _this$[ebp]
	cmp	DWORD PTR [eax+404], OFFSET ??_C@_00CNPNBAHC@?$AA@
	jne	SHORT $LN2@MouseHandl

; 69   : 		dbShowMouse();

	call	?dbShowMouse@@YAXXZ			; dbShowMouse

; 70   : 	else

	jmp	SHORT $LN1@MouseHandl
$LN2@MouseHandl:

; 71   : 		dbHideMouse();

	call	?dbHideMouse@@YAXXZ			; dbHideMouse
$LN1@MouseHandl:

; 72   : 
; 73   : 	this->MousePosX[0]=dbMouseX();

	call	?dbMouseX@@YAHXZ			; dbMouseX
	mov	ecx, DWORD PTR _this$[ebp]
	mov	DWORD PTR [ecx+424], eax

; 74   : 	this->MousePosY[0]=dbMouseY();

	call	?dbMouseY@@YAHXZ			; dbMouseY
	mov	ecx, DWORD PTR _this$[ebp]
	mov	DWORD PTR [ecx+464], eax

; 75   : 	this->MousePosZ[0]=dbMouseZ();

	call	?dbMouseZ@@YAHXZ			; dbMouseZ
	mov	ecx, DWORD PTR _this$[ebp]
	mov	DWORD PTR [ecx+504], eax

; 76   : 
; 77   : 	return;
; 78   : }

	mov	eax, DWORD PTR _this$[ebp]
	pop	edi
	pop	esi
	pop	ebx
	mov	esp, ebp
	pop	ebp
	ret	16					; 00000010H
??0MouseHandler@@QAE@_NPADPAVWindow@@M@Z ENDP		; MouseHandler::MouseHandler
_TEXT	ENDS
PUBLIC	??_GWindow@@QAEPAXI@Z				; Window::`scalar deleting destructor'
PUBLIC	??1MouseHandler@@QAE@XZ				; MouseHandler::~MouseHandler
EXTRN	?dbDeleteImage@@YAXH@Z:PROC			; dbDeleteImage
EXTRN	??3@YAXPAX@Z:PROC				; operator delete
; Function compile flags: /Odtp /ZI
;	COMDAT ??1MouseHandler@@QAE@XZ
_TEXT	SEGMENT
tv71 = -84						; size = 4
$T94400 = -80						; size = 4
$T94401 = -76						; size = 4
$T94402 = -72						; size = 4
_this$ = -4						; size = 4
??1MouseHandler@@QAE@XZ PROC				; MouseHandler::~MouseHandler, COMDAT
; _this$ = ecx

; 80   : {

	push	ebp
	mov	ebp, esp
	sub	esp, 84					; 00000054H
	push	ebx
	push	esi
	push	edi
	mov	DWORD PTR _this$[ebp], ecx

; 81   : 	delete this->CursorName;

	mov	eax, DWORD PTR _this$[ebp]
	mov	ecx, DWORD PTR [eax+404]
	mov	DWORD PTR $T94400[ebp], ecx
	mov	edx, DWORD PTR $T94400[ebp]
	push	edx
	call	??3@YAXPAX@Z				; operator delete
	add	esp, 4

; 82   : 	delete this->CurrentWindow;

	mov	eax, DWORD PTR _this$[ebp]
	mov	ecx, DWORD PTR [eax+544]
	mov	DWORD PTR $T94402[ebp], ecx
	mov	edx, DWORD PTR $T94402[ebp]
	mov	DWORD PTR $T94401[ebp], edx
	cmp	DWORD PTR $T94401[ebp], 0
	je	SHORT $LN3@MouseHandl@2
	push	1
	mov	ecx, DWORD PTR $T94401[ebp]
	call	??_GWindow@@QAEPAXI@Z
	mov	DWORD PTR tv71[ebp], eax
	jmp	SHORT $LN4@MouseHandl@2
$LN3@MouseHandl@2:
	mov	DWORD PTR tv71[ebp], 0
$LN4@MouseHandl@2:

; 83   : 	dbDeleteImage(this->CursorImage);

	mov	eax, DWORD PTR _this$[ebp]
	mov	ecx, DWORD PTR [eax+416]
	push	ecx
	call	?dbDeleteImage@@YAXH@Z			; dbDeleteImage
	add	esp, 4

; 84   : 
; 85   : 	return;
; 86   : }

	pop	edi
	pop	esi
	pop	ebx
	mov	esp, ebp
	pop	ebp
	ret	0
??1MouseHandler@@QAE@XZ ENDP				; MouseHandler::~MouseHandler
_TEXT	ENDS
EXTRN	??1Window@@QAE@XZ:PROC				; Window::~Window
; Function compile flags: /Odtp /ZI
;	COMDAT ??_GWindow@@QAEPAXI@Z
_TEXT	SEGMENT
_this$ = -4						; size = 4
___flags$ = 8						; size = 4
??_GWindow@@QAEPAXI@Z PROC				; Window::`scalar deleting destructor', COMDAT
; _this$ = ecx
	push	ebp
	mov	ebp, esp
	sub	esp, 68					; 00000044H
	push	ebx
	push	esi
	push	edi
	mov	DWORD PTR _this$[ebp], ecx
	mov	ecx, DWORD PTR _this$[ebp]
	call	??1Window@@QAE@XZ			; Window::~Window
	mov	eax, DWORD PTR ___flags$[ebp]
	and	eax, 1
	je	SHORT $LN1@scalar
	mov	eax, DWORD PTR _this$[ebp]
	push	eax
	call	??3@YAXPAX@Z				; operator delete
	add	esp, 4
$LN1@scalar:
	mov	eax, DWORD PTR _this$[ebp]
	pop	edi
	pop	esi
	pop	ebx
	mov	esp, ebp
	pop	ebp
	ret	4
??_GWindow@@QAEPAXI@Z ENDP				; Window::`scalar deleting destructor'
_TEXT	ENDS
PUBLIC	?Button3Click@MouseHandler@@QAE_NXZ		; MouseHandler::Button3Click
; Function compile flags: /Odtp /ZI
;	COMDAT ?Button3Click@MouseHandler@@QAE_NXZ
_TEXT	SEGMENT
tv72 = -72						; size = 4
_this$ = -4						; size = 4
?Button3Click@MouseHandler@@QAE_NXZ PROC		; MouseHandler::Button3Click, COMDAT
; _this$ = ecx

; 88   : {

	push	ebp
	mov	ebp, esp
	sub	esp, 72					; 00000048H
	push	ebx
	push	esi
	push	edi
	mov	DWORD PTR _this$[ebp], ecx

; 89   : 	return (!this->MouseButton3[0]&&this->MouseButton3[1]);

	mov	eax, DWORD PTR _this$[ebp]
	movzx	ecx, BYTE PTR [eax+102]
	test	ecx, ecx
	jne	SHORT $LN3@Button3Cli
	mov	edx, DWORD PTR _this$[ebp]
	movzx	eax, BYTE PTR [edx+103]
	test	eax, eax
	je	SHORT $LN3@Button3Cli
	mov	DWORD PTR tv72[ebp], 1
	jmp	SHORT $LN4@Button3Cli
$LN3@Button3Cli:
	mov	DWORD PTR tv72[ebp], 0
$LN4@Button3Cli:
	mov	al, BYTE PTR tv72[ebp]

; 90   : }

	pop	edi
	pop	esi
	pop	ebx
	mov	esp, ebp
	pop	ebp
	ret	0
?Button3Click@MouseHandler@@QAE_NXZ ENDP		; MouseHandler::Button3Click
_TEXT	ENDS
PUBLIC	?Button3DoubleClick@MouseHandler@@QAE_NH@Z	; MouseHandler::Button3DoubleClick
; Function compile flags: /Odtp /ZI
;	COMDAT ?Button3DoubleClick@MouseHandler@@QAE_NH@Z
_TEXT	SEGMENT
_index2$ = -12						; size = 4
_index$ = -8						; size = 4
_this$ = -4						; size = 4
_MaximumLag$ = 8					; size = 4
?Button3DoubleClick@MouseHandler@@QAE_NH@Z PROC		; MouseHandler::Button3DoubleClick, COMDAT
; _this$ = ecx

; 92   : {

	push	ebp
	mov	ebp, esp
	sub	esp, 76					; 0000004cH
	push	ebx
	push	esi
	push	edi
	mov	DWORD PTR _this$[ebp], ecx

; 93   : 	if(MaximumLag>96)

	cmp	DWORD PTR _MaximumLag$[ebp], 96		; 00000060H
	jle	SHORT $LN10@Button3Dou

; 94   : 		return false;

	xor	al, al
	jmp	$LN11@Button3Dou
$LN10@Button3Dou:

; 95   : 
; 96   : 	int index=1;

	mov	DWORD PTR _index$[ebp], 1

; 97   : 	int index2;
; 98   : 
; 99   : 	if(this->MouseButton3[0]&&!this->MouseButton3[1])

	mov	eax, DWORD PTR _this$[ebp]
	movzx	ecx, BYTE PTR [eax+102]
	test	ecx, ecx
	je	SHORT $LN9@Button3Dou
	mov	eax, DWORD PTR _this$[ebp]
	movzx	ecx, BYTE PTR [eax+103]
	test	ecx, ecx
	jne	SHORT $LN9@Button3Dou

; 100  : 		return false;

	xor	al, al
	jmp	SHORT $LN11@Button3Dou
$LN9@Button3Dou:

; 101  : 
; 102  : 	for(index2=index-1;this->MouseButton3[index]&&index-index2<=MaximumLag;index++);

	mov	eax, DWORD PTR _index$[ebp]
	sub	eax, 1
	mov	DWORD PTR _index2$[ebp], eax
	jmp	SHORT $LN8@Button3Dou
$LN7@Button3Dou:
	mov	eax, DWORD PTR _index$[ebp]
	add	eax, 1
	mov	DWORD PTR _index$[ebp], eax
$LN8@Button3Dou:
	mov	eax, DWORD PTR _this$[ebp]
	add	eax, DWORD PTR _index$[ebp]
	movzx	ecx, BYTE PTR [eax+102]
	test	ecx, ecx
	je	SHORT $LN6@Button3Dou
	mov	eax, DWORD PTR _index$[ebp]
	sub	eax, DWORD PTR _index2$[ebp]
	cmp	eax, DWORD PTR _MaximumLag$[ebp]
	jg	SHORT $LN6@Button3Dou
	jmp	SHORT $LN7@Button3Dou
$LN6@Button3Dou:

; 103  : 
; 104  : 	if(index-index2>MaximumLag)

	mov	eax, DWORD PTR _index$[ebp]
	sub	eax, DWORD PTR _index2$[ebp]
	cmp	eax, DWORD PTR _MaximumLag$[ebp]
	jle	SHORT $LN5@Button3Dou

; 105  : 		return false;

	xor	al, al
	jmp	SHORT $LN11@Button3Dou
$LN5@Button3Dou:

; 106  : 
; 107  : 	for(index2=index-1;!this->MouseButton3[index]&&index-index2<=MaximumLag;index++);

	mov	eax, DWORD PTR _index$[ebp]
	sub	eax, 1
	mov	DWORD PTR _index2$[ebp], eax
	jmp	SHORT $LN4@Button3Dou
$LN3@Button3Dou:
	mov	eax, DWORD PTR _index$[ebp]
	add	eax, 1
	mov	DWORD PTR _index$[ebp], eax
$LN4@Button3Dou:
	mov	eax, DWORD PTR _this$[ebp]
	add	eax, DWORD PTR _index$[ebp]
	movzx	ecx, BYTE PTR [eax+102]
	test	ecx, ecx
	jne	SHORT $LN2@Button3Dou
	mov	eax, DWORD PTR _index$[ebp]
	sub	eax, DWORD PTR _index2$[ebp]
	cmp	eax, DWORD PTR _MaximumLag$[ebp]
	jg	SHORT $LN2@Button3Dou
	jmp	SHORT $LN3@Button3Dou
$LN2@Button3Dou:

; 108  : 
; 109  : 	if(index-index2>MaximumLag)

	mov	eax, DWORD PTR _index$[ebp]
	sub	eax, DWORD PTR _index2$[ebp]
	cmp	eax, DWORD PTR _MaximumLag$[ebp]
	jle	SHORT $LN1@Button3Dou

; 110  : 		return false;

	xor	al, al
	jmp	SHORT $LN11@Button3Dou
$LN1@Button3Dou:

; 111  : 
; 112  : 	return true;

	mov	al, 1
$LN11@Button3Dou:

; 113  : }

	pop	edi
	pop	esi
	pop	ebx
	mov	esp, ebp
	pop	ebp
	ret	4
?Button3DoubleClick@MouseHandler@@QAE_NH@Z ENDP		; MouseHandler::Button3DoubleClick
_TEXT	ENDS
PUBLIC	?Button3HoldFor@MouseHandler@@QAE_NH@Z		; MouseHandler::Button3HoldFor
; Function compile flags: /Odtp /ZI
;	COMDAT ?Button3HoldFor@MouseHandler@@QAE_NH@Z
_TEXT	SEGMENT
_i$91107 = -8						; size = 4
_this$ = -4						; size = 4
_length$ = 8						; size = 4
?Button3HoldFor@MouseHandler@@QAE_NH@Z PROC		; MouseHandler::Button3HoldFor, COMDAT
; _this$ = ecx

; 115  : {

	push	ebp
	mov	ebp, esp
	sub	esp, 72					; 00000048H
	push	ebx
	push	esi
	push	edi
	mov	DWORD PTR _this$[ebp], ecx

; 116  : 	if(length>100)

	cmp	DWORD PTR _length$[ebp], 100		; 00000064H
	jle	SHORT $LN5@Button3Hol

; 117  : 		length=100;

	mov	DWORD PTR _length$[ebp], 100		; 00000064H
$LN5@Button3Hol:

; 118  : 
; 119  : 	for(int i=0;this->MouseButton3[i];i++)

	mov	DWORD PTR _i$91107[ebp], 0
	jmp	SHORT $LN4@Button3Hol
$LN3@Button3Hol:
	mov	eax, DWORD PTR _i$91107[ebp]
	add	eax, 1
	mov	DWORD PTR _i$91107[ebp], eax
$LN4@Button3Hol:
	mov	eax, DWORD PTR _this$[ebp]
	add	eax, DWORD PTR _i$91107[ebp]
	movzx	ecx, BYTE PTR [eax+102]
	test	ecx, ecx
	je	SHORT $LN2@Button3Hol

; 120  : 		if(i==length-1)

	mov	eax, DWORD PTR _length$[ebp]
	sub	eax, 1
	cmp	DWORD PTR _i$91107[ebp], eax
	jne	SHORT $LN1@Button3Hol

; 121  : 			return true;

	mov	al, 1
	jmp	SHORT $LN6@Button3Hol
$LN1@Button3Hol:

; 122  : 
; 123  : 	return false;

	jmp	SHORT $LN3@Button3Hol
$LN2@Button3Hol:
	xor	al, al
$LN6@Button3Hol:

; 124  : }

	pop	edi
	pop	esi
	pop	ebx
	mov	esp, ebp
	pop	ebp
	ret	4
?Button3HoldFor@MouseHandler@@QAE_NH@Z ENDP		; MouseHandler::Button3HoldFor
_TEXT	ENDS
PUBLIC	?Button4Click@MouseHandler@@QAE_NXZ		; MouseHandler::Button4Click
; Function compile flags: /Odtp /ZI
;	COMDAT ?Button4Click@MouseHandler@@QAE_NXZ
_TEXT	SEGMENT
tv72 = -72						; size = 4
_this$ = -4						; size = 4
?Button4Click@MouseHandler@@QAE_NXZ PROC		; MouseHandler::Button4Click, COMDAT
; _this$ = ecx

; 126  : {

	push	ebp
	mov	ebp, esp
	sub	esp, 72					; 00000048H
	push	ebx
	push	esi
	push	edi
	mov	DWORD PTR _this$[ebp], ecx

; 127  : 	return (!this->MouseButton4[0]&&this->MouseButton4[1]);

	mov	eax, DWORD PTR _this$[ebp]
	movzx	ecx, BYTE PTR [eax+202]
	test	ecx, ecx
	jne	SHORT $LN3@Button4Cli
	mov	edx, DWORD PTR _this$[ebp]
	movzx	eax, BYTE PTR [edx+203]
	test	eax, eax
	je	SHORT $LN3@Button4Cli
	mov	DWORD PTR tv72[ebp], 1
	jmp	SHORT $LN4@Button4Cli
$LN3@Button4Cli:
	mov	DWORD PTR tv72[ebp], 0
$LN4@Button4Cli:
	mov	al, BYTE PTR tv72[ebp]

; 128  : }

	pop	edi
	pop	esi
	pop	ebx
	mov	esp, ebp
	pop	ebp
	ret	0
?Button4Click@MouseHandler@@QAE_NXZ ENDP		; MouseHandler::Button4Click
_TEXT	ENDS
PUBLIC	?Button4DoubleClick@MouseHandler@@QAE_NH@Z	; MouseHandler::Button4DoubleClick
; Function compile flags: /Odtp /ZI
;	COMDAT ?Button4DoubleClick@MouseHandler@@QAE_NH@Z
_TEXT	SEGMENT
_index2$ = -12						; size = 4
_index$ = -8						; size = 4
_this$ = -4						; size = 4
_MaximumLag$ = 8					; size = 4
?Button4DoubleClick@MouseHandler@@QAE_NH@Z PROC		; MouseHandler::Button4DoubleClick, COMDAT
; _this$ = ecx

; 130  : {

	push	ebp
	mov	ebp, esp
	sub	esp, 76					; 0000004cH
	push	ebx
	push	esi
	push	edi
	mov	DWORD PTR _this$[ebp], ecx

; 131  : 	if(MaximumLag>96)

	cmp	DWORD PTR _MaximumLag$[ebp], 96		; 00000060H
	jle	SHORT $LN10@Button4Dou

; 132  : 		return false;

	xor	al, al
	jmp	$LN11@Button4Dou
$LN10@Button4Dou:

; 133  : 
; 134  : 	int index=1;

	mov	DWORD PTR _index$[ebp], 1

; 135  : 	int index2;
; 136  : 
; 137  : 	if(this->MouseButton4[0]&&!this->MouseButton4[1])

	mov	eax, DWORD PTR _this$[ebp]
	movzx	ecx, BYTE PTR [eax+202]
	test	ecx, ecx
	je	SHORT $LN9@Button4Dou
	mov	eax, DWORD PTR _this$[ebp]
	movzx	ecx, BYTE PTR [eax+203]
	test	ecx, ecx
	jne	SHORT $LN9@Button4Dou

; 138  : 		return false;

	xor	al, al
	jmp	$LN11@Button4Dou
$LN9@Button4Dou:

; 139  : 
; 140  : 	for(index2=index-1;this->MouseButton4[index]&&index-index2<=MaximumLag;index++);

	mov	eax, DWORD PTR _index$[ebp]
	sub	eax, 1
	mov	DWORD PTR _index2$[ebp], eax
	jmp	SHORT $LN8@Button4Dou
$LN7@Button4Dou:
	mov	eax, DWORD PTR _index$[ebp]
	add	eax, 1
	mov	DWORD PTR _index$[ebp], eax
$LN8@Button4Dou:
	mov	eax, DWORD PTR _this$[ebp]
	add	eax, DWORD PTR _index$[ebp]
	movzx	ecx, BYTE PTR [eax+202]
	test	ecx, ecx
	je	SHORT $LN6@Button4Dou
	mov	eax, DWORD PTR _index$[ebp]
	sub	eax, DWORD PTR _index2$[ebp]
	cmp	eax, DWORD PTR _MaximumLag$[ebp]
	jg	SHORT $LN6@Button4Dou
	jmp	SHORT $LN7@Button4Dou
$LN6@Button4Dou:

; 141  : 
; 142  : 	if(index-index2>MaximumLag)

	mov	eax, DWORD PTR _index$[ebp]
	sub	eax, DWORD PTR _index2$[ebp]
	cmp	eax, DWORD PTR _MaximumLag$[ebp]
	jle	SHORT $LN5@Button4Dou

; 143  : 		return false;

	xor	al, al
	jmp	SHORT $LN11@Button4Dou
$LN5@Button4Dou:

; 144  : 
; 145  : 	for(index2=index-1;!this->MouseButton4[index]&&index-index2<=MaximumLag;index++);

	mov	eax, DWORD PTR _index$[ebp]
	sub	eax, 1
	mov	DWORD PTR _index2$[ebp], eax
	jmp	SHORT $LN4@Button4Dou
$LN3@Button4Dou:
	mov	eax, DWORD PTR _index$[ebp]
	add	eax, 1
	mov	DWORD PTR _index$[ebp], eax
$LN4@Button4Dou:
	mov	eax, DWORD PTR _this$[ebp]
	add	eax, DWORD PTR _index$[ebp]
	movzx	ecx, BYTE PTR [eax+202]
	test	ecx, ecx
	jne	SHORT $LN2@Button4Dou
	mov	eax, DWORD PTR _index$[ebp]
	sub	eax, DWORD PTR _index2$[ebp]
	cmp	eax, DWORD PTR _MaximumLag$[ebp]
	jg	SHORT $LN2@Button4Dou
	jmp	SHORT $LN3@Button4Dou
$LN2@Button4Dou:

; 146  : 
; 147  : 	if(index-index2>MaximumLag)

	mov	eax, DWORD PTR _index$[ebp]
	sub	eax, DWORD PTR _index2$[ebp]
	cmp	eax, DWORD PTR _MaximumLag$[ebp]
	jle	SHORT $LN1@Button4Dou

; 148  : 		return false;

	xor	al, al
	jmp	SHORT $LN11@Button4Dou
$LN1@Button4Dou:

; 149  : 
; 150  : 	return true;

	mov	al, 1
$LN11@Button4Dou:

; 151  : }

	pop	edi
	pop	esi
	pop	ebx
	mov	esp, ebp
	pop	ebp
	ret	4
?Button4DoubleClick@MouseHandler@@QAE_NH@Z ENDP		; MouseHandler::Button4DoubleClick
_TEXT	ENDS
PUBLIC	?Button4HoldFor@MouseHandler@@QAE_NH@Z		; MouseHandler::Button4HoldFor
; Function compile flags: /Odtp /ZI
;	COMDAT ?Button4HoldFor@MouseHandler@@QAE_NH@Z
_TEXT	SEGMENT
_i$91136 = -8						; size = 4
_this$ = -4						; size = 4
_length$ = 8						; size = 4
?Button4HoldFor@MouseHandler@@QAE_NH@Z PROC		; MouseHandler::Button4HoldFor, COMDAT
; _this$ = ecx

; 153  : {

	push	ebp
	mov	ebp, esp
	sub	esp, 72					; 00000048H
	push	ebx
	push	esi
	push	edi
	mov	DWORD PTR _this$[ebp], ecx

; 154  : 	if(length>100)

	cmp	DWORD PTR _length$[ebp], 100		; 00000064H
	jle	SHORT $LN5@Button4Hol

; 155  : 		length=100;

	mov	DWORD PTR _length$[ebp], 100		; 00000064H
$LN5@Button4Hol:

; 156  : 
; 157  : 	for(int i=0;this->MouseButton4[i];i++)

	mov	DWORD PTR _i$91136[ebp], 0
	jmp	SHORT $LN4@Button4Hol
$LN3@Button4Hol:
	mov	eax, DWORD PTR _i$91136[ebp]
	add	eax, 1
	mov	DWORD PTR _i$91136[ebp], eax
$LN4@Button4Hol:
	mov	eax, DWORD PTR _this$[ebp]
	add	eax, DWORD PTR _i$91136[ebp]
	movzx	ecx, BYTE PTR [eax+202]
	test	ecx, ecx
	je	SHORT $LN2@Button4Hol

; 158  : 		if(i==length-1)

	mov	eax, DWORD PTR _length$[ebp]
	sub	eax, 1
	cmp	DWORD PTR _i$91136[ebp], eax
	jne	SHORT $LN1@Button4Hol

; 159  : 			return true;

	mov	al, 1
	jmp	SHORT $LN6@Button4Hol
$LN1@Button4Hol:

; 160  : 
; 161  : 	return false;

	jmp	SHORT $LN3@Button4Hol
$LN2@Button4Hol:
	xor	al, al
$LN6@Button4Hol:

; 162  : }

	pop	edi
	pop	esi
	pop	ebx
	mov	esp, ebp
	pop	ebp
	ret	4
?Button4HoldFor@MouseHandler@@QAE_NH@Z ENDP		; MouseHandler::Button4HoldFor
_TEXT	ENDS
PUBLIC	?GetMouseBoundToPosition@MouseHandler@@QAE_NXZ	; MouseHandler::GetMouseBoundToPosition
; Function compile flags: /Odtp /ZI
;	COMDAT ?GetMouseBoundToPosition@MouseHandler@@QAE_NXZ
_TEXT	SEGMENT
_this$ = -4						; size = 4
?GetMouseBoundToPosition@MouseHandler@@QAE_NXZ PROC	; MouseHandler::GetMouseBoundToPosition, COMDAT
; _this$ = ecx

; 164  : {

	push	ebp
	mov	ebp, esp
	sub	esp, 68					; 00000044H
	push	ebx
	push	esi
	push	edi
	mov	DWORD PTR _this$[ebp], ecx

; 165  : 	return this->BindMouseToPosition;

	mov	eax, DWORD PTR _this$[ebp]
	mov	al, BYTE PTR [eax]

; 166  : }

	pop	edi
	pop	esi
	pop	ebx
	mov	esp, ebp
	pop	ebp
	ret	0
?GetMouseBoundToPosition@MouseHandler@@QAE_NXZ ENDP	; MouseHandler::GetMouseBoundToPosition
_TEXT	ENDS
PUBLIC	?MouseRightClick@MouseHandler@@QAE_NXZ		; MouseHandler::MouseRightClick
PUBLIC	?MouseLeftClick@MouseHandler@@QAE_NXZ		; MouseHandler::MouseLeftClick
PUBLIC	?IsClicked@MouseHandler@@QAE_NH@Z		; MouseHandler::IsClicked
; Function compile flags: /Odtp /ZI
;	COMDAT ?IsClicked@MouseHandler@@QAE_NH@Z
_TEXT	SEGMENT
tv64 = -72						; size = 4
_this$ = -4						; size = 4
_Button$ = 8						; size = 4
?IsClicked@MouseHandler@@QAE_NH@Z PROC			; MouseHandler::IsClicked, COMDAT
; _this$ = ecx

; 168  : {

	push	ebp
	mov	ebp, esp
	sub	esp, 72					; 00000048H
	push	ebx
	push	esi
	push	edi
	mov	DWORD PTR _this$[ebp], ecx

; 169  : 	switch(Button)

	mov	eax, DWORD PTR _Button$[ebp]
	mov	DWORD PTR tv64[ebp], eax
	mov	ecx, DWORD PTR tv64[ebp]
	sub	ecx, 1
	mov	DWORD PTR tv64[ebp], ecx
	cmp	DWORD PTR tv64[ebp], 3
	ja	SHORT $LN1@IsClicked
	mov	edx, DWORD PTR tv64[ebp]
	jmp	DWORD PTR $LN10@IsClicked[edx*4]
$LN5@IsClicked:

; 170  : 	{
; 171  : 	case 1:
; 172  : 		return this->MouseLeftClick();

	mov	ecx, DWORD PTR _this$[ebp]
	call	?MouseLeftClick@MouseHandler@@QAE_NXZ	; MouseHandler::MouseLeftClick
	jmp	SHORT $LN8@IsClicked

; 173  : 		break;

	jmp	SHORT $LN6@IsClicked
$LN4@IsClicked:

; 174  : 	case 2:
; 175  : 		return this->MouseRightClick();

	mov	ecx, DWORD PTR _this$[ebp]
	call	?MouseRightClick@MouseHandler@@QAE_NXZ	; MouseHandler::MouseRightClick
	jmp	SHORT $LN8@IsClicked

; 176  : 		break;

	jmp	SHORT $LN6@IsClicked
$LN3@IsClicked:

; 177  : 	case 3:
; 178  : 		return this->Button3Click();

	mov	ecx, DWORD PTR _this$[ebp]
	call	?Button3Click@MouseHandler@@QAE_NXZ	; MouseHandler::Button3Click
	jmp	SHORT $LN8@IsClicked

; 179  : 		break;

	jmp	SHORT $LN6@IsClicked
$LN2@IsClicked:

; 180  : 	case 4:
; 181  : 		return this->Button4Click();

	mov	ecx, DWORD PTR _this$[ebp]
	call	?Button4Click@MouseHandler@@QAE_NXZ	; MouseHandler::Button4Click
	jmp	SHORT $LN8@IsClicked

; 182  : 		break;

	jmp	SHORT $LN6@IsClicked
$LN1@IsClicked:

; 183  : 	default:
; 184  : 		return false;

	xor	al, al
	jmp	SHORT $LN8@IsClicked
$LN6@IsClicked:

; 185  : 		break;
; 186  : 	}
; 187  : 
; 188  : 	return false;

	xor	al, al
$LN8@IsClicked:

; 189  : }

	pop	edi
	pop	esi
	pop	ebx
	mov	esp, ebp
	pop	ebp
	ret	4
	npad	2
$LN10@IsClicked:
	DD	$LN5@IsClicked
	DD	$LN4@IsClicked
	DD	$LN3@IsClicked
	DD	$LN2@IsClicked
?IsClicked@MouseHandler@@QAE_NH@Z ENDP			; MouseHandler::IsClicked
_TEXT	ENDS
PUBLIC	?MouseRightDoubleClick@MouseHandler@@QAE_NH@Z	; MouseHandler::MouseRightDoubleClick
PUBLIC	?MouseLeftDoubleClick@MouseHandler@@QAE_NH@Z	; MouseHandler::MouseLeftDoubleClick
PUBLIC	?IsDoubleClicked@MouseHandler@@QAE_NHH@Z	; MouseHandler::IsDoubleClicked
; Function compile flags: /Odtp /ZI
;	COMDAT ?IsDoubleClicked@MouseHandler@@QAE_NHH@Z
_TEXT	SEGMENT
tv64 = -72						; size = 4
_this$ = -4						; size = 4
_Button$ = 8						; size = 4
_MaximumLag$ = 12					; size = 4
?IsDoubleClicked@MouseHandler@@QAE_NHH@Z PROC		; MouseHandler::IsDoubleClicked, COMDAT
; _this$ = ecx

; 191  : {

	push	ebp
	mov	ebp, esp
	sub	esp, 72					; 00000048H
	push	ebx
	push	esi
	push	edi
	mov	DWORD PTR _this$[ebp], ecx

; 192  : 	switch(Button)

	mov	eax, DWORD PTR _Button$[ebp]
	mov	DWORD PTR tv64[ebp], eax
	mov	ecx, DWORD PTR tv64[ebp]
	sub	ecx, 1
	mov	DWORD PTR tv64[ebp], ecx
	cmp	DWORD PTR tv64[ebp], 3
	ja	SHORT $LN1@IsDoubleCl
	mov	edx, DWORD PTR tv64[ebp]
	jmp	DWORD PTR $LN10@IsDoubleCl[edx*4]
$LN5@IsDoubleCl:

; 193  : 	{
; 194  : 	case 1:
; 195  : 		return this->MouseLeftDoubleClick(MaximumLag);

	mov	eax, DWORD PTR _MaximumLag$[ebp]
	push	eax
	mov	ecx, DWORD PTR _this$[ebp]
	call	?MouseLeftDoubleClick@MouseHandler@@QAE_NH@Z ; MouseHandler::MouseLeftDoubleClick
	jmp	SHORT $LN8@IsDoubleCl

; 196  : 		break;

	jmp	SHORT $LN6@IsDoubleCl
$LN4@IsDoubleCl:

; 197  : 	case 2:
; 198  : 		return this->MouseRightDoubleClick(MaximumLag);

	mov	eax, DWORD PTR _MaximumLag$[ebp]
	push	eax
	mov	ecx, DWORD PTR _this$[ebp]
	call	?MouseRightDoubleClick@MouseHandler@@QAE_NH@Z ; MouseHandler::MouseRightDoubleClick
	jmp	SHORT $LN8@IsDoubleCl

; 199  : 		break;

	jmp	SHORT $LN6@IsDoubleCl
$LN3@IsDoubleCl:

; 200  : 	case 3:
; 201  : 		return this->Button3DoubleClick(MaximumLag);

	mov	eax, DWORD PTR _MaximumLag$[ebp]
	push	eax
	mov	ecx, DWORD PTR _this$[ebp]
	call	?Button3DoubleClick@MouseHandler@@QAE_NH@Z ; MouseHandler::Button3DoubleClick
	jmp	SHORT $LN8@IsDoubleCl

; 202  : 		break;

	jmp	SHORT $LN6@IsDoubleCl
$LN2@IsDoubleCl:

; 203  : 	case 4:
; 204  : 		return this->Button4DoubleClick(MaximumLag);

	mov	eax, DWORD PTR _MaximumLag$[ebp]
	push	eax
	mov	ecx, DWORD PTR _this$[ebp]
	call	?Button4DoubleClick@MouseHandler@@QAE_NH@Z ; MouseHandler::Button4DoubleClick
	jmp	SHORT $LN8@IsDoubleCl

; 205  : 		break;

	jmp	SHORT $LN6@IsDoubleCl
$LN1@IsDoubleCl:

; 206  : 	default:
; 207  : 		return false;

	xor	al, al
	jmp	SHORT $LN8@IsDoubleCl
$LN6@IsDoubleCl:

; 208  : 		break;
; 209  : 	}
; 210  : 
; 211  : 	return false;

	xor	al, al
$LN8@IsDoubleCl:

; 212  : }

	pop	edi
	pop	esi
	pop	ebx
	mov	esp, ebp
	pop	ebp
	ret	8
	npad	2
$LN10@IsDoubleCl:
	DD	$LN5@IsDoubleCl
	DD	$LN4@IsDoubleCl
	DD	$LN3@IsDoubleCl
	DD	$LN2@IsDoubleCl
?IsDoubleClicked@MouseHandler@@QAE_NHH@Z ENDP		; MouseHandler::IsDoubleClicked
_TEXT	ENDS
PUBLIC	?MouseRightHoldFor@MouseHandler@@QAE_NH@Z	; MouseHandler::MouseRightHoldFor
PUBLIC	?MouseLeftHoldFor@MouseHandler@@QAE_NH@Z	; MouseHandler::MouseLeftHoldFor
PUBLIC	?IsHoldFor@MouseHandler@@QAE_NHH@Z		; MouseHandler::IsHoldFor
; Function compile flags: /Odtp /ZI
;	COMDAT ?IsHoldFor@MouseHandler@@QAE_NHH@Z
_TEXT	SEGMENT
tv64 = -72						; size = 4
_this$ = -4						; size = 4
_Button$ = 8						; size = 4
_Length$ = 12						; size = 4
?IsHoldFor@MouseHandler@@QAE_NHH@Z PROC			; MouseHandler::IsHoldFor, COMDAT
; _this$ = ecx

; 214  : {

	push	ebp
	mov	ebp, esp
	sub	esp, 72					; 00000048H
	push	ebx
	push	esi
	push	edi
	mov	DWORD PTR _this$[ebp], ecx

; 215  : 	switch(Button)

	mov	eax, DWORD PTR _Button$[ebp]
	mov	DWORD PTR tv64[ebp], eax
	mov	ecx, DWORD PTR tv64[ebp]
	sub	ecx, 1
	mov	DWORD PTR tv64[ebp], ecx
	cmp	DWORD PTR tv64[ebp], 3
	ja	SHORT $LN1@IsHoldFor
	mov	edx, DWORD PTR tv64[ebp]
	jmp	DWORD PTR $LN10@IsHoldFor[edx*4]
$LN5@IsHoldFor:

; 216  : 	{
; 217  : 	case 1:
; 218  : 		return this->MouseLeftHoldFor(Length);

	mov	eax, DWORD PTR _Length$[ebp]
	push	eax
	mov	ecx, DWORD PTR _this$[ebp]
	call	?MouseLeftHoldFor@MouseHandler@@QAE_NH@Z ; MouseHandler::MouseLeftHoldFor
	jmp	SHORT $LN8@IsHoldFor

; 219  : 		break;

	jmp	SHORT $LN6@IsHoldFor
$LN4@IsHoldFor:

; 220  : 	case 2:
; 221  : 		return this->MouseRightHoldFor(Length);

	mov	eax, DWORD PTR _Length$[ebp]
	push	eax
	mov	ecx, DWORD PTR _this$[ebp]
	call	?MouseRightHoldFor@MouseHandler@@QAE_NH@Z ; MouseHandler::MouseRightHoldFor
	jmp	SHORT $LN8@IsHoldFor

; 222  : 		break;

	jmp	SHORT $LN6@IsHoldFor
$LN3@IsHoldFor:

; 223  : 	case 3:
; 224  : 		return this->Button3HoldFor(Length);

	mov	eax, DWORD PTR _Length$[ebp]
	push	eax
	mov	ecx, DWORD PTR _this$[ebp]
	call	?Button3HoldFor@MouseHandler@@QAE_NH@Z	; MouseHandler::Button3HoldFor
	jmp	SHORT $LN8@IsHoldFor

; 225  : 		break;

	jmp	SHORT $LN6@IsHoldFor
$LN2@IsHoldFor:

; 226  : 	case 4:
; 227  : 		return this->Button4HoldFor(Length);

	mov	eax, DWORD PTR _Length$[ebp]
	push	eax
	mov	ecx, DWORD PTR _this$[ebp]
	call	?Button4HoldFor@MouseHandler@@QAE_NH@Z	; MouseHandler::Button4HoldFor
	jmp	SHORT $LN8@IsHoldFor

; 228  : 		break;

	jmp	SHORT $LN6@IsHoldFor
$LN1@IsHoldFor:

; 229  : 	default:
; 230  : 		return false;

	xor	al, al
	jmp	SHORT $LN8@IsHoldFor
$LN6@IsHoldFor:

; 231  : 		break;
; 232  : 	}
; 233  : 
; 234  : 	return false;

	xor	al, al
$LN8@IsHoldFor:

; 235  : }

	pop	edi
	pop	esi
	pop	ebx
	mov	esp, ebp
	pop	ebp
	ret	8
	npad	2
$LN10@IsHoldFor:
	DD	$LN5@IsHoldFor
	DD	$LN4@IsHoldFor
	DD	$LN3@IsHoldFor
	DD	$LN2@IsHoldFor
?IsHoldFor@MouseHandler@@QAE_NHH@Z ENDP			; MouseHandler::IsHoldFor
; Function compile flags: /Odtp /ZI
_TEXT	ENDS
;	COMDAT ?MouseLeftClick@MouseHandler@@QAE_NXZ
_TEXT	SEGMENT
tv72 = -72						; size = 4
_this$ = -4						; size = 4
?MouseLeftClick@MouseHandler@@QAE_NXZ PROC		; MouseHandler::MouseLeftClick, COMDAT
; _this$ = ecx

; 237  : {

	push	ebp
	mov	ebp, esp
	sub	esp, 72					; 00000048H
	push	ebx
	push	esi
	push	edi
	mov	DWORD PTR _this$[ebp], ecx

; 238  : 	return (!this->LeftClick[0]&&this->LeftClick[1]);

	mov	eax, DWORD PTR _this$[ebp]
	movzx	ecx, BYTE PTR [eax+2]
	test	ecx, ecx
	jne	SHORT $LN3@MouseLeftC
	mov	edx, DWORD PTR _this$[ebp]
	movzx	eax, BYTE PTR [edx+3]
	test	eax, eax
	je	SHORT $LN3@MouseLeftC
	mov	DWORD PTR tv72[ebp], 1
	jmp	SHORT $LN4@MouseLeftC
$LN3@MouseLeftC:
	mov	DWORD PTR tv72[ebp], 0
$LN4@MouseLeftC:
	mov	al, BYTE PTR tv72[ebp]

; 239  : }

	pop	edi
	pop	esi
	pop	ebx
	mov	esp, ebp
	pop	ebp
	ret	0
?MouseLeftClick@MouseHandler@@QAE_NXZ ENDP		; MouseHandler::MouseLeftClick
; Function compile flags: /Odtp /ZI
_TEXT	ENDS
;	COMDAT ?MouseLeftDoubleClick@MouseHandler@@QAE_NH@Z
_TEXT	SEGMENT
_index2$ = -12						; size = 4
_index$ = -8						; size = 4
_this$ = -4						; size = 4
_MaximumLag$ = 8					; size = 4
?MouseLeftDoubleClick@MouseHandler@@QAE_NH@Z PROC	; MouseHandler::MouseLeftDoubleClick, COMDAT
; _this$ = ecx

; 241  : {

	push	ebp
	mov	ebp, esp
	sub	esp, 76					; 0000004cH
	push	ebx
	push	esi
	push	edi
	mov	DWORD PTR _this$[ebp], ecx

; 242  : 	if(MaximumLag>96)

	cmp	DWORD PTR _MaximumLag$[ebp], 96		; 00000060H
	jle	SHORT $LN11@MouseLeftD

; 243  : 		return false;

	xor	al, al
	jmp	$LN12@MouseLeftD
$LN11@MouseLeftD:

; 244  : 
; 245  : 	int index=1;

	mov	DWORD PTR _index$[ebp], 1

; 246  : 	int index2;
; 247  : 
; 248  : 	if(this->LeftClick[0]||!this->LeftClick[1])

	mov	eax, DWORD PTR _this$[ebp]
	movzx	ecx, BYTE PTR [eax+2]
	test	ecx, ecx
	jne	SHORT $LN9@MouseLeftD
	mov	eax, DWORD PTR _this$[ebp]
	movzx	ecx, BYTE PTR [eax+3]
	test	ecx, ecx
	jne	SHORT $LN10@MouseLeftD
$LN9@MouseLeftD:

; 249  : 		return false;

	xor	al, al
	jmp	SHORT $LN12@MouseLeftD
$LN10@MouseLeftD:

; 250  : 
; 251  : 	for(index2=index-1;this->LeftClick[index]&&index-index2<=MaximumLag;index++);

	mov	eax, DWORD PTR _index$[ebp]
	sub	eax, 1
	mov	DWORD PTR _index2$[ebp], eax
	jmp	SHORT $LN8@MouseLeftD
$LN7@MouseLeftD:
	mov	eax, DWORD PTR _index$[ebp]
	add	eax, 1
	mov	DWORD PTR _index$[ebp], eax
$LN8@MouseLeftD:
	mov	eax, DWORD PTR _this$[ebp]
	add	eax, DWORD PTR _index$[ebp]
	movzx	ecx, BYTE PTR [eax+2]
	test	ecx, ecx
	je	SHORT $LN6@MouseLeftD
	mov	eax, DWORD PTR _index$[ebp]
	sub	eax, DWORD PTR _index2$[ebp]
	cmp	eax, DWORD PTR _MaximumLag$[ebp]
	jg	SHORT $LN6@MouseLeftD
	jmp	SHORT $LN7@MouseLeftD
$LN6@MouseLeftD:

; 252  : 
; 253  : 	if(index-index2>MaximumLag)

	mov	eax, DWORD PTR _index$[ebp]
	sub	eax, DWORD PTR _index2$[ebp]
	cmp	eax, DWORD PTR _MaximumLag$[ebp]
	jle	SHORT $LN5@MouseLeftD

; 254  : 		return false;

	xor	al, al
	jmp	SHORT $LN12@MouseLeftD
$LN5@MouseLeftD:

; 255  : 
; 256  : 	for(index2=index-1;!this->LeftClick[index]&&index-index2<=MaximumLag;index++);

	mov	eax, DWORD PTR _index$[ebp]
	sub	eax, 1
	mov	DWORD PTR _index2$[ebp], eax
	jmp	SHORT $LN4@MouseLeftD
$LN3@MouseLeftD:
	mov	eax, DWORD PTR _index$[ebp]
	add	eax, 1
	mov	DWORD PTR _index$[ebp], eax
$LN4@MouseLeftD:
	mov	eax, DWORD PTR _this$[ebp]
	add	eax, DWORD PTR _index$[ebp]
	movzx	ecx, BYTE PTR [eax+2]
	test	ecx, ecx
	jne	SHORT $LN2@MouseLeftD
	mov	eax, DWORD PTR _index$[ebp]
	sub	eax, DWORD PTR _index2$[ebp]
	cmp	eax, DWORD PTR _MaximumLag$[ebp]
	jg	SHORT $LN2@MouseLeftD
	jmp	SHORT $LN3@MouseLeftD
$LN2@MouseLeftD:

; 257  : 
; 258  : 	if(index-index2>MaximumLag)

	mov	eax, DWORD PTR _index$[ebp]
	sub	eax, DWORD PTR _index2$[ebp]
	cmp	eax, DWORD PTR _MaximumLag$[ebp]
	jle	SHORT $LN1@MouseLeftD

; 259  : 		return false;

	xor	al, al
	jmp	SHORT $LN12@MouseLeftD
$LN1@MouseLeftD:

; 260  : 
; 261  : 	return true;

	mov	al, 1
$LN12@MouseLeftD:

; 262  : }

	pop	edi
	pop	esi
	pop	ebx
	mov	esp, ebp
	pop	ebp
	ret	4
?MouseLeftDoubleClick@MouseHandler@@QAE_NH@Z ENDP	; MouseHandler::MouseLeftDoubleClick
; Function compile flags: /Odtp /ZI
_TEXT	ENDS
;	COMDAT ?MouseLeftHoldFor@MouseHandler@@QAE_NH@Z
_TEXT	SEGMENT
_i$91210 = -8						; size = 4
_this$ = -4						; size = 4
_length$ = 8						; size = 4
?MouseLeftHoldFor@MouseHandler@@QAE_NH@Z PROC		; MouseHandler::MouseLeftHoldFor, COMDAT
; _this$ = ecx

; 264  : {

	push	ebp
	mov	ebp, esp
	sub	esp, 72					; 00000048H
	push	ebx
	push	esi
	push	edi
	mov	DWORD PTR _this$[ebp], ecx

; 265  : 	if(length>100)

	cmp	DWORD PTR _length$[ebp], 100		; 00000064H
	jle	SHORT $LN5@MouseLeftH

; 266  : 		length=100;

	mov	DWORD PTR _length$[ebp], 100		; 00000064H
$LN5@MouseLeftH:

; 267  : 
; 268  : 	for(int i=0;this->LeftClick[i];i++)

	mov	DWORD PTR _i$91210[ebp], 0
	jmp	SHORT $LN4@MouseLeftH
$LN3@MouseLeftH:
	mov	eax, DWORD PTR _i$91210[ebp]
	add	eax, 1
	mov	DWORD PTR _i$91210[ebp], eax
$LN4@MouseLeftH:
	mov	eax, DWORD PTR _this$[ebp]
	add	eax, DWORD PTR _i$91210[ebp]
	movzx	ecx, BYTE PTR [eax+2]
	test	ecx, ecx
	je	SHORT $LN2@MouseLeftH

; 269  : 		if(i==length-1)

	mov	eax, DWORD PTR _length$[ebp]
	sub	eax, 1
	cmp	DWORD PTR _i$91210[ebp], eax
	jne	SHORT $LN1@MouseLeftH

; 270  : 			return true;

	mov	al, 1
	jmp	SHORT $LN6@MouseLeftH
$LN1@MouseLeftH:

; 271  : 
; 272  : 	return false;

	jmp	SHORT $LN3@MouseLeftH
$LN2@MouseLeftH:
	xor	al, al
$LN6@MouseLeftH:

; 273  : }

	pop	edi
	pop	esi
	pop	ebx
	mov	esp, ebp
	pop	ebp
	ret	4
?MouseLeftHoldFor@MouseHandler@@QAE_NH@Z ENDP		; MouseHandler::MouseLeftHoldFor
; Function compile flags: /Odtp /ZI
_TEXT	ENDS
;	COMDAT ?MouseRightClick@MouseHandler@@QAE_NXZ
_TEXT	SEGMENT
tv72 = -72						; size = 4
_this$ = -4						; size = 4
?MouseRightClick@MouseHandler@@QAE_NXZ PROC		; MouseHandler::MouseRightClick, COMDAT
; _this$ = ecx

; 275  : {

	push	ebp
	mov	ebp, esp
	sub	esp, 72					; 00000048H
	push	ebx
	push	esi
	push	edi
	mov	DWORD PTR _this$[ebp], ecx

; 276  : 	return (!this->RightClick[0]&&this->RightClick[1]);

	mov	eax, DWORD PTR _this$[ebp]
	movzx	ecx, BYTE PTR [eax+302]
	test	ecx, ecx
	jne	SHORT $LN3@MouseRight
	mov	edx, DWORD PTR _this$[ebp]
	movzx	eax, BYTE PTR [edx+303]
	test	eax, eax
	je	SHORT $LN3@MouseRight
	mov	DWORD PTR tv72[ebp], 1
	jmp	SHORT $LN4@MouseRight
$LN3@MouseRight:
	mov	DWORD PTR tv72[ebp], 0
$LN4@MouseRight:
	mov	al, BYTE PTR tv72[ebp]

; 277  : }

	pop	edi
	pop	esi
	pop	ebx
	mov	esp, ebp
	pop	ebp
	ret	0
?MouseRightClick@MouseHandler@@QAE_NXZ ENDP		; MouseHandler::MouseRightClick
; Function compile flags: /Odtp /ZI
_TEXT	ENDS
;	COMDAT ?MouseRightDoubleClick@MouseHandler@@QAE_NH@Z
_TEXT	SEGMENT
_index2$ = -12						; size = 4
_index$ = -8						; size = 4
_this$ = -4						; size = 4
_MaximumLag$ = 8					; size = 4
?MouseRightDoubleClick@MouseHandler@@QAE_NH@Z PROC	; MouseHandler::MouseRightDoubleClick, COMDAT
; _this$ = ecx

; 279  : {

	push	ebp
	mov	ebp, esp
	sub	esp, 76					; 0000004cH
	push	ebx
	push	esi
	push	edi
	mov	DWORD PTR _this$[ebp], ecx

; 280  : 	if(MaximumLag>96)

	cmp	DWORD PTR _MaximumLag$[ebp], 96		; 00000060H
	jle	SHORT $LN11@MouseRight@2

; 281  : 		return false;

	xor	al, al
	jmp	$LN12@MouseRight@2
$LN11@MouseRight@2:

; 282  : 
; 283  : 	int index=1;

	mov	DWORD PTR _index$[ebp], 1

; 284  : 	int index2;
; 285  : 
; 286  : 	if(this->RightClick[0]||!this->RightClick[1])

	mov	eax, DWORD PTR _this$[ebp]
	movzx	ecx, BYTE PTR [eax+302]
	test	ecx, ecx
	jne	SHORT $LN9@MouseRight@2
	mov	eax, DWORD PTR _this$[ebp]
	movzx	ecx, BYTE PTR [eax+303]
	test	ecx, ecx
	jne	SHORT $LN10@MouseRight@2
$LN9@MouseRight@2:

; 287  : 		return false;

	xor	al, al
	jmp	$LN12@MouseRight@2
$LN10@MouseRight@2:

; 288  : 
; 289  : 	for(index2=index-1;this->RightClick[index]&&index-index2<=MaximumLag;index++);

	mov	eax, DWORD PTR _index$[ebp]
	sub	eax, 1
	mov	DWORD PTR _index2$[ebp], eax
	jmp	SHORT $LN8@MouseRight@2
$LN7@MouseRight@2:
	mov	eax, DWORD PTR _index$[ebp]
	add	eax, 1
	mov	DWORD PTR _index$[ebp], eax
$LN8@MouseRight@2:
	mov	eax, DWORD PTR _this$[ebp]
	add	eax, DWORD PTR _index$[ebp]
	movzx	ecx, BYTE PTR [eax+302]
	test	ecx, ecx
	je	SHORT $LN6@MouseRight@2
	mov	eax, DWORD PTR _index$[ebp]
	sub	eax, DWORD PTR _index2$[ebp]
	cmp	eax, DWORD PTR _MaximumLag$[ebp]
	jg	SHORT $LN6@MouseRight@2
	jmp	SHORT $LN7@MouseRight@2
$LN6@MouseRight@2:

; 290  : 
; 291  : 	if(index-index2>MaximumLag)

	mov	eax, DWORD PTR _index$[ebp]
	sub	eax, DWORD PTR _index2$[ebp]
	cmp	eax, DWORD PTR _MaximumLag$[ebp]
	jle	SHORT $LN5@MouseRight@2

; 292  : 		return false;

	xor	al, al
	jmp	SHORT $LN12@MouseRight@2
$LN5@MouseRight@2:

; 293  : 
; 294  : 	for(index2=index-1;!this->RightClick[index]&&index-index2<=MaximumLag;index++);

	mov	eax, DWORD PTR _index$[ebp]
	sub	eax, 1
	mov	DWORD PTR _index2$[ebp], eax
	jmp	SHORT $LN4@MouseRight@2
$LN3@MouseRight@2:
	mov	eax, DWORD PTR _index$[ebp]
	add	eax, 1
	mov	DWORD PTR _index$[ebp], eax
$LN4@MouseRight@2:
	mov	eax, DWORD PTR _this$[ebp]
	add	eax, DWORD PTR _index$[ebp]
	movzx	ecx, BYTE PTR [eax+302]
	test	ecx, ecx
	jne	SHORT $LN2@MouseRight@2
	mov	eax, DWORD PTR _index$[ebp]
	sub	eax, DWORD PTR _index2$[ebp]
	cmp	eax, DWORD PTR _MaximumLag$[ebp]
	jg	SHORT $LN2@MouseRight@2
	jmp	SHORT $LN3@MouseRight@2
$LN2@MouseRight@2:

; 295  : 
; 296  : 	if(index-index2>MaximumLag)

	mov	eax, DWORD PTR _index$[ebp]
	sub	eax, DWORD PTR _index2$[ebp]
	cmp	eax, DWORD PTR _MaximumLag$[ebp]
	jle	SHORT $LN1@MouseRight@2

; 297  : 		return false;

	xor	al, al
	jmp	SHORT $LN12@MouseRight@2
$LN1@MouseRight@2:

; 298  : 
; 299  : 	return true;

	mov	al, 1
$LN12@MouseRight@2:

; 300  : }

	pop	edi
	pop	esi
	pop	ebx
	mov	esp, ebp
	pop	ebp
	ret	4
?MouseRightDoubleClick@MouseHandler@@QAE_NH@Z ENDP	; MouseHandler::MouseRightDoubleClick
; Function compile flags: /Odtp /ZI
_TEXT	ENDS
;	COMDAT ?MouseRightHoldFor@MouseHandler@@QAE_NH@Z
_TEXT	SEGMENT
_i$91240 = -8						; size = 4
_this$ = -4						; size = 4
_length$ = 8						; size = 4
?MouseRightHoldFor@MouseHandler@@QAE_NH@Z PROC		; MouseHandler::MouseRightHoldFor, COMDAT
; _this$ = ecx

; 302  : {

	push	ebp
	mov	ebp, esp
	sub	esp, 72					; 00000048H
	push	ebx
	push	esi
	push	edi
	mov	DWORD PTR _this$[ebp], ecx

; 303  : 	if(length>100)

	cmp	DWORD PTR _length$[ebp], 100		; 00000064H
	jle	SHORT $LN5@MouseRight@3

; 304  : 		length=100;

	mov	DWORD PTR _length$[ebp], 100		; 00000064H
$LN5@MouseRight@3:

; 305  : 
; 306  : 	for(int i=0;this->RightClick[i];i++)

	mov	DWORD PTR _i$91240[ebp], 0
	jmp	SHORT $LN4@MouseRight@3
$LN3@MouseRight@3:
	mov	eax, DWORD PTR _i$91240[ebp]
	add	eax, 1
	mov	DWORD PTR _i$91240[ebp], eax
$LN4@MouseRight@3:
	mov	eax, DWORD PTR _this$[ebp]
	add	eax, DWORD PTR _i$91240[ebp]
	movzx	ecx, BYTE PTR [eax+302]
	test	ecx, ecx
	je	SHORT $LN2@MouseRight@3

; 307  : 		if(i==length-1)

	mov	eax, DWORD PTR _length$[ebp]
	sub	eax, 1
	cmp	DWORD PTR _i$91240[ebp], eax
	jne	SHORT $LN1@MouseRight@3

; 308  : 			return true;

	mov	al, 1
	jmp	SHORT $LN6@MouseRight@3
$LN1@MouseRight@3:

; 309  : 
; 310  : 	return false;

	jmp	SHORT $LN3@MouseRight@3
$LN2@MouseRight@3:
	xor	al, al
$LN6@MouseRight@3:

; 311  : }

	pop	edi
	pop	esi
	pop	ebx
	mov	esp, ebp
	pop	ebp
	ret	4
?MouseRightHoldFor@MouseHandler@@QAE_NH@Z ENDP		; MouseHandler::MouseRightHoldFor
_TEXT	ENDS
PUBLIC	?GetCursorName@MouseHandler@@QAEPADXZ		; MouseHandler::GetCursorName
; Function compile flags: /Odtp /ZI
;	COMDAT ?GetCursorName@MouseHandler@@QAEPADXZ
_TEXT	SEGMENT
_this$ = -4						; size = 4
?GetCursorName@MouseHandler@@QAEPADXZ PROC		; MouseHandler::GetCursorName, COMDAT
; _this$ = ecx

; 313  : {

	push	ebp
	mov	ebp, esp
	sub	esp, 68					; 00000044H
	push	ebx
	push	esi
	push	edi
	mov	DWORD PTR _this$[ebp], ecx

; 314  : 	return this->CursorName;

	mov	eax, DWORD PTR _this$[ebp]
	mov	eax, DWORD PTR [eax+404]

; 315  : }

	pop	edi
	pop	esi
	pop	ebx
	mov	esp, ebp
	pop	ebp
	ret	0
?GetCursorName@MouseHandler@@QAEPADXZ ENDP		; MouseHandler::GetCursorName
_TEXT	ENDS
PUBLIC	??_C@_0BF@KEPEKHJ@Mouse?5Button?54?5Click?$AA@	; `string'
PUBLIC	??_C@_0BF@IKEDGA@Mouse?5Button?53?5Click?$AA@	; `string'
PUBLIC	??_C@_0M@BDGMFCOP@Right?5Click?$AA@		; `string'
PUBLIC	??_C@_0L@OIICMJMF@Left?5Click?$AA@		; `string'
PUBLIC	?GetFirstClick$@MouseHandler@@QAEPADXZ		; MouseHandler::GetFirstClick$
;	COMDAT ??_C@_0BF@KEPEKHJ@Mouse?5Button?54?5Click?$AA@
CONST	SEGMENT
??_C@_0BF@KEPEKHJ@Mouse?5Button?54?5Click?$AA@ DB 'Mouse Button 4 Click', 00H ; `string'
CONST	ENDS
;	COMDAT ??_C@_0BF@IKEDGA@Mouse?5Button?53?5Click?$AA@
CONST	SEGMENT
??_C@_0BF@IKEDGA@Mouse?5Button?53?5Click?$AA@ DB 'Mouse Button 3 Click', 00H ; `string'
CONST	ENDS
;	COMDAT ??_C@_0M@BDGMFCOP@Right?5Click?$AA@
CONST	SEGMENT
??_C@_0M@BDGMFCOP@Right?5Click?$AA@ DB 'Right Click', 00H ; `string'
CONST	ENDS
;	COMDAT ??_C@_0L@OIICMJMF@Left?5Click?$AA@
CONST	SEGMENT
??_C@_0L@OIICMJMF@Left?5Click?$AA@ DB 'Left Click', 00H	; `string'
; Function compile flags: /Odtp /ZI
CONST	ENDS
;	COMDAT ?GetFirstClick$@MouseHandler@@QAEPADXZ
_TEXT	SEGMENT
_this$ = -4						; size = 4
?GetFirstClick$@MouseHandler@@QAEPADXZ PROC		; MouseHandler::GetFirstClick$, COMDAT
; _this$ = ecx

; 317  : {

	push	ebp
	mov	ebp, esp
	sub	esp, 68					; 00000044H
	push	ebx
	push	esi
	push	edi
	mov	DWORD PTR _this$[ebp], ecx

; 318  : 	if(this->MouseLeftClick())

	mov	ecx, DWORD PTR _this$[ebp]
	call	?MouseLeftClick@MouseHandler@@QAE_NXZ	; MouseHandler::MouseLeftClick
	movzx	eax, al
	test	eax, eax
	je	SHORT $LN8@GetFirstCl

; 319  : 		return "Left Click";

	mov	eax, OFFSET ??_C@_0L@OIICMJMF@Left?5Click?$AA@
	jmp	SHORT $LN9@GetFirstCl
	jmp	SHORT $LN9@GetFirstCl
$LN8@GetFirstCl:

; 320  : 	else if(this->MouseRightClick())

	mov	ecx, DWORD PTR _this$[ebp]
	call	?MouseRightClick@MouseHandler@@QAE_NXZ	; MouseHandler::MouseRightClick
	movzx	eax, al
	test	eax, eax
	je	SHORT $LN6@GetFirstCl

; 321  : 		return "Right Click";

	mov	eax, OFFSET ??_C@_0M@BDGMFCOP@Right?5Click?$AA@
	jmp	SHORT $LN9@GetFirstCl
	jmp	SHORT $LN9@GetFirstCl
$LN6@GetFirstCl:

; 322  : 	else if(this->Button3Click())

	mov	ecx, DWORD PTR _this$[ebp]
	call	?Button3Click@MouseHandler@@QAE_NXZ	; MouseHandler::Button3Click
	movzx	eax, al
	test	eax, eax
	je	SHORT $LN4@GetFirstCl

; 323  : 		return "Mouse Button 3 Click";

	mov	eax, OFFSET ??_C@_0BF@IKEDGA@Mouse?5Button?53?5Click?$AA@
	jmp	SHORT $LN9@GetFirstCl
	jmp	SHORT $LN9@GetFirstCl
$LN4@GetFirstCl:

; 324  : 	else if(this->Button4Click())

	mov	ecx, DWORD PTR _this$[ebp]
	call	?Button4Click@MouseHandler@@QAE_NXZ	; MouseHandler::Button4Click
	movzx	eax, al
	test	eax, eax
	je	SHORT $LN2@GetFirstCl

; 325  : 		return "Mouse Button 4 Click";

	mov	eax, OFFSET ??_C@_0BF@KEPEKHJ@Mouse?5Button?54?5Click?$AA@
	jmp	SHORT $LN9@GetFirstCl

; 326  : 	else

	jmp	SHORT $LN9@GetFirstCl
$LN2@GetFirstCl:

; 327  : 		return "";

	mov	eax, OFFSET ??_C@_00CNPNBAHC@?$AA@
$LN9@GetFirstCl:

; 328  : }

	pop	edi
	pop	esi
	pop	ebx
	mov	esp, ebp
	pop	ebp
	ret	0
?GetFirstClick$@MouseHandler@@QAEPADXZ ENDP		; MouseHandler::GetFirstClick$
_TEXT	ENDS
PUBLIC	?GetMultiplier@MouseHandler@@QAEMXZ		; MouseHandler::GetMultiplier
; Function compile flags: /Odtp /ZI
;	COMDAT ?GetMultiplier@MouseHandler@@QAEMXZ
_TEXT	SEGMENT
_this$ = -4						; size = 4
?GetMultiplier@MouseHandler@@QAEMXZ PROC		; MouseHandler::GetMultiplier, COMDAT
; _this$ = ecx

; 330  : {

	push	ebp
	mov	ebp, esp
	sub	esp, 68					; 00000044H
	push	ebx
	push	esi
	push	edi
	mov	DWORD PTR _this$[ebp], ecx

; 331  : 	return this->Multiplier;

	mov	eax, DWORD PTR _this$[ebp]
	fld	DWORD PTR [eax+408]

; 332  : }

	pop	edi
	pop	esi
	pop	ebx
	mov	esp, ebp
	pop	ebp
	ret	0
?GetMultiplier@MouseHandler@@QAEMXZ ENDP		; MouseHandler::GetMultiplier
_TEXT	ENDS
PUBLIC	?GetCursorHeight@MouseHandler@@QAEHXZ		; MouseHandler::GetCursorHeight
; Function compile flags: /Odtp /ZI
;	COMDAT ?GetCursorHeight@MouseHandler@@QAEHXZ
_TEXT	SEGMENT
_this$ = -4						; size = 4
?GetCursorHeight@MouseHandler@@QAEHXZ PROC		; MouseHandler::GetCursorHeight, COMDAT
; _this$ = ecx

; 334  : {

	push	ebp
	mov	ebp, esp
	sub	esp, 68					; 00000044H
	push	ebx
	push	esi
	push	edi
	mov	DWORD PTR _this$[ebp], ecx

; 335  : 	return this->CursorHeight;

	mov	eax, DWORD PTR _this$[ebp]
	mov	eax, DWORD PTR [eax+412]

; 336  : }

	pop	edi
	pop	esi
	pop	ebx
	mov	esp, ebp
	pop	ebp
	ret	0
?GetCursorHeight@MouseHandler@@QAEHXZ ENDP		; MouseHandler::GetCursorHeight
_TEXT	ENDS
PUBLIC	?GetCursorImage@MouseHandler@@QAEHXZ		; MouseHandler::GetCursorImage
; Function compile flags: /Odtp /ZI
;	COMDAT ?GetCursorImage@MouseHandler@@QAEHXZ
_TEXT	SEGMENT
_this$ = -4						; size = 4
?GetCursorImage@MouseHandler@@QAEHXZ PROC		; MouseHandler::GetCursorImage, COMDAT
; _this$ = ecx

; 338  : {

	push	ebp
	mov	ebp, esp
	sub	esp, 68					; 00000044H
	push	ebx
	push	esi
	push	edi
	mov	DWORD PTR _this$[ebp], ecx

; 339  : 	return this->CursorImage;

	mov	eax, DWORD PTR _this$[ebp]
	mov	eax, DWORD PTR [eax+416]

; 340  : }

	pop	edi
	pop	esi
	pop	ebx
	mov	esp, ebp
	pop	ebp
	ret	0
?GetCursorImage@MouseHandler@@QAEHXZ ENDP		; MouseHandler::GetCursorImage
_TEXT	ENDS
PUBLIC	?GetCursorWidth@MouseHandler@@QAEHXZ		; MouseHandler::GetCursorWidth
; Function compile flags: /Odtp /ZI
;	COMDAT ?GetCursorWidth@MouseHandler@@QAEHXZ
_TEXT	SEGMENT
_this$ = -4						; size = 4
?GetCursorWidth@MouseHandler@@QAEHXZ PROC		; MouseHandler::GetCursorWidth, COMDAT
; _this$ = ecx

; 342  : {

	push	ebp
	mov	ebp, esp
	sub	esp, 68					; 00000044H
	push	ebx
	push	esi
	push	edi
	mov	DWORD PTR _this$[ebp], ecx

; 343  : 	return this->CursorWidth;

	mov	eax, DWORD PTR _this$[ebp]
	mov	eax, DWORD PTR [eax+420]

; 344  : }

	pop	edi
	pop	esi
	pop	ebx
	mov	esp, ebp
	pop	ebp
	ret	0
?GetCursorWidth@MouseHandler@@QAEHXZ ENDP		; MouseHandler::GetCursorWidth
_TEXT	ENDS
PUBLIC	?GetFirstClick@MouseHandler@@QAEHXZ		; MouseHandler::GetFirstClick
; Function compile flags: /Odtp /ZI
;	COMDAT ?GetFirstClick@MouseHandler@@QAEHXZ
_TEXT	SEGMENT
_this$ = -4						; size = 4
?GetFirstClick@MouseHandler@@QAEHXZ PROC		; MouseHandler::GetFirstClick, COMDAT
; _this$ = ecx

; 346  : {

	push	ebp
	mov	ebp, esp
	sub	esp, 68					; 00000044H
	push	ebx
	push	esi
	push	edi
	mov	DWORD PTR _this$[ebp], ecx

; 347  : 	if(this->MouseLeftClick())

	mov	ecx, DWORD PTR _this$[ebp]
	call	?MouseLeftClick@MouseHandler@@QAE_NXZ	; MouseHandler::MouseLeftClick
	movzx	eax, al
	test	eax, eax
	je	SHORT $LN8@GetFirstCl@2

; 348  : 		return 1;

	mov	eax, 1
	jmp	SHORT $LN9@GetFirstCl@2
	jmp	SHORT $LN9@GetFirstCl@2
$LN8@GetFirstCl@2:

; 349  : 	else if(this->MouseRightClick())

	mov	ecx, DWORD PTR _this$[ebp]
	call	?MouseRightClick@MouseHandler@@QAE_NXZ	; MouseHandler::MouseRightClick
	movzx	eax, al
	test	eax, eax
	je	SHORT $LN6@GetFirstCl@2

; 350  : 		return 2;

	mov	eax, 2
	jmp	SHORT $LN9@GetFirstCl@2
	jmp	SHORT $LN9@GetFirstCl@2
$LN6@GetFirstCl@2:

; 351  : 	else if(this->Button3Click())

	mov	ecx, DWORD PTR _this$[ebp]
	call	?Button3Click@MouseHandler@@QAE_NXZ	; MouseHandler::Button3Click
	movzx	eax, al
	test	eax, eax
	je	SHORT $LN4@GetFirstCl@2

; 352  : 		return 3;

	mov	eax, 3
	jmp	SHORT $LN9@GetFirstCl@2
	jmp	SHORT $LN9@GetFirstCl@2
$LN4@GetFirstCl@2:

; 353  : 	else if(this->Button4Click())

	mov	ecx, DWORD PTR _this$[ebp]
	call	?Button4Click@MouseHandler@@QAE_NXZ	; MouseHandler::Button4Click
	movzx	eax, al
	test	eax, eax
	je	SHORT $LN2@GetFirstCl@2

; 354  : 		return 4;

	mov	eax, 4
	jmp	SHORT $LN9@GetFirstCl@2

; 355  : 	else

	jmp	SHORT $LN9@GetFirstCl@2
$LN2@GetFirstCl@2:

; 356  : 		return -1;

	or	eax, -1
$LN9@GetFirstCl@2:

; 357  : }

	pop	edi
	pop	esi
	pop	ebx
	mov	esp, ebp
	pop	ebp
	ret	0
?GetFirstClick@MouseHandler@@QAEHXZ ENDP		; MouseHandler::GetFirstClick
_TEXT	ENDS
PUBLIC	?MouseXPos@MouseHandler@@QAEHXZ			; MouseHandler::MouseXPos
; Function compile flags: /Odtp /ZI
;	COMDAT ?MouseXPos@MouseHandler@@QAEHXZ
_TEXT	SEGMENT
_this$ = -4						; size = 4
?MouseXPos@MouseHandler@@QAEHXZ PROC			; MouseHandler::MouseXPos, COMDAT
; _this$ = ecx

; 359  : {

	push	ebp
	mov	ebp, esp
	sub	esp, 68					; 00000044H
	push	ebx
	push	esi
	push	edi
	mov	DWORD PTR _this$[ebp], ecx

; 360  : 	return this->MousePosX[0];

	mov	eax, DWORD PTR _this$[ebp]
	mov	eax, DWORD PTR [eax+424]

; 361  : }

	pop	edi
	pop	esi
	pop	ebx
	mov	esp, ebp
	pop	ebp
	ret	0
?MouseXPos@MouseHandler@@QAEHXZ ENDP			; MouseHandler::MouseXPos
_TEXT	ENDS
PUBLIC	?MouseYPos@MouseHandler@@QAEHXZ			; MouseHandler::MouseYPos
; Function compile flags: /Odtp /ZI
;	COMDAT ?MouseYPos@MouseHandler@@QAEHXZ
_TEXT	SEGMENT
_this$ = -4						; size = 4
?MouseYPos@MouseHandler@@QAEHXZ PROC			; MouseHandler::MouseYPos, COMDAT
; _this$ = ecx

; 363  : {

	push	ebp
	mov	ebp, esp
	sub	esp, 68					; 00000044H
	push	ebx
	push	esi
	push	edi
	mov	DWORD PTR _this$[ebp], ecx

; 364  : 	return this->MousePosY[0];

	mov	eax, DWORD PTR _this$[ebp]
	mov	eax, DWORD PTR [eax+464]

; 365  : }

	pop	edi
	pop	esi
	pop	ebx
	mov	esp, ebp
	pop	ebp
	ret	0
?MouseYPos@MouseHandler@@QAEHXZ ENDP			; MouseHandler::MouseYPos
_TEXT	ENDS
PUBLIC	?MouseZPos@MouseHandler@@QAEHXZ			; MouseHandler::MouseZPos
; Function compile flags: /Odtp /ZI
;	COMDAT ?MouseZPos@MouseHandler@@QAEHXZ
_TEXT	SEGMENT
_this$ = -4						; size = 4
?MouseZPos@MouseHandler@@QAEHXZ PROC			; MouseHandler::MouseZPos, COMDAT
; _this$ = ecx

; 367  : {

	push	ebp
	mov	ebp, esp
	sub	esp, 68					; 00000044H
	push	ebx
	push	esi
	push	edi
	mov	DWORD PTR _this$[ebp], ecx

; 368  : 	return this->MousePosZ[0];

	mov	eax, DWORD PTR _this$[ebp]
	mov	eax, DWORD PTR [eax+504]

; 369  : }

	pop	edi
	pop	esi
	pop	ebx
	mov	esp, ebp
	pop	ebp
	ret	0
?MouseZPos@MouseHandler@@QAEHXZ ENDP			; MouseHandler::MouseZPos
_TEXT	ENDS
PUBLIC	?SetMouseView@MouseHandler@@QAEX_N@Z		; MouseHandler::SetMouseView
PUBLIC	?SetCursorPosition@MouseHandler@@QAEXHHH@Z	; MouseHandler::SetCursorPosition
PUBLIC	?ApplyToApp@MouseHandler@@QAEXXZ		; MouseHandler::ApplyToApp
; Function compile flags: /Odtp /ZI
;	COMDAT ?ApplyToApp@MouseHandler@@QAEXXZ
_TEXT	SEGMENT
_this$ = -4						; size = 4
?ApplyToApp@MouseHandler@@QAEXXZ PROC			; MouseHandler::ApplyToApp, COMDAT
; _this$ = ecx

; 371  : {

	push	ebp
	mov	ebp, esp
	sub	esp, 68					; 00000044H
	push	ebx
	push	esi
	push	edi
	mov	DWORD PTR _this$[ebp], ecx

; 372  : 	this->SetCursorPosition(this->MousePosX[0],this->MousePosY[0],this->MousePosX[0]);

	mov	eax, DWORD PTR _this$[ebp]
	mov	ecx, DWORD PTR [eax+424]
	push	ecx
	mov	edx, DWORD PTR _this$[ebp]
	mov	eax, DWORD PTR [edx+464]
	push	eax
	mov	ecx, DWORD PTR _this$[ebp]
	mov	edx, DWORD PTR [ecx+424]
	push	edx
	mov	ecx, DWORD PTR _this$[ebp]
	call	?SetCursorPosition@MouseHandler@@QAEXHHH@Z ; MouseHandler::SetCursorPosition

; 373  : 	this->SetMouseView(this->ShowMouse);

	mov	eax, DWORD PTR _this$[ebp]
	movzx	ecx, BYTE PTR [eax+1]
	push	ecx
	mov	ecx, DWORD PTR _this$[ebp]
	call	?SetMouseView@MouseHandler@@QAEX_N@Z	; MouseHandler::SetMouseView

; 374  : 
; 375  : 	return;
; 376  : }

	pop	edi
	pop	esi
	pop	ebx
	mov	esp, ebp
	pop	ebp
	ret	0
?ApplyToApp@MouseHandler@@QAEXXZ ENDP			; MouseHandler::ApplyToApp
_TEXT	ENDS
PUBLIC	?MoveMouse@MouseHandler@@QAEXHHH@Z		; MouseHandler::MoveMouse
EXTRN	?dbPositionMouse@@YAXHH@Z:PROC			; dbPositionMouse
; Function compile flags: /Odtp /ZI
;	COMDAT ?MoveMouse@MouseHandler@@QAEXHHH@Z
_TEXT	SEGMENT
_this$ = -4						; size = 4
_X$ = 8							; size = 4
_Y$ = 12						; size = 4
_Z$ = 16						; size = 4
?MoveMouse@MouseHandler@@QAEXHHH@Z PROC			; MouseHandler::MoveMouse, COMDAT
; _this$ = ecx

; 378  : {

	push	ebp
	mov	ebp, esp
	sub	esp, 68					; 00000044H
	push	ebx
	push	esi
	push	edi
	mov	DWORD PTR _this$[ebp], ecx

; 379  : 	if(this->CursorName!="")

	mov	eax, DWORD PTR _this$[ebp]
	cmp	DWORD PTR [eax+404], OFFSET ??_C@_00CNPNBAHC@?$AA@
	je	SHORT $LN3@MoveMouse

; 380  : 	{
; 381  : 		this->MousePosX[0]+=X;

	mov	eax, DWORD PTR _this$[ebp]
	mov	ecx, DWORD PTR [eax+424]
	add	ecx, DWORD PTR _X$[ebp]
	mov	edx, DWORD PTR _this$[ebp]
	mov	DWORD PTR [edx+424], ecx

; 382  : 		this->MousePosY[0]+=Y;

	mov	eax, DWORD PTR _this$[ebp]
	mov	ecx, DWORD PTR [eax+464]
	add	ecx, DWORD PTR _Y$[ebp]
	mov	edx, DWORD PTR _this$[ebp]
	mov	DWORD PTR [edx+464], ecx

; 383  : 		this->MousePosZ[0]+=Z;

	mov	eax, DWORD PTR _this$[ebp]
	mov	ecx, DWORD PTR [eax+504]
	add	ecx, DWORD PTR _Z$[ebp]
	mov	edx, DWORD PTR _this$[ebp]
	mov	DWORD PTR [edx+504], ecx

; 384  : 
; 385  : 		if(this->BindMouseToPosition)

	mov	eax, DWORD PTR _this$[ebp]
	movzx	ecx, BYTE PTR [eax]
	test	ecx, ecx
	je	SHORT $LN3@MoveMouse

; 386  : 			dbPositionMouse(this->MousePosX[0],this->MousePosY[0]);

	mov	eax, DWORD PTR _this$[ebp]
	mov	ecx, DWORD PTR [eax+464]
	push	ecx
	mov	edx, DWORD PTR _this$[ebp]
	mov	eax, DWORD PTR [edx+424]
	push	eax
	call	?dbPositionMouse@@YAXHH@Z		; dbPositionMouse
	add	esp, 8
$LN3@MoveMouse:

; 387  : 	}
; 388  : 
; 389  : 	return;
; 390  : }

	pop	edi
	pop	esi
	pop	ebx
	mov	esp, ebp
	pop	ebp
	ret	12					; 0000000cH
?MoveMouse@MouseHandler@@QAEXHHH@Z ENDP			; MouseHandler::MoveMouse
_TEXT	ENDS
PUBLIC	?SetCursorFile@MouseHandler@@QAEXPAD@Z		; MouseHandler::SetCursorFile
; Function compile flags: /Odtp /ZI
;	COMDAT ?SetCursorFile@MouseHandler@@QAEXPAD@Z
_TEXT	SEGMENT
_this$ = -4						; size = 4
_name$ = 8						; size = 4
?SetCursorFile@MouseHandler@@QAEXPAD@Z PROC		; MouseHandler::SetCursorFile, COMDAT
; _this$ = ecx

; 392  : {

	push	ebp
	mov	ebp, esp
	sub	esp, 68					; 00000044H
	push	ebx
	push	esi
	push	edi
	mov	DWORD PTR _this$[ebp], ecx

; 393  : 	if(dbFileExist(name)==1)

	mov	eax, DWORD PTR _name$[ebp]
	push	eax
	call	?dbFileExist@@YAHPAD@Z			; dbFileExist
	add	esp, 4
	cmp	eax, 1
	jne	SHORT $LN3@SetCursorF

; 394  : 	{
; 395  : 		this->CursorName=name;

	mov	eax, DWORD PTR _this$[ebp]
	mov	ecx, DWORD PTR _name$[ebp]
	mov	DWORD PTR [eax+404], ecx

; 396  : 
; 397  : 		dbDeleteImage(this->CursorImage);

	mov	eax, DWORD PTR _this$[ebp]
	mov	ecx, DWORD PTR [eax+416]
	push	ecx
	call	?dbDeleteImage@@YAXH@Z			; dbDeleteImage
	add	esp, 4

; 398  : 		dbLoadImage(this->CursorName,this->CursorImage);

	mov	eax, DWORD PTR _this$[ebp]
	mov	ecx, DWORD PTR [eax+416]
	push	ecx
	mov	edx, DWORD PTR _this$[ebp]
	mov	eax, DWORD PTR [edx+404]
	push	eax
	call	?dbLoadImage@@YAXPADH@Z			; dbLoadImage
	add	esp, 8

; 399  : 		dbHideMouse();

	call	?dbHideMouse@@YAXXZ			; dbHideMouse

; 400  : 
; 401  : 		this->CursorHeight=dbGetImageHeight(this->CursorImage);

	mov	eax, DWORD PTR _this$[ebp]
	mov	ecx, DWORD PTR [eax+416]
	push	ecx
	call	?dbGetImageHeight@@YAHH@Z		; dbGetImageHeight
	add	esp, 4
	mov	edx, DWORD PTR _this$[ebp]
	mov	DWORD PTR [edx+412], eax

; 402  : 		this->CursorWidth=dbGetImageWidth(this->CursorImage);

	mov	eax, DWORD PTR _this$[ebp]
	mov	ecx, DWORD PTR [eax+416]
	push	ecx
	call	?dbGetImageWidth@@YAHH@Z		; dbGetImageWidth
	add	esp, 4
	mov	edx, DWORD PTR _this$[ebp]
	mov	DWORD PTR [edx+420], eax

; 403  : 		this->ShowMouse=true;

	mov	eax, DWORD PTR _this$[ebp]
	mov	BYTE PTR [eax+1], 1
	jmp	SHORT $LN4@SetCursorF
$LN3@SetCursorF:

; 404  : 	}
; 405  : 	else if(name=="")

	cmp	DWORD PTR _name$[ebp], OFFSET ??_C@_00CNPNBAHC@?$AA@
	jne	SHORT $LN4@SetCursorF

; 406  : 	{
; 407  : 		this->CursorName=name;

	mov	eax, DWORD PTR _this$[ebp]
	mov	ecx, DWORD PTR _name$[ebp]
	mov	DWORD PTR [eax+404], ecx

; 408  : 		this->ShowMouse=true;

	mov	eax, DWORD PTR _this$[ebp]
	mov	BYTE PTR [eax+1], 1

; 409  : 
; 410  : 		dbDeleteImage(this->CursorImage);

	mov	eax, DWORD PTR _this$[ebp]
	mov	ecx, DWORD PTR [eax+416]
	push	ecx
	call	?dbDeleteImage@@YAXH@Z			; dbDeleteImage
	add	esp, 4

; 411  : 		dbShowMouse();

	call	?dbShowMouse@@YAXXZ			; dbShowMouse
$LN4@SetCursorF:

; 412  : 	}
; 413  : 
; 414  : 	return;
; 415  : }

	pop	edi
	pop	esi
	pop	ebx
	mov	esp, ebp
	pop	ebp
	ret	4
?SetCursorFile@MouseHandler@@QAEXPAD@Z ENDP		; MouseHandler::SetCursorFile
_TEXT	ENDS
PUBLIC	?SetCursorImage@MouseHandler@@QAEXH@Z		; MouseHandler::SetCursorImage
; Function compile flags: /Odtp /ZI
;	COMDAT ?SetCursorImage@MouseHandler@@QAEXH@Z
_TEXT	SEGMENT
_this$ = -4						; size = 4
_img$ = 8						; size = 4
?SetCursorImage@MouseHandler@@QAEXH@Z PROC		; MouseHandler::SetCursorImage, COMDAT
; _this$ = ecx

; 417  : {

	push	ebp
	mov	ebp, esp
	sub	esp, 68					; 00000044H
	push	ebx
	push	esi
	push	edi
	mov	DWORD PTR _this$[ebp], ecx

; 418  : 	this->CursorImage=img;

	mov	eax, DWORD PTR _this$[ebp]
	mov	ecx, DWORD PTR _img$[ebp]
	mov	DWORD PTR [eax+416], ecx

; 419  : 
; 420  : 	return;
; 421  : }

	pop	edi
	pop	esi
	pop	ebx
	mov	esp, ebp
	pop	ebp
	ret	4
?SetCursorImage@MouseHandler@@QAEXH@Z ENDP		; MouseHandler::SetCursorImage
_TEXT	ENDS
PUBLIC	?SetCursorPosition@MouseHandler@@QAEXHH@Z	; MouseHandler::SetCursorPosition
; Function compile flags: /Odtp /ZI
;	COMDAT ?SetCursorPosition@MouseHandler@@QAEXHH@Z
_TEXT	SEGMENT
_this$ = -4						; size = 4
_X$ = 8							; size = 4
_Y$ = 12						; size = 4
?SetCursorPosition@MouseHandler@@QAEXHH@Z PROC		; MouseHandler::SetCursorPosition, COMDAT
; _this$ = ecx

; 423  : {

	push	ebp
	mov	ebp, esp
	sub	esp, 68					; 00000044H
	push	ebx
	push	esi
	push	edi
	mov	DWORD PTR _this$[ebp], ecx

; 424  : 	dbPositionMouse(X,Y);

	mov	eax, DWORD PTR _Y$[ebp]
	push	eax
	mov	ecx, DWORD PTR _X$[ebp]
	push	ecx
	call	?dbPositionMouse@@YAXHH@Z		; dbPositionMouse
	add	esp, 8

; 425  : 
; 426  : 	this->MousePosX[0]=X;

	mov	eax, DWORD PTR _this$[ebp]
	mov	ecx, DWORD PTR _X$[ebp]
	mov	DWORD PTR [eax+424], ecx

; 427  : 	this->MousePosY[0]=Y;

	mov	eax, DWORD PTR _this$[ebp]
	mov	ecx, DWORD PTR _Y$[ebp]
	mov	DWORD PTR [eax+464], ecx

; 428  : 
; 429  : 	return;
; 430  : }

	pop	edi
	pop	esi
	pop	ebx
	mov	esp, ebp
	pop	ebp
	ret	8
?SetCursorPosition@MouseHandler@@QAEXHH@Z ENDP		; MouseHandler::SetCursorPosition
; Function compile flags: /Odtp /ZI
_TEXT	ENDS
;	COMDAT ?SetCursorPosition@MouseHandler@@QAEXHHH@Z
_TEXT	SEGMENT
_this$ = -4						; size = 4
_X$ = 8							; size = 4
_Y$ = 12						; size = 4
_Z$ = 16						; size = 4
?SetCursorPosition@MouseHandler@@QAEXHHH@Z PROC		; MouseHandler::SetCursorPosition, COMDAT
; _this$ = ecx

; 432  : {

	push	ebp
	mov	ebp, esp
	sub	esp, 68					; 00000044H
	push	ebx
	push	esi
	push	edi
	mov	DWORD PTR _this$[ebp], ecx

; 433  : 	dbPositionMouse(X,Y);

	mov	eax, DWORD PTR _Y$[ebp]
	push	eax
	mov	ecx, DWORD PTR _X$[ebp]
	push	ecx
	call	?dbPositionMouse@@YAXHH@Z		; dbPositionMouse
	add	esp, 8

; 434  : 
; 435  : 	this->MousePosX[0]=X;

	mov	eax, DWORD PTR _this$[ebp]
	mov	ecx, DWORD PTR _X$[ebp]
	mov	DWORD PTR [eax+424], ecx

; 436  : 	this->MousePosY[0]=Y;

	mov	eax, DWORD PTR _this$[ebp]
	mov	ecx, DWORD PTR _Y$[ebp]
	mov	DWORD PTR [eax+464], ecx

; 437  : 	this->MousePosZ[0]=Z;

	mov	eax, DWORD PTR _this$[ebp]
	mov	ecx, DWORD PTR _Z$[ebp]
	mov	DWORD PTR [eax+504], ecx

; 438  : 
; 439  : 	return;
; 440  : }

	pop	edi
	pop	esi
	pop	ebx
	mov	esp, ebp
	pop	ebp
	ret	12					; 0000000cH
?SetCursorPosition@MouseHandler@@QAEXHHH@Z ENDP		; MouseHandler::SetCursorPosition
_TEXT	ENDS
PUBLIC	?SetMouseBoundToCursor@MouseHandler@@QAEX_N@Z	; MouseHandler::SetMouseBoundToCursor
; Function compile flags: /Odtp /ZI
;	COMDAT ?SetMouseBoundToCursor@MouseHandler@@QAEX_N@Z
_TEXT	SEGMENT
_this$ = -4						; size = 4
_Binding$ = 8						; size = 1
?SetMouseBoundToCursor@MouseHandler@@QAEX_N@Z PROC	; MouseHandler::SetMouseBoundToCursor, COMDAT
; _this$ = ecx

; 442  : {

	push	ebp
	mov	ebp, esp
	sub	esp, 68					; 00000044H
	push	ebx
	push	esi
	push	edi
	mov	DWORD PTR _this$[ebp], ecx

; 443  : 	this->BindMouseToPosition=Binding;

	mov	eax, DWORD PTR _this$[ebp]
	mov	cl, BYTE PTR _Binding$[ebp]
	mov	BYTE PTR [eax], cl

; 444  : 
; 445  : 	return;
; 446  : }

	pop	edi
	pop	esi
	pop	ebx
	mov	esp, ebp
	pop	ebp
	ret	4
?SetMouseBoundToCursor@MouseHandler@@QAEX_N@Z ENDP	; MouseHandler::SetMouseBoundToCursor
; Function compile flags: /Odtp /ZI
_TEXT	ENDS
;	COMDAT ?SetMouseView@MouseHandler@@QAEX_N@Z
_TEXT	SEGMENT
_this$ = -4						; size = 4
_view$ = 8						; size = 1
?SetMouseView@MouseHandler@@QAEX_N@Z PROC		; MouseHandler::SetMouseView, COMDAT
; _this$ = ecx

; 448  : {

	push	ebp
	mov	ebp, esp
	sub	esp, 68					; 00000044H
	push	ebx
	push	esi
	push	edi
	mov	DWORD PTR _this$[ebp], ecx

; 449  : 	this->ShowMouse=view;

	mov	eax, DWORD PTR _this$[ebp]
	mov	cl, BYTE PTR _view$[ebp]
	mov	BYTE PTR [eax+1], cl

; 450  : 
; 451  : 	if(this->ShowMouse&&this->CursorName=="")

	mov	eax, DWORD PTR _this$[ebp]
	movzx	ecx, BYTE PTR [eax+1]
	test	ecx, ecx
	je	SHORT $LN2@SetMouseVi
	mov	eax, DWORD PTR _this$[ebp]
	cmp	DWORD PTR [eax+404], OFFSET ??_C@_00CNPNBAHC@?$AA@
	jne	SHORT $LN2@SetMouseVi

; 452  : 		dbShowMouse();

	call	?dbShowMouse@@YAXXZ			; dbShowMouse

; 453  : 	else

	jmp	SHORT $LN3@SetMouseVi
$LN2@SetMouseVi:

; 454  : 		dbHideMouse();

	call	?dbHideMouse@@YAXXZ			; dbHideMouse
$LN3@SetMouseVi:

; 455  : 
; 456  : 	return;
; 457  : }

	pop	edi
	pop	esi
	pop	ebx
	mov	esp, ebp
	pop	ebp
	ret	4
?SetMouseView@MouseHandler@@QAEX_N@Z ENDP		; MouseHandler::SetMouseView
_TEXT	ENDS
PUBLIC	?SetMultiplier@MouseHandler@@QAEXM@Z		; MouseHandler::SetMultiplier
; Function compile flags: /Odtp /ZI
;	COMDAT ?SetMultiplier@MouseHandler@@QAEXM@Z
_TEXT	SEGMENT
_this$ = -4						; size = 4
_Speeder$ = 8						; size = 4
?SetMultiplier@MouseHandler@@QAEXM@Z PROC		; MouseHandler::SetMultiplier, COMDAT
; _this$ = ecx

; 459  : {

	push	ebp
	mov	ebp, esp
	sub	esp, 68					; 00000044H
	push	ebx
	push	esi
	push	edi
	mov	DWORD PTR _this$[ebp], ecx

; 460  : 	this->Multiplier=Speeder;

	mov	eax, DWORD PTR _this$[ebp]
	fld	DWORD PTR _Speeder$[ebp]
	fstp	DWORD PTR [eax+408]

; 461  : 
; 462  : 	return;
; 463  : }

	pop	edi
	pop	esi
	pop	ebx
	mov	esp, ebp
	pop	ebp
	ret	4
?SetMultiplier@MouseHandler@@QAEXM@Z ENDP		; MouseHandler::SetMultiplier
_TEXT	ENDS
PUBLIC	?Update@MouseHandler@@QAEXXZ			; MouseHandler::Update
EXTRN	?dbPasteImage@@YAXHHHH@Z:PROC			; dbPasteImage
EXTRN	?dbMouseClick@@YAHXZ:PROC			; dbMouseClick
EXTRN	?GetCurrentHeight@Window@@QAEHXZ:PROC		; Window::GetCurrentHeight
EXTRN	?GetCurrentWidth@Window@@QAEHXZ:PROC		; Window::GetCurrentWidth
EXTRN	?dbMouseMoveZ@@YAHXZ:PROC			; dbMouseMoveZ
EXTRN	?dbMouseMoveY@@YAHXZ:PROC			; dbMouseMoveY
EXTRN	?dbMouseMoveX@@YAHXZ:PROC			; dbMouseMoveX
EXTRN	__ftol2_sse:PROC
; Function compile flags: /Odtp /ZI
;	COMDAT ?Update@MouseHandler@@QAEXXZ
_TEXT	SEGMENT
tv321 = -92						; size = 4
tv311 = -92						; size = 4
tv301 = -92						; size = 4
tv387 = -88						; size = 8
tv385 = -88						; size = 8
tv383 = -88						; size = 8
_MouseClickValue$ = -16					; size = 4
_i$91349 = -12						; size = 4
_i$91345 = -8						; size = 4
_this$ = -4						; size = 4
?Update@MouseHandler@@QAEXXZ PROC			; MouseHandler::Update, COMDAT
; _this$ = ecx

; 465  : {

	push	ebp
	mov	ebp, esp
	sub	esp, 92					; 0000005cH
	push	ebx
	push	esi
	push	edi
	mov	DWORD PTR _this$[ebp], ecx

; 466  : 	for(int i=99;i>=0;i--)

	mov	DWORD PTR _i$91345[ebp], 99		; 00000063H
	jmp	SHORT $LN22@Update
$LN21@Update:
	mov	eax, DWORD PTR _i$91345[ebp]
	sub	eax, 1
	mov	DWORD PTR _i$91345[ebp], eax
$LN22@Update:
	cmp	DWORD PTR _i$91345[ebp], 0
	jl	SHORT $LN20@Update

; 467  : 	{
; 468  : 		this->LeftClick[i]=this->LeftClick[i-1];

	mov	eax, DWORD PTR _this$[ebp]
	add	eax, DWORD PTR _i$91345[ebp]
	mov	ecx, DWORD PTR _this$[ebp]
	add	ecx, DWORD PTR _i$91345[ebp]
	mov	dl, BYTE PTR [ecx+1]
	mov	BYTE PTR [eax+2], dl

; 469  : 		this->RightClick[i]=this->RightClick[i-1];

	mov	eax, DWORD PTR _this$[ebp]
	add	eax, DWORD PTR _i$91345[ebp]
	mov	ecx, DWORD PTR _this$[ebp]
	add	ecx, DWORD PTR _i$91345[ebp]
	mov	dl, BYTE PTR [ecx+301]
	mov	BYTE PTR [eax+302], dl

; 470  : 		this->MouseButton3[i]=this->MouseButton3[i-1];

	mov	eax, DWORD PTR _this$[ebp]
	add	eax, DWORD PTR _i$91345[ebp]
	mov	ecx, DWORD PTR _this$[ebp]
	add	ecx, DWORD PTR _i$91345[ebp]
	mov	dl, BYTE PTR [ecx+101]
	mov	BYTE PTR [eax+102], dl

; 471  : 		this->MouseButton4[i]=this->MouseButton4[i-1];

	mov	eax, DWORD PTR _this$[ebp]
	add	eax, DWORD PTR _i$91345[ebp]
	mov	ecx, DWORD PTR _this$[ebp]
	add	ecx, DWORD PTR _i$91345[ebp]
	mov	dl, BYTE PTR [ecx+201]
	mov	BYTE PTR [eax+202], dl

; 472  : 	}

	jmp	SHORT $LN21@Update
$LN20@Update:

; 473  : 
; 474  : 	for(int i=9;i>=0;i--)

	mov	DWORD PTR _i$91349[ebp], 9
	jmp	SHORT $LN19@Update
$LN18@Update:
	mov	eax, DWORD PTR _i$91349[ebp]
	sub	eax, 1
	mov	DWORD PTR _i$91349[ebp], eax
$LN19@Update:
	cmp	DWORD PTR _i$91349[ebp], 0
	jl	SHORT $LN17@Update

; 475  : 	{
; 476  : 		this->MousePosX[i]=this->MousePosX[i-1];

	mov	eax, DWORD PTR _i$91349[ebp]
	mov	ecx, DWORD PTR _this$[ebp]
	mov	edx, DWORD PTR _i$91349[ebp]
	mov	esi, DWORD PTR _this$[ebp]
	mov	edx, DWORD PTR [esi+edx*4+420]
	mov	DWORD PTR [ecx+eax*4+424], edx

; 477  : 		this->MousePosY[i]=this->MousePosY[i-1];

	mov	eax, DWORD PTR _i$91349[ebp]
	mov	ecx, DWORD PTR _this$[ebp]
	mov	edx, DWORD PTR _i$91349[ebp]
	mov	esi, DWORD PTR _this$[ebp]
	mov	edx, DWORD PTR [esi+edx*4+460]
	mov	DWORD PTR [ecx+eax*4+464], edx

; 478  : 		this->MousePosZ[i]=this->MousePosZ[i-1];

	mov	eax, DWORD PTR _i$91349[ebp]
	mov	ecx, DWORD PTR _this$[ebp]
	mov	edx, DWORD PTR _i$91349[ebp]
	mov	esi, DWORD PTR _this$[ebp]
	mov	edx, DWORD PTR [esi+edx*4+500]
	mov	DWORD PTR [ecx+eax*4+504], edx

; 479  : 	}

	jmp	SHORT $LN18@Update
$LN17@Update:

; 480  : 
; 481  : 	this->MousePosX[0]=this->MousePosX[1]+dbMouseMoveX()*this->Multiplier;

	mov	eax, DWORD PTR _this$[ebp]
	fild	DWORD PTR [eax+428]
	fstp	QWORD PTR tv383[ebp]
	call	?dbMouseMoveX@@YAHXZ			; dbMouseMoveX
	mov	DWORD PTR tv301[ebp], eax
	fild	DWORD PTR tv301[ebp]
	mov	ecx, DWORD PTR _this$[ebp]
	fmul	DWORD PTR [ecx+408]
	fadd	QWORD PTR tv383[ebp]
	call	__ftol2_sse
	mov	edx, DWORD PTR _this$[ebp]
	mov	DWORD PTR [edx+424], eax

; 482  : 	this->MousePosY[0]=this->MousePosY[1]+dbMouseMoveY()*this->Multiplier;

	mov	eax, DWORD PTR _this$[ebp]
	fild	DWORD PTR [eax+468]
	fstp	QWORD PTR tv385[ebp]
	call	?dbMouseMoveY@@YAHXZ			; dbMouseMoveY
	mov	DWORD PTR tv311[ebp], eax
	fild	DWORD PTR tv311[ebp]
	mov	ecx, DWORD PTR _this$[ebp]
	fmul	DWORD PTR [ecx+408]
	fadd	QWORD PTR tv385[ebp]
	call	__ftol2_sse
	mov	edx, DWORD PTR _this$[ebp]
	mov	DWORD PTR [edx+464], eax

; 483  : 	this->MousePosZ[0]=this->MousePosZ[1]+dbMouseMoveZ()*this->Multiplier;

	mov	eax, DWORD PTR _this$[ebp]
	fild	DWORD PTR [eax+508]
	fstp	QWORD PTR tv387[ebp]
	call	?dbMouseMoveZ@@YAHXZ			; dbMouseMoveZ
	mov	DWORD PTR tv321[ebp], eax
	fild	DWORD PTR tv321[ebp]
	mov	ecx, DWORD PTR _this$[ebp]
	fmul	DWORD PTR [ecx+408]
	fadd	QWORD PTR tv387[ebp]
	call	__ftol2_sse
	mov	edx, DWORD PTR _this$[ebp]
	mov	DWORD PTR [edx+504], eax

; 484  : 	
; 485  : 	if(MousePosX[0]<0)

	mov	eax, DWORD PTR _this$[ebp]
	cmp	DWORD PTR [eax+424], 0
	jge	SHORT $LN16@Update

; 486  : 		MousePosX[0]=0;

	mov	eax, DWORD PTR _this$[ebp]
	mov	DWORD PTR [eax+424], 0
$LN16@Update:

; 487  : 	if(MousePosX[0]>this->CurrentWindow->GetCurrentWidth())

	mov	eax, DWORD PTR _this$[ebp]
	mov	ecx, DWORD PTR [eax+544]
	call	?GetCurrentWidth@Window@@QAEHXZ		; Window::GetCurrentWidth
	mov	ecx, DWORD PTR _this$[ebp]
	cmp	DWORD PTR [ecx+424], eax
	jle	SHORT $LN15@Update

; 488  : 		MousePosX[0]=this->CurrentWindow->GetCurrentWidth();

	mov	eax, DWORD PTR _this$[ebp]
	mov	ecx, DWORD PTR [eax+544]
	call	?GetCurrentWidth@Window@@QAEHXZ		; Window::GetCurrentWidth
	mov	ecx, DWORD PTR _this$[ebp]
	mov	DWORD PTR [ecx+424], eax
$LN15@Update:

; 489  : 	if(MousePosY[0]<0)

	mov	eax, DWORD PTR _this$[ebp]
	cmp	DWORD PTR [eax+464], 0
	jge	SHORT $LN14@Update

; 490  : 		MousePosY[0]=0;

	mov	eax, DWORD PTR _this$[ebp]
	mov	DWORD PTR [eax+464], 0
$LN14@Update:

; 491  : 	if(MousePosY[0]>this->CurrentWindow->GetCurrentHeight())

	mov	eax, DWORD PTR _this$[ebp]
	mov	ecx, DWORD PTR [eax+544]
	call	?GetCurrentHeight@Window@@QAEHXZ	; Window::GetCurrentHeight
	mov	ecx, DWORD PTR _this$[ebp]
	cmp	DWORD PTR [ecx+464], eax
	jle	SHORT $LN13@Update

; 492  : 		MousePosY[0]=this->CurrentWindow->GetCurrentHeight();

	mov	eax, DWORD PTR _this$[ebp]
	mov	ecx, DWORD PTR [eax+544]
	call	?GetCurrentHeight@Window@@QAEHXZ	; Window::GetCurrentHeight
	mov	ecx, DWORD PTR _this$[ebp]
	mov	DWORD PTR [ecx+464], eax
$LN13@Update:

; 493  : 
; 494  : 	if(this->MousePosZ[0]>100)

	mov	eax, DWORD PTR _this$[ebp]
	cmp	DWORD PTR [eax+504], 100		; 00000064H
	jle	SHORT $LN12@Update

; 495  : 		this->MousePosZ[0]=100;

	mov	eax, DWORD PTR _this$[ebp]
	mov	DWORD PTR [eax+504], 100		; 00000064H
	jmp	SHORT $LN10@Update
$LN12@Update:

; 496  : 	else if(this->MousePosZ[0]<0)

	mov	eax, DWORD PTR _this$[ebp]
	cmp	DWORD PTR [eax+504], 0
	jge	SHORT $LN10@Update

; 497  : 		this->MousePosZ[0]=0;

	mov	eax, DWORD PTR _this$[ebp]
	mov	DWORD PTR [eax+504], 0
$LN10@Update:

; 498  : 	
; 499  : 	int MouseClickValue=dbMouseClick();

	call	?dbMouseClick@@YAHXZ			; dbMouseClick
	mov	DWORD PTR _MouseClickValue$[ebp], eax

; 500  : 
; 501  : 	if(MouseClickValue>=8)

	cmp	DWORD PTR _MouseClickValue$[ebp], 8
	jl	SHORT $LN9@Update

; 502  : 	{
; 503  : 		this->MouseButton4[0]=true;

	mov	eax, DWORD PTR _this$[ebp]
	mov	BYTE PTR [eax+202], 1

; 504  : 		MouseClickValue-=8;

	mov	eax, DWORD PTR _MouseClickValue$[ebp]
	sub	eax, 8
	mov	DWORD PTR _MouseClickValue$[ebp], eax

; 505  : 	}
; 506  : 	else

	jmp	SHORT $LN8@Update
$LN9@Update:

; 507  : 		this->MouseButton4[0]=false;

	mov	eax, DWORD PTR _this$[ebp]
	mov	BYTE PTR [eax+202], 0
$LN8@Update:

; 508  : 	if(MouseClickValue>=4)

	cmp	DWORD PTR _MouseClickValue$[ebp], 4
	jl	SHORT $LN7@Update

; 509  : 	{
; 510  : 		this->MouseButton3[0]=true;

	mov	eax, DWORD PTR _this$[ebp]
	mov	BYTE PTR [eax+102], 1

; 511  : 		MouseClickValue-=4;

	mov	eax, DWORD PTR _MouseClickValue$[ebp]
	sub	eax, 4
	mov	DWORD PTR _MouseClickValue$[ebp], eax

; 512  : 	}
; 513  : 	else

	jmp	SHORT $LN6@Update
$LN7@Update:

; 514  : 		this->MouseButton3[0]=false;

	mov	eax, DWORD PTR _this$[ebp]
	mov	BYTE PTR [eax+102], 0
$LN6@Update:

; 515  : 	if(MouseClickValue>=2)

	cmp	DWORD PTR _MouseClickValue$[ebp], 2
	jl	SHORT $LN5@Update

; 516  : 	{
; 517  : 		this->RightClick[0]=true;

	mov	eax, DWORD PTR _this$[ebp]
	mov	BYTE PTR [eax+302], 1

; 518  : 		MouseClickValue-=2;

	mov	eax, DWORD PTR _MouseClickValue$[ebp]
	sub	eax, 2
	mov	DWORD PTR _MouseClickValue$[ebp], eax

; 519  : 	}
; 520  : 	else

	jmp	SHORT $LN4@Update
$LN5@Update:

; 521  : 		this->RightClick[0]=false;

	mov	eax, DWORD PTR _this$[ebp]
	mov	BYTE PTR [eax+302], 0
$LN4@Update:

; 522  : 	if(MouseClickValue==1)

	cmp	DWORD PTR _MouseClickValue$[ebp], 1
	jne	SHORT $LN3@Update

; 523  : 	{
; 524  : 		this->LeftClick[0]=true;

	mov	eax, DWORD PTR _this$[ebp]
	mov	BYTE PTR [eax+2], 1

; 525  : 		MouseClickValue--;

	mov	eax, DWORD PTR _MouseClickValue$[ebp]
	sub	eax, 1
	mov	DWORD PTR _MouseClickValue$[ebp], eax

; 526  : 	}
; 527  : 	else

	jmp	SHORT $LN2@Update
$LN3@Update:

; 528  : 		this->LeftClick[0]=false;

	mov	eax, DWORD PTR _this$[ebp]
	mov	BYTE PTR [eax+2], 0
$LN2@Update:

; 529  : 
; 530  : 	if(this->ShowMouse&&this->CursorName!="")

	mov	eax, DWORD PTR _this$[ebp]
	movzx	ecx, BYTE PTR [eax+1]
	test	ecx, ecx
	je	SHORT $LN1@Update
	mov	eax, DWORD PTR _this$[ebp]
	cmp	DWORD PTR [eax+404], OFFSET ??_C@_00CNPNBAHC@?$AA@
	je	SHORT $LN1@Update

; 531  : 		dbPasteImage(this->CursorImage,this->MousePosX[0]-this->CursorWidth/2,this->MousePosY[0]-this->CursorHeight/2,1);

	push	1
	mov	eax, DWORD PTR _this$[ebp]
	mov	eax, DWORD PTR [eax+412]
	cdq
	sub	eax, edx
	sar	eax, 1
	mov	ecx, DWORD PTR _this$[ebp]
	mov	edx, DWORD PTR [ecx+464]
	sub	edx, eax
	push	edx
	mov	eax, DWORD PTR _this$[ebp]
	mov	eax, DWORD PTR [eax+420]
	cdq
	sub	eax, edx
	sar	eax, 1
	mov	ecx, DWORD PTR _this$[ebp]
	mov	edx, DWORD PTR [ecx+424]
	sub	edx, eax
	push	edx
	mov	eax, DWORD PTR _this$[ebp]
	mov	ecx, DWORD PTR [eax+416]
	push	ecx
	call	?dbPasteImage@@YAXHHHH@Z		; dbPasteImage
	add	esp, 16					; 00000010H
$LN1@Update:

; 532  : 
; 533  : 	return;
; 534  : }

	pop	edi
	pop	esi
	pop	ebx
	mov	esp, ebp
	pop	ebp
	ret	0
?Update@MouseHandler@@QAEXXZ ENDP			; MouseHandler::Update
_TEXT	ENDS
PUBLIC	??_C@_05FOLLILPC@Thing?$AA@			; `string'
PUBLIC	??_C@_0O@IDKBPDPO@Right?5Windows?$AA@		; `string'
PUBLIC	??_C@_0N@ILBHIOPE@Left?5Windows?$AA@		; `string'
PUBLIC	??_C@_06JBKGCNBB@Delete?$AA@			; `string'
PUBLIC	??_C@_06CPFCODOD@Insert?$AA@			; `string'
PUBLIC	??_C@_09IOIDGKNA@Page?5Down?$AA@		; `string'
PUBLIC	??_C@_04FNCLCJMC@Down?$AA@			; `string'
PUBLIC	??_C@_03DBKJMAGF@End?$AA@			; `string'
PUBLIC	??_C@_05DADPALEM@Right?$AA@			; `string'
PUBLIC	??_C@_04KPCPLBPL@Left?$AA@			; `string'
PUBLIC	??_C@_07EDGDGJEN@Page?5Up?$AA@			; `string'
PUBLIC	??_C@_02EFPGLDEA@Up?$AA@			; `string'
PUBLIC	??_C@_04GKJODLKO@Home?$AA@			; `string'
PUBLIC	??_C@_05EMFLFCNO@Break?$AA@			; `string'
PUBLIC	??_C@_05PEDNBBBD@Pause?$AA@			; `string'
PUBLIC	??_C@_09ELGHIMBO@Right?5Alt?$AA@		; `string'
PUBLIC	??_C@_0N@CHCLIIDE@Print?5Screen?$AA@		; `string'
PUBLIC	??_C@_05IAKEFGOE@?1?5Num?$AA@			; `string'
PUBLIC	??_C@_0M@LHBLIFBA@Function?5F3?$AA@		; `string'
PUBLIC	??_C@_0O@FHMBNID@Right?5Control?$AA@		; `string'
PUBLIC	??_C@_03KIBNPMNE@F12?$AA@			; `string'
PUBLIC	??_C@_03IDDAKPBH@F11?$AA@			; `string'
PUBLIC	??_C@_05BAHDBLKA@SysRq?$AA@			; `string'
PUBLIC	??_C@_05LAFLDKON@Num?5?4?$AA@			; `string'
PUBLIC	??_C@_01GBGANLPD@0?$AA@				; `string'
PUBLIC	??_C@_01EKENIIDA@3?$AA@				; `string'
PUBLIC	??_C@_01FDFGLJHB@2?$AA@				; `string'
PUBLIC	??_C@_01HIHLOKLC@1?$AA@				; `string'
PUBLIC	??_C@_01MIFGBAGJ@?$CL?$AA@			; `string'
PUBLIC	??_C@_01DHDKHMHF@6?$AA@				; `string'
PUBLIC	??_C@_01BMBHCPLG@5?$AA@				; `string'
PUBLIC	??_C@_01FAMBOPH@4?$AA@				; `string'
PUBLIC	??_C@_01JOAMLHOP@?9?$AA@			; `string'
PUBLIC	??_C@_01LAKCGALK@9?$AA@				; `string'
PUBLIC	??_C@_01KJLJFBPL@8?$AA@				; `string'
PUBLIC	??_C@_01COCBENDE@7?$AA@				; `string'
PUBLIC	??_C@_08DEAFBBCL@Num?5Lock?$AA@			; `string'
PUBLIC	??_C@_03JKCLJOFG@F10?$AA@			; `string'
PUBLIC	??_C@_02HKCNFKCF@F9?$AA@			; `string'
PUBLIC	??_C@_02GDDGGLGE@F8?$AA@			; `string'
PUBLIC	??_C@_02OEKOHHKL@F7?$AA@			; `string'
PUBLIC	??_C@_02PNLFEGOK@F6?$AA@			; `string'
PUBLIC	??_C@_02NGJIBFCJ@F5?$AA@			; `string'
PUBLIC	??_C@_02MPIDCEGI@F4?$AA@			; `string'
PUBLIC	??_C@_02IAMCLCKP@F3?$AA@			; `string'
PUBLIC	??_C@_02JJNJIDOO@F2?$AA@			; `string'
PUBLIC	??_C@_02LCPENACN@F1?$AA@			; `string'
PUBLIC	??_C@_09GGECHFNF@Caps?5Lock?$AA@		; `string'
PUBLIC	??_C@_05OMHELODH@Space?$AA@			; `string'
PUBLIC	??_C@_08CJHJBNHP@Left?5Alt?$AA@			; `string'
PUBLIC	??_C@_01NBENCBCI@?$CK?$AA@			; `string'
PUBLIC	??_C@_0M@COKLDKMB@Right?5Shift?$AA@		; `string'
PUBLIC	??_C@_01KMDKNFGN@?1?$AA@			; `string'
PUBLIC	??_C@_01LFCBOECM@?4?$AA@			; `string'
PUBLIC	??_C@_01IHBHIGKO@?0?$AA@			; `string'
PUBLIC	??_C@_01PLPBNMEI@M?$AA@				; `string'
PUBLIC	??_C@_01NANMIPIL@N?$AA@				; `string'
PUBLIC	??_C@_01HMGJMAIH@B?$AA@				; `string'
PUBLIC	??_C@_01FCMHBHNC@V?$AA@				; `string'
PUBLIC	??_C@_01GFHCPBMG@C?$AA@				; `string'
PUBLIC	??_C@_01MMEEDKFM@X?$AA@				; `string'
PUBLIC	??_C@_01POHCFINO@Z?$AA@				; `string'
PUBLIC	??_C@_01KICIPPFI@?2?$AA@			; `string'
PUBLIC	??_C@_0L@NFEFKBOL@Left?5Shift?$AA@		; `string'
PUBLIC	??_C@_01NLNLIGKH@?$GA?$AA@			; `string'
PUBLIC	??_C@_01GEODFPGF@?8?$AA@			; `string'
PUBLIC	??_C@_01ICJEACDI@?$DL?$AA@			; `string'
PUBLIC	??_C@_01OCOKONAJ@L?$AA@				; `string'
PUBLIC	??_C@_01KNKLHLMO@K?$AA@				; `string'
PUBLIC	??_C@_01LELAEKIP@J?$AA@				; `string'
PUBLIC	??_C@_01IGIGCIAN@H?$AA@				; `string'
PUBLIC	??_C@_01BBODEMC@G?$AA@				; `string'
PUBLIC	??_C@_01BIAFAFID@F?$AA@				; `string'
PUBLIC	??_C@_01CKDDGHAB@D?$AA@				; `string'
PUBLIC	??_C@_01CPLAODJH@S?$AA@				; `string'
PUBLIC	??_C@_01FHEEJDEE@A?$AA@				; `string'
PUBLIC	??_C@_0N@NMKGAIJ@Left?5Control?$AA@		; `string'
PUBLIC	??_C@_0M@ICALLIHK@Right?5Enter?$AA@		; `string'
PUBLIC	??_C@_01LBDDMOBJ@?$FN?$AA@			; `string'
PUBLIC	??_C@_01OHGJGJJP@?$FL?$AA@			; `string'
PUBLIC	??_C@_01EJNLAFE@P?$AA@				; `string'
PUBLIC	??_C@_01MJMHLOMK@O?$AA@				; `string'
PUBLIC	??_C@_01JPJNBJEM@I?$AA@				; `string'
PUBLIC	??_C@_01HJOKEEBB@U?$AA@				; `string'
PUBLIC	??_C@_01NFFPALBN@Y?$AA@				; `string'
PUBLIC	??_C@_01GAPBHFFA@T?$AA@				; `string'
PUBLIC	??_C@_01DGKLNCNG@R?$AA@				; `string'
PUBLIC	??_C@_01DDCIFGEA@E?$AA@				; `string'
PUBLIC	??_C@_01ELNMCGJD@W?$AA@				; `string'
PUBLIC	??_C@_01BNIGIBBF@Q?$AA@				; `string'
PUBLIC	??_C@_03IEAKBACE@Tab?$AA@			; `string'
PUBLIC	??_C@_09LPBCIPOJ@Backspace?$AA@			; `string'
PUBLIC	??_C@_05MLOMHBGD@?$DN?5Key?$AA@			; `string'
PUBLIC	??_C@_05MIDKHDPI@?9?5Key?$AA@			; `string'
PUBLIC	??_C@_05HHHCGCLN@0?5Key?$AA@			; `string'
PUBLIC	??_C@_05FAHNDDHF@9?5Key?$AA@			; `string'
PUBLIC	??_C@_05JLCBOANA@8?5Key?$AA@			; `string'
PUBLIC	??_C@_05GKHHFCAF@7?5Key?$AA@			; `string'
PUBLIC	??_C@_05KBCLIBKA@6?5Key?$AA@			; `string'
PUBLIC	??_C@_05CHLPPDAO@5?5Key?$AA@			; `string'
PUBLIC	??_C@_05OMODCAKL@4?5Key?$AA@			; `string'
PUBLIC	??_C@_05PBOGBABD@3?5Key?$AA@			; `string'
PUBLIC	??_C@_05DKLKMDLG@2?5Key?$AA@			; `string'
PUBLIC	??_C@_05LMCOLBBI@1?5Key?$AA@			; `string'
PUBLIC	??_C@_06OIGFGPHJ@Escape?$AA@			; `string'
PUBLIC	??_C@_08OFADHOMM@Null?5Key?$AA@			; `string'
PUBLIC	__$ArrayPad$
PUBLIC	??0KeyHandler@@QAE@XZ				; KeyHandler::KeyHandler
EXTRN	___security_cookie:DWORD
EXTRN	@__security_check_cookie@4:PROC
;	COMDAT ??_C@_05FOLLILPC@Thing?$AA@
CONST	SEGMENT
??_C@_05FOLLILPC@Thing?$AA@ DB 'Thing', 00H		; `string'
CONST	ENDS
;	COMDAT ??_C@_0O@IDKBPDPO@Right?5Windows?$AA@
CONST	SEGMENT
??_C@_0O@IDKBPDPO@Right?5Windows?$AA@ DB 'Right Windows', 00H ; `string'
CONST	ENDS
;	COMDAT ??_C@_0N@ILBHIOPE@Left?5Windows?$AA@
CONST	SEGMENT
??_C@_0N@ILBHIOPE@Left?5Windows?$AA@ DB 'Left Windows', 00H ; `string'
CONST	ENDS
;	COMDAT ??_C@_06JBKGCNBB@Delete?$AA@
CONST	SEGMENT
??_C@_06JBKGCNBB@Delete?$AA@ DB 'Delete', 00H		; `string'
CONST	ENDS
;	COMDAT ??_C@_06CPFCODOD@Insert?$AA@
CONST	SEGMENT
??_C@_06CPFCODOD@Insert?$AA@ DB 'Insert', 00H		; `string'
CONST	ENDS
;	COMDAT ??_C@_09IOIDGKNA@Page?5Down?$AA@
CONST	SEGMENT
??_C@_09IOIDGKNA@Page?5Down?$AA@ DB 'Page Down', 00H	; `string'
CONST	ENDS
;	COMDAT ??_C@_04FNCLCJMC@Down?$AA@
CONST	SEGMENT
??_C@_04FNCLCJMC@Down?$AA@ DB 'Down', 00H		; `string'
CONST	ENDS
;	COMDAT ??_C@_03DBKJMAGF@End?$AA@
CONST	SEGMENT
??_C@_03DBKJMAGF@End?$AA@ DB 'End', 00H			; `string'
CONST	ENDS
;	COMDAT ??_C@_05DADPALEM@Right?$AA@
CONST	SEGMENT
??_C@_05DADPALEM@Right?$AA@ DB 'Right', 00H		; `string'
CONST	ENDS
;	COMDAT ??_C@_04KPCPLBPL@Left?$AA@
CONST	SEGMENT
??_C@_04KPCPLBPL@Left?$AA@ DB 'Left', 00H		; `string'
CONST	ENDS
;	COMDAT ??_C@_07EDGDGJEN@Page?5Up?$AA@
CONST	SEGMENT
??_C@_07EDGDGJEN@Page?5Up?$AA@ DB 'Page Up', 00H	; `string'
CONST	ENDS
;	COMDAT ??_C@_02EFPGLDEA@Up?$AA@
CONST	SEGMENT
??_C@_02EFPGLDEA@Up?$AA@ DB 'Up', 00H			; `string'
CONST	ENDS
;	COMDAT ??_C@_04GKJODLKO@Home?$AA@
CONST	SEGMENT
??_C@_04GKJODLKO@Home?$AA@ DB 'Home', 00H		; `string'
CONST	ENDS
;	COMDAT ??_C@_05EMFLFCNO@Break?$AA@
CONST	SEGMENT
??_C@_05EMFLFCNO@Break?$AA@ DB 'Break', 00H		; `string'
CONST	ENDS
;	COMDAT ??_C@_05PEDNBBBD@Pause?$AA@
CONST	SEGMENT
??_C@_05PEDNBBBD@Pause?$AA@ DB 'Pause', 00H		; `string'
CONST	ENDS
;	COMDAT ??_C@_09ELGHIMBO@Right?5Alt?$AA@
CONST	SEGMENT
??_C@_09ELGHIMBO@Right?5Alt?$AA@ DB 'Right Alt', 00H	; `string'
CONST	ENDS
;	COMDAT ??_C@_0N@CHCLIIDE@Print?5Screen?$AA@
CONST	SEGMENT
??_C@_0N@CHCLIIDE@Print?5Screen?$AA@ DB 'Print Screen', 00H ; `string'
CONST	ENDS
;	COMDAT ??_C@_05IAKEFGOE@?1?5Num?$AA@
CONST	SEGMENT
??_C@_05IAKEFGOE@?1?5Num?$AA@ DB '/ Num', 00H		; `string'
CONST	ENDS
;	COMDAT ??_C@_0M@LHBLIFBA@Function?5F3?$AA@
CONST	SEGMENT
??_C@_0M@LHBLIFBA@Function?5F3?$AA@ DB 'Function F3', 00H ; `string'
CONST	ENDS
;	COMDAT ??_C@_0O@FHMBNID@Right?5Control?$AA@
CONST	SEGMENT
??_C@_0O@FHMBNID@Right?5Control?$AA@ DB 'Right Control', 00H ; `string'
CONST	ENDS
;	COMDAT ??_C@_03KIBNPMNE@F12?$AA@
CONST	SEGMENT
??_C@_03KIBNPMNE@F12?$AA@ DB 'F12', 00H			; `string'
CONST	ENDS
;	COMDAT ??_C@_03IDDAKPBH@F11?$AA@
CONST	SEGMENT
??_C@_03IDDAKPBH@F11?$AA@ DB 'F11', 00H			; `string'
CONST	ENDS
;	COMDAT ??_C@_05BAHDBLKA@SysRq?$AA@
CONST	SEGMENT
??_C@_05BAHDBLKA@SysRq?$AA@ DB 'SysRq', 00H		; `string'
CONST	ENDS
;	COMDAT ??_C@_05LAFLDKON@Num?5?4?$AA@
CONST	SEGMENT
??_C@_05LAFLDKON@Num?5?4?$AA@ DB 'Num .', 00H		; `string'
CONST	ENDS
;	COMDAT ??_C@_01GBGANLPD@0?$AA@
CONST	SEGMENT
??_C@_01GBGANLPD@0?$AA@ DB '0', 00H			; `string'
CONST	ENDS
;	COMDAT ??_C@_01EKENIIDA@3?$AA@
CONST	SEGMENT
??_C@_01EKENIIDA@3?$AA@ DB '3', 00H			; `string'
CONST	ENDS
;	COMDAT ??_C@_01FDFGLJHB@2?$AA@
CONST	SEGMENT
??_C@_01FDFGLJHB@2?$AA@ DB '2', 00H			; `string'
CONST	ENDS
;	COMDAT ??_C@_01HIHLOKLC@1?$AA@
CONST	SEGMENT
??_C@_01HIHLOKLC@1?$AA@ DB '1', 00H			; `string'
CONST	ENDS
;	COMDAT ??_C@_01MIFGBAGJ@?$CL?$AA@
CONST	SEGMENT
??_C@_01MIFGBAGJ@?$CL?$AA@ DB '+', 00H			; `string'
CONST	ENDS
;	COMDAT ??_C@_01DHDKHMHF@6?$AA@
CONST	SEGMENT
??_C@_01DHDKHMHF@6?$AA@ DB '6', 00H			; `string'
CONST	ENDS
;	COMDAT ??_C@_01BMBHCPLG@5?$AA@
CONST	SEGMENT
??_C@_01BMBHCPLG@5?$AA@ DB '5', 00H			; `string'
CONST	ENDS
;	COMDAT ??_C@_01FAMBOPH@4?$AA@
CONST	SEGMENT
??_C@_01FAMBOPH@4?$AA@ DB '4', 00H			; `string'
CONST	ENDS
;	COMDAT ??_C@_01JOAMLHOP@?9?$AA@
CONST	SEGMENT
??_C@_01JOAMLHOP@?9?$AA@ DB '-', 00H			; `string'
CONST	ENDS
;	COMDAT ??_C@_01LAKCGALK@9?$AA@
CONST	SEGMENT
??_C@_01LAKCGALK@9?$AA@ DB '9', 00H			; `string'
CONST	ENDS
;	COMDAT ??_C@_01KJLJFBPL@8?$AA@
CONST	SEGMENT
??_C@_01KJLJFBPL@8?$AA@ DB '8', 00H			; `string'
CONST	ENDS
;	COMDAT ??_C@_01COCBENDE@7?$AA@
CONST	SEGMENT
??_C@_01COCBENDE@7?$AA@ DB '7', 00H			; `string'
CONST	ENDS
;	COMDAT ??_C@_08DEAFBBCL@Num?5Lock?$AA@
CONST	SEGMENT
??_C@_08DEAFBBCL@Num?5Lock?$AA@ DB 'Num Lock', 00H	; `string'
CONST	ENDS
;	COMDAT ??_C@_03JKCLJOFG@F10?$AA@
CONST	SEGMENT
??_C@_03JKCLJOFG@F10?$AA@ DB 'F10', 00H			; `string'
CONST	ENDS
;	COMDAT ??_C@_02HKCNFKCF@F9?$AA@
CONST	SEGMENT
??_C@_02HKCNFKCF@F9?$AA@ DB 'F9', 00H			; `string'
CONST	ENDS
;	COMDAT ??_C@_02GDDGGLGE@F8?$AA@
CONST	SEGMENT
??_C@_02GDDGGLGE@F8?$AA@ DB 'F8', 00H			; `string'
CONST	ENDS
;	COMDAT ??_C@_02OEKOHHKL@F7?$AA@
CONST	SEGMENT
??_C@_02OEKOHHKL@F7?$AA@ DB 'F7', 00H			; `string'
CONST	ENDS
;	COMDAT ??_C@_02PNLFEGOK@F6?$AA@
CONST	SEGMENT
??_C@_02PNLFEGOK@F6?$AA@ DB 'F6', 00H			; `string'
CONST	ENDS
;	COMDAT ??_C@_02NGJIBFCJ@F5?$AA@
CONST	SEGMENT
??_C@_02NGJIBFCJ@F5?$AA@ DB 'F5', 00H			; `string'
CONST	ENDS
;	COMDAT ??_C@_02MPIDCEGI@F4?$AA@
CONST	SEGMENT
??_C@_02MPIDCEGI@F4?$AA@ DB 'F4', 00H			; `string'
CONST	ENDS
;	COMDAT ??_C@_02IAMCLCKP@F3?$AA@
CONST	SEGMENT
??_C@_02IAMCLCKP@F3?$AA@ DB 'F3', 00H			; `string'
CONST	ENDS
;	COMDAT ??_C@_02JJNJIDOO@F2?$AA@
CONST	SEGMENT
??_C@_02JJNJIDOO@F2?$AA@ DB 'F2', 00H			; `string'
CONST	ENDS
;	COMDAT ??_C@_02LCPENACN@F1?$AA@
CONST	SEGMENT
??_C@_02LCPENACN@F1?$AA@ DB 'F1', 00H			; `string'
CONST	ENDS
;	COMDAT ??_C@_09GGECHFNF@Caps?5Lock?$AA@
CONST	SEGMENT
??_C@_09GGECHFNF@Caps?5Lock?$AA@ DB 'Caps Lock', 00H	; `string'
CONST	ENDS
;	COMDAT ??_C@_05OMHELODH@Space?$AA@
CONST	SEGMENT
??_C@_05OMHELODH@Space?$AA@ DB 'Space', 00H		; `string'
CONST	ENDS
;	COMDAT ??_C@_08CJHJBNHP@Left?5Alt?$AA@
CONST	SEGMENT
??_C@_08CJHJBNHP@Left?5Alt?$AA@ DB 'Left Alt', 00H	; `string'
CONST	ENDS
;	COMDAT ??_C@_01NBENCBCI@?$CK?$AA@
CONST	SEGMENT
??_C@_01NBENCBCI@?$CK?$AA@ DB '*', 00H			; `string'
CONST	ENDS
;	COMDAT ??_C@_0M@COKLDKMB@Right?5Shift?$AA@
CONST	SEGMENT
??_C@_0M@COKLDKMB@Right?5Shift?$AA@ DB 'Right Shift', 00H ; `string'
CONST	ENDS
;	COMDAT ??_C@_01KMDKNFGN@?1?$AA@
CONST	SEGMENT
??_C@_01KMDKNFGN@?1?$AA@ DB '/', 00H			; `string'
CONST	ENDS
;	COMDAT ??_C@_01LFCBOECM@?4?$AA@
CONST	SEGMENT
??_C@_01LFCBOECM@?4?$AA@ DB '.', 00H			; `string'
CONST	ENDS
;	COMDAT ??_C@_01IHBHIGKO@?0?$AA@
CONST	SEGMENT
??_C@_01IHBHIGKO@?0?$AA@ DB ',', 00H			; `string'
CONST	ENDS
;	COMDAT ??_C@_01PLPBNMEI@M?$AA@
CONST	SEGMENT
??_C@_01PLPBNMEI@M?$AA@ DB 'M', 00H			; `string'
CONST	ENDS
;	COMDAT ??_C@_01NANMIPIL@N?$AA@
CONST	SEGMENT
??_C@_01NANMIPIL@N?$AA@ DB 'N', 00H			; `string'
CONST	ENDS
;	COMDAT ??_C@_01HMGJMAIH@B?$AA@
CONST	SEGMENT
??_C@_01HMGJMAIH@B?$AA@ DB 'B', 00H			; `string'
CONST	ENDS
;	COMDAT ??_C@_01FCMHBHNC@V?$AA@
CONST	SEGMENT
??_C@_01FCMHBHNC@V?$AA@ DB 'V', 00H			; `string'
CONST	ENDS
;	COMDAT ??_C@_01GFHCPBMG@C?$AA@
CONST	SEGMENT
??_C@_01GFHCPBMG@C?$AA@ DB 'C', 00H			; `string'
CONST	ENDS
;	COMDAT ??_C@_01MMEEDKFM@X?$AA@
CONST	SEGMENT
??_C@_01MMEEDKFM@X?$AA@ DB 'X', 00H			; `string'
CONST	ENDS
;	COMDAT ??_C@_01POHCFINO@Z?$AA@
CONST	SEGMENT
??_C@_01POHCFINO@Z?$AA@ DB 'Z', 00H			; `string'
CONST	ENDS
;	COMDAT ??_C@_01KICIPPFI@?2?$AA@
CONST	SEGMENT
??_C@_01KICIPPFI@?2?$AA@ DB '\', 00H			; `string'
CONST	ENDS
;	COMDAT ??_C@_0L@NFEFKBOL@Left?5Shift?$AA@
CONST	SEGMENT
??_C@_0L@NFEFKBOL@Left?5Shift?$AA@ DB 'Left Shift', 00H	; `string'
CONST	ENDS
;	COMDAT ??_C@_01NLNLIGKH@?$GA?$AA@
CONST	SEGMENT
??_C@_01NLNLIGKH@?$GA?$AA@ DB '`', 00H			; `string'
CONST	ENDS
;	COMDAT ??_C@_01GEODFPGF@?8?$AA@
CONST	SEGMENT
??_C@_01GEODFPGF@?8?$AA@ DB '''', 00H			; `string'
CONST	ENDS
;	COMDAT ??_C@_01ICJEACDI@?$DL?$AA@
CONST	SEGMENT
??_C@_01ICJEACDI@?$DL?$AA@ DB ';', 00H			; `string'
CONST	ENDS
;	COMDAT ??_C@_01OCOKONAJ@L?$AA@
CONST	SEGMENT
??_C@_01OCOKONAJ@L?$AA@ DB 'L', 00H			; `string'
CONST	ENDS
;	COMDAT ??_C@_01KNKLHLMO@K?$AA@
CONST	SEGMENT
??_C@_01KNKLHLMO@K?$AA@ DB 'K', 00H			; `string'
CONST	ENDS
;	COMDAT ??_C@_01LELAEKIP@J?$AA@
CONST	SEGMENT
??_C@_01LELAEKIP@J?$AA@ DB 'J', 00H			; `string'
CONST	ENDS
;	COMDAT ??_C@_01IGIGCIAN@H?$AA@
CONST	SEGMENT
??_C@_01IGIGCIAN@H?$AA@ DB 'H', 00H			; `string'
CONST	ENDS
;	COMDAT ??_C@_01BBODEMC@G?$AA@
CONST	SEGMENT
??_C@_01BBODEMC@G?$AA@ DB 'G', 00H			; `string'
CONST	ENDS
;	COMDAT ??_C@_01BIAFAFID@F?$AA@
CONST	SEGMENT
??_C@_01BIAFAFID@F?$AA@ DB 'F', 00H			; `string'
CONST	ENDS
;	COMDAT ??_C@_01CKDDGHAB@D?$AA@
CONST	SEGMENT
??_C@_01CKDDGHAB@D?$AA@ DB 'D', 00H			; `string'
CONST	ENDS
;	COMDAT ??_C@_01CPLAODJH@S?$AA@
CONST	SEGMENT
??_C@_01CPLAODJH@S?$AA@ DB 'S', 00H			; `string'
CONST	ENDS
;	COMDAT ??_C@_01FHEEJDEE@A?$AA@
CONST	SEGMENT
??_C@_01FHEEJDEE@A?$AA@ DB 'A', 00H			; `string'
CONST	ENDS
;	COMDAT ??_C@_0N@NMKGAIJ@Left?5Control?$AA@
CONST	SEGMENT
??_C@_0N@NMKGAIJ@Left?5Control?$AA@ DB 'Left Control', 00H ; `string'
CONST	ENDS
;	COMDAT ??_C@_0M@ICALLIHK@Right?5Enter?$AA@
CONST	SEGMENT
??_C@_0M@ICALLIHK@Right?5Enter?$AA@ DB 'Right Enter', 00H ; `string'
CONST	ENDS
;	COMDAT ??_C@_01LBDDMOBJ@?$FN?$AA@
CONST	SEGMENT
??_C@_01LBDDMOBJ@?$FN?$AA@ DB ']', 00H			; `string'
CONST	ENDS
;	COMDAT ??_C@_01OHGJGJJP@?$FL?$AA@
CONST	SEGMENT
??_C@_01OHGJGJJP@?$FL?$AA@ DB '[', 00H			; `string'
CONST	ENDS
;	COMDAT ??_C@_01EJNLAFE@P?$AA@
CONST	SEGMENT
??_C@_01EJNLAFE@P?$AA@ DB 'P', 00H			; `string'
CONST	ENDS
;	COMDAT ??_C@_01MJMHLOMK@O?$AA@
CONST	SEGMENT
??_C@_01MJMHLOMK@O?$AA@ DB 'O', 00H			; `string'
CONST	ENDS
;	COMDAT ??_C@_01JPJNBJEM@I?$AA@
CONST	SEGMENT
??_C@_01JPJNBJEM@I?$AA@ DB 'I', 00H			; `string'
CONST	ENDS
;	COMDAT ??_C@_01HJOKEEBB@U?$AA@
CONST	SEGMENT
??_C@_01HJOKEEBB@U?$AA@ DB 'U', 00H			; `string'
CONST	ENDS
;	COMDAT ??_C@_01NFFPALBN@Y?$AA@
CONST	SEGMENT
??_C@_01NFFPALBN@Y?$AA@ DB 'Y', 00H			; `string'
CONST	ENDS
;	COMDAT ??_C@_01GAPBHFFA@T?$AA@
CONST	SEGMENT
??_C@_01GAPBHFFA@T?$AA@ DB 'T', 00H			; `string'
CONST	ENDS
;	COMDAT ??_C@_01DGKLNCNG@R?$AA@
CONST	SEGMENT
??_C@_01DGKLNCNG@R?$AA@ DB 'R', 00H			; `string'
CONST	ENDS
;	COMDAT ??_C@_01DDCIFGEA@E?$AA@
CONST	SEGMENT
??_C@_01DDCIFGEA@E?$AA@ DB 'E', 00H			; `string'
CONST	ENDS
;	COMDAT ??_C@_01ELNMCGJD@W?$AA@
CONST	SEGMENT
??_C@_01ELNMCGJD@W?$AA@ DB 'W', 00H			; `string'
CONST	ENDS
;	COMDAT ??_C@_01BNIGIBBF@Q?$AA@
CONST	SEGMENT
??_C@_01BNIGIBBF@Q?$AA@ DB 'Q', 00H			; `string'
CONST	ENDS
;	COMDAT ??_C@_03IEAKBACE@Tab?$AA@
CONST	SEGMENT
??_C@_03IEAKBACE@Tab?$AA@ DB 'Tab', 00H			; `string'
CONST	ENDS
;	COMDAT ??_C@_09LPBCIPOJ@Backspace?$AA@
CONST	SEGMENT
??_C@_09LPBCIPOJ@Backspace?$AA@ DB 'Backspace', 00H	; `string'
CONST	ENDS
;	COMDAT ??_C@_05MLOMHBGD@?$DN?5Key?$AA@
CONST	SEGMENT
??_C@_05MLOMHBGD@?$DN?5Key?$AA@ DB '= Key', 00H		; `string'
CONST	ENDS
;	COMDAT ??_C@_05MIDKHDPI@?9?5Key?$AA@
CONST	SEGMENT
??_C@_05MIDKHDPI@?9?5Key?$AA@ DB '- Key', 00H		; `string'
CONST	ENDS
;	COMDAT ??_C@_05HHHCGCLN@0?5Key?$AA@
CONST	SEGMENT
??_C@_05HHHCGCLN@0?5Key?$AA@ DB '0 Key', 00H		; `string'
CONST	ENDS
;	COMDAT ??_C@_05FAHNDDHF@9?5Key?$AA@
CONST	SEGMENT
??_C@_05FAHNDDHF@9?5Key?$AA@ DB '9 Key', 00H		; `string'
CONST	ENDS
;	COMDAT ??_C@_05JLCBOANA@8?5Key?$AA@
CONST	SEGMENT
??_C@_05JLCBOANA@8?5Key?$AA@ DB '8 Key', 00H		; `string'
CONST	ENDS
;	COMDAT ??_C@_05GKHHFCAF@7?5Key?$AA@
CONST	SEGMENT
??_C@_05GKHHFCAF@7?5Key?$AA@ DB '7 Key', 00H		; `string'
CONST	ENDS
;	COMDAT ??_C@_05KBCLIBKA@6?5Key?$AA@
CONST	SEGMENT
??_C@_05KBCLIBKA@6?5Key?$AA@ DB '6 Key', 00H		; `string'
CONST	ENDS
;	COMDAT ??_C@_05CHLPPDAO@5?5Key?$AA@
CONST	SEGMENT
??_C@_05CHLPPDAO@5?5Key?$AA@ DB '5 Key', 00H		; `string'
CONST	ENDS
;	COMDAT ??_C@_05OMODCAKL@4?5Key?$AA@
CONST	SEGMENT
??_C@_05OMODCAKL@4?5Key?$AA@ DB '4 Key', 00H		; `string'
CONST	ENDS
;	COMDAT ??_C@_05PBOGBABD@3?5Key?$AA@
CONST	SEGMENT
??_C@_05PBOGBABD@3?5Key?$AA@ DB '3 Key', 00H		; `string'
CONST	ENDS
;	COMDAT ??_C@_05DKLKMDLG@2?5Key?$AA@
CONST	SEGMENT
??_C@_05DKLKMDLG@2?5Key?$AA@ DB '2 Key', 00H		; `string'
CONST	ENDS
;	COMDAT ??_C@_05LMCOLBBI@1?5Key?$AA@
CONST	SEGMENT
??_C@_05LMCOLBBI@1?5Key?$AA@ DB '1 Key', 00H		; `string'
CONST	ENDS
;	COMDAT ??_C@_06OIGFGPHJ@Escape?$AA@
CONST	SEGMENT
??_C@_06OIGFGPHJ@Escape?$AA@ DB 'Escape', 00H		; `string'
CONST	ENDS
;	COMDAT ??_C@_08OFADHOMM@Null?5Key?$AA@
CONST	SEGMENT
??_C@_08OFADHOMM@Null?5Key?$AA@ DB 'Null Key', 00H	; `string'
; Function compile flags: /Odtp /ZI
CONST	ENDS
;	COMDAT ??0KeyHandler@@QAE@XZ
_TEXT	SEGMENT
_i$91488 = -3620					; size = 4
_j$91484 = -3616					; size = 4
_i$91480 = -3612					; size = 4
_Temp$ = -3608						; size = 3598
_this$ = -8						; size = 4
__$ArrayPad$ = -4					; size = 4
??0KeyHandler@@QAE@XZ PROC				; KeyHandler::KeyHandler, COMDAT
; _this$ = ecx

; 539  : {

	push	ebp
	mov	ebp, esp
	sub	esp, 3684				; 00000e64H
	mov	eax, DWORD PTR ___security_cookie
	xor	eax, ebp
	mov	DWORD PTR __$ArrayPad$[ebp], eax
	push	ebx
	push	esi
	push	edi
	mov	DWORD PTR _this$[ebp], ecx

; 540  : 	char Temp[257][14]={"Null Key","Escape","1 Key","2 Key","3 Key","4 Key","5 Key","6 Key","7 Key","8 Key","9 Key","0 Key","- Key","= Key","Backspace","Tab","Q",

	mov	eax, DWORD PTR ??_C@_08OFADHOMM@Null?5Key?$AA@
	mov	DWORD PTR _Temp$[ebp], eax
	mov	ecx, DWORD PTR ??_C@_08OFADHOMM@Null?5Key?$AA@+4
	mov	DWORD PTR _Temp$[ebp+4], ecx
	mov	dl, BYTE PTR ??_C@_08OFADHOMM@Null?5Key?$AA@+8
	mov	BYTE PTR _Temp$[ebp+8], dl
	xor	eax, eax
	mov	DWORD PTR _Temp$[ebp+9], eax
	mov	BYTE PTR _Temp$[ebp+13], al
	mov	eax, DWORD PTR ??_C@_06OIGFGPHJ@Escape?$AA@
	mov	DWORD PTR _Temp$[ebp+14], eax
	mov	cx, WORD PTR ??_C@_06OIGFGPHJ@Escape?$AA@+4
	mov	WORD PTR _Temp$[ebp+18], cx
	mov	dl, BYTE PTR ??_C@_06OIGFGPHJ@Escape?$AA@+6
	mov	BYTE PTR _Temp$[ebp+20], dl
	xor	eax, eax
	mov	DWORD PTR _Temp$[ebp+21], eax
	mov	WORD PTR _Temp$[ebp+25], ax
	mov	BYTE PTR _Temp$[ebp+27], al
	mov	eax, DWORD PTR ??_C@_05LMCOLBBI@1?5Key?$AA@
	mov	DWORD PTR _Temp$[ebp+28], eax
	mov	cx, WORD PTR ??_C@_05LMCOLBBI@1?5Key?$AA@+4
	mov	WORD PTR _Temp$[ebp+32], cx
	xor	eax, eax
	mov	DWORD PTR _Temp$[ebp+34], eax
	mov	DWORD PTR _Temp$[ebp+38], eax
	mov	eax, DWORD PTR ??_C@_05DKLKMDLG@2?5Key?$AA@
	mov	DWORD PTR _Temp$[ebp+42], eax
	mov	cx, WORD PTR ??_C@_05DKLKMDLG@2?5Key?$AA@+4
	mov	WORD PTR _Temp$[ebp+46], cx
	xor	eax, eax
	mov	DWORD PTR _Temp$[ebp+48], eax
	mov	DWORD PTR _Temp$[ebp+52], eax
	mov	eax, DWORD PTR ??_C@_05PBOGBABD@3?5Key?$AA@
	mov	DWORD PTR _Temp$[ebp+56], eax
	mov	cx, WORD PTR ??_C@_05PBOGBABD@3?5Key?$AA@+4
	mov	WORD PTR _Temp$[ebp+60], cx
	xor	eax, eax
	mov	DWORD PTR _Temp$[ebp+62], eax
	mov	DWORD PTR _Temp$[ebp+66], eax
	mov	eax, DWORD PTR ??_C@_05OMODCAKL@4?5Key?$AA@
	mov	DWORD PTR _Temp$[ebp+70], eax
	mov	cx, WORD PTR ??_C@_05OMODCAKL@4?5Key?$AA@+4
	mov	WORD PTR _Temp$[ebp+74], cx
	xor	eax, eax
	mov	DWORD PTR _Temp$[ebp+76], eax
	mov	DWORD PTR _Temp$[ebp+80], eax
	mov	eax, DWORD PTR ??_C@_05CHLPPDAO@5?5Key?$AA@
	mov	DWORD PTR _Temp$[ebp+84], eax
	mov	cx, WORD PTR ??_C@_05CHLPPDAO@5?5Key?$AA@+4
	mov	WORD PTR _Temp$[ebp+88], cx
	xor	eax, eax
	mov	DWORD PTR _Temp$[ebp+90], eax
	mov	DWORD PTR _Temp$[ebp+94], eax
	mov	eax, DWORD PTR ??_C@_05KBCLIBKA@6?5Key?$AA@
	mov	DWORD PTR _Temp$[ebp+98], eax
	mov	cx, WORD PTR ??_C@_05KBCLIBKA@6?5Key?$AA@+4
	mov	WORD PTR _Temp$[ebp+102], cx
	xor	eax, eax
	mov	DWORD PTR _Temp$[ebp+104], eax
	mov	DWORD PTR _Temp$[ebp+108], eax
	mov	eax, DWORD PTR ??_C@_05GKHHFCAF@7?5Key?$AA@
	mov	DWORD PTR _Temp$[ebp+112], eax
	mov	cx, WORD PTR ??_C@_05GKHHFCAF@7?5Key?$AA@+4
	mov	WORD PTR _Temp$[ebp+116], cx
	xor	eax, eax
	mov	DWORD PTR _Temp$[ebp+118], eax
	mov	DWORD PTR _Temp$[ebp+122], eax
	mov	eax, DWORD PTR ??_C@_05JLCBOANA@8?5Key?$AA@
	mov	DWORD PTR _Temp$[ebp+126], eax
	mov	cx, WORD PTR ??_C@_05JLCBOANA@8?5Key?$AA@+4
	mov	WORD PTR _Temp$[ebp+130], cx
	xor	eax, eax
	mov	DWORD PTR _Temp$[ebp+132], eax
	mov	DWORD PTR _Temp$[ebp+136], eax
	mov	eax, DWORD PTR ??_C@_05FAHNDDHF@9?5Key?$AA@
	mov	DWORD PTR _Temp$[ebp+140], eax
	mov	cx, WORD PTR ??_C@_05FAHNDDHF@9?5Key?$AA@+4
	mov	WORD PTR _Temp$[ebp+144], cx
	xor	eax, eax
	mov	DWORD PTR _Temp$[ebp+146], eax
	mov	DWORD PTR _Temp$[ebp+150], eax
	mov	eax, DWORD PTR ??_C@_05HHHCGCLN@0?5Key?$AA@
	mov	DWORD PTR _Temp$[ebp+154], eax
	mov	cx, WORD PTR ??_C@_05HHHCGCLN@0?5Key?$AA@+4
	mov	WORD PTR _Temp$[ebp+158], cx
	xor	eax, eax
	mov	DWORD PTR _Temp$[ebp+160], eax
	mov	DWORD PTR _Temp$[ebp+164], eax
	mov	eax, DWORD PTR ??_C@_05MIDKHDPI@?9?5Key?$AA@
	mov	DWORD PTR _Temp$[ebp+168], eax
	mov	cx, WORD PTR ??_C@_05MIDKHDPI@?9?5Key?$AA@+4
	mov	WORD PTR _Temp$[ebp+172], cx
	xor	eax, eax
	mov	DWORD PTR _Temp$[ebp+174], eax
	mov	DWORD PTR _Temp$[ebp+178], eax
	mov	eax, DWORD PTR ??_C@_05MLOMHBGD@?$DN?5Key?$AA@
	mov	DWORD PTR _Temp$[ebp+182], eax
	mov	cx, WORD PTR ??_C@_05MLOMHBGD@?$DN?5Key?$AA@+4
	mov	WORD PTR _Temp$[ebp+186], cx
	xor	eax, eax
	mov	DWORD PTR _Temp$[ebp+188], eax
	mov	DWORD PTR _Temp$[ebp+192], eax
	mov	eax, DWORD PTR ??_C@_09LPBCIPOJ@Backspace?$AA@
	mov	DWORD PTR _Temp$[ebp+196], eax
	mov	ecx, DWORD PTR ??_C@_09LPBCIPOJ@Backspace?$AA@+4
	mov	DWORD PTR _Temp$[ebp+200], ecx
	mov	dx, WORD PTR ??_C@_09LPBCIPOJ@Backspace?$AA@+8
	mov	WORD PTR _Temp$[ebp+204], dx
	xor	eax, eax
	mov	DWORD PTR _Temp$[ebp+206], eax
	mov	eax, DWORD PTR ??_C@_03IEAKBACE@Tab?$AA@
	mov	DWORD PTR _Temp$[ebp+210], eax
	xor	eax, eax
	mov	DWORD PTR _Temp$[ebp+214], eax
	mov	DWORD PTR _Temp$[ebp+218], eax
	mov	WORD PTR _Temp$[ebp+222], ax
	mov	ax, WORD PTR ??_C@_01BNIGIBBF@Q?$AA@
	mov	WORD PTR _Temp$[ebp+224], ax
	xor	eax, eax
	mov	DWORD PTR _Temp$[ebp+226], eax
	mov	DWORD PTR _Temp$[ebp+230], eax
	mov	DWORD PTR _Temp$[ebp+234], eax

; 541  : 				  "W","E","R","T","Y","U","I","O","P","[","]","Right Enter","Left Control","A","S","D",

	mov	ax, WORD PTR ??_C@_01ELNMCGJD@W?$AA@
	mov	WORD PTR _Temp$[ebp+238], ax
	xor	eax, eax
	mov	DWORD PTR _Temp$[ebp+240], eax
	mov	DWORD PTR _Temp$[ebp+244], eax
	mov	DWORD PTR _Temp$[ebp+248], eax
	mov	ax, WORD PTR ??_C@_01DDCIFGEA@E?$AA@
	mov	WORD PTR _Temp$[ebp+252], ax
	xor	eax, eax
	mov	DWORD PTR _Temp$[ebp+254], eax
	mov	DWORD PTR _Temp$[ebp+258], eax
	mov	DWORD PTR _Temp$[ebp+262], eax
	mov	ax, WORD PTR ??_C@_01DGKLNCNG@R?$AA@
	mov	WORD PTR _Temp$[ebp+266], ax
	xor	eax, eax
	mov	DWORD PTR _Temp$[ebp+268], eax
	mov	DWORD PTR _Temp$[ebp+272], eax
	mov	DWORD PTR _Temp$[ebp+276], eax
	mov	ax, WORD PTR ??_C@_01GAPBHFFA@T?$AA@
	mov	WORD PTR _Temp$[ebp+280], ax
	xor	eax, eax
	mov	DWORD PTR _Temp$[ebp+282], eax
	mov	DWORD PTR _Temp$[ebp+286], eax
	mov	DWORD PTR _Temp$[ebp+290], eax
	mov	ax, WORD PTR ??_C@_01NFFPALBN@Y?$AA@
	mov	WORD PTR _Temp$[ebp+294], ax
	xor	eax, eax
	mov	DWORD PTR _Temp$[ebp+296], eax
	mov	DWORD PTR _Temp$[ebp+300], eax
	mov	DWORD PTR _Temp$[ebp+304], eax
	mov	ax, WORD PTR ??_C@_01HJOKEEBB@U?$AA@
	mov	WORD PTR _Temp$[ebp+308], ax
	xor	eax, eax
	mov	DWORD PTR _Temp$[ebp+310], eax
	mov	DWORD PTR _Temp$[ebp+314], eax
	mov	DWORD PTR _Temp$[ebp+318], eax
	mov	ax, WORD PTR ??_C@_01JPJNBJEM@I?$AA@
	mov	WORD PTR _Temp$[ebp+322], ax
	xor	eax, eax
	mov	DWORD PTR _Temp$[ebp+324], eax
	mov	DWORD PTR _Temp$[ebp+328], eax
	mov	DWORD PTR _Temp$[ebp+332], eax
	mov	ax, WORD PTR ??_C@_01MJMHLOMK@O?$AA@
	mov	WORD PTR _Temp$[ebp+336], ax
	xor	eax, eax
	mov	DWORD PTR _Temp$[ebp+338], eax
	mov	DWORD PTR _Temp$[ebp+342], eax
	mov	DWORD PTR _Temp$[ebp+346], eax
	mov	ax, WORD PTR ??_C@_01EJNLAFE@P?$AA@
	mov	WORD PTR _Temp$[ebp+350], ax
	xor	eax, eax
	mov	DWORD PTR _Temp$[ebp+352], eax
	mov	DWORD PTR _Temp$[ebp+356], eax
	mov	DWORD PTR _Temp$[ebp+360], eax
	mov	ax, WORD PTR ??_C@_01OHGJGJJP@?$FL?$AA@
	mov	WORD PTR _Temp$[ebp+364], ax
	xor	eax, eax
	mov	DWORD PTR _Temp$[ebp+366], eax
	mov	DWORD PTR _Temp$[ebp+370], eax
	mov	DWORD PTR _Temp$[ebp+374], eax
	mov	ax, WORD PTR ??_C@_01LBDDMOBJ@?$FN?$AA@
	mov	WORD PTR _Temp$[ebp+378], ax
	xor	eax, eax
	mov	DWORD PTR _Temp$[ebp+380], eax
	mov	DWORD PTR _Temp$[ebp+384], eax
	mov	DWORD PTR _Temp$[ebp+388], eax
	mov	eax, DWORD PTR ??_C@_0M@ICALLIHK@Right?5Enter?$AA@
	mov	DWORD PTR _Temp$[ebp+392], eax
	mov	ecx, DWORD PTR ??_C@_0M@ICALLIHK@Right?5Enter?$AA@+4
	mov	DWORD PTR _Temp$[ebp+396], ecx
	mov	edx, DWORD PTR ??_C@_0M@ICALLIHK@Right?5Enter?$AA@+8
	mov	DWORD PTR _Temp$[ebp+400], edx
	xor	eax, eax
	mov	WORD PTR _Temp$[ebp+404], ax
	mov	eax, DWORD PTR ??_C@_0N@NMKGAIJ@Left?5Control?$AA@
	mov	DWORD PTR _Temp$[ebp+406], eax
	mov	ecx, DWORD PTR ??_C@_0N@NMKGAIJ@Left?5Control?$AA@+4
	mov	DWORD PTR _Temp$[ebp+410], ecx
	mov	edx, DWORD PTR ??_C@_0N@NMKGAIJ@Left?5Control?$AA@+8
	mov	DWORD PTR _Temp$[ebp+414], edx
	mov	al, BYTE PTR ??_C@_0N@NMKGAIJ@Left?5Control?$AA@+12
	mov	BYTE PTR _Temp$[ebp+418], al
	xor	eax, eax
	mov	BYTE PTR _Temp$[ebp+419], al
	mov	ax, WORD PTR ??_C@_01FHEEJDEE@A?$AA@
	mov	WORD PTR _Temp$[ebp+420], ax
	xor	eax, eax
	mov	DWORD PTR _Temp$[ebp+422], eax
	mov	DWORD PTR _Temp$[ebp+426], eax
	mov	DWORD PTR _Temp$[ebp+430], eax
	mov	ax, WORD PTR ??_C@_01CPLAODJH@S?$AA@
	mov	WORD PTR _Temp$[ebp+434], ax
	xor	eax, eax
	mov	DWORD PTR _Temp$[ebp+436], eax
	mov	DWORD PTR _Temp$[ebp+440], eax
	mov	DWORD PTR _Temp$[ebp+444], eax
	mov	ax, WORD PTR ??_C@_01CKDDGHAB@D?$AA@
	mov	WORD PTR _Temp$[ebp+448], ax
	xor	eax, eax
	mov	DWORD PTR _Temp$[ebp+450], eax
	mov	DWORD PTR _Temp$[ebp+454], eax
	mov	DWORD PTR _Temp$[ebp+458], eax

; 542  : 				  "F","G","H","J","K","L",";","\'","`","Left Shift","\\","Z","X","C","V","B",

	mov	ax, WORD PTR ??_C@_01BIAFAFID@F?$AA@
	mov	WORD PTR _Temp$[ebp+462], ax
	xor	eax, eax
	mov	DWORD PTR _Temp$[ebp+464], eax
	mov	DWORD PTR _Temp$[ebp+468], eax
	mov	DWORD PTR _Temp$[ebp+472], eax
	mov	ax, WORD PTR ??_C@_01BBODEMC@G?$AA@
	mov	WORD PTR _Temp$[ebp+476], ax
	xor	eax, eax
	mov	DWORD PTR _Temp$[ebp+478], eax
	mov	DWORD PTR _Temp$[ebp+482], eax
	mov	DWORD PTR _Temp$[ebp+486], eax
	mov	ax, WORD PTR ??_C@_01IGIGCIAN@H?$AA@
	mov	WORD PTR _Temp$[ebp+490], ax
	xor	eax, eax
	mov	DWORD PTR _Temp$[ebp+492], eax
	mov	DWORD PTR _Temp$[ebp+496], eax
	mov	DWORD PTR _Temp$[ebp+500], eax
	mov	ax, WORD PTR ??_C@_01LELAEKIP@J?$AA@
	mov	WORD PTR _Temp$[ebp+504], ax
	xor	eax, eax
	mov	DWORD PTR _Temp$[ebp+506], eax
	mov	DWORD PTR _Temp$[ebp+510], eax
	mov	DWORD PTR _Temp$[ebp+514], eax
	mov	ax, WORD PTR ??_C@_01KNKLHLMO@K?$AA@
	mov	WORD PTR _Temp$[ebp+518], ax
	xor	eax, eax
	mov	DWORD PTR _Temp$[ebp+520], eax
	mov	DWORD PTR _Temp$[ebp+524], eax
	mov	DWORD PTR _Temp$[ebp+528], eax
	mov	ax, WORD PTR ??_C@_01OCOKONAJ@L?$AA@
	mov	WORD PTR _Temp$[ebp+532], ax
	xor	eax, eax
	mov	DWORD PTR _Temp$[ebp+534], eax
	mov	DWORD PTR _Temp$[ebp+538], eax
	mov	DWORD PTR _Temp$[ebp+542], eax
	mov	ax, WORD PTR ??_C@_01ICJEACDI@?$DL?$AA@
	mov	WORD PTR _Temp$[ebp+546], ax
	xor	eax, eax
	mov	DWORD PTR _Temp$[ebp+548], eax
	mov	DWORD PTR _Temp$[ebp+552], eax
	mov	DWORD PTR _Temp$[ebp+556], eax
	mov	ax, WORD PTR ??_C@_01GEODFPGF@?8?$AA@
	mov	WORD PTR _Temp$[ebp+560], ax
	xor	eax, eax
	mov	DWORD PTR _Temp$[ebp+562], eax
	mov	DWORD PTR _Temp$[ebp+566], eax
	mov	DWORD PTR _Temp$[ebp+570], eax
	mov	ax, WORD PTR ??_C@_01NLNLIGKH@?$GA?$AA@
	mov	WORD PTR _Temp$[ebp+574], ax
	xor	eax, eax
	mov	DWORD PTR _Temp$[ebp+576], eax
	mov	DWORD PTR _Temp$[ebp+580], eax
	mov	DWORD PTR _Temp$[ebp+584], eax
	mov	eax, DWORD PTR ??_C@_0L@NFEFKBOL@Left?5Shift?$AA@
	mov	DWORD PTR _Temp$[ebp+588], eax
	mov	ecx, DWORD PTR ??_C@_0L@NFEFKBOL@Left?5Shift?$AA@+4
	mov	DWORD PTR _Temp$[ebp+592], ecx
	mov	dx, WORD PTR ??_C@_0L@NFEFKBOL@Left?5Shift?$AA@+8
	mov	WORD PTR _Temp$[ebp+596], dx
	mov	al, BYTE PTR ??_C@_0L@NFEFKBOL@Left?5Shift?$AA@+10
	mov	BYTE PTR _Temp$[ebp+598], al
	xor	eax, eax
	mov	WORD PTR _Temp$[ebp+599], ax
	mov	BYTE PTR _Temp$[ebp+601], al
	mov	ax, WORD PTR ??_C@_01KICIPPFI@?2?$AA@
	mov	WORD PTR _Temp$[ebp+602], ax
	xor	eax, eax
	mov	DWORD PTR _Temp$[ebp+604], eax
	mov	DWORD PTR _Temp$[ebp+608], eax
	mov	DWORD PTR _Temp$[ebp+612], eax
	mov	ax, WORD PTR ??_C@_01POHCFINO@Z?$AA@
	mov	WORD PTR _Temp$[ebp+616], ax
	xor	eax, eax
	mov	DWORD PTR _Temp$[ebp+618], eax
	mov	DWORD PTR _Temp$[ebp+622], eax
	mov	DWORD PTR _Temp$[ebp+626], eax
	mov	ax, WORD PTR ??_C@_01MMEEDKFM@X?$AA@
	mov	WORD PTR _Temp$[ebp+630], ax
	xor	eax, eax
	mov	DWORD PTR _Temp$[ebp+632], eax
	mov	DWORD PTR _Temp$[ebp+636], eax
	mov	DWORD PTR _Temp$[ebp+640], eax
	mov	ax, WORD PTR ??_C@_01GFHCPBMG@C?$AA@
	mov	WORD PTR _Temp$[ebp+644], ax
	xor	eax, eax
	mov	DWORD PTR _Temp$[ebp+646], eax
	mov	DWORD PTR _Temp$[ebp+650], eax
	mov	DWORD PTR _Temp$[ebp+654], eax
	mov	ax, WORD PTR ??_C@_01FCMHBHNC@V?$AA@
	mov	WORD PTR _Temp$[ebp+658], ax
	xor	eax, eax
	mov	DWORD PTR _Temp$[ebp+660], eax
	mov	DWORD PTR _Temp$[ebp+664], eax
	mov	DWORD PTR _Temp$[ebp+668], eax
	mov	ax, WORD PTR ??_C@_01HMGJMAIH@B?$AA@
	mov	WORD PTR _Temp$[ebp+672], ax
	xor	eax, eax
	mov	DWORD PTR _Temp$[ebp+674], eax
	mov	DWORD PTR _Temp$[ebp+678], eax
	mov	DWORD PTR _Temp$[ebp+682], eax

; 543  : 				  "N","M",",",".","/","Right Shift","*","Left Alt","Space","Caps Lock","F1","F2","F3","F4","F5","F6",

	mov	ax, WORD PTR ??_C@_01NANMIPIL@N?$AA@
	mov	WORD PTR _Temp$[ebp+686], ax
	xor	eax, eax
	mov	DWORD PTR _Temp$[ebp+688], eax
	mov	DWORD PTR _Temp$[ebp+692], eax
	mov	DWORD PTR _Temp$[ebp+696], eax
	mov	ax, WORD PTR ??_C@_01PLPBNMEI@M?$AA@
	mov	WORD PTR _Temp$[ebp+700], ax
	xor	eax, eax
	mov	DWORD PTR _Temp$[ebp+702], eax
	mov	DWORD PTR _Temp$[ebp+706], eax
	mov	DWORD PTR _Temp$[ebp+710], eax
	mov	ax, WORD PTR ??_C@_01IHBHIGKO@?0?$AA@
	mov	WORD PTR _Temp$[ebp+714], ax
	xor	eax, eax
	mov	DWORD PTR _Temp$[ebp+716], eax
	mov	DWORD PTR _Temp$[ebp+720], eax
	mov	DWORD PTR _Temp$[ebp+724], eax
	mov	ax, WORD PTR ??_C@_01LFCBOECM@?4?$AA@
	mov	WORD PTR _Temp$[ebp+728], ax
	xor	eax, eax
	mov	DWORD PTR _Temp$[ebp+730], eax
	mov	DWORD PTR _Temp$[ebp+734], eax
	mov	DWORD PTR _Temp$[ebp+738], eax
	mov	ax, WORD PTR ??_C@_01KMDKNFGN@?1?$AA@
	mov	WORD PTR _Temp$[ebp+742], ax
	xor	eax, eax
	mov	DWORD PTR _Temp$[ebp+744], eax
	mov	DWORD PTR _Temp$[ebp+748], eax
	mov	DWORD PTR _Temp$[ebp+752], eax
	mov	eax, DWORD PTR ??_C@_0M@COKLDKMB@Right?5Shift?$AA@
	mov	DWORD PTR _Temp$[ebp+756], eax
	mov	ecx, DWORD PTR ??_C@_0M@COKLDKMB@Right?5Shift?$AA@+4
	mov	DWORD PTR _Temp$[ebp+760], ecx
	mov	edx, DWORD PTR ??_C@_0M@COKLDKMB@Right?5Shift?$AA@+8
	mov	DWORD PTR _Temp$[ebp+764], edx
	xor	eax, eax
	mov	WORD PTR _Temp$[ebp+768], ax
	mov	ax, WORD PTR ??_C@_01NBENCBCI@?$CK?$AA@
	mov	WORD PTR _Temp$[ebp+770], ax
	xor	eax, eax
	mov	DWORD PTR _Temp$[ebp+772], eax
	mov	DWORD PTR _Temp$[ebp+776], eax
	mov	DWORD PTR _Temp$[ebp+780], eax
	mov	eax, DWORD PTR ??_C@_08CJHJBNHP@Left?5Alt?$AA@
	mov	DWORD PTR _Temp$[ebp+784], eax
	mov	ecx, DWORD PTR ??_C@_08CJHJBNHP@Left?5Alt?$AA@+4
	mov	DWORD PTR _Temp$[ebp+788], ecx
	mov	dl, BYTE PTR ??_C@_08CJHJBNHP@Left?5Alt?$AA@+8
	mov	BYTE PTR _Temp$[ebp+792], dl
	xor	eax, eax
	mov	DWORD PTR _Temp$[ebp+793], eax
	mov	BYTE PTR _Temp$[ebp+797], al
	mov	eax, DWORD PTR ??_C@_05OMHELODH@Space?$AA@
	mov	DWORD PTR _Temp$[ebp+798], eax
	mov	cx, WORD PTR ??_C@_05OMHELODH@Space?$AA@+4
	mov	WORD PTR _Temp$[ebp+802], cx
	xor	eax, eax
	mov	DWORD PTR _Temp$[ebp+804], eax
	mov	DWORD PTR _Temp$[ebp+808], eax
	mov	eax, DWORD PTR ??_C@_09GGECHFNF@Caps?5Lock?$AA@
	mov	DWORD PTR _Temp$[ebp+812], eax
	mov	ecx, DWORD PTR ??_C@_09GGECHFNF@Caps?5Lock?$AA@+4
	mov	DWORD PTR _Temp$[ebp+816], ecx
	mov	dx, WORD PTR ??_C@_09GGECHFNF@Caps?5Lock?$AA@+8
	mov	WORD PTR _Temp$[ebp+820], dx
	xor	eax, eax
	mov	DWORD PTR _Temp$[ebp+822], eax
	mov	ax, WORD PTR ??_C@_02LCPENACN@F1?$AA@
	mov	WORD PTR _Temp$[ebp+826], ax
	mov	cl, BYTE PTR ??_C@_02LCPENACN@F1?$AA@+2
	mov	BYTE PTR _Temp$[ebp+828], cl
	xor	eax, eax
	mov	DWORD PTR _Temp$[ebp+829], eax
	mov	DWORD PTR _Temp$[ebp+833], eax
	mov	WORD PTR _Temp$[ebp+837], ax
	mov	BYTE PTR _Temp$[ebp+839], al
	mov	ax, WORD PTR ??_C@_02JJNJIDOO@F2?$AA@
	mov	WORD PTR _Temp$[ebp+840], ax
	mov	cl, BYTE PTR ??_C@_02JJNJIDOO@F2?$AA@+2
	mov	BYTE PTR _Temp$[ebp+842], cl
	xor	eax, eax
	mov	DWORD PTR _Temp$[ebp+843], eax
	mov	DWORD PTR _Temp$[ebp+847], eax
	mov	WORD PTR _Temp$[ebp+851], ax
	mov	BYTE PTR _Temp$[ebp+853], al
	mov	ax, WORD PTR ??_C@_02IAMCLCKP@F3?$AA@
	mov	WORD PTR _Temp$[ebp+854], ax
	mov	cl, BYTE PTR ??_C@_02IAMCLCKP@F3?$AA@+2
	mov	BYTE PTR _Temp$[ebp+856], cl
	xor	eax, eax
	mov	DWORD PTR _Temp$[ebp+857], eax
	mov	DWORD PTR _Temp$[ebp+861], eax
	mov	WORD PTR _Temp$[ebp+865], ax
	mov	BYTE PTR _Temp$[ebp+867], al
	mov	ax, WORD PTR ??_C@_02MPIDCEGI@F4?$AA@
	mov	WORD PTR _Temp$[ebp+868], ax
	mov	cl, BYTE PTR ??_C@_02MPIDCEGI@F4?$AA@+2
	mov	BYTE PTR _Temp$[ebp+870], cl
	xor	eax, eax
	mov	DWORD PTR _Temp$[ebp+871], eax
	mov	DWORD PTR _Temp$[ebp+875], eax
	mov	WORD PTR _Temp$[ebp+879], ax
	mov	BYTE PTR _Temp$[ebp+881], al
	mov	ax, WORD PTR ??_C@_02NGJIBFCJ@F5?$AA@
	mov	WORD PTR _Temp$[ebp+882], ax
	mov	cl, BYTE PTR ??_C@_02NGJIBFCJ@F5?$AA@+2
	mov	BYTE PTR _Temp$[ebp+884], cl
	xor	eax, eax
	mov	DWORD PTR _Temp$[ebp+885], eax
	mov	DWORD PTR _Temp$[ebp+889], eax
	mov	WORD PTR _Temp$[ebp+893], ax
	mov	BYTE PTR _Temp$[ebp+895], al
	mov	ax, WORD PTR ??_C@_02PNLFEGOK@F6?$AA@
	mov	WORD PTR _Temp$[ebp+896], ax
	mov	cl, BYTE PTR ??_C@_02PNLFEGOK@F6?$AA@+2
	mov	BYTE PTR _Temp$[ebp+898], cl
	xor	eax, eax
	mov	DWORD PTR _Temp$[ebp+899], eax
	mov	DWORD PTR _Temp$[ebp+903], eax
	mov	WORD PTR _Temp$[ebp+907], ax
	mov	BYTE PTR _Temp$[ebp+909], al

; 544  : 				  "F7","F8","F9","F10","Num Lock","","7","8","9","-","4","5","6","+","1","2",

	mov	ax, WORD PTR ??_C@_02OEKOHHKL@F7?$AA@
	mov	WORD PTR _Temp$[ebp+910], ax
	mov	cl, BYTE PTR ??_C@_02OEKOHHKL@F7?$AA@+2
	mov	BYTE PTR _Temp$[ebp+912], cl
	xor	eax, eax
	mov	DWORD PTR _Temp$[ebp+913], eax
	mov	DWORD PTR _Temp$[ebp+917], eax
	mov	WORD PTR _Temp$[ebp+921], ax
	mov	BYTE PTR _Temp$[ebp+923], al
	mov	ax, WORD PTR ??_C@_02GDDGGLGE@F8?$AA@
	mov	WORD PTR _Temp$[ebp+924], ax
	mov	cl, BYTE PTR ??_C@_02GDDGGLGE@F8?$AA@+2
	mov	BYTE PTR _Temp$[ebp+926], cl
	xor	eax, eax
	mov	DWORD PTR _Temp$[ebp+927], eax
	mov	DWORD PTR _Temp$[ebp+931], eax
	mov	WORD PTR _Temp$[ebp+935], ax
	mov	BYTE PTR _Temp$[ebp+937], al
	mov	ax, WORD PTR ??_C@_02HKCNFKCF@F9?$AA@
	mov	WORD PTR _Temp$[ebp+938], ax
	mov	cl, BYTE PTR ??_C@_02HKCNFKCF@F9?$AA@+2
	mov	BYTE PTR _Temp$[ebp+940], cl
	xor	eax, eax
	mov	DWORD PTR _Temp$[ebp+941], eax
	mov	DWORD PTR _Temp$[ebp+945], eax
	mov	WORD PTR _Temp$[ebp+949], ax
	mov	BYTE PTR _Temp$[ebp+951], al
	mov	eax, DWORD PTR ??_C@_03JKCLJOFG@F10?$AA@
	mov	DWORD PTR _Temp$[ebp+952], eax
	xor	eax, eax
	mov	DWORD PTR _Temp$[ebp+956], eax
	mov	DWORD PTR _Temp$[ebp+960], eax
	mov	WORD PTR _Temp$[ebp+964], ax
	mov	eax, DWORD PTR ??_C@_08DEAFBBCL@Num?5Lock?$AA@
	mov	DWORD PTR _Temp$[ebp+966], eax
	mov	ecx, DWORD PTR ??_C@_08DEAFBBCL@Num?5Lock?$AA@+4
	mov	DWORD PTR _Temp$[ebp+970], ecx
	mov	dl, BYTE PTR ??_C@_08DEAFBBCL@Num?5Lock?$AA@+8
	mov	BYTE PTR _Temp$[ebp+974], dl
	xor	eax, eax
	mov	DWORD PTR _Temp$[ebp+975], eax
	mov	BYTE PTR _Temp$[ebp+979], al
	mov	al, BYTE PTR ??_C@_00CNPNBAHC@?$AA@
	mov	BYTE PTR _Temp$[ebp+980], al
	xor	eax, eax
	mov	DWORD PTR _Temp$[ebp+981], eax
	mov	DWORD PTR _Temp$[ebp+985], eax
	mov	DWORD PTR _Temp$[ebp+989], eax
	mov	BYTE PTR _Temp$[ebp+993], al
	mov	ax, WORD PTR ??_C@_01COCBENDE@7?$AA@
	mov	WORD PTR _Temp$[ebp+994], ax
	xor	eax, eax
	mov	DWORD PTR _Temp$[ebp+996], eax
	mov	DWORD PTR _Temp$[ebp+1000], eax
	mov	DWORD PTR _Temp$[ebp+1004], eax
	mov	ax, WORD PTR ??_C@_01KJLJFBPL@8?$AA@
	mov	WORD PTR _Temp$[ebp+1008], ax
	xor	eax, eax
	mov	DWORD PTR _Temp$[ebp+1010], eax
	mov	DWORD PTR _Temp$[ebp+1014], eax
	mov	DWORD PTR _Temp$[ebp+1018], eax
	mov	ax, WORD PTR ??_C@_01LAKCGALK@9?$AA@
	mov	WORD PTR _Temp$[ebp+1022], ax
	xor	eax, eax
	mov	DWORD PTR _Temp$[ebp+1024], eax
	mov	DWORD PTR _Temp$[ebp+1028], eax
	mov	DWORD PTR _Temp$[ebp+1032], eax
	mov	ax, WORD PTR ??_C@_01JOAMLHOP@?9?$AA@
	mov	WORD PTR _Temp$[ebp+1036], ax
	xor	eax, eax
	mov	DWORD PTR _Temp$[ebp+1038], eax
	mov	DWORD PTR _Temp$[ebp+1042], eax
	mov	DWORD PTR _Temp$[ebp+1046], eax
	mov	ax, WORD PTR ??_C@_01FAMBOPH@4?$AA@
	mov	WORD PTR _Temp$[ebp+1050], ax
	xor	eax, eax
	mov	DWORD PTR _Temp$[ebp+1052], eax
	mov	DWORD PTR _Temp$[ebp+1056], eax
	mov	DWORD PTR _Temp$[ebp+1060], eax
	mov	ax, WORD PTR ??_C@_01BMBHCPLG@5?$AA@
	mov	WORD PTR _Temp$[ebp+1064], ax
	xor	eax, eax
	mov	DWORD PTR _Temp$[ebp+1066], eax
	mov	DWORD PTR _Temp$[ebp+1070], eax
	mov	DWORD PTR _Temp$[ebp+1074], eax
	mov	ax, WORD PTR ??_C@_01DHDKHMHF@6?$AA@
	mov	WORD PTR _Temp$[ebp+1078], ax
	xor	eax, eax
	mov	DWORD PTR _Temp$[ebp+1080], eax
	mov	DWORD PTR _Temp$[ebp+1084], eax
	mov	DWORD PTR _Temp$[ebp+1088], eax
	mov	ax, WORD PTR ??_C@_01MIFGBAGJ@?$CL?$AA@
	mov	WORD PTR _Temp$[ebp+1092], ax
	xor	eax, eax
	mov	DWORD PTR _Temp$[ebp+1094], eax
	mov	DWORD PTR _Temp$[ebp+1098], eax
	mov	DWORD PTR _Temp$[ebp+1102], eax
	mov	ax, WORD PTR ??_C@_01HIHLOKLC@1?$AA@
	mov	WORD PTR _Temp$[ebp+1106], ax
	xor	eax, eax
	mov	DWORD PTR _Temp$[ebp+1108], eax
	mov	DWORD PTR _Temp$[ebp+1112], eax
	mov	DWORD PTR _Temp$[ebp+1116], eax
	mov	ax, WORD PTR ??_C@_01FDFGLJHB@2?$AA@
	mov	WORD PTR _Temp$[ebp+1120], ax
	xor	eax, eax
	mov	DWORD PTR _Temp$[ebp+1122], eax
	mov	DWORD PTR _Temp$[ebp+1126], eax
	mov	DWORD PTR _Temp$[ebp+1130], eax

; 545  : 				  "3","0","Num .","SysRq","","","F11","F12","","","","","","","","",

	mov	ax, WORD PTR ??_C@_01EKENIIDA@3?$AA@
	mov	WORD PTR _Temp$[ebp+1134], ax
	xor	eax, eax
	mov	DWORD PTR _Temp$[ebp+1136], eax
	mov	DWORD PTR _Temp$[ebp+1140], eax
	mov	DWORD PTR _Temp$[ebp+1144], eax
	mov	ax, WORD PTR ??_C@_01GBGANLPD@0?$AA@
	mov	WORD PTR _Temp$[ebp+1148], ax
	xor	eax, eax
	mov	DWORD PTR _Temp$[ebp+1150], eax
	mov	DWORD PTR _Temp$[ebp+1154], eax
	mov	DWORD PTR _Temp$[ebp+1158], eax
	mov	eax, DWORD PTR ??_C@_05LAFLDKON@Num?5?4?$AA@
	mov	DWORD PTR _Temp$[ebp+1162], eax
	mov	cx, WORD PTR ??_C@_05LAFLDKON@Num?5?4?$AA@+4
	mov	WORD PTR _Temp$[ebp+1166], cx
	xor	eax, eax
	mov	DWORD PTR _Temp$[ebp+1168], eax
	mov	DWORD PTR _Temp$[ebp+1172], eax
	mov	eax, DWORD PTR ??_C@_05BAHDBLKA@SysRq?$AA@
	mov	DWORD PTR _Temp$[ebp+1176], eax
	mov	cx, WORD PTR ??_C@_05BAHDBLKA@SysRq?$AA@+4
	mov	WORD PTR _Temp$[ebp+1180], cx
	xor	eax, eax
	mov	DWORD PTR _Temp$[ebp+1182], eax
	mov	DWORD PTR _Temp$[ebp+1186], eax
	mov	al, BYTE PTR ??_C@_00CNPNBAHC@?$AA@
	mov	BYTE PTR _Temp$[ebp+1190], al
	xor	eax, eax
	mov	DWORD PTR _Temp$[ebp+1191], eax
	mov	DWORD PTR _Temp$[ebp+1195], eax
	mov	DWORD PTR _Temp$[ebp+1199], eax
	mov	BYTE PTR _Temp$[ebp+1203], al
	mov	al, BYTE PTR ??_C@_00CNPNBAHC@?$AA@
	mov	BYTE PTR _Temp$[ebp+1204], al
	xor	eax, eax
	mov	DWORD PTR _Temp$[ebp+1205], eax
	mov	DWORD PTR _Temp$[ebp+1209], eax
	mov	DWORD PTR _Temp$[ebp+1213], eax
	mov	BYTE PTR _Temp$[ebp+1217], al
	mov	eax, DWORD PTR ??_C@_03IDDAKPBH@F11?$AA@
	mov	DWORD PTR _Temp$[ebp+1218], eax
	xor	eax, eax
	mov	DWORD PTR _Temp$[ebp+1222], eax
	mov	DWORD PTR _Temp$[ebp+1226], eax
	mov	WORD PTR _Temp$[ebp+1230], ax
	mov	eax, DWORD PTR ??_C@_03KIBNPMNE@F12?$AA@
	mov	DWORD PTR _Temp$[ebp+1232], eax
	xor	eax, eax
	mov	DWORD PTR _Temp$[ebp+1236], eax
	mov	DWORD PTR _Temp$[ebp+1240], eax
	mov	WORD PTR _Temp$[ebp+1244], ax
	mov	al, BYTE PTR ??_C@_00CNPNBAHC@?$AA@
	mov	BYTE PTR _Temp$[ebp+1246], al
	xor	eax, eax
	mov	DWORD PTR _Temp$[ebp+1247], eax
	mov	DWORD PTR _Temp$[ebp+1251], eax
	mov	DWORD PTR _Temp$[ebp+1255], eax
	mov	BYTE PTR _Temp$[ebp+1259], al
	mov	al, BYTE PTR ??_C@_00CNPNBAHC@?$AA@
	mov	BYTE PTR _Temp$[ebp+1260], al
	xor	eax, eax
	mov	DWORD PTR _Temp$[ebp+1261], eax
	mov	DWORD PTR _Temp$[ebp+1265], eax
	mov	DWORD PTR _Temp$[ebp+1269], eax
	mov	BYTE PTR _Temp$[ebp+1273], al
	mov	al, BYTE PTR ??_C@_00CNPNBAHC@?$AA@
	mov	BYTE PTR _Temp$[ebp+1274], al
	xor	eax, eax
	mov	DWORD PTR _Temp$[ebp+1275], eax
	mov	DWORD PTR _Temp$[ebp+1279], eax
	mov	DWORD PTR _Temp$[ebp+1283], eax
	mov	BYTE PTR _Temp$[ebp+1287], al
	mov	al, BYTE PTR ??_C@_00CNPNBAHC@?$AA@
	mov	BYTE PTR _Temp$[ebp+1288], al
	xor	eax, eax
	mov	DWORD PTR _Temp$[ebp+1289], eax
	mov	DWORD PTR _Temp$[ebp+1293], eax
	mov	DWORD PTR _Temp$[ebp+1297], eax
	mov	BYTE PTR _Temp$[ebp+1301], al
	mov	al, BYTE PTR ??_C@_00CNPNBAHC@?$AA@
	mov	BYTE PTR _Temp$[ebp+1302], al
	xor	eax, eax
	mov	DWORD PTR _Temp$[ebp+1303], eax
	mov	DWORD PTR _Temp$[ebp+1307], eax
	mov	DWORD PTR _Temp$[ebp+1311], eax
	mov	BYTE PTR _Temp$[ebp+1315], al
	mov	al, BYTE PTR ??_C@_00CNPNBAHC@?$AA@
	mov	BYTE PTR _Temp$[ebp+1316], al
	xor	eax, eax
	mov	DWORD PTR _Temp$[ebp+1317], eax
	mov	DWORD PTR _Temp$[ebp+1321], eax
	mov	DWORD PTR _Temp$[ebp+1325], eax
	mov	BYTE PTR _Temp$[ebp+1329], al
	mov	al, BYTE PTR ??_C@_00CNPNBAHC@?$AA@
	mov	BYTE PTR _Temp$[ebp+1330], al
	xor	eax, eax
	mov	DWORD PTR _Temp$[ebp+1331], eax
	mov	DWORD PTR _Temp$[ebp+1335], eax
	mov	DWORD PTR _Temp$[ebp+1339], eax
	mov	BYTE PTR _Temp$[ebp+1343], al
	mov	al, BYTE PTR ??_C@_00CNPNBAHC@?$AA@
	mov	BYTE PTR _Temp$[ebp+1344], al
	xor	eax, eax
	mov	DWORD PTR _Temp$[ebp+1345], eax
	mov	DWORD PTR _Temp$[ebp+1349], eax
	mov	DWORD PTR _Temp$[ebp+1353], eax
	mov	BYTE PTR _Temp$[ebp+1357], al

; 546  : 				  "","","","","","","","","","","","","","","","",

	mov	al, BYTE PTR ??_C@_00CNPNBAHC@?$AA@
	mov	BYTE PTR _Temp$[ebp+1358], al
	xor	eax, eax
	mov	DWORD PTR _Temp$[ebp+1359], eax
	mov	DWORD PTR _Temp$[ebp+1363], eax
	mov	DWORD PTR _Temp$[ebp+1367], eax
	mov	BYTE PTR _Temp$[ebp+1371], al
	mov	al, BYTE PTR ??_C@_00CNPNBAHC@?$AA@
	mov	BYTE PTR _Temp$[ebp+1372], al
	xor	eax, eax
	mov	DWORD PTR _Temp$[ebp+1373], eax
	mov	DWORD PTR _Temp$[ebp+1377], eax
	mov	DWORD PTR _Temp$[ebp+1381], eax
	mov	BYTE PTR _Temp$[ebp+1385], al
	mov	al, BYTE PTR ??_C@_00CNPNBAHC@?$AA@
	mov	BYTE PTR _Temp$[ebp+1386], al
	xor	eax, eax
	mov	DWORD PTR _Temp$[ebp+1387], eax
	mov	DWORD PTR _Temp$[ebp+1391], eax
	mov	DWORD PTR _Temp$[ebp+1395], eax
	mov	BYTE PTR _Temp$[ebp+1399], al
	mov	al, BYTE PTR ??_C@_00CNPNBAHC@?$AA@
	mov	BYTE PTR _Temp$[ebp+1400], al
	xor	eax, eax
	mov	DWORD PTR _Temp$[ebp+1401], eax
	mov	DWORD PTR _Temp$[ebp+1405], eax
	mov	DWORD PTR _Temp$[ebp+1409], eax
	mov	BYTE PTR _Temp$[ebp+1413], al
	mov	al, BYTE PTR ??_C@_00CNPNBAHC@?$AA@
	mov	BYTE PTR _Temp$[ebp+1414], al
	xor	eax, eax
	mov	DWORD PTR _Temp$[ebp+1415], eax
	mov	DWORD PTR _Temp$[ebp+1419], eax
	mov	DWORD PTR _Temp$[ebp+1423], eax
	mov	BYTE PTR _Temp$[ebp+1427], al
	mov	al, BYTE PTR ??_C@_00CNPNBAHC@?$AA@
	mov	BYTE PTR _Temp$[ebp+1428], al
	xor	eax, eax
	mov	DWORD PTR _Temp$[ebp+1429], eax
	mov	DWORD PTR _Temp$[ebp+1433], eax
	mov	DWORD PTR _Temp$[ebp+1437], eax
	mov	BYTE PTR _Temp$[ebp+1441], al
	mov	al, BYTE PTR ??_C@_00CNPNBAHC@?$AA@
	mov	BYTE PTR _Temp$[ebp+1442], al
	xor	eax, eax
	mov	DWORD PTR _Temp$[ebp+1443], eax
	mov	DWORD PTR _Temp$[ebp+1447], eax
	mov	DWORD PTR _Temp$[ebp+1451], eax
	mov	BYTE PTR _Temp$[ebp+1455], al
	mov	al, BYTE PTR ??_C@_00CNPNBAHC@?$AA@
	mov	BYTE PTR _Temp$[ebp+1456], al
	xor	eax, eax
	mov	DWORD PTR _Temp$[ebp+1457], eax
	mov	DWORD PTR _Temp$[ebp+1461], eax
	mov	DWORD PTR _Temp$[ebp+1465], eax
	mov	BYTE PTR _Temp$[ebp+1469], al
	mov	al, BYTE PTR ??_C@_00CNPNBAHC@?$AA@
	mov	BYTE PTR _Temp$[ebp+1470], al
	xor	eax, eax
	mov	DWORD PTR _Temp$[ebp+1471], eax
	mov	DWORD PTR _Temp$[ebp+1475], eax
	mov	DWORD PTR _Temp$[ebp+1479], eax
	mov	BYTE PTR _Temp$[ebp+1483], al
	mov	al, BYTE PTR ??_C@_00CNPNBAHC@?$AA@
	mov	BYTE PTR _Temp$[ebp+1484], al
	xor	eax, eax
	mov	DWORD PTR _Temp$[ebp+1485], eax
	mov	DWORD PTR _Temp$[ebp+1489], eax
	mov	DWORD PTR _Temp$[ebp+1493], eax
	mov	BYTE PTR _Temp$[ebp+1497], al
	mov	al, BYTE PTR ??_C@_00CNPNBAHC@?$AA@
	mov	BYTE PTR _Temp$[ebp+1498], al
	xor	eax, eax
	mov	DWORD PTR _Temp$[ebp+1499], eax
	mov	DWORD PTR _Temp$[ebp+1503], eax
	mov	DWORD PTR _Temp$[ebp+1507], eax
	mov	BYTE PTR _Temp$[ebp+1511], al
	mov	al, BYTE PTR ??_C@_00CNPNBAHC@?$AA@
	mov	BYTE PTR _Temp$[ebp+1512], al
	xor	eax, eax
	mov	DWORD PTR _Temp$[ebp+1513], eax
	mov	DWORD PTR _Temp$[ebp+1517], eax
	mov	DWORD PTR _Temp$[ebp+1521], eax
	mov	BYTE PTR _Temp$[ebp+1525], al
	mov	al, BYTE PTR ??_C@_00CNPNBAHC@?$AA@
	mov	BYTE PTR _Temp$[ebp+1526], al
	xor	eax, eax
	mov	DWORD PTR _Temp$[ebp+1527], eax
	mov	DWORD PTR _Temp$[ebp+1531], eax
	mov	DWORD PTR _Temp$[ebp+1535], eax
	mov	BYTE PTR _Temp$[ebp+1539], al
	mov	al, BYTE PTR ??_C@_00CNPNBAHC@?$AA@
	mov	BYTE PTR _Temp$[ebp+1540], al
	xor	eax, eax
	mov	DWORD PTR _Temp$[ebp+1541], eax
	mov	DWORD PTR _Temp$[ebp+1545], eax
	mov	DWORD PTR _Temp$[ebp+1549], eax
	mov	BYTE PTR _Temp$[ebp+1553], al
	mov	al, BYTE PTR ??_C@_00CNPNBAHC@?$AA@
	mov	BYTE PTR _Temp$[ebp+1554], al
	xor	eax, eax
	mov	DWORD PTR _Temp$[ebp+1555], eax
	mov	DWORD PTR _Temp$[ebp+1559], eax
	mov	DWORD PTR _Temp$[ebp+1563], eax
	mov	BYTE PTR _Temp$[ebp+1567], al
	mov	al, BYTE PTR ??_C@_00CNPNBAHC@?$AA@
	mov	BYTE PTR _Temp$[ebp+1568], al
	xor	eax, eax
	mov	DWORD PTR _Temp$[ebp+1569], eax
	mov	DWORD PTR _Temp$[ebp+1573], eax
	mov	DWORD PTR _Temp$[ebp+1577], eax
	mov	BYTE PTR _Temp$[ebp+1581], al

; 547  : 				  "","","","","","","","","","","","","","","","",

	mov	al, BYTE PTR ??_C@_00CNPNBAHC@?$AA@
	mov	BYTE PTR _Temp$[ebp+1582], al
	xor	eax, eax
	mov	DWORD PTR _Temp$[ebp+1583], eax
	mov	DWORD PTR _Temp$[ebp+1587], eax
	mov	DWORD PTR _Temp$[ebp+1591], eax
	mov	BYTE PTR _Temp$[ebp+1595], al
	mov	al, BYTE PTR ??_C@_00CNPNBAHC@?$AA@
	mov	BYTE PTR _Temp$[ebp+1596], al
	xor	eax, eax
	mov	DWORD PTR _Temp$[ebp+1597], eax
	mov	DWORD PTR _Temp$[ebp+1601], eax
	mov	DWORD PTR _Temp$[ebp+1605], eax
	mov	BYTE PTR _Temp$[ebp+1609], al
	mov	al, BYTE PTR ??_C@_00CNPNBAHC@?$AA@
	mov	BYTE PTR _Temp$[ebp+1610], al
	xor	eax, eax
	mov	DWORD PTR _Temp$[ebp+1611], eax
	mov	DWORD PTR _Temp$[ebp+1615], eax
	mov	DWORD PTR _Temp$[ebp+1619], eax
	mov	BYTE PTR _Temp$[ebp+1623], al
	mov	al, BYTE PTR ??_C@_00CNPNBAHC@?$AA@
	mov	BYTE PTR _Temp$[ebp+1624], al
	xor	eax, eax
	mov	DWORD PTR _Temp$[ebp+1625], eax
	mov	DWORD PTR _Temp$[ebp+1629], eax
	mov	DWORD PTR _Temp$[ebp+1633], eax
	mov	BYTE PTR _Temp$[ebp+1637], al
	mov	al, BYTE PTR ??_C@_00CNPNBAHC@?$AA@
	mov	BYTE PTR _Temp$[ebp+1638], al
	xor	eax, eax
	mov	DWORD PTR _Temp$[ebp+1639], eax
	mov	DWORD PTR _Temp$[ebp+1643], eax
	mov	DWORD PTR _Temp$[ebp+1647], eax
	mov	BYTE PTR _Temp$[ebp+1651], al
	mov	al, BYTE PTR ??_C@_00CNPNBAHC@?$AA@
	mov	BYTE PTR _Temp$[ebp+1652], al
	xor	eax, eax
	mov	DWORD PTR _Temp$[ebp+1653], eax
	mov	DWORD PTR _Temp$[ebp+1657], eax
	mov	DWORD PTR _Temp$[ebp+1661], eax
	mov	BYTE PTR _Temp$[ebp+1665], al
	mov	al, BYTE PTR ??_C@_00CNPNBAHC@?$AA@
	mov	BYTE PTR _Temp$[ebp+1666], al
	xor	eax, eax
	mov	DWORD PTR _Temp$[ebp+1667], eax
	mov	DWORD PTR _Temp$[ebp+1671], eax
	mov	DWORD PTR _Temp$[ebp+1675], eax
	mov	BYTE PTR _Temp$[ebp+1679], al
	mov	al, BYTE PTR ??_C@_00CNPNBAHC@?$AA@
	mov	BYTE PTR _Temp$[ebp+1680], al
	xor	eax, eax
	mov	DWORD PTR _Temp$[ebp+1681], eax
	mov	DWORD PTR _Temp$[ebp+1685], eax
	mov	DWORD PTR _Temp$[ebp+1689], eax
	mov	BYTE PTR _Temp$[ebp+1693], al
	mov	al, BYTE PTR ??_C@_00CNPNBAHC@?$AA@
	mov	BYTE PTR _Temp$[ebp+1694], al
	xor	eax, eax
	mov	DWORD PTR _Temp$[ebp+1695], eax
	mov	DWORD PTR _Temp$[ebp+1699], eax
	mov	DWORD PTR _Temp$[ebp+1703], eax
	mov	BYTE PTR _Temp$[ebp+1707], al
	mov	al, BYTE PTR ??_C@_00CNPNBAHC@?$AA@
	mov	BYTE PTR _Temp$[ebp+1708], al
	xor	eax, eax
	mov	DWORD PTR _Temp$[ebp+1709], eax
	mov	DWORD PTR _Temp$[ebp+1713], eax
	mov	DWORD PTR _Temp$[ebp+1717], eax
	mov	BYTE PTR _Temp$[ebp+1721], al
	mov	al, BYTE PTR ??_C@_00CNPNBAHC@?$AA@
	mov	BYTE PTR _Temp$[ebp+1722], al
	xor	eax, eax
	mov	DWORD PTR _Temp$[ebp+1723], eax
	mov	DWORD PTR _Temp$[ebp+1727], eax
	mov	DWORD PTR _Temp$[ebp+1731], eax
	mov	BYTE PTR _Temp$[ebp+1735], al
	mov	al, BYTE PTR ??_C@_00CNPNBAHC@?$AA@
	mov	BYTE PTR _Temp$[ebp+1736], al
	xor	eax, eax
	mov	DWORD PTR _Temp$[ebp+1737], eax
	mov	DWORD PTR _Temp$[ebp+1741], eax
	mov	DWORD PTR _Temp$[ebp+1745], eax
	mov	BYTE PTR _Temp$[ebp+1749], al
	mov	al, BYTE PTR ??_C@_00CNPNBAHC@?$AA@
	mov	BYTE PTR _Temp$[ebp+1750], al
	xor	eax, eax
	mov	DWORD PTR _Temp$[ebp+1751], eax
	mov	DWORD PTR _Temp$[ebp+1755], eax
	mov	DWORD PTR _Temp$[ebp+1759], eax
	mov	BYTE PTR _Temp$[ebp+1763], al
	mov	al, BYTE PTR ??_C@_00CNPNBAHC@?$AA@
	mov	BYTE PTR _Temp$[ebp+1764], al
	xor	eax, eax
	mov	DWORD PTR _Temp$[ebp+1765], eax
	mov	DWORD PTR _Temp$[ebp+1769], eax
	mov	DWORD PTR _Temp$[ebp+1773], eax
	mov	BYTE PTR _Temp$[ebp+1777], al
	mov	al, BYTE PTR ??_C@_00CNPNBAHC@?$AA@
	mov	BYTE PTR _Temp$[ebp+1778], al
	xor	eax, eax
	mov	DWORD PTR _Temp$[ebp+1779], eax
	mov	DWORD PTR _Temp$[ebp+1783], eax
	mov	DWORD PTR _Temp$[ebp+1787], eax
	mov	BYTE PTR _Temp$[ebp+1791], al
	mov	al, BYTE PTR ??_C@_00CNPNBAHC@?$AA@
	mov	BYTE PTR _Temp$[ebp+1792], al
	xor	eax, eax
	mov	DWORD PTR _Temp$[ebp+1793], eax
	mov	DWORD PTR _Temp$[ebp+1797], eax
	mov	DWORD PTR _Temp$[ebp+1801], eax
	mov	BYTE PTR _Temp$[ebp+1805], al

; 548  : 				  "","","","","","","","","","","","","","","","",

	mov	al, BYTE PTR ??_C@_00CNPNBAHC@?$AA@
	mov	BYTE PTR _Temp$[ebp+1806], al
	xor	eax, eax
	mov	DWORD PTR _Temp$[ebp+1807], eax
	mov	DWORD PTR _Temp$[ebp+1811], eax
	mov	DWORD PTR _Temp$[ebp+1815], eax
	mov	BYTE PTR _Temp$[ebp+1819], al
	mov	al, BYTE PTR ??_C@_00CNPNBAHC@?$AA@
	mov	BYTE PTR _Temp$[ebp+1820], al
	xor	eax, eax
	mov	DWORD PTR _Temp$[ebp+1821], eax
	mov	DWORD PTR _Temp$[ebp+1825], eax
	mov	DWORD PTR _Temp$[ebp+1829], eax
	mov	BYTE PTR _Temp$[ebp+1833], al
	mov	al, BYTE PTR ??_C@_00CNPNBAHC@?$AA@
	mov	BYTE PTR _Temp$[ebp+1834], al
	xor	eax, eax
	mov	DWORD PTR _Temp$[ebp+1835], eax
	mov	DWORD PTR _Temp$[ebp+1839], eax
	mov	DWORD PTR _Temp$[ebp+1843], eax
	mov	BYTE PTR _Temp$[ebp+1847], al
	mov	al, BYTE PTR ??_C@_00CNPNBAHC@?$AA@
	mov	BYTE PTR _Temp$[ebp+1848], al
	xor	eax, eax
	mov	DWORD PTR _Temp$[ebp+1849], eax
	mov	DWORD PTR _Temp$[ebp+1853], eax
	mov	DWORD PTR _Temp$[ebp+1857], eax
	mov	BYTE PTR _Temp$[ebp+1861], al
	mov	al, BYTE PTR ??_C@_00CNPNBAHC@?$AA@
	mov	BYTE PTR _Temp$[ebp+1862], al
	xor	eax, eax
	mov	DWORD PTR _Temp$[ebp+1863], eax
	mov	DWORD PTR _Temp$[ebp+1867], eax
	mov	DWORD PTR _Temp$[ebp+1871], eax
	mov	BYTE PTR _Temp$[ebp+1875], al
	mov	al, BYTE PTR ??_C@_00CNPNBAHC@?$AA@
	mov	BYTE PTR _Temp$[ebp+1876], al
	xor	eax, eax
	mov	DWORD PTR _Temp$[ebp+1877], eax
	mov	DWORD PTR _Temp$[ebp+1881], eax
	mov	DWORD PTR _Temp$[ebp+1885], eax
	mov	BYTE PTR _Temp$[ebp+1889], al
	mov	al, BYTE PTR ??_C@_00CNPNBAHC@?$AA@
	mov	BYTE PTR _Temp$[ebp+1890], al
	xor	eax, eax
	mov	DWORD PTR _Temp$[ebp+1891], eax
	mov	DWORD PTR _Temp$[ebp+1895], eax
	mov	DWORD PTR _Temp$[ebp+1899], eax
	mov	BYTE PTR _Temp$[ebp+1903], al
	mov	al, BYTE PTR ??_C@_00CNPNBAHC@?$AA@
	mov	BYTE PTR _Temp$[ebp+1904], al
	xor	eax, eax
	mov	DWORD PTR _Temp$[ebp+1905], eax
	mov	DWORD PTR _Temp$[ebp+1909], eax
	mov	DWORD PTR _Temp$[ebp+1913], eax
	mov	BYTE PTR _Temp$[ebp+1917], al
	mov	al, BYTE PTR ??_C@_00CNPNBAHC@?$AA@
	mov	BYTE PTR _Temp$[ebp+1918], al
	xor	eax, eax
	mov	DWORD PTR _Temp$[ebp+1919], eax
	mov	DWORD PTR _Temp$[ebp+1923], eax
	mov	DWORD PTR _Temp$[ebp+1927], eax
	mov	BYTE PTR _Temp$[ebp+1931], al
	mov	al, BYTE PTR ??_C@_00CNPNBAHC@?$AA@
	mov	BYTE PTR _Temp$[ebp+1932], al
	xor	eax, eax
	mov	DWORD PTR _Temp$[ebp+1933], eax
	mov	DWORD PTR _Temp$[ebp+1937], eax
	mov	DWORD PTR _Temp$[ebp+1941], eax
	mov	BYTE PTR _Temp$[ebp+1945], al
	mov	al, BYTE PTR ??_C@_00CNPNBAHC@?$AA@
	mov	BYTE PTR _Temp$[ebp+1946], al
	xor	eax, eax
	mov	DWORD PTR _Temp$[ebp+1947], eax
	mov	DWORD PTR _Temp$[ebp+1951], eax
	mov	DWORD PTR _Temp$[ebp+1955], eax
	mov	BYTE PTR _Temp$[ebp+1959], al
	mov	al, BYTE PTR ??_C@_00CNPNBAHC@?$AA@
	mov	BYTE PTR _Temp$[ebp+1960], al
	xor	eax, eax
	mov	DWORD PTR _Temp$[ebp+1961], eax
	mov	DWORD PTR _Temp$[ebp+1965], eax
	mov	DWORD PTR _Temp$[ebp+1969], eax
	mov	BYTE PTR _Temp$[ebp+1973], al
	mov	al, BYTE PTR ??_C@_00CNPNBAHC@?$AA@
	mov	BYTE PTR _Temp$[ebp+1974], al
	xor	eax, eax
	mov	DWORD PTR _Temp$[ebp+1975], eax
	mov	DWORD PTR _Temp$[ebp+1979], eax
	mov	DWORD PTR _Temp$[ebp+1983], eax
	mov	BYTE PTR _Temp$[ebp+1987], al
	mov	al, BYTE PTR ??_C@_00CNPNBAHC@?$AA@
	mov	BYTE PTR _Temp$[ebp+1988], al
	xor	eax, eax
	mov	DWORD PTR _Temp$[ebp+1989], eax
	mov	DWORD PTR _Temp$[ebp+1993], eax
	mov	DWORD PTR _Temp$[ebp+1997], eax
	mov	BYTE PTR _Temp$[ebp+2001], al
	mov	al, BYTE PTR ??_C@_00CNPNBAHC@?$AA@
	mov	BYTE PTR _Temp$[ebp+2002], al
	xor	eax, eax
	mov	DWORD PTR _Temp$[ebp+2003], eax
	mov	DWORD PTR _Temp$[ebp+2007], eax
	mov	DWORD PTR _Temp$[ebp+2011], eax
	mov	BYTE PTR _Temp$[ebp+2015], al
	mov	al, BYTE PTR ??_C@_00CNPNBAHC@?$AA@
	mov	BYTE PTR _Temp$[ebp+2016], al
	xor	eax, eax
	mov	DWORD PTR _Temp$[ebp+2017], eax
	mov	DWORD PTR _Temp$[ebp+2021], eax
	mov	DWORD PTR _Temp$[ebp+2025], eax
	mov	BYTE PTR _Temp$[ebp+2029], al

; 549  : 				  "","","","","","","","","","","","Right Enter","Right Control","","","",

	mov	al, BYTE PTR ??_C@_00CNPNBAHC@?$AA@
	mov	BYTE PTR _Temp$[ebp+2030], al
	xor	eax, eax
	mov	DWORD PTR _Temp$[ebp+2031], eax
	mov	DWORD PTR _Temp$[ebp+2035], eax
	mov	DWORD PTR _Temp$[ebp+2039], eax
	mov	BYTE PTR _Temp$[ebp+2043], al
	mov	al, BYTE PTR ??_C@_00CNPNBAHC@?$AA@
	mov	BYTE PTR _Temp$[ebp+2044], al
	xor	eax, eax
	mov	DWORD PTR _Temp$[ebp+2045], eax
	mov	DWORD PTR _Temp$[ebp+2049], eax
	mov	DWORD PTR _Temp$[ebp+2053], eax
	mov	BYTE PTR _Temp$[ebp+2057], al
	mov	al, BYTE PTR ??_C@_00CNPNBAHC@?$AA@
	mov	BYTE PTR _Temp$[ebp+2058], al
	xor	eax, eax
	mov	DWORD PTR _Temp$[ebp+2059], eax
	mov	DWORD PTR _Temp$[ebp+2063], eax
	mov	DWORD PTR _Temp$[ebp+2067], eax
	mov	BYTE PTR _Temp$[ebp+2071], al
	mov	al, BYTE PTR ??_C@_00CNPNBAHC@?$AA@
	mov	BYTE PTR _Temp$[ebp+2072], al
	xor	eax, eax
	mov	DWORD PTR _Temp$[ebp+2073], eax
	mov	DWORD PTR _Temp$[ebp+2077], eax
	mov	DWORD PTR _Temp$[ebp+2081], eax
	mov	BYTE PTR _Temp$[ebp+2085], al
	mov	al, BYTE PTR ??_C@_00CNPNBAHC@?$AA@
	mov	BYTE PTR _Temp$[ebp+2086], al
	xor	eax, eax
	mov	DWORD PTR _Temp$[ebp+2087], eax
	mov	DWORD PTR _Temp$[ebp+2091], eax
	mov	DWORD PTR _Temp$[ebp+2095], eax
	mov	BYTE PTR _Temp$[ebp+2099], al
	mov	al, BYTE PTR ??_C@_00CNPNBAHC@?$AA@
	mov	BYTE PTR _Temp$[ebp+2100], al
	xor	eax, eax
	mov	DWORD PTR _Temp$[ebp+2101], eax
	mov	DWORD PTR _Temp$[ebp+2105], eax
	mov	DWORD PTR _Temp$[ebp+2109], eax
	mov	BYTE PTR _Temp$[ebp+2113], al
	mov	al, BYTE PTR ??_C@_00CNPNBAHC@?$AA@
	mov	BYTE PTR _Temp$[ebp+2114], al
	xor	eax, eax
	mov	DWORD PTR _Temp$[ebp+2115], eax
	mov	DWORD PTR _Temp$[ebp+2119], eax
	mov	DWORD PTR _Temp$[ebp+2123], eax
	mov	BYTE PTR _Temp$[ebp+2127], al
	mov	al, BYTE PTR ??_C@_00CNPNBAHC@?$AA@
	mov	BYTE PTR _Temp$[ebp+2128], al
	xor	eax, eax
	mov	DWORD PTR _Temp$[ebp+2129], eax
	mov	DWORD PTR _Temp$[ebp+2133], eax
	mov	DWORD PTR _Temp$[ebp+2137], eax
	mov	BYTE PTR _Temp$[ebp+2141], al
	mov	al, BYTE PTR ??_C@_00CNPNBAHC@?$AA@
	mov	BYTE PTR _Temp$[ebp+2142], al
	xor	eax, eax
	mov	DWORD PTR _Temp$[ebp+2143], eax
	mov	DWORD PTR _Temp$[ebp+2147], eax
	mov	DWORD PTR _Temp$[ebp+2151], eax
	mov	BYTE PTR _Temp$[ebp+2155], al
	mov	al, BYTE PTR ??_C@_00CNPNBAHC@?$AA@
	mov	BYTE PTR _Temp$[ebp+2156], al
	xor	eax, eax
	mov	DWORD PTR _Temp$[ebp+2157], eax
	mov	DWORD PTR _Temp$[ebp+2161], eax
	mov	DWORD PTR _Temp$[ebp+2165], eax
	mov	BYTE PTR _Temp$[ebp+2169], al
	mov	al, BYTE PTR ??_C@_00CNPNBAHC@?$AA@
	mov	BYTE PTR _Temp$[ebp+2170], al
	xor	eax, eax
	mov	DWORD PTR _Temp$[ebp+2171], eax
	mov	DWORD PTR _Temp$[ebp+2175], eax
	mov	DWORD PTR _Temp$[ebp+2179], eax
	mov	BYTE PTR _Temp$[ebp+2183], al
	mov	eax, DWORD PTR ??_C@_0M@ICALLIHK@Right?5Enter?$AA@
	mov	DWORD PTR _Temp$[ebp+2184], eax
	mov	ecx, DWORD PTR ??_C@_0M@ICALLIHK@Right?5Enter?$AA@+4
	mov	DWORD PTR _Temp$[ebp+2188], ecx
	mov	edx, DWORD PTR ??_C@_0M@ICALLIHK@Right?5Enter?$AA@+8
	mov	DWORD PTR _Temp$[ebp+2192], edx
	xor	eax, eax
	mov	WORD PTR _Temp$[ebp+2196], ax
	mov	eax, DWORD PTR ??_C@_0O@FHMBNID@Right?5Control?$AA@
	mov	DWORD PTR _Temp$[ebp+2198], eax
	mov	ecx, DWORD PTR ??_C@_0O@FHMBNID@Right?5Control?$AA@+4
	mov	DWORD PTR _Temp$[ebp+2202], ecx
	mov	edx, DWORD PTR ??_C@_0O@FHMBNID@Right?5Control?$AA@+8
	mov	DWORD PTR _Temp$[ebp+2206], edx
	mov	ax, WORD PTR ??_C@_0O@FHMBNID@Right?5Control?$AA@+12
	mov	WORD PTR _Temp$[ebp+2210], ax
	mov	al, BYTE PTR ??_C@_00CNPNBAHC@?$AA@
	mov	BYTE PTR _Temp$[ebp+2212], al
	xor	eax, eax
	mov	DWORD PTR _Temp$[ebp+2213], eax
	mov	DWORD PTR _Temp$[ebp+2217], eax
	mov	DWORD PTR _Temp$[ebp+2221], eax
	mov	BYTE PTR _Temp$[ebp+2225], al
	mov	al, BYTE PTR ??_C@_00CNPNBAHC@?$AA@
	mov	BYTE PTR _Temp$[ebp+2226], al
	xor	eax, eax
	mov	DWORD PTR _Temp$[ebp+2227], eax
	mov	DWORD PTR _Temp$[ebp+2231], eax
	mov	DWORD PTR _Temp$[ebp+2235], eax
	mov	BYTE PTR _Temp$[ebp+2239], al
	mov	al, BYTE PTR ??_C@_00CNPNBAHC@?$AA@
	mov	BYTE PTR _Temp$[ebp+2240], al
	xor	eax, eax
	mov	DWORD PTR _Temp$[ebp+2241], eax
	mov	DWORD PTR _Temp$[ebp+2245], eax
	mov	DWORD PTR _Temp$[ebp+2249], eax
	mov	BYTE PTR _Temp$[ebp+2253], al

; 550  : 				  "","","","","","","","","","","","","","","","",

	mov	al, BYTE PTR ??_C@_00CNPNBAHC@?$AA@
	mov	BYTE PTR _Temp$[ebp+2254], al
	xor	eax, eax
	mov	DWORD PTR _Temp$[ebp+2255], eax
	mov	DWORD PTR _Temp$[ebp+2259], eax
	mov	DWORD PTR _Temp$[ebp+2263], eax
	mov	BYTE PTR _Temp$[ebp+2267], al
	mov	al, BYTE PTR ??_C@_00CNPNBAHC@?$AA@
	mov	BYTE PTR _Temp$[ebp+2268], al
	xor	eax, eax
	mov	DWORD PTR _Temp$[ebp+2269], eax
	mov	DWORD PTR _Temp$[ebp+2273], eax
	mov	DWORD PTR _Temp$[ebp+2277], eax
	mov	BYTE PTR _Temp$[ebp+2281], al
	mov	al, BYTE PTR ??_C@_00CNPNBAHC@?$AA@
	mov	BYTE PTR _Temp$[ebp+2282], al
	xor	eax, eax
	mov	DWORD PTR _Temp$[ebp+2283], eax
	mov	DWORD PTR _Temp$[ebp+2287], eax
	mov	DWORD PTR _Temp$[ebp+2291], eax
	mov	BYTE PTR _Temp$[ebp+2295], al
	mov	al, BYTE PTR ??_C@_00CNPNBAHC@?$AA@
	mov	BYTE PTR _Temp$[ebp+2296], al
	xor	eax, eax
	mov	DWORD PTR _Temp$[ebp+2297], eax
	mov	DWORD PTR _Temp$[ebp+2301], eax
	mov	DWORD PTR _Temp$[ebp+2305], eax
	mov	BYTE PTR _Temp$[ebp+2309], al
	mov	al, BYTE PTR ??_C@_00CNPNBAHC@?$AA@
	mov	BYTE PTR _Temp$[ebp+2310], al
	xor	eax, eax
	mov	DWORD PTR _Temp$[ebp+2311], eax
	mov	DWORD PTR _Temp$[ebp+2315], eax
	mov	DWORD PTR _Temp$[ebp+2319], eax
	mov	BYTE PTR _Temp$[ebp+2323], al
	mov	al, BYTE PTR ??_C@_00CNPNBAHC@?$AA@
	mov	BYTE PTR _Temp$[ebp+2324], al
	xor	eax, eax
	mov	DWORD PTR _Temp$[ebp+2325], eax
	mov	DWORD PTR _Temp$[ebp+2329], eax
	mov	DWORD PTR _Temp$[ebp+2333], eax
	mov	BYTE PTR _Temp$[ebp+2337], al
	mov	al, BYTE PTR ??_C@_00CNPNBAHC@?$AA@
	mov	BYTE PTR _Temp$[ebp+2338], al
	xor	eax, eax
	mov	DWORD PTR _Temp$[ebp+2339], eax
	mov	DWORD PTR _Temp$[ebp+2343], eax
	mov	DWORD PTR _Temp$[ebp+2347], eax
	mov	BYTE PTR _Temp$[ebp+2351], al
	mov	al, BYTE PTR ??_C@_00CNPNBAHC@?$AA@
	mov	BYTE PTR _Temp$[ebp+2352], al
	xor	eax, eax
	mov	DWORD PTR _Temp$[ebp+2353], eax
	mov	DWORD PTR _Temp$[ebp+2357], eax
	mov	DWORD PTR _Temp$[ebp+2361], eax
	mov	BYTE PTR _Temp$[ebp+2365], al
	mov	al, BYTE PTR ??_C@_00CNPNBAHC@?$AA@
	mov	BYTE PTR _Temp$[ebp+2366], al
	xor	eax, eax
	mov	DWORD PTR _Temp$[ebp+2367], eax
	mov	DWORD PTR _Temp$[ebp+2371], eax
	mov	DWORD PTR _Temp$[ebp+2375], eax
	mov	BYTE PTR _Temp$[ebp+2379], al
	mov	al, BYTE PTR ??_C@_00CNPNBAHC@?$AA@
	mov	BYTE PTR _Temp$[ebp+2380], al
	xor	eax, eax
	mov	DWORD PTR _Temp$[ebp+2381], eax
	mov	DWORD PTR _Temp$[ebp+2385], eax
	mov	DWORD PTR _Temp$[ebp+2389], eax
	mov	BYTE PTR _Temp$[ebp+2393], al
	mov	al, BYTE PTR ??_C@_00CNPNBAHC@?$AA@
	mov	BYTE PTR _Temp$[ebp+2394], al
	xor	eax, eax
	mov	DWORD PTR _Temp$[ebp+2395], eax
	mov	DWORD PTR _Temp$[ebp+2399], eax
	mov	DWORD PTR _Temp$[ebp+2403], eax
	mov	BYTE PTR _Temp$[ebp+2407], al
	mov	al, BYTE PTR ??_C@_00CNPNBAHC@?$AA@
	mov	BYTE PTR _Temp$[ebp+2408], al
	xor	eax, eax
	mov	DWORD PTR _Temp$[ebp+2409], eax
	mov	DWORD PTR _Temp$[ebp+2413], eax
	mov	DWORD PTR _Temp$[ebp+2417], eax
	mov	BYTE PTR _Temp$[ebp+2421], al
	mov	al, BYTE PTR ??_C@_00CNPNBAHC@?$AA@
	mov	BYTE PTR _Temp$[ebp+2422], al
	xor	eax, eax
	mov	DWORD PTR _Temp$[ebp+2423], eax
	mov	DWORD PTR _Temp$[ebp+2427], eax
	mov	DWORD PTR _Temp$[ebp+2431], eax
	mov	BYTE PTR _Temp$[ebp+2435], al
	mov	al, BYTE PTR ??_C@_00CNPNBAHC@?$AA@
	mov	BYTE PTR _Temp$[ebp+2436], al
	xor	eax, eax
	mov	DWORD PTR _Temp$[ebp+2437], eax
	mov	DWORD PTR _Temp$[ebp+2441], eax
	mov	DWORD PTR _Temp$[ebp+2445], eax
	mov	BYTE PTR _Temp$[ebp+2449], al
	mov	al, BYTE PTR ??_C@_00CNPNBAHC@?$AA@
	mov	BYTE PTR _Temp$[ebp+2450], al
	xor	eax, eax
	mov	DWORD PTR _Temp$[ebp+2451], eax
	mov	DWORD PTR _Temp$[ebp+2455], eax
	mov	DWORD PTR _Temp$[ebp+2459], eax
	mov	BYTE PTR _Temp$[ebp+2463], al
	mov	al, BYTE PTR ??_C@_00CNPNBAHC@?$AA@
	mov	BYTE PTR _Temp$[ebp+2464], al
	xor	eax, eax
	mov	DWORD PTR _Temp$[ebp+2465], eax
	mov	DWORD PTR _Temp$[ebp+2469], eax
	mov	DWORD PTR _Temp$[ebp+2473], eax
	mov	BYTE PTR _Temp$[ebp+2477], al

; 551  : 				  "","Function F3","","","/ Num","","Print Screen","Right Alt","","","","","","","","",

	mov	al, BYTE PTR ??_C@_00CNPNBAHC@?$AA@
	mov	BYTE PTR _Temp$[ebp+2478], al
	xor	eax, eax
	mov	DWORD PTR _Temp$[ebp+2479], eax
	mov	DWORD PTR _Temp$[ebp+2483], eax
	mov	DWORD PTR _Temp$[ebp+2487], eax
	mov	BYTE PTR _Temp$[ebp+2491], al
	mov	eax, DWORD PTR ??_C@_0M@LHBLIFBA@Function?5F3?$AA@
	mov	DWORD PTR _Temp$[ebp+2492], eax
	mov	ecx, DWORD PTR ??_C@_0M@LHBLIFBA@Function?5F3?$AA@+4
	mov	DWORD PTR _Temp$[ebp+2496], ecx
	mov	edx, DWORD PTR ??_C@_0M@LHBLIFBA@Function?5F3?$AA@+8
	mov	DWORD PTR _Temp$[ebp+2500], edx
	xor	eax, eax
	mov	WORD PTR _Temp$[ebp+2504], ax
	mov	al, BYTE PTR ??_C@_00CNPNBAHC@?$AA@
	mov	BYTE PTR _Temp$[ebp+2506], al
	xor	eax, eax
	mov	DWORD PTR _Temp$[ebp+2507], eax
	mov	DWORD PTR _Temp$[ebp+2511], eax
	mov	DWORD PTR _Temp$[ebp+2515], eax
	mov	BYTE PTR _Temp$[ebp+2519], al
	mov	al, BYTE PTR ??_C@_00CNPNBAHC@?$AA@
	mov	BYTE PTR _Temp$[ebp+2520], al
	xor	eax, eax
	mov	DWORD PTR _Temp$[ebp+2521], eax
	mov	DWORD PTR _Temp$[ebp+2525], eax
	mov	DWORD PTR _Temp$[ebp+2529], eax
	mov	BYTE PTR _Temp$[ebp+2533], al
	mov	eax, DWORD PTR ??_C@_05IAKEFGOE@?1?5Num?$AA@
	mov	DWORD PTR _Temp$[ebp+2534], eax
	mov	cx, WORD PTR ??_C@_05IAKEFGOE@?1?5Num?$AA@+4
	mov	WORD PTR _Temp$[ebp+2538], cx
	xor	eax, eax
	mov	DWORD PTR _Temp$[ebp+2540], eax
	mov	DWORD PTR _Temp$[ebp+2544], eax
	mov	al, BYTE PTR ??_C@_00CNPNBAHC@?$AA@
	mov	BYTE PTR _Temp$[ebp+2548], al
	xor	eax, eax
	mov	DWORD PTR _Temp$[ebp+2549], eax
	mov	DWORD PTR _Temp$[ebp+2553], eax
	mov	DWORD PTR _Temp$[ebp+2557], eax
	mov	BYTE PTR _Temp$[ebp+2561], al
	mov	eax, DWORD PTR ??_C@_0N@CHCLIIDE@Print?5Screen?$AA@
	mov	DWORD PTR _Temp$[ebp+2562], eax
	mov	ecx, DWORD PTR ??_C@_0N@CHCLIIDE@Print?5Screen?$AA@+4
	mov	DWORD PTR _Temp$[ebp+2566], ecx
	mov	edx, DWORD PTR ??_C@_0N@CHCLIIDE@Print?5Screen?$AA@+8
	mov	DWORD PTR _Temp$[ebp+2570], edx
	mov	al, BYTE PTR ??_C@_0N@CHCLIIDE@Print?5Screen?$AA@+12
	mov	BYTE PTR _Temp$[ebp+2574], al
	xor	eax, eax
	mov	BYTE PTR _Temp$[ebp+2575], al
	mov	eax, DWORD PTR ??_C@_09ELGHIMBO@Right?5Alt?$AA@
	mov	DWORD PTR _Temp$[ebp+2576], eax
	mov	ecx, DWORD PTR ??_C@_09ELGHIMBO@Right?5Alt?$AA@+4
	mov	DWORD PTR _Temp$[ebp+2580], ecx
	mov	dx, WORD PTR ??_C@_09ELGHIMBO@Right?5Alt?$AA@+8
	mov	WORD PTR _Temp$[ebp+2584], dx
	xor	eax, eax
	mov	DWORD PTR _Temp$[ebp+2586], eax
	mov	al, BYTE PTR ??_C@_00CNPNBAHC@?$AA@
	mov	BYTE PTR _Temp$[ebp+2590], al
	xor	eax, eax
	mov	DWORD PTR _Temp$[ebp+2591], eax
	mov	DWORD PTR _Temp$[ebp+2595], eax
	mov	DWORD PTR _Temp$[ebp+2599], eax
	mov	BYTE PTR _Temp$[ebp+2603], al
	mov	al, BYTE PTR ??_C@_00CNPNBAHC@?$AA@
	mov	BYTE PTR _Temp$[ebp+2604], al
	xor	eax, eax
	mov	DWORD PTR _Temp$[ebp+2605], eax
	mov	DWORD PTR _Temp$[ebp+2609], eax
	mov	DWORD PTR _Temp$[ebp+2613], eax
	mov	BYTE PTR _Temp$[ebp+2617], al
	mov	al, BYTE PTR ??_C@_00CNPNBAHC@?$AA@
	mov	BYTE PTR _Temp$[ebp+2618], al
	xor	eax, eax
	mov	DWORD PTR _Temp$[ebp+2619], eax
	mov	DWORD PTR _Temp$[ebp+2623], eax
	mov	DWORD PTR _Temp$[ebp+2627], eax
	mov	BYTE PTR _Temp$[ebp+2631], al
	mov	al, BYTE PTR ??_C@_00CNPNBAHC@?$AA@
	mov	BYTE PTR _Temp$[ebp+2632], al
	xor	eax, eax
	mov	DWORD PTR _Temp$[ebp+2633], eax
	mov	DWORD PTR _Temp$[ebp+2637], eax
	mov	DWORD PTR _Temp$[ebp+2641], eax
	mov	BYTE PTR _Temp$[ebp+2645], al
	mov	al, BYTE PTR ??_C@_00CNPNBAHC@?$AA@
	mov	BYTE PTR _Temp$[ebp+2646], al
	xor	eax, eax
	mov	DWORD PTR _Temp$[ebp+2647], eax
	mov	DWORD PTR _Temp$[ebp+2651], eax
	mov	DWORD PTR _Temp$[ebp+2655], eax
	mov	BYTE PTR _Temp$[ebp+2659], al
	mov	al, BYTE PTR ??_C@_00CNPNBAHC@?$AA@
	mov	BYTE PTR _Temp$[ebp+2660], al
	xor	eax, eax
	mov	DWORD PTR _Temp$[ebp+2661], eax
	mov	DWORD PTR _Temp$[ebp+2665], eax
	mov	DWORD PTR _Temp$[ebp+2669], eax
	mov	BYTE PTR _Temp$[ebp+2673], al
	mov	al, BYTE PTR ??_C@_00CNPNBAHC@?$AA@
	mov	BYTE PTR _Temp$[ebp+2674], al
	xor	eax, eax
	mov	DWORD PTR _Temp$[ebp+2675], eax
	mov	DWORD PTR _Temp$[ebp+2679], eax
	mov	DWORD PTR _Temp$[ebp+2683], eax
	mov	BYTE PTR _Temp$[ebp+2687], al
	mov	al, BYTE PTR ??_C@_00CNPNBAHC@?$AA@
	mov	BYTE PTR _Temp$[ebp+2688], al
	xor	eax, eax
	mov	DWORD PTR _Temp$[ebp+2689], eax
	mov	DWORD PTR _Temp$[ebp+2693], eax
	mov	DWORD PTR _Temp$[ebp+2697], eax
	mov	BYTE PTR _Temp$[ebp+2701], al

; 552  : 				  "","","","","Pause","Break","Home","Up","Page Up","","Left","","Right","","End","Down",

	mov	al, BYTE PTR ??_C@_00CNPNBAHC@?$AA@
	mov	BYTE PTR _Temp$[ebp+2702], al
	xor	eax, eax
	mov	DWORD PTR _Temp$[ebp+2703], eax
	mov	DWORD PTR _Temp$[ebp+2707], eax
	mov	DWORD PTR _Temp$[ebp+2711], eax
	mov	BYTE PTR _Temp$[ebp+2715], al
	mov	al, BYTE PTR ??_C@_00CNPNBAHC@?$AA@
	mov	BYTE PTR _Temp$[ebp+2716], al
	xor	eax, eax
	mov	DWORD PTR _Temp$[ebp+2717], eax
	mov	DWORD PTR _Temp$[ebp+2721], eax
	mov	DWORD PTR _Temp$[ebp+2725], eax
	mov	BYTE PTR _Temp$[ebp+2729], al
	mov	al, BYTE PTR ??_C@_00CNPNBAHC@?$AA@
	mov	BYTE PTR _Temp$[ebp+2730], al
	xor	eax, eax
	mov	DWORD PTR _Temp$[ebp+2731], eax
	mov	DWORD PTR _Temp$[ebp+2735], eax
	mov	DWORD PTR _Temp$[ebp+2739], eax
	mov	BYTE PTR _Temp$[ebp+2743], al
	mov	al, BYTE PTR ??_C@_00CNPNBAHC@?$AA@
	mov	BYTE PTR _Temp$[ebp+2744], al
	xor	eax, eax
	mov	DWORD PTR _Temp$[ebp+2745], eax
	mov	DWORD PTR _Temp$[ebp+2749], eax
	mov	DWORD PTR _Temp$[ebp+2753], eax
	mov	BYTE PTR _Temp$[ebp+2757], al
	mov	eax, DWORD PTR ??_C@_05PEDNBBBD@Pause?$AA@
	mov	DWORD PTR _Temp$[ebp+2758], eax
	mov	cx, WORD PTR ??_C@_05PEDNBBBD@Pause?$AA@+4
	mov	WORD PTR _Temp$[ebp+2762], cx
	xor	eax, eax
	mov	DWORD PTR _Temp$[ebp+2764], eax
	mov	DWORD PTR _Temp$[ebp+2768], eax
	mov	eax, DWORD PTR ??_C@_05EMFLFCNO@Break?$AA@
	mov	DWORD PTR _Temp$[ebp+2772], eax
	mov	cx, WORD PTR ??_C@_05EMFLFCNO@Break?$AA@+4
	mov	WORD PTR _Temp$[ebp+2776], cx
	xor	eax, eax
	mov	DWORD PTR _Temp$[ebp+2778], eax
	mov	DWORD PTR _Temp$[ebp+2782], eax
	mov	eax, DWORD PTR ??_C@_04GKJODLKO@Home?$AA@
	mov	DWORD PTR _Temp$[ebp+2786], eax
	mov	cl, BYTE PTR ??_C@_04GKJODLKO@Home?$AA@+4
	mov	BYTE PTR _Temp$[ebp+2790], cl
	xor	eax, eax
	mov	DWORD PTR _Temp$[ebp+2791], eax
	mov	DWORD PTR _Temp$[ebp+2795], eax
	mov	BYTE PTR _Temp$[ebp+2799], al
	mov	ax, WORD PTR ??_C@_02EFPGLDEA@Up?$AA@
	mov	WORD PTR _Temp$[ebp+2800], ax
	mov	cl, BYTE PTR ??_C@_02EFPGLDEA@Up?$AA@+2
	mov	BYTE PTR _Temp$[ebp+2802], cl
	xor	eax, eax
	mov	DWORD PTR _Temp$[ebp+2803], eax
	mov	DWORD PTR _Temp$[ebp+2807], eax
	mov	WORD PTR _Temp$[ebp+2811], ax
	mov	BYTE PTR _Temp$[ebp+2813], al
	mov	eax, DWORD PTR ??_C@_07EDGDGJEN@Page?5Up?$AA@
	mov	DWORD PTR _Temp$[ebp+2814], eax
	mov	ecx, DWORD PTR ??_C@_07EDGDGJEN@Page?5Up?$AA@+4
	mov	DWORD PTR _Temp$[ebp+2818], ecx
	xor	eax, eax
	mov	DWORD PTR _Temp$[ebp+2822], eax
	mov	WORD PTR _Temp$[ebp+2826], ax
	mov	al, BYTE PTR ??_C@_00CNPNBAHC@?$AA@
	mov	BYTE PTR _Temp$[ebp+2828], al
	xor	eax, eax
	mov	DWORD PTR _Temp$[ebp+2829], eax
	mov	DWORD PTR _Temp$[ebp+2833], eax
	mov	DWORD PTR _Temp$[ebp+2837], eax
	mov	BYTE PTR _Temp$[ebp+2841], al
	mov	eax, DWORD PTR ??_C@_04KPCPLBPL@Left?$AA@
	mov	DWORD PTR _Temp$[ebp+2842], eax
	mov	cl, BYTE PTR ??_C@_04KPCPLBPL@Left?$AA@+4
	mov	BYTE PTR _Temp$[ebp+2846], cl
	xor	eax, eax
	mov	DWORD PTR _Temp$[ebp+2847], eax
	mov	DWORD PTR _Temp$[ebp+2851], eax
	mov	BYTE PTR _Temp$[ebp+2855], al
	mov	al, BYTE PTR ??_C@_00CNPNBAHC@?$AA@
	mov	BYTE PTR _Temp$[ebp+2856], al
	xor	eax, eax
	mov	DWORD PTR _Temp$[ebp+2857], eax
	mov	DWORD PTR _Temp$[ebp+2861], eax
	mov	DWORD PTR _Temp$[ebp+2865], eax
	mov	BYTE PTR _Temp$[ebp+2869], al
	mov	eax, DWORD PTR ??_C@_05DADPALEM@Right?$AA@
	mov	DWORD PTR _Temp$[ebp+2870], eax
	mov	cx, WORD PTR ??_C@_05DADPALEM@Right?$AA@+4
	mov	WORD PTR _Temp$[ebp+2874], cx
	xor	eax, eax
	mov	DWORD PTR _Temp$[ebp+2876], eax
	mov	DWORD PTR _Temp$[ebp+2880], eax
	mov	al, BYTE PTR ??_C@_00CNPNBAHC@?$AA@
	mov	BYTE PTR _Temp$[ebp+2884], al
	xor	eax, eax
	mov	DWORD PTR _Temp$[ebp+2885], eax
	mov	DWORD PTR _Temp$[ebp+2889], eax
	mov	DWORD PTR _Temp$[ebp+2893], eax
	mov	BYTE PTR _Temp$[ebp+2897], al
	mov	eax, DWORD PTR ??_C@_03DBKJMAGF@End?$AA@
	mov	DWORD PTR _Temp$[ebp+2898], eax
	xor	eax, eax
	mov	DWORD PTR _Temp$[ebp+2902], eax
	mov	DWORD PTR _Temp$[ebp+2906], eax
	mov	WORD PTR _Temp$[ebp+2910], ax
	mov	eax, DWORD PTR ??_C@_04FNCLCJMC@Down?$AA@
	mov	DWORD PTR _Temp$[ebp+2912], eax
	mov	cl, BYTE PTR ??_C@_04FNCLCJMC@Down?$AA@+4
	mov	BYTE PTR _Temp$[ebp+2916], cl
	xor	eax, eax
	mov	DWORD PTR _Temp$[ebp+2917], eax
	mov	DWORD PTR _Temp$[ebp+2921], eax
	mov	BYTE PTR _Temp$[ebp+2925], al

; 553  : 				  "Page Down","Insert","Delete","","","","","","","","Left Windows","Right Windows","Thing","","","",

	mov	eax, DWORD PTR ??_C@_09IOIDGKNA@Page?5Down?$AA@
	mov	DWORD PTR _Temp$[ebp+2926], eax
	mov	ecx, DWORD PTR ??_C@_09IOIDGKNA@Page?5Down?$AA@+4
	mov	DWORD PTR _Temp$[ebp+2930], ecx
	mov	dx, WORD PTR ??_C@_09IOIDGKNA@Page?5Down?$AA@+8
	mov	WORD PTR _Temp$[ebp+2934], dx
	xor	eax, eax
	mov	DWORD PTR _Temp$[ebp+2936], eax
	mov	eax, DWORD PTR ??_C@_06CPFCODOD@Insert?$AA@
	mov	DWORD PTR _Temp$[ebp+2940], eax
	mov	cx, WORD PTR ??_C@_06CPFCODOD@Insert?$AA@+4
	mov	WORD PTR _Temp$[ebp+2944], cx
	mov	dl, BYTE PTR ??_C@_06CPFCODOD@Insert?$AA@+6
	mov	BYTE PTR _Temp$[ebp+2946], dl
	xor	eax, eax
	mov	DWORD PTR _Temp$[ebp+2947], eax
	mov	WORD PTR _Temp$[ebp+2951], ax
	mov	BYTE PTR _Temp$[ebp+2953], al
	mov	eax, DWORD PTR ??_C@_06JBKGCNBB@Delete?$AA@
	mov	DWORD PTR _Temp$[ebp+2954], eax
	mov	cx, WORD PTR ??_C@_06JBKGCNBB@Delete?$AA@+4
	mov	WORD PTR _Temp$[ebp+2958], cx
	mov	dl, BYTE PTR ??_C@_06JBKGCNBB@Delete?$AA@+6
	mov	BYTE PTR _Temp$[ebp+2960], dl
	xor	eax, eax
	mov	DWORD PTR _Temp$[ebp+2961], eax
	mov	WORD PTR _Temp$[ebp+2965], ax
	mov	BYTE PTR _Temp$[ebp+2967], al
	mov	al, BYTE PTR ??_C@_00CNPNBAHC@?$AA@
	mov	BYTE PTR _Temp$[ebp+2968], al
	xor	eax, eax
	mov	DWORD PTR _Temp$[ebp+2969], eax
	mov	DWORD PTR _Temp$[ebp+2973], eax
	mov	DWORD PTR _Temp$[ebp+2977], eax
	mov	BYTE PTR _Temp$[ebp+2981], al
	mov	al, BYTE PTR ??_C@_00CNPNBAHC@?$AA@
	mov	BYTE PTR _Temp$[ebp+2982], al
	xor	eax, eax
	mov	DWORD PTR _Temp$[ebp+2983], eax
	mov	DWORD PTR _Temp$[ebp+2987], eax
	mov	DWORD PTR _Temp$[ebp+2991], eax
	mov	BYTE PTR _Temp$[ebp+2995], al
	mov	al, BYTE PTR ??_C@_00CNPNBAHC@?$AA@
	mov	BYTE PTR _Temp$[ebp+2996], al
	xor	eax, eax
	mov	DWORD PTR _Temp$[ebp+2997], eax
	mov	DWORD PTR _Temp$[ebp+3001], eax
	mov	DWORD PTR _Temp$[ebp+3005], eax
	mov	BYTE PTR _Temp$[ebp+3009], al
	mov	al, BYTE PTR ??_C@_00CNPNBAHC@?$AA@
	mov	BYTE PTR _Temp$[ebp+3010], al
	xor	eax, eax
	mov	DWORD PTR _Temp$[ebp+3011], eax
	mov	DWORD PTR _Temp$[ebp+3015], eax
	mov	DWORD PTR _Temp$[ebp+3019], eax
	mov	BYTE PTR _Temp$[ebp+3023], al
	mov	al, BYTE PTR ??_C@_00CNPNBAHC@?$AA@
	mov	BYTE PTR _Temp$[ebp+3024], al
	xor	eax, eax
	mov	DWORD PTR _Temp$[ebp+3025], eax
	mov	DWORD PTR _Temp$[ebp+3029], eax
	mov	DWORD PTR _Temp$[ebp+3033], eax
	mov	BYTE PTR _Temp$[ebp+3037], al
	mov	al, BYTE PTR ??_C@_00CNPNBAHC@?$AA@
	mov	BYTE PTR _Temp$[ebp+3038], al
	xor	eax, eax
	mov	DWORD PTR _Temp$[ebp+3039], eax
	mov	DWORD PTR _Temp$[ebp+3043], eax
	mov	DWORD PTR _Temp$[ebp+3047], eax
	mov	BYTE PTR _Temp$[ebp+3051], al
	mov	al, BYTE PTR ??_C@_00CNPNBAHC@?$AA@
	mov	BYTE PTR _Temp$[ebp+3052], al
	xor	eax, eax
	mov	DWORD PTR _Temp$[ebp+3053], eax
	mov	DWORD PTR _Temp$[ebp+3057], eax
	mov	DWORD PTR _Temp$[ebp+3061], eax
	mov	BYTE PTR _Temp$[ebp+3065], al
	mov	eax, DWORD PTR ??_C@_0N@ILBHIOPE@Left?5Windows?$AA@
	mov	DWORD PTR _Temp$[ebp+3066], eax
	mov	ecx, DWORD PTR ??_C@_0N@ILBHIOPE@Left?5Windows?$AA@+4
	mov	DWORD PTR _Temp$[ebp+3070], ecx
	mov	edx, DWORD PTR ??_C@_0N@ILBHIOPE@Left?5Windows?$AA@+8
	mov	DWORD PTR _Temp$[ebp+3074], edx
	mov	al, BYTE PTR ??_C@_0N@ILBHIOPE@Left?5Windows?$AA@+12
	mov	BYTE PTR _Temp$[ebp+3078], al
	xor	eax, eax
	mov	BYTE PTR _Temp$[ebp+3079], al
	mov	eax, DWORD PTR ??_C@_0O@IDKBPDPO@Right?5Windows?$AA@
	mov	DWORD PTR _Temp$[ebp+3080], eax
	mov	ecx, DWORD PTR ??_C@_0O@IDKBPDPO@Right?5Windows?$AA@+4
	mov	DWORD PTR _Temp$[ebp+3084], ecx
	mov	edx, DWORD PTR ??_C@_0O@IDKBPDPO@Right?5Windows?$AA@+8
	mov	DWORD PTR _Temp$[ebp+3088], edx
	mov	ax, WORD PTR ??_C@_0O@IDKBPDPO@Right?5Windows?$AA@+12
	mov	WORD PTR _Temp$[ebp+3092], ax
	mov	eax, DWORD PTR ??_C@_05FOLLILPC@Thing?$AA@
	mov	DWORD PTR _Temp$[ebp+3094], eax
	mov	cx, WORD PTR ??_C@_05FOLLILPC@Thing?$AA@+4
	mov	WORD PTR _Temp$[ebp+3098], cx
	xor	eax, eax
	mov	DWORD PTR _Temp$[ebp+3100], eax
	mov	DWORD PTR _Temp$[ebp+3104], eax
	mov	al, BYTE PTR ??_C@_00CNPNBAHC@?$AA@
	mov	BYTE PTR _Temp$[ebp+3108], al
	xor	eax, eax
	mov	DWORD PTR _Temp$[ebp+3109], eax
	mov	DWORD PTR _Temp$[ebp+3113], eax
	mov	DWORD PTR _Temp$[ebp+3117], eax
	mov	BYTE PTR _Temp$[ebp+3121], al
	mov	al, BYTE PTR ??_C@_00CNPNBAHC@?$AA@
	mov	BYTE PTR _Temp$[ebp+3122], al
	xor	eax, eax
	mov	DWORD PTR _Temp$[ebp+3123], eax
	mov	DWORD PTR _Temp$[ebp+3127], eax
	mov	DWORD PTR _Temp$[ebp+3131], eax
	mov	BYTE PTR _Temp$[ebp+3135], al
	mov	al, BYTE PTR ??_C@_00CNPNBAHC@?$AA@
	mov	BYTE PTR _Temp$[ebp+3136], al
	xor	eax, eax
	mov	DWORD PTR _Temp$[ebp+3137], eax
	mov	DWORD PTR _Temp$[ebp+3141], eax
	mov	DWORD PTR _Temp$[ebp+3145], eax
	mov	BYTE PTR _Temp$[ebp+3149], al

; 554  : 				  "","","","","","","","","","","","","","","","",

	mov	al, BYTE PTR ??_C@_00CNPNBAHC@?$AA@
	mov	BYTE PTR _Temp$[ebp+3150], al
	xor	eax, eax
	mov	DWORD PTR _Temp$[ebp+3151], eax
	mov	DWORD PTR _Temp$[ebp+3155], eax
	mov	DWORD PTR _Temp$[ebp+3159], eax
	mov	BYTE PTR _Temp$[ebp+3163], al
	mov	al, BYTE PTR ??_C@_00CNPNBAHC@?$AA@
	mov	BYTE PTR _Temp$[ebp+3164], al
	xor	eax, eax
	mov	DWORD PTR _Temp$[ebp+3165], eax
	mov	DWORD PTR _Temp$[ebp+3169], eax
	mov	DWORD PTR _Temp$[ebp+3173], eax
	mov	BYTE PTR _Temp$[ebp+3177], al
	mov	al, BYTE PTR ??_C@_00CNPNBAHC@?$AA@
	mov	BYTE PTR _Temp$[ebp+3178], al
	xor	eax, eax
	mov	DWORD PTR _Temp$[ebp+3179], eax
	mov	DWORD PTR _Temp$[ebp+3183], eax
	mov	DWORD PTR _Temp$[ebp+3187], eax
	mov	BYTE PTR _Temp$[ebp+3191], al
	mov	al, BYTE PTR ??_C@_00CNPNBAHC@?$AA@
	mov	BYTE PTR _Temp$[ebp+3192], al
	xor	eax, eax
	mov	DWORD PTR _Temp$[ebp+3193], eax
	mov	DWORD PTR _Temp$[ebp+3197], eax
	mov	DWORD PTR _Temp$[ebp+3201], eax
	mov	BYTE PTR _Temp$[ebp+3205], al
	mov	al, BYTE PTR ??_C@_00CNPNBAHC@?$AA@
	mov	BYTE PTR _Temp$[ebp+3206], al
	xor	eax, eax
	mov	DWORD PTR _Temp$[ebp+3207], eax
	mov	DWORD PTR _Temp$[ebp+3211], eax
	mov	DWORD PTR _Temp$[ebp+3215], eax
	mov	BYTE PTR _Temp$[ebp+3219], al
	mov	al, BYTE PTR ??_C@_00CNPNBAHC@?$AA@
	mov	BYTE PTR _Temp$[ebp+3220], al
	xor	eax, eax
	mov	DWORD PTR _Temp$[ebp+3221], eax
	mov	DWORD PTR _Temp$[ebp+3225], eax
	mov	DWORD PTR _Temp$[ebp+3229], eax
	mov	BYTE PTR _Temp$[ebp+3233], al
	mov	al, BYTE PTR ??_C@_00CNPNBAHC@?$AA@
	mov	BYTE PTR _Temp$[ebp+3234], al
	xor	eax, eax
	mov	DWORD PTR _Temp$[ebp+3235], eax
	mov	DWORD PTR _Temp$[ebp+3239], eax
	mov	DWORD PTR _Temp$[ebp+3243], eax
	mov	BYTE PTR _Temp$[ebp+3247], al
	mov	al, BYTE PTR ??_C@_00CNPNBAHC@?$AA@
	mov	BYTE PTR _Temp$[ebp+3248], al
	xor	eax, eax
	mov	DWORD PTR _Temp$[ebp+3249], eax
	mov	DWORD PTR _Temp$[ebp+3253], eax
	mov	DWORD PTR _Temp$[ebp+3257], eax
	mov	BYTE PTR _Temp$[ebp+3261], al
	mov	al, BYTE PTR ??_C@_00CNPNBAHC@?$AA@
	mov	BYTE PTR _Temp$[ebp+3262], al
	xor	eax, eax
	mov	DWORD PTR _Temp$[ebp+3263], eax
	mov	DWORD PTR _Temp$[ebp+3267], eax
	mov	DWORD PTR _Temp$[ebp+3271], eax
	mov	BYTE PTR _Temp$[ebp+3275], al
	mov	al, BYTE PTR ??_C@_00CNPNBAHC@?$AA@
	mov	BYTE PTR _Temp$[ebp+3276], al
	xor	eax, eax
	mov	DWORD PTR _Temp$[ebp+3277], eax
	mov	DWORD PTR _Temp$[ebp+3281], eax
	mov	DWORD PTR _Temp$[ebp+3285], eax
	mov	BYTE PTR _Temp$[ebp+3289], al
	mov	al, BYTE PTR ??_C@_00CNPNBAHC@?$AA@
	mov	BYTE PTR _Temp$[ebp+3290], al
	xor	eax, eax
	mov	DWORD PTR _Temp$[ebp+3291], eax
	mov	DWORD PTR _Temp$[ebp+3295], eax
	mov	DWORD PTR _Temp$[ebp+3299], eax
	mov	BYTE PTR _Temp$[ebp+3303], al
	mov	al, BYTE PTR ??_C@_00CNPNBAHC@?$AA@
	mov	BYTE PTR _Temp$[ebp+3304], al
	xor	eax, eax
	mov	DWORD PTR _Temp$[ebp+3305], eax
	mov	DWORD PTR _Temp$[ebp+3309], eax
	mov	DWORD PTR _Temp$[ebp+3313], eax
	mov	BYTE PTR _Temp$[ebp+3317], al
	mov	al, BYTE PTR ??_C@_00CNPNBAHC@?$AA@
	mov	BYTE PTR _Temp$[ebp+3318], al
	xor	eax, eax
	mov	DWORD PTR _Temp$[ebp+3319], eax
	mov	DWORD PTR _Temp$[ebp+3323], eax
	mov	DWORD PTR _Temp$[ebp+3327], eax
	mov	BYTE PTR _Temp$[ebp+3331], al
	mov	al, BYTE PTR ??_C@_00CNPNBAHC@?$AA@
	mov	BYTE PTR _Temp$[ebp+3332], al
	xor	eax, eax
	mov	DWORD PTR _Temp$[ebp+3333], eax
	mov	DWORD PTR _Temp$[ebp+3337], eax
	mov	DWORD PTR _Temp$[ebp+3341], eax
	mov	BYTE PTR _Temp$[ebp+3345], al
	mov	al, BYTE PTR ??_C@_00CNPNBAHC@?$AA@
	mov	BYTE PTR _Temp$[ebp+3346], al
	xor	eax, eax
	mov	DWORD PTR _Temp$[ebp+3347], eax
	mov	DWORD PTR _Temp$[ebp+3351], eax
	mov	DWORD PTR _Temp$[ebp+3355], eax
	mov	BYTE PTR _Temp$[ebp+3359], al
	mov	al, BYTE PTR ??_C@_00CNPNBAHC@?$AA@
	mov	BYTE PTR _Temp$[ebp+3360], al
	xor	eax, eax
	mov	DWORD PTR _Temp$[ebp+3361], eax
	mov	DWORD PTR _Temp$[ebp+3365], eax
	mov	DWORD PTR _Temp$[ebp+3369], eax
	mov	BYTE PTR _Temp$[ebp+3373], al

; 555  : 				  "","","","","","","","","","","","","","","",""};

	mov	al, BYTE PTR ??_C@_00CNPNBAHC@?$AA@
	mov	BYTE PTR _Temp$[ebp+3374], al
	xor	eax, eax
	mov	DWORD PTR _Temp$[ebp+3375], eax
	mov	DWORD PTR _Temp$[ebp+3379], eax
	mov	DWORD PTR _Temp$[ebp+3383], eax
	mov	BYTE PTR _Temp$[ebp+3387], al
	mov	al, BYTE PTR ??_C@_00CNPNBAHC@?$AA@
	mov	BYTE PTR _Temp$[ebp+3388], al
	xor	eax, eax
	mov	DWORD PTR _Temp$[ebp+3389], eax
	mov	DWORD PTR _Temp$[ebp+3393], eax
	mov	DWORD PTR _Temp$[ebp+3397], eax
	mov	BYTE PTR _Temp$[ebp+3401], al
	mov	al, BYTE PTR ??_C@_00CNPNBAHC@?$AA@
	mov	BYTE PTR _Temp$[ebp+3402], al
	xor	eax, eax
	mov	DWORD PTR _Temp$[ebp+3403], eax
	mov	DWORD PTR _Temp$[ebp+3407], eax
	mov	DWORD PTR _Temp$[ebp+3411], eax
	mov	BYTE PTR _Temp$[ebp+3415], al
	mov	al, BYTE PTR ??_C@_00CNPNBAHC@?$AA@
	mov	BYTE PTR _Temp$[ebp+3416], al
	xor	eax, eax
	mov	DWORD PTR _Temp$[ebp+3417], eax
	mov	DWORD PTR _Temp$[ebp+3421], eax
	mov	DWORD PTR _Temp$[ebp+3425], eax
	mov	BYTE PTR _Temp$[ebp+3429], al
	mov	al, BYTE PTR ??_C@_00CNPNBAHC@?$AA@
	mov	BYTE PTR _Temp$[ebp+3430], al
	xor	eax, eax
	mov	DWORD PTR _Temp$[ebp+3431], eax
	mov	DWORD PTR _Temp$[ebp+3435], eax
	mov	DWORD PTR _Temp$[ebp+3439], eax
	mov	BYTE PTR _Temp$[ebp+3443], al
	mov	al, BYTE PTR ??_C@_00CNPNBAHC@?$AA@
	mov	BYTE PTR _Temp$[ebp+3444], al
	xor	eax, eax
	mov	DWORD PTR _Temp$[ebp+3445], eax
	mov	DWORD PTR _Temp$[ebp+3449], eax
	mov	DWORD PTR _Temp$[ebp+3453], eax
	mov	BYTE PTR _Temp$[ebp+3457], al
	mov	al, BYTE PTR ??_C@_00CNPNBAHC@?$AA@
	mov	BYTE PTR _Temp$[ebp+3458], al
	xor	eax, eax
	mov	DWORD PTR _Temp$[ebp+3459], eax
	mov	DWORD PTR _Temp$[ebp+3463], eax
	mov	DWORD PTR _Temp$[ebp+3467], eax
	mov	BYTE PTR _Temp$[ebp+3471], al
	mov	al, BYTE PTR ??_C@_00CNPNBAHC@?$AA@
	mov	BYTE PTR _Temp$[ebp+3472], al
	xor	eax, eax
	mov	DWORD PTR _Temp$[ebp+3473], eax
	mov	DWORD PTR _Temp$[ebp+3477], eax
	mov	DWORD PTR _Temp$[ebp+3481], eax
	mov	BYTE PTR _Temp$[ebp+3485], al
	mov	al, BYTE PTR ??_C@_00CNPNBAHC@?$AA@
	mov	BYTE PTR _Temp$[ebp+3486], al
	xor	eax, eax
	mov	DWORD PTR _Temp$[ebp+3487], eax
	mov	DWORD PTR _Temp$[ebp+3491], eax
	mov	DWORD PTR _Temp$[ebp+3495], eax
	mov	BYTE PTR _Temp$[ebp+3499], al
	mov	al, BYTE PTR ??_C@_00CNPNBAHC@?$AA@
	mov	BYTE PTR _Temp$[ebp+3500], al
	xor	eax, eax
	mov	DWORD PTR _Temp$[ebp+3501], eax
	mov	DWORD PTR _Temp$[ebp+3505], eax
	mov	DWORD PTR _Temp$[ebp+3509], eax
	mov	BYTE PTR _Temp$[ebp+3513], al
	mov	al, BYTE PTR ??_C@_00CNPNBAHC@?$AA@
	mov	BYTE PTR _Temp$[ebp+3514], al
	xor	eax, eax
	mov	DWORD PTR _Temp$[ebp+3515], eax
	mov	DWORD PTR _Temp$[ebp+3519], eax
	mov	DWORD PTR _Temp$[ebp+3523], eax
	mov	BYTE PTR _Temp$[ebp+3527], al
	mov	al, BYTE PTR ??_C@_00CNPNBAHC@?$AA@
	mov	BYTE PTR _Temp$[ebp+3528], al
	xor	eax, eax
	mov	DWORD PTR _Temp$[ebp+3529], eax
	mov	DWORD PTR _Temp$[ebp+3533], eax
	mov	DWORD PTR _Temp$[ebp+3537], eax
	mov	BYTE PTR _Temp$[ebp+3541], al
	mov	al, BYTE PTR ??_C@_00CNPNBAHC@?$AA@
	mov	BYTE PTR _Temp$[ebp+3542], al
	xor	eax, eax
	mov	DWORD PTR _Temp$[ebp+3543], eax
	mov	DWORD PTR _Temp$[ebp+3547], eax
	mov	DWORD PTR _Temp$[ebp+3551], eax
	mov	BYTE PTR _Temp$[ebp+3555], al
	mov	al, BYTE PTR ??_C@_00CNPNBAHC@?$AA@
	mov	BYTE PTR _Temp$[ebp+3556], al
	xor	eax, eax
	mov	DWORD PTR _Temp$[ebp+3557], eax
	mov	DWORD PTR _Temp$[ebp+3561], eax
	mov	DWORD PTR _Temp$[ebp+3565], eax
	mov	BYTE PTR _Temp$[ebp+3569], al
	mov	al, BYTE PTR ??_C@_00CNPNBAHC@?$AA@
	mov	BYTE PTR _Temp$[ebp+3570], al
	xor	eax, eax
	mov	DWORD PTR _Temp$[ebp+3571], eax
	mov	DWORD PTR _Temp$[ebp+3575], eax
	mov	DWORD PTR _Temp$[ebp+3579], eax
	mov	BYTE PTR _Temp$[ebp+3583], al
	mov	al, BYTE PTR ??_C@_00CNPNBAHC@?$AA@
	mov	BYTE PTR _Temp$[ebp+3584], al
	xor	eax, eax
	mov	DWORD PTR _Temp$[ebp+3585], eax
	mov	DWORD PTR _Temp$[ebp+3589], eax
	mov	DWORD PTR _Temp$[ebp+3593], eax
	mov	BYTE PTR _Temp$[ebp+3597], al

; 556  : 	
; 557  : 	for(int i=0;i<257;i++)

	mov	DWORD PTR _i$91480[ebp], 0
	jmp	SHORT $LN9@KeyHandler
$LN8@KeyHandler:
	mov	eax, DWORD PTR _i$91480[ebp]
	add	eax, 1
	mov	DWORD PTR _i$91480[ebp], eax
$LN9@KeyHandler:
	cmp	DWORD PTR _i$91480[ebp], 257		; 00000101H
	jge	SHORT $LN7@KeyHandler

; 558  : 		for(int j=0;j<14;j++)

	mov	DWORD PTR _j$91484[ebp], 0
	jmp	SHORT $LN6@KeyHandler
$LN5@KeyHandler:
	mov	eax, DWORD PTR _j$91484[ebp]
	add	eax, 1
	mov	DWORD PTR _j$91484[ebp], eax
$LN6@KeyHandler:
	cmp	DWORD PTR _j$91484[ebp], 14		; 0000000eH
	jge	SHORT $LN4@KeyHandler

; 559  : 			this->Keys[i][j]=Temp[i][j];

	mov	eax, DWORD PTR _i$91480[ebp]
	imul	eax, 14					; 0000000eH
	lea	ecx, DWORD PTR _Temp$[ebp+eax]
	mov	edx, DWORD PTR _i$91480[ebp]
	imul	edx, 14					; 0000000eH
	add	edx, DWORD PTR _j$91484[ebp]
	mov	eax, DWORD PTR _this$[ebp]
	mov	esi, DWORD PTR _j$91484[ebp]
	mov	cl, BYTE PTR [ecx+esi]
	mov	BYTE PTR [eax+edx+1281], cl
	jmp	SHORT $LN5@KeyHandler
$LN4@KeyHandler:
	jmp	SHORT $LN8@KeyHandler
$LN7@KeyHandler:

; 560  : 
; 561  : 	for(int i=0;i<256;i++)

	mov	DWORD PTR _i$91488[ebp], 0
	jmp	SHORT $LN3@KeyHandler
$LN2@KeyHandler:
	mov	eax, DWORD PTR _i$91488[ebp]
	add	eax, 1
	mov	DWORD PTR _i$91488[ebp], eax
$LN3@KeyHandler:
	cmp	DWORD PTR _i$91488[ebp], 256		; 00000100H
	jge	SHORT $LN1@KeyHandler

; 562  : 	{
; 563  : 		KeyState1[i]=false;

	mov	eax, DWORD PTR _this$[ebp]
	add	eax, DWORD PTR _i$91488[ebp]
	mov	BYTE PTR [eax+1], 0

; 564  : 		KeyState2[i]=false;

	mov	eax, DWORD PTR _this$[ebp]
	add	eax, DWORD PTR _i$91488[ebp]
	mov	BYTE PTR [eax+257], 0

; 565  : 		KeyState3[i]=false;

	mov	eax, DWORD PTR _this$[ebp]
	add	eax, DWORD PTR _i$91488[ebp]
	mov	BYTE PTR [eax+513], 0

; 566  : 		KeyState4[i]=false;

	mov	eax, DWORD PTR _this$[ebp]
	add	eax, DWORD PTR _i$91488[ebp]
	mov	BYTE PTR [eax+769], 0

; 567  : 		KeyState5[i]=false;

	mov	eax, DWORD PTR _this$[ebp]
	add	eax, DWORD PTR _i$91488[ebp]
	mov	BYTE PTR [eax+1025], 0

; 568  : 	}

	jmp	SHORT $LN2@KeyHandler
$LN1@KeyHandler:

; 569  : 
; 570  : 	this->Bound=false;

	mov	eax, DWORD PTR _this$[ebp]
	mov	BYTE PTR [eax], 0

; 571  : 	this->MouseSyncX=0;

	mov	eax, DWORD PTR _this$[ebp]
	mov	DWORD PTR [eax+4892], 0

; 572  : 	this->MouseSyncY=0;

	mov	eax, DWORD PTR _this$[ebp]
	mov	DWORD PTR [eax+4896], 0

; 573  : 	this->MouseLeft=-1;

	mov	eax, DWORD PTR _this$[ebp]
	mov	DWORD PTR [eax+4884], -1

; 574  : 	this->MouseRight=-1;

	mov	eax, DWORD PTR _this$[ebp]
	mov	DWORD PTR [eax+4888], -1

; 575  : 	this->MouseDown=-1;

	mov	eax, DWORD PTR _this$[ebp]
	mov	DWORD PTR [eax+4880], -1

; 576  : 	this->MouseUp=-1;

	mov	eax, DWORD PTR _this$[ebp]
	mov	DWORD PTR [eax+4900], -1

; 577  : 
; 578  : 	return;
; 579  : }

	mov	eax, DWORD PTR _this$[ebp]
	pop	edi
	pop	esi
	pop	ebx
	mov	ecx, DWORD PTR __$ArrayPad$[ebp]
	xor	ecx, ebp
	call	@__security_check_cookie@4
	mov	esp, ebp
	pop	ebp
	ret	0
??0KeyHandler@@QAE@XZ ENDP				; KeyHandler::KeyHandler
_TEXT	ENDS
PUBLIC	__$ArrayPad$
PUBLIC	??0KeyHandler@@QAE@PAVMouseHandler@@HHHHHH@Z	; KeyHandler::KeyHandler
; Function compile flags: /Odtp /ZI
;	COMDAT ??0KeyHandler@@QAE@PAVMouseHandler@@HHHHHH@Z
_TEXT	SEGMENT
_i$91511 = -3620					; size = 4
_j$91507 = -3616					; size = 4
_i$91503 = -3612					; size = 4
_Temp$ = -3608						; size = 3598
_this$ = -8						; size = 4
__$ArrayPad$ = -4					; size = 4
_Mouse$ = 8						; size = 4
_XSpeed$ = 12						; size = 4
_YSpeed$ = 16						; size = 4
_BindMouseXLeft$ = 20					; size = 4
_BindMouseXRight$ = 24					; size = 4
_BindMouseYUp$ = 28					; size = 4
_BindMouseYDown$ = 32					; size = 4
??0KeyHandler@@QAE@PAVMouseHandler@@HHHHHH@Z PROC	; KeyHandler::KeyHandler, COMDAT
; _this$ = ecx

; 581  : {

	push	ebp
	mov	ebp, esp
	sub	esp, 3684				; 00000e64H
	mov	eax, DWORD PTR ___security_cookie
	xor	eax, ebp
	mov	DWORD PTR __$ArrayPad$[ebp], eax
	push	ebx
	push	esi
	push	edi
	mov	DWORD PTR _this$[ebp], ecx

; 582  : 	char Temp[257][14]={"Null Key","Escape","1 Key","2 Key","3 Key","4 Key","5 Key","6 Key","7 Key","8 Key","9 Key","0 Key","- Key","= Key","Backspace","Tab","Q",

	mov	eax, DWORD PTR ??_C@_08OFADHOMM@Null?5Key?$AA@
	mov	DWORD PTR _Temp$[ebp], eax
	mov	ecx, DWORD PTR ??_C@_08OFADHOMM@Null?5Key?$AA@+4
	mov	DWORD PTR _Temp$[ebp+4], ecx
	mov	dl, BYTE PTR ??_C@_08OFADHOMM@Null?5Key?$AA@+8
	mov	BYTE PTR _Temp$[ebp+8], dl
	xor	eax, eax
	mov	DWORD PTR _Temp$[ebp+9], eax
	mov	BYTE PTR _Temp$[ebp+13], al
	mov	eax, DWORD PTR ??_C@_06OIGFGPHJ@Escape?$AA@
	mov	DWORD PTR _Temp$[ebp+14], eax
	mov	cx, WORD PTR ??_C@_06OIGFGPHJ@Escape?$AA@+4
	mov	WORD PTR _Temp$[ebp+18], cx
	mov	dl, BYTE PTR ??_C@_06OIGFGPHJ@Escape?$AA@+6
	mov	BYTE PTR _Temp$[ebp+20], dl
	xor	eax, eax
	mov	DWORD PTR _Temp$[ebp+21], eax
	mov	WORD PTR _Temp$[ebp+25], ax
	mov	BYTE PTR _Temp$[ebp+27], al
	mov	eax, DWORD PTR ??_C@_05LMCOLBBI@1?5Key?$AA@
	mov	DWORD PTR _Temp$[ebp+28], eax
	mov	cx, WORD PTR ??_C@_05LMCOLBBI@1?5Key?$AA@+4
	mov	WORD PTR _Temp$[ebp+32], cx
	xor	eax, eax
	mov	DWORD PTR _Temp$[ebp+34], eax
	mov	DWORD PTR _Temp$[ebp+38], eax
	mov	eax, DWORD PTR ??_C@_05DKLKMDLG@2?5Key?$AA@
	mov	DWORD PTR _Temp$[ebp+42], eax
	mov	cx, WORD PTR ??_C@_05DKLKMDLG@2?5Key?$AA@+4
	mov	WORD PTR _Temp$[ebp+46], cx
	xor	eax, eax
	mov	DWORD PTR _Temp$[ebp+48], eax
	mov	DWORD PTR _Temp$[ebp+52], eax
	mov	eax, DWORD PTR ??_C@_05PBOGBABD@3?5Key?$AA@
	mov	DWORD PTR _Temp$[ebp+56], eax
	mov	cx, WORD PTR ??_C@_05PBOGBABD@3?5Key?$AA@+4
	mov	WORD PTR _Temp$[ebp+60], cx
	xor	eax, eax
	mov	DWORD PTR _Temp$[ebp+62], eax
	mov	DWORD PTR _Temp$[ebp+66], eax
	mov	eax, DWORD PTR ??_C@_05OMODCAKL@4?5Key?$AA@
	mov	DWORD PTR _Temp$[ebp+70], eax
	mov	cx, WORD PTR ??_C@_05OMODCAKL@4?5Key?$AA@+4
	mov	WORD PTR _Temp$[ebp+74], cx
	xor	eax, eax
	mov	DWORD PTR _Temp$[ebp+76], eax
	mov	DWORD PTR _Temp$[ebp+80], eax
	mov	eax, DWORD PTR ??_C@_05CHLPPDAO@5?5Key?$AA@
	mov	DWORD PTR _Temp$[ebp+84], eax
	mov	cx, WORD PTR ??_C@_05CHLPPDAO@5?5Key?$AA@+4
	mov	WORD PTR _Temp$[ebp+88], cx
	xor	eax, eax
	mov	DWORD PTR _Temp$[ebp+90], eax
	mov	DWORD PTR _Temp$[ebp+94], eax
	mov	eax, DWORD PTR ??_C@_05KBCLIBKA@6?5Key?$AA@
	mov	DWORD PTR _Temp$[ebp+98], eax
	mov	cx, WORD PTR ??_C@_05KBCLIBKA@6?5Key?$AA@+4
	mov	WORD PTR _Temp$[ebp+102], cx
	xor	eax, eax
	mov	DWORD PTR _Temp$[ebp+104], eax
	mov	DWORD PTR _Temp$[ebp+108], eax
	mov	eax, DWORD PTR ??_C@_05GKHHFCAF@7?5Key?$AA@
	mov	DWORD PTR _Temp$[ebp+112], eax
	mov	cx, WORD PTR ??_C@_05GKHHFCAF@7?5Key?$AA@+4
	mov	WORD PTR _Temp$[ebp+116], cx
	xor	eax, eax
	mov	DWORD PTR _Temp$[ebp+118], eax
	mov	DWORD PTR _Temp$[ebp+122], eax
	mov	eax, DWORD PTR ??_C@_05JLCBOANA@8?5Key?$AA@
	mov	DWORD PTR _Temp$[ebp+126], eax
	mov	cx, WORD PTR ??_C@_05JLCBOANA@8?5Key?$AA@+4
	mov	WORD PTR _Temp$[ebp+130], cx
	xor	eax, eax
	mov	DWORD PTR _Temp$[ebp+132], eax
	mov	DWORD PTR _Temp$[ebp+136], eax
	mov	eax, DWORD PTR ??_C@_05FAHNDDHF@9?5Key?$AA@
	mov	DWORD PTR _Temp$[ebp+140], eax
	mov	cx, WORD PTR ??_C@_05FAHNDDHF@9?5Key?$AA@+4
	mov	WORD PTR _Temp$[ebp+144], cx
	xor	eax, eax
	mov	DWORD PTR _Temp$[ebp+146], eax
	mov	DWORD PTR _Temp$[ebp+150], eax
	mov	eax, DWORD PTR ??_C@_05HHHCGCLN@0?5Key?$AA@
	mov	DWORD PTR _Temp$[ebp+154], eax
	mov	cx, WORD PTR ??_C@_05HHHCGCLN@0?5Key?$AA@+4
	mov	WORD PTR _Temp$[ebp+158], cx
	xor	eax, eax
	mov	DWORD PTR _Temp$[ebp+160], eax
	mov	DWORD PTR _Temp$[ebp+164], eax
	mov	eax, DWORD PTR ??_C@_05MIDKHDPI@?9?5Key?$AA@
	mov	DWORD PTR _Temp$[ebp+168], eax
	mov	cx, WORD PTR ??_C@_05MIDKHDPI@?9?5Key?$AA@+4
	mov	WORD PTR _Temp$[ebp+172], cx
	xor	eax, eax
	mov	DWORD PTR _Temp$[ebp+174], eax
	mov	DWORD PTR _Temp$[ebp+178], eax
	mov	eax, DWORD PTR ??_C@_05MLOMHBGD@?$DN?5Key?$AA@
	mov	DWORD PTR _Temp$[ebp+182], eax
	mov	cx, WORD PTR ??_C@_05MLOMHBGD@?$DN?5Key?$AA@+4
	mov	WORD PTR _Temp$[ebp+186], cx
	xor	eax, eax
	mov	DWORD PTR _Temp$[ebp+188], eax
	mov	DWORD PTR _Temp$[ebp+192], eax
	mov	eax, DWORD PTR ??_C@_09LPBCIPOJ@Backspace?$AA@
	mov	DWORD PTR _Temp$[ebp+196], eax
	mov	ecx, DWORD PTR ??_C@_09LPBCIPOJ@Backspace?$AA@+4
	mov	DWORD PTR _Temp$[ebp+200], ecx
	mov	dx, WORD PTR ??_C@_09LPBCIPOJ@Backspace?$AA@+8
	mov	WORD PTR _Temp$[ebp+204], dx
	xor	eax, eax
	mov	DWORD PTR _Temp$[ebp+206], eax
	mov	eax, DWORD PTR ??_C@_03IEAKBACE@Tab?$AA@
	mov	DWORD PTR _Temp$[ebp+210], eax
	xor	eax, eax
	mov	DWORD PTR _Temp$[ebp+214], eax
	mov	DWORD PTR _Temp$[ebp+218], eax
	mov	WORD PTR _Temp$[ebp+222], ax
	mov	ax, WORD PTR ??_C@_01BNIGIBBF@Q?$AA@
	mov	WORD PTR _Temp$[ebp+224], ax
	xor	eax, eax
	mov	DWORD PTR _Temp$[ebp+226], eax
	mov	DWORD PTR _Temp$[ebp+230], eax
	mov	DWORD PTR _Temp$[ebp+234], eax

; 583  : 				  "W","E","R","T","Y","U","I","O","P","[","]","Right Enter","Left Control","A","S","D",

	mov	ax, WORD PTR ??_C@_01ELNMCGJD@W?$AA@
	mov	WORD PTR _Temp$[ebp+238], ax
	xor	eax, eax
	mov	DWORD PTR _Temp$[ebp+240], eax
	mov	DWORD PTR _Temp$[ebp+244], eax
	mov	DWORD PTR _Temp$[ebp+248], eax
	mov	ax, WORD PTR ??_C@_01DDCIFGEA@E?$AA@
	mov	WORD PTR _Temp$[ebp+252], ax
	xor	eax, eax
	mov	DWORD PTR _Temp$[ebp+254], eax
	mov	DWORD PTR _Temp$[ebp+258], eax
	mov	DWORD PTR _Temp$[ebp+262], eax
	mov	ax, WORD PTR ??_C@_01DGKLNCNG@R?$AA@
	mov	WORD PTR _Temp$[ebp+266], ax
	xor	eax, eax
	mov	DWORD PTR _Temp$[ebp+268], eax
	mov	DWORD PTR _Temp$[ebp+272], eax
	mov	DWORD PTR _Temp$[ebp+276], eax
	mov	ax, WORD PTR ??_C@_01GAPBHFFA@T?$AA@
	mov	WORD PTR _Temp$[ebp+280], ax
	xor	eax, eax
	mov	DWORD PTR _Temp$[ebp+282], eax
	mov	DWORD PTR _Temp$[ebp+286], eax
	mov	DWORD PTR _Temp$[ebp+290], eax
	mov	ax, WORD PTR ??_C@_01NFFPALBN@Y?$AA@
	mov	WORD PTR _Temp$[ebp+294], ax
	xor	eax, eax
	mov	DWORD PTR _Temp$[ebp+296], eax
	mov	DWORD PTR _Temp$[ebp+300], eax
	mov	DWORD PTR _Temp$[ebp+304], eax
	mov	ax, WORD PTR ??_C@_01HJOKEEBB@U?$AA@
	mov	WORD PTR _Temp$[ebp+308], ax
	xor	eax, eax
	mov	DWORD PTR _Temp$[ebp+310], eax
	mov	DWORD PTR _Temp$[ebp+314], eax
	mov	DWORD PTR _Temp$[ebp+318], eax
	mov	ax, WORD PTR ??_C@_01JPJNBJEM@I?$AA@
	mov	WORD PTR _Temp$[ebp+322], ax
	xor	eax, eax
	mov	DWORD PTR _Temp$[ebp+324], eax
	mov	DWORD PTR _Temp$[ebp+328], eax
	mov	DWORD PTR _Temp$[ebp+332], eax
	mov	ax, WORD PTR ??_C@_01MJMHLOMK@O?$AA@
	mov	WORD PTR _Temp$[ebp+336], ax
	xor	eax, eax
	mov	DWORD PTR _Temp$[ebp+338], eax
	mov	DWORD PTR _Temp$[ebp+342], eax
	mov	DWORD PTR _Temp$[ebp+346], eax
	mov	ax, WORD PTR ??_C@_01EJNLAFE@P?$AA@
	mov	WORD PTR _Temp$[ebp+350], ax
	xor	eax, eax
	mov	DWORD PTR _Temp$[ebp+352], eax
	mov	DWORD PTR _Temp$[ebp+356], eax
	mov	DWORD PTR _Temp$[ebp+360], eax
	mov	ax, WORD PTR ??_C@_01OHGJGJJP@?$FL?$AA@
	mov	WORD PTR _Temp$[ebp+364], ax
	xor	eax, eax
	mov	DWORD PTR _Temp$[ebp+366], eax
	mov	DWORD PTR _Temp$[ebp+370], eax
	mov	DWORD PTR _Temp$[ebp+374], eax
	mov	ax, WORD PTR ??_C@_01LBDDMOBJ@?$FN?$AA@
	mov	WORD PTR _Temp$[ebp+378], ax
	xor	eax, eax
	mov	DWORD PTR _Temp$[ebp+380], eax
	mov	DWORD PTR _Temp$[ebp+384], eax
	mov	DWORD PTR _Temp$[ebp+388], eax
	mov	eax, DWORD PTR ??_C@_0M@ICALLIHK@Right?5Enter?$AA@
	mov	DWORD PTR _Temp$[ebp+392], eax
	mov	ecx, DWORD PTR ??_C@_0M@ICALLIHK@Right?5Enter?$AA@+4
	mov	DWORD PTR _Temp$[ebp+396], ecx
	mov	edx, DWORD PTR ??_C@_0M@ICALLIHK@Right?5Enter?$AA@+8
	mov	DWORD PTR _Temp$[ebp+400], edx
	xor	eax, eax
	mov	WORD PTR _Temp$[ebp+404], ax
	mov	eax, DWORD PTR ??_C@_0N@NMKGAIJ@Left?5Control?$AA@
	mov	DWORD PTR _Temp$[ebp+406], eax
	mov	ecx, DWORD PTR ??_C@_0N@NMKGAIJ@Left?5Control?$AA@+4
	mov	DWORD PTR _Temp$[ebp+410], ecx
	mov	edx, DWORD PTR ??_C@_0N@NMKGAIJ@Left?5Control?$AA@+8
	mov	DWORD PTR _Temp$[ebp+414], edx
	mov	al, BYTE PTR ??_C@_0N@NMKGAIJ@Left?5Control?$AA@+12
	mov	BYTE PTR _Temp$[ebp+418], al
	xor	eax, eax
	mov	BYTE PTR _Temp$[ebp+419], al
	mov	ax, WORD PTR ??_C@_01FHEEJDEE@A?$AA@
	mov	WORD PTR _Temp$[ebp+420], ax
	xor	eax, eax
	mov	DWORD PTR _Temp$[ebp+422], eax
	mov	DWORD PTR _Temp$[ebp+426], eax
	mov	DWORD PTR _Temp$[ebp+430], eax
	mov	ax, WORD PTR ??_C@_01CPLAODJH@S?$AA@
	mov	WORD PTR _Temp$[ebp+434], ax
	xor	eax, eax
	mov	DWORD PTR _Temp$[ebp+436], eax
	mov	DWORD PTR _Temp$[ebp+440], eax
	mov	DWORD PTR _Temp$[ebp+444], eax
	mov	ax, WORD PTR ??_C@_01CKDDGHAB@D?$AA@
	mov	WORD PTR _Temp$[ebp+448], ax
	xor	eax, eax
	mov	DWORD PTR _Temp$[ebp+450], eax
	mov	DWORD PTR _Temp$[ebp+454], eax
	mov	DWORD PTR _Temp$[ebp+458], eax

; 584  : 				  "F","G","H","J","K","L",";","\'","`","Left Shift","\\","Z","X","C","V","B",

	mov	ax, WORD PTR ??_C@_01BIAFAFID@F?$AA@
	mov	WORD PTR _Temp$[ebp+462], ax
	xor	eax, eax
	mov	DWORD PTR _Temp$[ebp+464], eax
	mov	DWORD PTR _Temp$[ebp+468], eax
	mov	DWORD PTR _Temp$[ebp+472], eax
	mov	ax, WORD PTR ??_C@_01BBODEMC@G?$AA@
	mov	WORD PTR _Temp$[ebp+476], ax
	xor	eax, eax
	mov	DWORD PTR _Temp$[ebp+478], eax
	mov	DWORD PTR _Temp$[ebp+482], eax
	mov	DWORD PTR _Temp$[ebp+486], eax
	mov	ax, WORD PTR ??_C@_01IGIGCIAN@H?$AA@
	mov	WORD PTR _Temp$[ebp+490], ax
	xor	eax, eax
	mov	DWORD PTR _Temp$[ebp+492], eax
	mov	DWORD PTR _Temp$[ebp+496], eax
	mov	DWORD PTR _Temp$[ebp+500], eax
	mov	ax, WORD PTR ??_C@_01LELAEKIP@J?$AA@
	mov	WORD PTR _Temp$[ebp+504], ax
	xor	eax, eax
	mov	DWORD PTR _Temp$[ebp+506], eax
	mov	DWORD PTR _Temp$[ebp+510], eax
	mov	DWORD PTR _Temp$[ebp+514], eax
	mov	ax, WORD PTR ??_C@_01KNKLHLMO@K?$AA@
	mov	WORD PTR _Temp$[ebp+518], ax
	xor	eax, eax
	mov	DWORD PTR _Temp$[ebp+520], eax
	mov	DWORD PTR _Temp$[ebp+524], eax
	mov	DWORD PTR _Temp$[ebp+528], eax
	mov	ax, WORD PTR ??_C@_01OCOKONAJ@L?$AA@
	mov	WORD PTR _Temp$[ebp+532], ax
	xor	eax, eax
	mov	DWORD PTR _Temp$[ebp+534], eax
	mov	DWORD PTR _Temp$[ebp+538], eax
	mov	DWORD PTR _Temp$[ebp+542], eax
	mov	ax, WORD PTR ??_C@_01ICJEACDI@?$DL?$AA@
	mov	WORD PTR _Temp$[ebp+546], ax
	xor	eax, eax
	mov	DWORD PTR _Temp$[ebp+548], eax
	mov	DWORD PTR _Temp$[ebp+552], eax
	mov	DWORD PTR _Temp$[ebp+556], eax
	mov	ax, WORD PTR ??_C@_01GEODFPGF@?8?$AA@
	mov	WORD PTR _Temp$[ebp+560], ax
	xor	eax, eax
	mov	DWORD PTR _Temp$[ebp+562], eax
	mov	DWORD PTR _Temp$[ebp+566], eax
	mov	DWORD PTR _Temp$[ebp+570], eax
	mov	ax, WORD PTR ??_C@_01NLNLIGKH@?$GA?$AA@
	mov	WORD PTR _Temp$[ebp+574], ax
	xor	eax, eax
	mov	DWORD PTR _Temp$[ebp+576], eax
	mov	DWORD PTR _Temp$[ebp+580], eax
	mov	DWORD PTR _Temp$[ebp+584], eax
	mov	eax, DWORD PTR ??_C@_0L@NFEFKBOL@Left?5Shift?$AA@
	mov	DWORD PTR _Temp$[ebp+588], eax
	mov	ecx, DWORD PTR ??_C@_0L@NFEFKBOL@Left?5Shift?$AA@+4
	mov	DWORD PTR _Temp$[ebp+592], ecx
	mov	dx, WORD PTR ??_C@_0L@NFEFKBOL@Left?5Shift?$AA@+8
	mov	WORD PTR _Temp$[ebp+596], dx
	mov	al, BYTE PTR ??_C@_0L@NFEFKBOL@Left?5Shift?$AA@+10
	mov	BYTE PTR _Temp$[ebp+598], al
	xor	eax, eax
	mov	WORD PTR _Temp$[ebp+599], ax
	mov	BYTE PTR _Temp$[ebp+601], al
	mov	ax, WORD PTR ??_C@_01KICIPPFI@?2?$AA@
	mov	WORD PTR _Temp$[ebp+602], ax
	xor	eax, eax
	mov	DWORD PTR _Temp$[ebp+604], eax
	mov	DWORD PTR _Temp$[ebp+608], eax
	mov	DWORD PTR _Temp$[ebp+612], eax
	mov	ax, WORD PTR ??_C@_01POHCFINO@Z?$AA@
	mov	WORD PTR _Temp$[ebp+616], ax
	xor	eax, eax
	mov	DWORD PTR _Temp$[ebp+618], eax
	mov	DWORD PTR _Temp$[ebp+622], eax
	mov	DWORD PTR _Temp$[ebp+626], eax
	mov	ax, WORD PTR ??_C@_01MMEEDKFM@X?$AA@
	mov	WORD PTR _Temp$[ebp+630], ax
	xor	eax, eax
	mov	DWORD PTR _Temp$[ebp+632], eax
	mov	DWORD PTR _Temp$[ebp+636], eax
	mov	DWORD PTR _Temp$[ebp+640], eax
	mov	ax, WORD PTR ??_C@_01GFHCPBMG@C?$AA@
	mov	WORD PTR _Temp$[ebp+644], ax
	xor	eax, eax
	mov	DWORD PTR _Temp$[ebp+646], eax
	mov	DWORD PTR _Temp$[ebp+650], eax
	mov	DWORD PTR _Temp$[ebp+654], eax
	mov	ax, WORD PTR ??_C@_01FCMHBHNC@V?$AA@
	mov	WORD PTR _Temp$[ebp+658], ax
	xor	eax, eax
	mov	DWORD PTR _Temp$[ebp+660], eax
	mov	DWORD PTR _Temp$[ebp+664], eax
	mov	DWORD PTR _Temp$[ebp+668], eax
	mov	ax, WORD PTR ??_C@_01HMGJMAIH@B?$AA@
	mov	WORD PTR _Temp$[ebp+672], ax
	xor	eax, eax
	mov	DWORD PTR _Temp$[ebp+674], eax
	mov	DWORD PTR _Temp$[ebp+678], eax
	mov	DWORD PTR _Temp$[ebp+682], eax

; 585  : 				  "N","M",",",".","/","Right Shift","*","Left Alt","Space","Caps Lock","F1","F2","F3","F4","F5","F6",

	mov	ax, WORD PTR ??_C@_01NANMIPIL@N?$AA@
	mov	WORD PTR _Temp$[ebp+686], ax
	xor	eax, eax
	mov	DWORD PTR _Temp$[ebp+688], eax
	mov	DWORD PTR _Temp$[ebp+692], eax
	mov	DWORD PTR _Temp$[ebp+696], eax
	mov	ax, WORD PTR ??_C@_01PLPBNMEI@M?$AA@
	mov	WORD PTR _Temp$[ebp+700], ax
	xor	eax, eax
	mov	DWORD PTR _Temp$[ebp+702], eax
	mov	DWORD PTR _Temp$[ebp+706], eax
	mov	DWORD PTR _Temp$[ebp+710], eax
	mov	ax, WORD PTR ??_C@_01IHBHIGKO@?0?$AA@
	mov	WORD PTR _Temp$[ebp+714], ax
	xor	eax, eax
	mov	DWORD PTR _Temp$[ebp+716], eax
	mov	DWORD PTR _Temp$[ebp+720], eax
	mov	DWORD PTR _Temp$[ebp+724], eax
	mov	ax, WORD PTR ??_C@_01LFCBOECM@?4?$AA@
	mov	WORD PTR _Temp$[ebp+728], ax
	xor	eax, eax
	mov	DWORD PTR _Temp$[ebp+730], eax
	mov	DWORD PTR _Temp$[ebp+734], eax
	mov	DWORD PTR _Temp$[ebp+738], eax
	mov	ax, WORD PTR ??_C@_01KMDKNFGN@?1?$AA@
	mov	WORD PTR _Temp$[ebp+742], ax
	xor	eax, eax
	mov	DWORD PTR _Temp$[ebp+744], eax
	mov	DWORD PTR _Temp$[ebp+748], eax
	mov	DWORD PTR _Temp$[ebp+752], eax
	mov	eax, DWORD PTR ??_C@_0M@COKLDKMB@Right?5Shift?$AA@
	mov	DWORD PTR _Temp$[ebp+756], eax
	mov	ecx, DWORD PTR ??_C@_0M@COKLDKMB@Right?5Shift?$AA@+4
	mov	DWORD PTR _Temp$[ebp+760], ecx
	mov	edx, DWORD PTR ??_C@_0M@COKLDKMB@Right?5Shift?$AA@+8
	mov	DWORD PTR _Temp$[ebp+764], edx
	xor	eax, eax
	mov	WORD PTR _Temp$[ebp+768], ax
	mov	ax, WORD PTR ??_C@_01NBENCBCI@?$CK?$AA@
	mov	WORD PTR _Temp$[ebp+770], ax
	xor	eax, eax
	mov	DWORD PTR _Temp$[ebp+772], eax
	mov	DWORD PTR _Temp$[ebp+776], eax
	mov	DWORD PTR _Temp$[ebp+780], eax
	mov	eax, DWORD PTR ??_C@_08CJHJBNHP@Left?5Alt?$AA@
	mov	DWORD PTR _Temp$[ebp+784], eax
	mov	ecx, DWORD PTR ??_C@_08CJHJBNHP@Left?5Alt?$AA@+4
	mov	DWORD PTR _Temp$[ebp+788], ecx
	mov	dl, BYTE PTR ??_C@_08CJHJBNHP@Left?5Alt?$AA@+8
	mov	BYTE PTR _Temp$[ebp+792], dl
	xor	eax, eax
	mov	DWORD PTR _Temp$[ebp+793], eax
	mov	BYTE PTR _Temp$[ebp+797], al
	mov	eax, DWORD PTR ??_C@_05OMHELODH@Space?$AA@
	mov	DWORD PTR _Temp$[ebp+798], eax
	mov	cx, WORD PTR ??_C@_05OMHELODH@Space?$AA@+4
	mov	WORD PTR _Temp$[ebp+802], cx
	xor	eax, eax
	mov	DWORD PTR _Temp$[ebp+804], eax
	mov	DWORD PTR _Temp$[ebp+808], eax
	mov	eax, DWORD PTR ??_C@_09GGECHFNF@Caps?5Lock?$AA@
	mov	DWORD PTR _Temp$[ebp+812], eax
	mov	ecx, DWORD PTR ??_C@_09GGECHFNF@Caps?5Lock?$AA@+4
	mov	DWORD PTR _Temp$[ebp+816], ecx
	mov	dx, WORD PTR ??_C@_09GGECHFNF@Caps?5Lock?$AA@+8
	mov	WORD PTR _Temp$[ebp+820], dx
	xor	eax, eax
	mov	DWORD PTR _Temp$[ebp+822], eax
	mov	ax, WORD PTR ??_C@_02LCPENACN@F1?$AA@
	mov	WORD PTR _Temp$[ebp+826], ax
	mov	cl, BYTE PTR ??_C@_02LCPENACN@F1?$AA@+2
	mov	BYTE PTR _Temp$[ebp+828], cl
	xor	eax, eax
	mov	DWORD PTR _Temp$[ebp+829], eax
	mov	DWORD PTR _Temp$[ebp+833], eax
	mov	WORD PTR _Temp$[ebp+837], ax
	mov	BYTE PTR _Temp$[ebp+839], al
	mov	ax, WORD PTR ??_C@_02JJNJIDOO@F2?$AA@
	mov	WORD PTR _Temp$[ebp+840], ax
	mov	cl, BYTE PTR ??_C@_02JJNJIDOO@F2?$AA@+2
	mov	BYTE PTR _Temp$[ebp+842], cl
	xor	eax, eax
	mov	DWORD PTR _Temp$[ebp+843], eax
	mov	DWORD PTR _Temp$[ebp+847], eax
	mov	WORD PTR _Temp$[ebp+851], ax
	mov	BYTE PTR _Temp$[ebp+853], al
	mov	ax, WORD PTR ??_C@_02IAMCLCKP@F3?$AA@
	mov	WORD PTR _Temp$[ebp+854], ax
	mov	cl, BYTE PTR ??_C@_02IAMCLCKP@F3?$AA@+2
	mov	BYTE PTR _Temp$[ebp+856], cl
	xor	eax, eax
	mov	DWORD PTR _Temp$[ebp+857], eax
	mov	DWORD PTR _Temp$[ebp+861], eax
	mov	WORD PTR _Temp$[ebp+865], ax
	mov	BYTE PTR _Temp$[ebp+867], al
	mov	ax, WORD PTR ??_C@_02MPIDCEGI@F4?$AA@
	mov	WORD PTR _Temp$[ebp+868], ax
	mov	cl, BYTE PTR ??_C@_02MPIDCEGI@F4?$AA@+2
	mov	BYTE PTR _Temp$[ebp+870], cl
	xor	eax, eax
	mov	DWORD PTR _Temp$[ebp+871], eax
	mov	DWORD PTR _Temp$[ebp+875], eax
	mov	WORD PTR _Temp$[ebp+879], ax
	mov	BYTE PTR _Temp$[ebp+881], al
	mov	ax, WORD PTR ??_C@_02NGJIBFCJ@F5?$AA@
	mov	WORD PTR _Temp$[ebp+882], ax
	mov	cl, BYTE PTR ??_C@_02NGJIBFCJ@F5?$AA@+2
	mov	BYTE PTR _Temp$[ebp+884], cl
	xor	eax, eax
	mov	DWORD PTR _Temp$[ebp+885], eax
	mov	DWORD PTR _Temp$[ebp+889], eax
	mov	WORD PTR _Temp$[ebp+893], ax
	mov	BYTE PTR _Temp$[ebp+895], al
	mov	ax, WORD PTR ??_C@_02PNLFEGOK@F6?$AA@
	mov	WORD PTR _Temp$[ebp+896], ax
	mov	cl, BYTE PTR ??_C@_02PNLFEGOK@F6?$AA@+2
	mov	BYTE PTR _Temp$[ebp+898], cl
	xor	eax, eax
	mov	DWORD PTR _Temp$[ebp+899], eax
	mov	DWORD PTR _Temp$[ebp+903], eax
	mov	WORD PTR _Temp$[ebp+907], ax
	mov	BYTE PTR _Temp$[ebp+909], al

; 586  : 				  "F7","F8","F9","F10","Num Lock","","7","8","9","-","4","5","6","+","1","2",

	mov	ax, WORD PTR ??_C@_02OEKOHHKL@F7?$AA@
	mov	WORD PTR _Temp$[ebp+910], ax
	mov	cl, BYTE PTR ??_C@_02OEKOHHKL@F7?$AA@+2
	mov	BYTE PTR _Temp$[ebp+912], cl
	xor	eax, eax
	mov	DWORD PTR _Temp$[ebp+913], eax
	mov	DWORD PTR _Temp$[ebp+917], eax
	mov	WORD PTR _Temp$[ebp+921], ax
	mov	BYTE PTR _Temp$[ebp+923], al
	mov	ax, WORD PTR ??_C@_02GDDGGLGE@F8?$AA@
	mov	WORD PTR _Temp$[ebp+924], ax
	mov	cl, BYTE PTR ??_C@_02GDDGGLGE@F8?$AA@+2
	mov	BYTE PTR _Temp$[ebp+926], cl
	xor	eax, eax
	mov	DWORD PTR _Temp$[ebp+927], eax
	mov	DWORD PTR _Temp$[ebp+931], eax
	mov	WORD PTR _Temp$[ebp+935], ax
	mov	BYTE PTR _Temp$[ebp+937], al
	mov	ax, WORD PTR ??_C@_02HKCNFKCF@F9?$AA@
	mov	WORD PTR _Temp$[ebp+938], ax
	mov	cl, BYTE PTR ??_C@_02HKCNFKCF@F9?$AA@+2
	mov	BYTE PTR _Temp$[ebp+940], cl
	xor	eax, eax
	mov	DWORD PTR _Temp$[ebp+941], eax
	mov	DWORD PTR _Temp$[ebp+945], eax
	mov	WORD PTR _Temp$[ebp+949], ax
	mov	BYTE PTR _Temp$[ebp+951], al
	mov	eax, DWORD PTR ??_C@_03JKCLJOFG@F10?$AA@
	mov	DWORD PTR _Temp$[ebp+952], eax
	xor	eax, eax
	mov	DWORD PTR _Temp$[ebp+956], eax
	mov	DWORD PTR _Temp$[ebp+960], eax
	mov	WORD PTR _Temp$[ebp+964], ax
	mov	eax, DWORD PTR ??_C@_08DEAFBBCL@Num?5Lock?$AA@
	mov	DWORD PTR _Temp$[ebp+966], eax
	mov	ecx, DWORD PTR ??_C@_08DEAFBBCL@Num?5Lock?$AA@+4
	mov	DWORD PTR _Temp$[ebp+970], ecx
	mov	dl, BYTE PTR ??_C@_08DEAFBBCL@Num?5Lock?$AA@+8
	mov	BYTE PTR _Temp$[ebp+974], dl
	xor	eax, eax
	mov	DWORD PTR _Temp$[ebp+975], eax
	mov	BYTE PTR _Temp$[ebp+979], al
	mov	al, BYTE PTR ??_C@_00CNPNBAHC@?$AA@
	mov	BYTE PTR _Temp$[ebp+980], al
	xor	eax, eax
	mov	DWORD PTR _Temp$[ebp+981], eax
	mov	DWORD PTR _Temp$[ebp+985], eax
	mov	DWORD PTR _Temp$[ebp+989], eax
	mov	BYTE PTR _Temp$[ebp+993], al
	mov	ax, WORD PTR ??_C@_01COCBENDE@7?$AA@
	mov	WORD PTR _Temp$[ebp+994], ax
	xor	eax, eax
	mov	DWORD PTR _Temp$[ebp+996], eax
	mov	DWORD PTR _Temp$[ebp+1000], eax
	mov	DWORD PTR _Temp$[ebp+1004], eax
	mov	ax, WORD PTR ??_C@_01KJLJFBPL@8?$AA@
	mov	WORD PTR _Temp$[ebp+1008], ax
	xor	eax, eax
	mov	DWORD PTR _Temp$[ebp+1010], eax
	mov	DWORD PTR _Temp$[ebp+1014], eax
	mov	DWORD PTR _Temp$[ebp+1018], eax
	mov	ax, WORD PTR ??_C@_01LAKCGALK@9?$AA@
	mov	WORD PTR _Temp$[ebp+1022], ax
	xor	eax, eax
	mov	DWORD PTR _Temp$[ebp+1024], eax
	mov	DWORD PTR _Temp$[ebp+1028], eax
	mov	DWORD PTR _Temp$[ebp+1032], eax
	mov	ax, WORD PTR ??_C@_01JOAMLHOP@?9?$AA@
	mov	WORD PTR _Temp$[ebp+1036], ax
	xor	eax, eax
	mov	DWORD PTR _Temp$[ebp+1038], eax
	mov	DWORD PTR _Temp$[ebp+1042], eax
	mov	DWORD PTR _Temp$[ebp+1046], eax
	mov	ax, WORD PTR ??_C@_01FAMBOPH@4?$AA@
	mov	WORD PTR _Temp$[ebp+1050], ax
	xor	eax, eax
	mov	DWORD PTR _Temp$[ebp+1052], eax
	mov	DWORD PTR _Temp$[ebp+1056], eax
	mov	DWORD PTR _Temp$[ebp+1060], eax
	mov	ax, WORD PTR ??_C@_01BMBHCPLG@5?$AA@
	mov	WORD PTR _Temp$[ebp+1064], ax
	xor	eax, eax
	mov	DWORD PTR _Temp$[ebp+1066], eax
	mov	DWORD PTR _Temp$[ebp+1070], eax
	mov	DWORD PTR _Temp$[ebp+1074], eax
	mov	ax, WORD PTR ??_C@_01DHDKHMHF@6?$AA@
	mov	WORD PTR _Temp$[ebp+1078], ax
	xor	eax, eax
	mov	DWORD PTR _Temp$[ebp+1080], eax
	mov	DWORD PTR _Temp$[ebp+1084], eax
	mov	DWORD PTR _Temp$[ebp+1088], eax
	mov	ax, WORD PTR ??_C@_01MIFGBAGJ@?$CL?$AA@
	mov	WORD PTR _Temp$[ebp+1092], ax
	xor	eax, eax
	mov	DWORD PTR _Temp$[ebp+1094], eax
	mov	DWORD PTR _Temp$[ebp+1098], eax
	mov	DWORD PTR _Temp$[ebp+1102], eax
	mov	ax, WORD PTR ??_C@_01HIHLOKLC@1?$AA@
	mov	WORD PTR _Temp$[ebp+1106], ax
	xor	eax, eax
	mov	DWORD PTR _Temp$[ebp+1108], eax
	mov	DWORD PTR _Temp$[ebp+1112], eax
	mov	DWORD PTR _Temp$[ebp+1116], eax
	mov	ax, WORD PTR ??_C@_01FDFGLJHB@2?$AA@
	mov	WORD PTR _Temp$[ebp+1120], ax
	xor	eax, eax
	mov	DWORD PTR _Temp$[ebp+1122], eax
	mov	DWORD PTR _Temp$[ebp+1126], eax
	mov	DWORD PTR _Temp$[ebp+1130], eax

; 587  : 				  "3","0","Num .","SysRq","","","F11","F12","","","","","","","","",

	mov	ax, WORD PTR ??_C@_01EKENIIDA@3?$AA@
	mov	WORD PTR _Temp$[ebp+1134], ax
	xor	eax, eax
	mov	DWORD PTR _Temp$[ebp+1136], eax
	mov	DWORD PTR _Temp$[ebp+1140], eax
	mov	DWORD PTR _Temp$[ebp+1144], eax
	mov	ax, WORD PTR ??_C@_01GBGANLPD@0?$AA@
	mov	WORD PTR _Temp$[ebp+1148], ax
	xor	eax, eax
	mov	DWORD PTR _Temp$[ebp+1150], eax
	mov	DWORD PTR _Temp$[ebp+1154], eax
	mov	DWORD PTR _Temp$[ebp+1158], eax
	mov	eax, DWORD PTR ??_C@_05LAFLDKON@Num?5?4?$AA@
	mov	DWORD PTR _Temp$[ebp+1162], eax
	mov	cx, WORD PTR ??_C@_05LAFLDKON@Num?5?4?$AA@+4
	mov	WORD PTR _Temp$[ebp+1166], cx
	xor	eax, eax
	mov	DWORD PTR _Temp$[ebp+1168], eax
	mov	DWORD PTR _Temp$[ebp+1172], eax
	mov	eax, DWORD PTR ??_C@_05BAHDBLKA@SysRq?$AA@
	mov	DWORD PTR _Temp$[ebp+1176], eax
	mov	cx, WORD PTR ??_C@_05BAHDBLKA@SysRq?$AA@+4
	mov	WORD PTR _Temp$[ebp+1180], cx
	xor	eax, eax
	mov	DWORD PTR _Temp$[ebp+1182], eax
	mov	DWORD PTR _Temp$[ebp+1186], eax
	mov	al, BYTE PTR ??_C@_00CNPNBAHC@?$AA@
	mov	BYTE PTR _Temp$[ebp+1190], al
	xor	eax, eax
	mov	DWORD PTR _Temp$[ebp+1191], eax
	mov	DWORD PTR _Temp$[ebp+1195], eax
	mov	DWORD PTR _Temp$[ebp+1199], eax
	mov	BYTE PTR _Temp$[ebp+1203], al
	mov	al, BYTE PTR ??_C@_00CNPNBAHC@?$AA@
	mov	BYTE PTR _Temp$[ebp+1204], al
	xor	eax, eax
	mov	DWORD PTR _Temp$[ebp+1205], eax
	mov	DWORD PTR _Temp$[ebp+1209], eax
	mov	DWORD PTR _Temp$[ebp+1213], eax
	mov	BYTE PTR _Temp$[ebp+1217], al
	mov	eax, DWORD PTR ??_C@_03IDDAKPBH@F11?$AA@
	mov	DWORD PTR _Temp$[ebp+1218], eax
	xor	eax, eax
	mov	DWORD PTR _Temp$[ebp+1222], eax
	mov	DWORD PTR _Temp$[ebp+1226], eax
	mov	WORD PTR _Temp$[ebp+1230], ax
	mov	eax, DWORD PTR ??_C@_03KIBNPMNE@F12?$AA@
	mov	DWORD PTR _Temp$[ebp+1232], eax
	xor	eax, eax
	mov	DWORD PTR _Temp$[ebp+1236], eax
	mov	DWORD PTR _Temp$[ebp+1240], eax
	mov	WORD PTR _Temp$[ebp+1244], ax
	mov	al, BYTE PTR ??_C@_00CNPNBAHC@?$AA@
	mov	BYTE PTR _Temp$[ebp+1246], al
	xor	eax, eax
	mov	DWORD PTR _Temp$[ebp+1247], eax
	mov	DWORD PTR _Temp$[ebp+1251], eax
	mov	DWORD PTR _Temp$[ebp+1255], eax
	mov	BYTE PTR _Temp$[ebp+1259], al
	mov	al, BYTE PTR ??_C@_00CNPNBAHC@?$AA@
	mov	BYTE PTR _Temp$[ebp+1260], al
	xor	eax, eax
	mov	DWORD PTR _Temp$[ebp+1261], eax
	mov	DWORD PTR _Temp$[ebp+1265], eax
	mov	DWORD PTR _Temp$[ebp+1269], eax
	mov	BYTE PTR _Temp$[ebp+1273], al
	mov	al, BYTE PTR ??_C@_00CNPNBAHC@?$AA@
	mov	BYTE PTR _Temp$[ebp+1274], al
	xor	eax, eax
	mov	DWORD PTR _Temp$[ebp+1275], eax
	mov	DWORD PTR _Temp$[ebp+1279], eax
	mov	DWORD PTR _Temp$[ebp+1283], eax
	mov	BYTE PTR _Temp$[ebp+1287], al
	mov	al, BYTE PTR ??_C@_00CNPNBAHC@?$AA@
	mov	BYTE PTR _Temp$[ebp+1288], al
	xor	eax, eax
	mov	DWORD PTR _Temp$[ebp+1289], eax
	mov	DWORD PTR _Temp$[ebp+1293], eax
	mov	DWORD PTR _Temp$[ebp+1297], eax
	mov	BYTE PTR _Temp$[ebp+1301], al
	mov	al, BYTE PTR ??_C@_00CNPNBAHC@?$AA@
	mov	BYTE PTR _Temp$[ebp+1302], al
	xor	eax, eax
	mov	DWORD PTR _Temp$[ebp+1303], eax
	mov	DWORD PTR _Temp$[ebp+1307], eax
	mov	DWORD PTR _Temp$[ebp+1311], eax
	mov	BYTE PTR _Temp$[ebp+1315], al
	mov	al, BYTE PTR ??_C@_00CNPNBAHC@?$AA@
	mov	BYTE PTR _Temp$[ebp+1316], al
	xor	eax, eax
	mov	DWORD PTR _Temp$[ebp+1317], eax
	mov	DWORD PTR _Temp$[ebp+1321], eax
	mov	DWORD PTR _Temp$[ebp+1325], eax
	mov	BYTE PTR _Temp$[ebp+1329], al
	mov	al, BYTE PTR ??_C@_00CNPNBAHC@?$AA@
	mov	BYTE PTR _Temp$[ebp+1330], al
	xor	eax, eax
	mov	DWORD PTR _Temp$[ebp+1331], eax
	mov	DWORD PTR _Temp$[ebp+1335], eax
	mov	DWORD PTR _Temp$[ebp+1339], eax
	mov	BYTE PTR _Temp$[ebp+1343], al
	mov	al, BYTE PTR ??_C@_00CNPNBAHC@?$AA@
	mov	BYTE PTR _Temp$[ebp+1344], al
	xor	eax, eax
	mov	DWORD PTR _Temp$[ebp+1345], eax
	mov	DWORD PTR _Temp$[ebp+1349], eax
	mov	DWORD PTR _Temp$[ebp+1353], eax
	mov	BYTE PTR _Temp$[ebp+1357], al

; 588  : 				  "","","","","","","","","","","","","","","","",

	mov	al, BYTE PTR ??_C@_00CNPNBAHC@?$AA@
	mov	BYTE PTR _Temp$[ebp+1358], al
	xor	eax, eax
	mov	DWORD PTR _Temp$[ebp+1359], eax
	mov	DWORD PTR _Temp$[ebp+1363], eax
	mov	DWORD PTR _Temp$[ebp+1367], eax
	mov	BYTE PTR _Temp$[ebp+1371], al
	mov	al, BYTE PTR ??_C@_00CNPNBAHC@?$AA@
	mov	BYTE PTR _Temp$[ebp+1372], al
	xor	eax, eax
	mov	DWORD PTR _Temp$[ebp+1373], eax
	mov	DWORD PTR _Temp$[ebp+1377], eax
	mov	DWORD PTR _Temp$[ebp+1381], eax
	mov	BYTE PTR _Temp$[ebp+1385], al
	mov	al, BYTE PTR ??_C@_00CNPNBAHC@?$AA@
	mov	BYTE PTR _Temp$[ebp+1386], al
	xor	eax, eax
	mov	DWORD PTR _Temp$[ebp+1387], eax
	mov	DWORD PTR _Temp$[ebp+1391], eax
	mov	DWORD PTR _Temp$[ebp+1395], eax
	mov	BYTE PTR _Temp$[ebp+1399], al
	mov	al, BYTE PTR ??_C@_00CNPNBAHC@?$AA@
	mov	BYTE PTR _Temp$[ebp+1400], al
	xor	eax, eax
	mov	DWORD PTR _Temp$[ebp+1401], eax
	mov	DWORD PTR _Temp$[ebp+1405], eax
	mov	DWORD PTR _Temp$[ebp+1409], eax
	mov	BYTE PTR _Temp$[ebp+1413], al
	mov	al, BYTE PTR ??_C@_00CNPNBAHC@?$AA@
	mov	BYTE PTR _Temp$[ebp+1414], al
	xor	eax, eax
	mov	DWORD PTR _Temp$[ebp+1415], eax
	mov	DWORD PTR _Temp$[ebp+1419], eax
	mov	DWORD PTR _Temp$[ebp+1423], eax
	mov	BYTE PTR _Temp$[ebp+1427], al
	mov	al, BYTE PTR ??_C@_00CNPNBAHC@?$AA@
	mov	BYTE PTR _Temp$[ebp+1428], al
	xor	eax, eax
	mov	DWORD PTR _Temp$[ebp+1429], eax
	mov	DWORD PTR _Temp$[ebp+1433], eax
	mov	DWORD PTR _Temp$[ebp+1437], eax
	mov	BYTE PTR _Temp$[ebp+1441], al
	mov	al, BYTE PTR ??_C@_00CNPNBAHC@?$AA@
	mov	BYTE PTR _Temp$[ebp+1442], al
	xor	eax, eax
	mov	DWORD PTR _Temp$[ebp+1443], eax
	mov	DWORD PTR _Temp$[ebp+1447], eax
	mov	DWORD PTR _Temp$[ebp+1451], eax
	mov	BYTE PTR _Temp$[ebp+1455], al
	mov	al, BYTE PTR ??_C@_00CNPNBAHC@?$AA@
	mov	BYTE PTR _Temp$[ebp+1456], al
	xor	eax, eax
	mov	DWORD PTR _Temp$[ebp+1457], eax
	mov	DWORD PTR _Temp$[ebp+1461], eax
	mov	DWORD PTR _Temp$[ebp+1465], eax
	mov	BYTE PTR _Temp$[ebp+1469], al
	mov	al, BYTE PTR ??_C@_00CNPNBAHC@?$AA@
	mov	BYTE PTR _Temp$[ebp+1470], al
	xor	eax, eax
	mov	DWORD PTR _Temp$[ebp+1471], eax
	mov	DWORD PTR _Temp$[ebp+1475], eax
	mov	DWORD PTR _Temp$[ebp+1479], eax
	mov	BYTE PTR _Temp$[ebp+1483], al
	mov	al, BYTE PTR ??_C@_00CNPNBAHC@?$AA@
	mov	BYTE PTR _Temp$[ebp+1484], al
	xor	eax, eax
	mov	DWORD PTR _Temp$[ebp+1485], eax
	mov	DWORD PTR _Temp$[ebp+1489], eax
	mov	DWORD PTR _Temp$[ebp+1493], eax
	mov	BYTE PTR _Temp$[ebp+1497], al
	mov	al, BYTE PTR ??_C@_00CNPNBAHC@?$AA@
	mov	BYTE PTR _Temp$[ebp+1498], al
	xor	eax, eax
	mov	DWORD PTR _Temp$[ebp+1499], eax
	mov	DWORD PTR _Temp$[ebp+1503], eax
	mov	DWORD PTR _Temp$[ebp+1507], eax
	mov	BYTE PTR _Temp$[ebp+1511], al
	mov	al, BYTE PTR ??_C@_00CNPNBAHC@?$AA@
	mov	BYTE PTR _Temp$[ebp+1512], al
	xor	eax, eax
	mov	DWORD PTR _Temp$[ebp+1513], eax
	mov	DWORD PTR _Temp$[ebp+1517], eax
	mov	DWORD PTR _Temp$[ebp+1521], eax
	mov	BYTE PTR _Temp$[ebp+1525], al
	mov	al, BYTE PTR ??_C@_00CNPNBAHC@?$AA@
	mov	BYTE PTR _Temp$[ebp+1526], al
	xor	eax, eax
	mov	DWORD PTR _Temp$[ebp+1527], eax
	mov	DWORD PTR _Temp$[ebp+1531], eax
	mov	DWORD PTR _Temp$[ebp+1535], eax
	mov	BYTE PTR _Temp$[ebp+1539], al
	mov	al, BYTE PTR ??_C@_00CNPNBAHC@?$AA@
	mov	BYTE PTR _Temp$[ebp+1540], al
	xor	eax, eax
	mov	DWORD PTR _Temp$[ebp+1541], eax
	mov	DWORD PTR _Temp$[ebp+1545], eax
	mov	DWORD PTR _Temp$[ebp+1549], eax
	mov	BYTE PTR _Temp$[ebp+1553], al
	mov	al, BYTE PTR ??_C@_00CNPNBAHC@?$AA@
	mov	BYTE PTR _Temp$[ebp+1554], al
	xor	eax, eax
	mov	DWORD PTR _Temp$[ebp+1555], eax
	mov	DWORD PTR _Temp$[ebp+1559], eax
	mov	DWORD PTR _Temp$[ebp+1563], eax
	mov	BYTE PTR _Temp$[ebp+1567], al
	mov	al, BYTE PTR ??_C@_00CNPNBAHC@?$AA@
	mov	BYTE PTR _Temp$[ebp+1568], al
	xor	eax, eax
	mov	DWORD PTR _Temp$[ebp+1569], eax
	mov	DWORD PTR _Temp$[ebp+1573], eax
	mov	DWORD PTR _Temp$[ebp+1577], eax
	mov	BYTE PTR _Temp$[ebp+1581], al

; 589  : 				  "","","","","","","","","","","","","","","","",

	mov	al, BYTE PTR ??_C@_00CNPNBAHC@?$AA@
	mov	BYTE PTR _Temp$[ebp+1582], al
	xor	eax, eax
	mov	DWORD PTR _Temp$[ebp+1583], eax
	mov	DWORD PTR _Temp$[ebp+1587], eax
	mov	DWORD PTR _Temp$[ebp+1591], eax
	mov	BYTE PTR _Temp$[ebp+1595], al
	mov	al, BYTE PTR ??_C@_00CNPNBAHC@?$AA@
	mov	BYTE PTR _Temp$[ebp+1596], al
	xor	eax, eax
	mov	DWORD PTR _Temp$[ebp+1597], eax
	mov	DWORD PTR _Temp$[ebp+1601], eax
	mov	DWORD PTR _Temp$[ebp+1605], eax
	mov	BYTE PTR _Temp$[ebp+1609], al
	mov	al, BYTE PTR ??_C@_00CNPNBAHC@?$AA@
	mov	BYTE PTR _Temp$[ebp+1610], al
	xor	eax, eax
	mov	DWORD PTR _Temp$[ebp+1611], eax
	mov	DWORD PTR _Temp$[ebp+1615], eax
	mov	DWORD PTR _Temp$[ebp+1619], eax
	mov	BYTE PTR _Temp$[ebp+1623], al
	mov	al, BYTE PTR ??_C@_00CNPNBAHC@?$AA@
	mov	BYTE PTR _Temp$[ebp+1624], al
	xor	eax, eax
	mov	DWORD PTR _Temp$[ebp+1625], eax
	mov	DWORD PTR _Temp$[ebp+1629], eax
	mov	DWORD PTR _Temp$[ebp+1633], eax
	mov	BYTE PTR _Temp$[ebp+1637], al
	mov	al, BYTE PTR ??_C@_00CNPNBAHC@?$AA@
	mov	BYTE PTR _Temp$[ebp+1638], al
	xor	eax, eax
	mov	DWORD PTR _Temp$[ebp+1639], eax
	mov	DWORD PTR _Temp$[ebp+1643], eax
	mov	DWORD PTR _Temp$[ebp+1647], eax
	mov	BYTE PTR _Temp$[ebp+1651], al
	mov	al, BYTE PTR ??_C@_00CNPNBAHC@?$AA@
	mov	BYTE PTR _Temp$[ebp+1652], al
	xor	eax, eax
	mov	DWORD PTR _Temp$[ebp+1653], eax
	mov	DWORD PTR _Temp$[ebp+1657], eax
	mov	DWORD PTR _Temp$[ebp+1661], eax
	mov	BYTE PTR _Temp$[ebp+1665], al
	mov	al, BYTE PTR ??_C@_00CNPNBAHC@?$AA@
	mov	BYTE PTR _Temp$[ebp+1666], al
	xor	eax, eax
	mov	DWORD PTR _Temp$[ebp+1667], eax
	mov	DWORD PTR _Temp$[ebp+1671], eax
	mov	DWORD PTR _Temp$[ebp+1675], eax
	mov	BYTE PTR _Temp$[ebp+1679], al
	mov	al, BYTE PTR ??_C@_00CNPNBAHC@?$AA@
	mov	BYTE PTR _Temp$[ebp+1680], al
	xor	eax, eax
	mov	DWORD PTR _Temp$[ebp+1681], eax
	mov	DWORD PTR _Temp$[ebp+1685], eax
	mov	DWORD PTR _Temp$[ebp+1689], eax
	mov	BYTE PTR _Temp$[ebp+1693], al
	mov	al, BYTE PTR ??_C@_00CNPNBAHC@?$AA@
	mov	BYTE PTR _Temp$[ebp+1694], al
	xor	eax, eax
	mov	DWORD PTR _Temp$[ebp+1695], eax
	mov	DWORD PTR _Temp$[ebp+1699], eax
	mov	DWORD PTR _Temp$[ebp+1703], eax
	mov	BYTE PTR _Temp$[ebp+1707], al
	mov	al, BYTE PTR ??_C@_00CNPNBAHC@?$AA@
	mov	BYTE PTR _Temp$[ebp+1708], al
	xor	eax, eax
	mov	DWORD PTR _Temp$[ebp+1709], eax
	mov	DWORD PTR _Temp$[ebp+1713], eax
	mov	DWORD PTR _Temp$[ebp+1717], eax
	mov	BYTE PTR _Temp$[ebp+1721], al
	mov	al, BYTE PTR ??_C@_00CNPNBAHC@?$AA@
	mov	BYTE PTR _Temp$[ebp+1722], al
	xor	eax, eax
	mov	DWORD PTR _Temp$[ebp+1723], eax
	mov	DWORD PTR _Temp$[ebp+1727], eax
	mov	DWORD PTR _Temp$[ebp+1731], eax
	mov	BYTE PTR _Temp$[ebp+1735], al
	mov	al, BYTE PTR ??_C@_00CNPNBAHC@?$AA@
	mov	BYTE PTR _Temp$[ebp+1736], al
	xor	eax, eax
	mov	DWORD PTR _Temp$[ebp+1737], eax
	mov	DWORD PTR _Temp$[ebp+1741], eax
	mov	DWORD PTR _Temp$[ebp+1745], eax
	mov	BYTE PTR _Temp$[ebp+1749], al
	mov	al, BYTE PTR ??_C@_00CNPNBAHC@?$AA@
	mov	BYTE PTR _Temp$[ebp+1750], al
	xor	eax, eax
	mov	DWORD PTR _Temp$[ebp+1751], eax
	mov	DWORD PTR _Temp$[ebp+1755], eax
	mov	DWORD PTR _Temp$[ebp+1759], eax
	mov	BYTE PTR _Temp$[ebp+1763], al
	mov	al, BYTE PTR ??_C@_00CNPNBAHC@?$AA@
	mov	BYTE PTR _Temp$[ebp+1764], al
	xor	eax, eax
	mov	DWORD PTR _Temp$[ebp+1765], eax
	mov	DWORD PTR _Temp$[ebp+1769], eax
	mov	DWORD PTR _Temp$[ebp+1773], eax
	mov	BYTE PTR _Temp$[ebp+1777], al
	mov	al, BYTE PTR ??_C@_00CNPNBAHC@?$AA@
	mov	BYTE PTR _Temp$[ebp+1778], al
	xor	eax, eax
	mov	DWORD PTR _Temp$[ebp+1779], eax
	mov	DWORD PTR _Temp$[ebp+1783], eax
	mov	DWORD PTR _Temp$[ebp+1787], eax
	mov	BYTE PTR _Temp$[ebp+1791], al
	mov	al, BYTE PTR ??_C@_00CNPNBAHC@?$AA@
	mov	BYTE PTR _Temp$[ebp+1792], al
	xor	eax, eax
	mov	DWORD PTR _Temp$[ebp+1793], eax
	mov	DWORD PTR _Temp$[ebp+1797], eax
	mov	DWORD PTR _Temp$[ebp+1801], eax
	mov	BYTE PTR _Temp$[ebp+1805], al

; 590  : 				  "","","","","","","","","","","","","","","","",

	mov	al, BYTE PTR ??_C@_00CNPNBAHC@?$AA@
	mov	BYTE PTR _Temp$[ebp+1806], al
	xor	eax, eax
	mov	DWORD PTR _Temp$[ebp+1807], eax
	mov	DWORD PTR _Temp$[ebp+1811], eax
	mov	DWORD PTR _Temp$[ebp+1815], eax
	mov	BYTE PTR _Temp$[ebp+1819], al
	mov	al, BYTE PTR ??_C@_00CNPNBAHC@?$AA@
	mov	BYTE PTR _Temp$[ebp+1820], al
	xor	eax, eax
	mov	DWORD PTR _Temp$[ebp+1821], eax
	mov	DWORD PTR _Temp$[ebp+1825], eax
	mov	DWORD PTR _Temp$[ebp+1829], eax
	mov	BYTE PTR _Temp$[ebp+1833], al
	mov	al, BYTE PTR ??_C@_00CNPNBAHC@?$AA@
	mov	BYTE PTR _Temp$[ebp+1834], al
	xor	eax, eax
	mov	DWORD PTR _Temp$[ebp+1835], eax
	mov	DWORD PTR _Temp$[ebp+1839], eax
	mov	DWORD PTR _Temp$[ebp+1843], eax
	mov	BYTE PTR _Temp$[ebp+1847], al
	mov	al, BYTE PTR ??_C@_00CNPNBAHC@?$AA@
	mov	BYTE PTR _Temp$[ebp+1848], al
	xor	eax, eax
	mov	DWORD PTR _Temp$[ebp+1849], eax
	mov	DWORD PTR _Temp$[ebp+1853], eax
	mov	DWORD PTR _Temp$[ebp+1857], eax
	mov	BYTE PTR _Temp$[ebp+1861], al
	mov	al, BYTE PTR ??_C@_00CNPNBAHC@?$AA@
	mov	BYTE PTR _Temp$[ebp+1862], al
	xor	eax, eax
	mov	DWORD PTR _Temp$[ebp+1863], eax
	mov	DWORD PTR _Temp$[ebp+1867], eax
	mov	DWORD PTR _Temp$[ebp+1871], eax
	mov	BYTE PTR _Temp$[ebp+1875], al
	mov	al, BYTE PTR ??_C@_00CNPNBAHC@?$AA@
	mov	BYTE PTR _Temp$[ebp+1876], al
	xor	eax, eax
	mov	DWORD PTR _Temp$[ebp+1877], eax
	mov	DWORD PTR _Temp$[ebp+1881], eax
	mov	DWORD PTR _Temp$[ebp+1885], eax
	mov	BYTE PTR _Temp$[ebp+1889], al
	mov	al, BYTE PTR ??_C@_00CNPNBAHC@?$AA@
	mov	BYTE PTR _Temp$[ebp+1890], al
	xor	eax, eax
	mov	DWORD PTR _Temp$[ebp+1891], eax
	mov	DWORD PTR _Temp$[ebp+1895], eax
	mov	DWORD PTR _Temp$[ebp+1899], eax
	mov	BYTE PTR _Temp$[ebp+1903], al
	mov	al, BYTE PTR ??_C@_00CNPNBAHC@?$AA@
	mov	BYTE PTR _Temp$[ebp+1904], al
	xor	eax, eax
	mov	DWORD PTR _Temp$[ebp+1905], eax
	mov	DWORD PTR _Temp$[ebp+1909], eax
	mov	DWORD PTR _Temp$[ebp+1913], eax
	mov	BYTE PTR _Temp$[ebp+1917], al
	mov	al, BYTE PTR ??_C@_00CNPNBAHC@?$AA@
	mov	BYTE PTR _Temp$[ebp+1918], al
	xor	eax, eax
	mov	DWORD PTR _Temp$[ebp+1919], eax
	mov	DWORD PTR _Temp$[ebp+1923], eax
	mov	DWORD PTR _Temp$[ebp+1927], eax
	mov	BYTE PTR _Temp$[ebp+1931], al
	mov	al, BYTE PTR ??_C@_00CNPNBAHC@?$AA@
	mov	BYTE PTR _Temp$[ebp+1932], al
	xor	eax, eax
	mov	DWORD PTR _Temp$[ebp+1933], eax
	mov	DWORD PTR _Temp$[ebp+1937], eax
	mov	DWORD PTR _Temp$[ebp+1941], eax
	mov	BYTE PTR _Temp$[ebp+1945], al
	mov	al, BYTE PTR ??_C@_00CNPNBAHC@?$AA@
	mov	BYTE PTR _Temp$[ebp+1946], al
	xor	eax, eax
	mov	DWORD PTR _Temp$[ebp+1947], eax
	mov	DWORD PTR _Temp$[ebp+1951], eax
	mov	DWORD PTR _Temp$[ebp+1955], eax
	mov	BYTE PTR _Temp$[ebp+1959], al
	mov	al, BYTE PTR ??_C@_00CNPNBAHC@?$AA@
	mov	BYTE PTR _Temp$[ebp+1960], al
	xor	eax, eax
	mov	DWORD PTR _Temp$[ebp+1961], eax
	mov	DWORD PTR _Temp$[ebp+1965], eax
	mov	DWORD PTR _Temp$[ebp+1969], eax
	mov	BYTE PTR _Temp$[ebp+1973], al
	mov	al, BYTE PTR ??_C@_00CNPNBAHC@?$AA@
	mov	BYTE PTR _Temp$[ebp+1974], al
	xor	eax, eax
	mov	DWORD PTR _Temp$[ebp+1975], eax
	mov	DWORD PTR _Temp$[ebp+1979], eax
	mov	DWORD PTR _Temp$[ebp+1983], eax
	mov	BYTE PTR _Temp$[ebp+1987], al
	mov	al, BYTE PTR ??_C@_00CNPNBAHC@?$AA@
	mov	BYTE PTR _Temp$[ebp+1988], al
	xor	eax, eax
	mov	DWORD PTR _Temp$[ebp+1989], eax
	mov	DWORD PTR _Temp$[ebp+1993], eax
	mov	DWORD PTR _Temp$[ebp+1997], eax
	mov	BYTE PTR _Temp$[ebp+2001], al
	mov	al, BYTE PTR ??_C@_00CNPNBAHC@?$AA@
	mov	BYTE PTR _Temp$[ebp+2002], al
	xor	eax, eax
	mov	DWORD PTR _Temp$[ebp+2003], eax
	mov	DWORD PTR _Temp$[ebp+2007], eax
	mov	DWORD PTR _Temp$[ebp+2011], eax
	mov	BYTE PTR _Temp$[ebp+2015], al
	mov	al, BYTE PTR ??_C@_00CNPNBAHC@?$AA@
	mov	BYTE PTR _Temp$[ebp+2016], al
	xor	eax, eax
	mov	DWORD PTR _Temp$[ebp+2017], eax
	mov	DWORD PTR _Temp$[ebp+2021], eax
	mov	DWORD PTR _Temp$[ebp+2025], eax
	mov	BYTE PTR _Temp$[ebp+2029], al

; 591  : 				  "","","","","","","","","","","","Right Enter","Right Control","","","",

	mov	al, BYTE PTR ??_C@_00CNPNBAHC@?$AA@
	mov	BYTE PTR _Temp$[ebp+2030], al
	xor	eax, eax
	mov	DWORD PTR _Temp$[ebp+2031], eax
	mov	DWORD PTR _Temp$[ebp+2035], eax
	mov	DWORD PTR _Temp$[ebp+2039], eax
	mov	BYTE PTR _Temp$[ebp+2043], al
	mov	al, BYTE PTR ??_C@_00CNPNBAHC@?$AA@
	mov	BYTE PTR _Temp$[ebp+2044], al
	xor	eax, eax
	mov	DWORD PTR _Temp$[ebp+2045], eax
	mov	DWORD PTR _Temp$[ebp+2049], eax
	mov	DWORD PTR _Temp$[ebp+2053], eax
	mov	BYTE PTR _Temp$[ebp+2057], al
	mov	al, BYTE PTR ??_C@_00CNPNBAHC@?$AA@
	mov	BYTE PTR _Temp$[ebp+2058], al
	xor	eax, eax
	mov	DWORD PTR _Temp$[ebp+2059], eax
	mov	DWORD PTR _Temp$[ebp+2063], eax
	mov	DWORD PTR _Temp$[ebp+2067], eax
	mov	BYTE PTR _Temp$[ebp+2071], al
	mov	al, BYTE PTR ??_C@_00CNPNBAHC@?$AA@
	mov	BYTE PTR _Temp$[ebp+2072], al
	xor	eax, eax
	mov	DWORD PTR _Temp$[ebp+2073], eax
	mov	DWORD PTR _Temp$[ebp+2077], eax
	mov	DWORD PTR _Temp$[ebp+2081], eax
	mov	BYTE PTR _Temp$[ebp+2085], al
	mov	al, BYTE PTR ??_C@_00CNPNBAHC@?$AA@
	mov	BYTE PTR _Temp$[ebp+2086], al
	xor	eax, eax
	mov	DWORD PTR _Temp$[ebp+2087], eax
	mov	DWORD PTR _Temp$[ebp+2091], eax
	mov	DWORD PTR _Temp$[ebp+2095], eax
	mov	BYTE PTR _Temp$[ebp+2099], al
	mov	al, BYTE PTR ??_C@_00CNPNBAHC@?$AA@
	mov	BYTE PTR _Temp$[ebp+2100], al
	xor	eax, eax
	mov	DWORD PTR _Temp$[ebp+2101], eax
	mov	DWORD PTR _Temp$[ebp+2105], eax
	mov	DWORD PTR _Temp$[ebp+2109], eax
	mov	BYTE PTR _Temp$[ebp+2113], al
	mov	al, BYTE PTR ??_C@_00CNPNBAHC@?$AA@
	mov	BYTE PTR _Temp$[ebp+2114], al
	xor	eax, eax
	mov	DWORD PTR _Temp$[ebp+2115], eax
	mov	DWORD PTR _Temp$[ebp+2119], eax
	mov	DWORD PTR _Temp$[ebp+2123], eax
	mov	BYTE PTR _Temp$[ebp+2127], al
	mov	al, BYTE PTR ??_C@_00CNPNBAHC@?$AA@
	mov	BYTE PTR _Temp$[ebp+2128], al
	xor	eax, eax
	mov	DWORD PTR _Temp$[ebp+2129], eax
	mov	DWORD PTR _Temp$[ebp+2133], eax
	mov	DWORD PTR _Temp$[ebp+2137], eax
	mov	BYTE PTR _Temp$[ebp+2141], al
	mov	al, BYTE PTR ??_C@_00CNPNBAHC@?$AA@
	mov	BYTE PTR _Temp$[ebp+2142], al
	xor	eax, eax
	mov	DWORD PTR _Temp$[ebp+2143], eax
	mov	DWORD PTR _Temp$[ebp+2147], eax
	mov	DWORD PTR _Temp$[ebp+2151], eax
	mov	BYTE PTR _Temp$[ebp+2155], al
	mov	al, BYTE PTR ??_C@_00CNPNBAHC@?$AA@
	mov	BYTE PTR _Temp$[ebp+2156], al
	xor	eax, eax
	mov	DWORD PTR _Temp$[ebp+2157], eax
	mov	DWORD PTR _Temp$[ebp+2161], eax
	mov	DWORD PTR _Temp$[ebp+2165], eax
	mov	BYTE PTR _Temp$[ebp+2169], al
	mov	al, BYTE PTR ??_C@_00CNPNBAHC@?$AA@
	mov	BYTE PTR _Temp$[ebp+2170], al
	xor	eax, eax
	mov	DWORD PTR _Temp$[ebp+2171], eax
	mov	DWORD PTR _Temp$[ebp+2175], eax
	mov	DWORD PTR _Temp$[ebp+2179], eax
	mov	BYTE PTR _Temp$[ebp+2183], al
	mov	eax, DWORD PTR ??_C@_0M@ICALLIHK@Right?5Enter?$AA@
	mov	DWORD PTR _Temp$[ebp+2184], eax
	mov	ecx, DWORD PTR ??_C@_0M@ICALLIHK@Right?5Enter?$AA@+4
	mov	DWORD PTR _Temp$[ebp+2188], ecx
	mov	edx, DWORD PTR ??_C@_0M@ICALLIHK@Right?5Enter?$AA@+8
	mov	DWORD PTR _Temp$[ebp+2192], edx
	xor	eax, eax
	mov	WORD PTR _Temp$[ebp+2196], ax
	mov	eax, DWORD PTR ??_C@_0O@FHMBNID@Right?5Control?$AA@
	mov	DWORD PTR _Temp$[ebp+2198], eax
	mov	ecx, DWORD PTR ??_C@_0O@FHMBNID@Right?5Control?$AA@+4
	mov	DWORD PTR _Temp$[ebp+2202], ecx
	mov	edx, DWORD PTR ??_C@_0O@FHMBNID@Right?5Control?$AA@+8
	mov	DWORD PTR _Temp$[ebp+2206], edx
	mov	ax, WORD PTR ??_C@_0O@FHMBNID@Right?5Control?$AA@+12
	mov	WORD PTR _Temp$[ebp+2210], ax
	mov	al, BYTE PTR ??_C@_00CNPNBAHC@?$AA@
	mov	BYTE PTR _Temp$[ebp+2212], al
	xor	eax, eax
	mov	DWORD PTR _Temp$[ebp+2213], eax
	mov	DWORD PTR _Temp$[ebp+2217], eax
	mov	DWORD PTR _Temp$[ebp+2221], eax
	mov	BYTE PTR _Temp$[ebp+2225], al
	mov	al, BYTE PTR ??_C@_00CNPNBAHC@?$AA@
	mov	BYTE PTR _Temp$[ebp+2226], al
	xor	eax, eax
	mov	DWORD PTR _Temp$[ebp+2227], eax
	mov	DWORD PTR _Temp$[ebp+2231], eax
	mov	DWORD PTR _Temp$[ebp+2235], eax
	mov	BYTE PTR _Temp$[ebp+2239], al
	mov	al, BYTE PTR ??_C@_00CNPNBAHC@?$AA@
	mov	BYTE PTR _Temp$[ebp+2240], al
	xor	eax, eax
	mov	DWORD PTR _Temp$[ebp+2241], eax
	mov	DWORD PTR _Temp$[ebp+2245], eax
	mov	DWORD PTR _Temp$[ebp+2249], eax
	mov	BYTE PTR _Temp$[ebp+2253], al

; 592  : 				  "","","","","","","","","","","","","","","","",

	mov	al, BYTE PTR ??_C@_00CNPNBAHC@?$AA@
	mov	BYTE PTR _Temp$[ebp+2254], al
	xor	eax, eax
	mov	DWORD PTR _Temp$[ebp+2255], eax
	mov	DWORD PTR _Temp$[ebp+2259], eax
	mov	DWORD PTR _Temp$[ebp+2263], eax
	mov	BYTE PTR _Temp$[ebp+2267], al
	mov	al, BYTE PTR ??_C@_00CNPNBAHC@?$AA@
	mov	BYTE PTR _Temp$[ebp+2268], al
	xor	eax, eax
	mov	DWORD PTR _Temp$[ebp+2269], eax
	mov	DWORD PTR _Temp$[ebp+2273], eax
	mov	DWORD PTR _Temp$[ebp+2277], eax
	mov	BYTE PTR _Temp$[ebp+2281], al
	mov	al, BYTE PTR ??_C@_00CNPNBAHC@?$AA@
	mov	BYTE PTR _Temp$[ebp+2282], al
	xor	eax, eax
	mov	DWORD PTR _Temp$[ebp+2283], eax
	mov	DWORD PTR _Temp$[ebp+2287], eax
	mov	DWORD PTR _Temp$[ebp+2291], eax
	mov	BYTE PTR _Temp$[ebp+2295], al
	mov	al, BYTE PTR ??_C@_00CNPNBAHC@?$AA@
	mov	BYTE PTR _Temp$[ebp+2296], al
	xor	eax, eax
	mov	DWORD PTR _Temp$[ebp+2297], eax
	mov	DWORD PTR _Temp$[ebp+2301], eax
	mov	DWORD PTR _Temp$[ebp+2305], eax
	mov	BYTE PTR _Temp$[ebp+2309], al
	mov	al, BYTE PTR ??_C@_00CNPNBAHC@?$AA@
	mov	BYTE PTR _Temp$[ebp+2310], al
	xor	eax, eax
	mov	DWORD PTR _Temp$[ebp+2311], eax
	mov	DWORD PTR _Temp$[ebp+2315], eax
	mov	DWORD PTR _Temp$[ebp+2319], eax
	mov	BYTE PTR _Temp$[ebp+2323], al
	mov	al, BYTE PTR ??_C@_00CNPNBAHC@?$AA@
	mov	BYTE PTR _Temp$[ebp+2324], al
	xor	eax, eax
	mov	DWORD PTR _Temp$[ebp+2325], eax
	mov	DWORD PTR _Temp$[ebp+2329], eax
	mov	DWORD PTR _Temp$[ebp+2333], eax
	mov	BYTE PTR _Temp$[ebp+2337], al
	mov	al, BYTE PTR ??_C@_00CNPNBAHC@?$AA@
	mov	BYTE PTR _Temp$[ebp+2338], al
	xor	eax, eax
	mov	DWORD PTR _Temp$[ebp+2339], eax
	mov	DWORD PTR _Temp$[ebp+2343], eax
	mov	DWORD PTR _Temp$[ebp+2347], eax
	mov	BYTE PTR _Temp$[ebp+2351], al
	mov	al, BYTE PTR ??_C@_00CNPNBAHC@?$AA@
	mov	BYTE PTR _Temp$[ebp+2352], al
	xor	eax, eax
	mov	DWORD PTR _Temp$[ebp+2353], eax
	mov	DWORD PTR _Temp$[ebp+2357], eax
	mov	DWORD PTR _Temp$[ebp+2361], eax
	mov	BYTE PTR _Temp$[ebp+2365], al
	mov	al, BYTE PTR ??_C@_00CNPNBAHC@?$AA@
	mov	BYTE PTR _Temp$[ebp+2366], al
	xor	eax, eax
	mov	DWORD PTR _Temp$[ebp+2367], eax
	mov	DWORD PTR _Temp$[ebp+2371], eax
	mov	DWORD PTR _Temp$[ebp+2375], eax
	mov	BYTE PTR _Temp$[ebp+2379], al
	mov	al, BYTE PTR ??_C@_00CNPNBAHC@?$AA@
	mov	BYTE PTR _Temp$[ebp+2380], al
	xor	eax, eax
	mov	DWORD PTR _Temp$[ebp+2381], eax
	mov	DWORD PTR _Temp$[ebp+2385], eax
	mov	DWORD PTR _Temp$[ebp+2389], eax
	mov	BYTE PTR _Temp$[ebp+2393], al
	mov	al, BYTE PTR ??_C@_00CNPNBAHC@?$AA@
	mov	BYTE PTR _Temp$[ebp+2394], al
	xor	eax, eax
	mov	DWORD PTR _Temp$[ebp+2395], eax
	mov	DWORD PTR _Temp$[ebp+2399], eax
	mov	DWORD PTR _Temp$[ebp+2403], eax
	mov	BYTE PTR _Temp$[ebp+2407], al
	mov	al, BYTE PTR ??_C@_00CNPNBAHC@?$AA@
	mov	BYTE PTR _Temp$[ebp+2408], al
	xor	eax, eax
	mov	DWORD PTR _Temp$[ebp+2409], eax
	mov	DWORD PTR _Temp$[ebp+2413], eax
	mov	DWORD PTR _Temp$[ebp+2417], eax
	mov	BYTE PTR _Temp$[ebp+2421], al
	mov	al, BYTE PTR ??_C@_00CNPNBAHC@?$AA@
	mov	BYTE PTR _Temp$[ebp+2422], al
	xor	eax, eax
	mov	DWORD PTR _Temp$[ebp+2423], eax
	mov	DWORD PTR _Temp$[ebp+2427], eax
	mov	DWORD PTR _Temp$[ebp+2431], eax
	mov	BYTE PTR _Temp$[ebp+2435], al
	mov	al, BYTE PTR ??_C@_00CNPNBAHC@?$AA@
	mov	BYTE PTR _Temp$[ebp+2436], al
	xor	eax, eax
	mov	DWORD PTR _Temp$[ebp+2437], eax
	mov	DWORD PTR _Temp$[ebp+2441], eax
	mov	DWORD PTR _Temp$[ebp+2445], eax
	mov	BYTE PTR _Temp$[ebp+2449], al
	mov	al, BYTE PTR ??_C@_00CNPNBAHC@?$AA@
	mov	BYTE PTR _Temp$[ebp+2450], al
	xor	eax, eax
	mov	DWORD PTR _Temp$[ebp+2451], eax
	mov	DWORD PTR _Temp$[ebp+2455], eax
	mov	DWORD PTR _Temp$[ebp+2459], eax
	mov	BYTE PTR _Temp$[ebp+2463], al
	mov	al, BYTE PTR ??_C@_00CNPNBAHC@?$AA@
	mov	BYTE PTR _Temp$[ebp+2464], al
	xor	eax, eax
	mov	DWORD PTR _Temp$[ebp+2465], eax
	mov	DWORD PTR _Temp$[ebp+2469], eax
	mov	DWORD PTR _Temp$[ebp+2473], eax
	mov	BYTE PTR _Temp$[ebp+2477], al

; 593  : 				  "","Function F3","","","/ Num","","Print Screen","Right Alt","","","","","","","","",

	mov	al, BYTE PTR ??_C@_00CNPNBAHC@?$AA@
	mov	BYTE PTR _Temp$[ebp+2478], al
	xor	eax, eax
	mov	DWORD PTR _Temp$[ebp+2479], eax
	mov	DWORD PTR _Temp$[ebp+2483], eax
	mov	DWORD PTR _Temp$[ebp+2487], eax
	mov	BYTE PTR _Temp$[ebp+2491], al
	mov	eax, DWORD PTR ??_C@_0M@LHBLIFBA@Function?5F3?$AA@
	mov	DWORD PTR _Temp$[ebp+2492], eax
	mov	ecx, DWORD PTR ??_C@_0M@LHBLIFBA@Function?5F3?$AA@+4
	mov	DWORD PTR _Temp$[ebp+2496], ecx
	mov	edx, DWORD PTR ??_C@_0M@LHBLIFBA@Function?5F3?$AA@+8
	mov	DWORD PTR _Temp$[ebp+2500], edx
	xor	eax, eax
	mov	WORD PTR _Temp$[ebp+2504], ax
	mov	al, BYTE PTR ??_C@_00CNPNBAHC@?$AA@
	mov	BYTE PTR _Temp$[ebp+2506], al
	xor	eax, eax
	mov	DWORD PTR _Temp$[ebp+2507], eax
	mov	DWORD PTR _Temp$[ebp+2511], eax
	mov	DWORD PTR _Temp$[ebp+2515], eax
	mov	BYTE PTR _Temp$[ebp+2519], al
	mov	al, BYTE PTR ??_C@_00CNPNBAHC@?$AA@
	mov	BYTE PTR _Temp$[ebp+2520], al
	xor	eax, eax
	mov	DWORD PTR _Temp$[ebp+2521], eax
	mov	DWORD PTR _Temp$[ebp+2525], eax
	mov	DWORD PTR _Temp$[ebp+2529], eax
	mov	BYTE PTR _Temp$[ebp+2533], al
	mov	eax, DWORD PTR ??_C@_05IAKEFGOE@?1?5Num?$AA@
	mov	DWORD PTR _Temp$[ebp+2534], eax
	mov	cx, WORD PTR ??_C@_05IAKEFGOE@?1?5Num?$AA@+4
	mov	WORD PTR _Temp$[ebp+2538], cx
	xor	eax, eax
	mov	DWORD PTR _Temp$[ebp+2540], eax
	mov	DWORD PTR _Temp$[ebp+2544], eax
	mov	al, BYTE PTR ??_C@_00CNPNBAHC@?$AA@
	mov	BYTE PTR _Temp$[ebp+2548], al
	xor	eax, eax
	mov	DWORD PTR _Temp$[ebp+2549], eax
	mov	DWORD PTR _Temp$[ebp+2553], eax
	mov	DWORD PTR _Temp$[ebp+2557], eax
	mov	BYTE PTR _Temp$[ebp+2561], al
	mov	eax, DWORD PTR ??_C@_0N@CHCLIIDE@Print?5Screen?$AA@
	mov	DWORD PTR _Temp$[ebp+2562], eax
	mov	ecx, DWORD PTR ??_C@_0N@CHCLIIDE@Print?5Screen?$AA@+4
	mov	DWORD PTR _Temp$[ebp+2566], ecx
	mov	edx, DWORD PTR ??_C@_0N@CHCLIIDE@Print?5Screen?$AA@+8
	mov	DWORD PTR _Temp$[ebp+2570], edx
	mov	al, BYTE PTR ??_C@_0N@CHCLIIDE@Print?5Screen?$AA@+12
	mov	BYTE PTR _Temp$[ebp+2574], al
	xor	eax, eax
	mov	BYTE PTR _Temp$[ebp+2575], al
	mov	eax, DWORD PTR ??_C@_09ELGHIMBO@Right?5Alt?$AA@
	mov	DWORD PTR _Temp$[ebp+2576], eax
	mov	ecx, DWORD PTR ??_C@_09ELGHIMBO@Right?5Alt?$AA@+4
	mov	DWORD PTR _Temp$[ebp+2580], ecx
	mov	dx, WORD PTR ??_C@_09ELGHIMBO@Right?5Alt?$AA@+8
	mov	WORD PTR _Temp$[ebp+2584], dx
	xor	eax, eax
	mov	DWORD PTR _Temp$[ebp+2586], eax
	mov	al, BYTE PTR ??_C@_00CNPNBAHC@?$AA@
	mov	BYTE PTR _Temp$[ebp+2590], al
	xor	eax, eax
	mov	DWORD PTR _Temp$[ebp+2591], eax
	mov	DWORD PTR _Temp$[ebp+2595], eax
	mov	DWORD PTR _Temp$[ebp+2599], eax
	mov	BYTE PTR _Temp$[ebp+2603], al
	mov	al, BYTE PTR ??_C@_00CNPNBAHC@?$AA@
	mov	BYTE PTR _Temp$[ebp+2604], al
	xor	eax, eax
	mov	DWORD PTR _Temp$[ebp+2605], eax
	mov	DWORD PTR _Temp$[ebp+2609], eax
	mov	DWORD PTR _Temp$[ebp+2613], eax
	mov	BYTE PTR _Temp$[ebp+2617], al
	mov	al, BYTE PTR ??_C@_00CNPNBAHC@?$AA@
	mov	BYTE PTR _Temp$[ebp+2618], al
	xor	eax, eax
	mov	DWORD PTR _Temp$[ebp+2619], eax
	mov	DWORD PTR _Temp$[ebp+2623], eax
	mov	DWORD PTR _Temp$[ebp+2627], eax
	mov	BYTE PTR _Temp$[ebp+2631], al
	mov	al, BYTE PTR ??_C@_00CNPNBAHC@?$AA@
	mov	BYTE PTR _Temp$[ebp+2632], al
	xor	eax, eax
	mov	DWORD PTR _Temp$[ebp+2633], eax
	mov	DWORD PTR _Temp$[ebp+2637], eax
	mov	DWORD PTR _Temp$[ebp+2641], eax
	mov	BYTE PTR _Temp$[ebp+2645], al
	mov	al, BYTE PTR ??_C@_00CNPNBAHC@?$AA@
	mov	BYTE PTR _Temp$[ebp+2646], al
	xor	eax, eax
	mov	DWORD PTR _Temp$[ebp+2647], eax
	mov	DWORD PTR _Temp$[ebp+2651], eax
	mov	DWORD PTR _Temp$[ebp+2655], eax
	mov	BYTE PTR _Temp$[ebp+2659], al
	mov	al, BYTE PTR ??_C@_00CNPNBAHC@?$AA@
	mov	BYTE PTR _Temp$[ebp+2660], al
	xor	eax, eax
	mov	DWORD PTR _Temp$[ebp+2661], eax
	mov	DWORD PTR _Temp$[ebp+2665], eax
	mov	DWORD PTR _Temp$[ebp+2669], eax
	mov	BYTE PTR _Temp$[ebp+2673], al
	mov	al, BYTE PTR ??_C@_00CNPNBAHC@?$AA@
	mov	BYTE PTR _Temp$[ebp+2674], al
	xor	eax, eax
	mov	DWORD PTR _Temp$[ebp+2675], eax
	mov	DWORD PTR _Temp$[ebp+2679], eax
	mov	DWORD PTR _Temp$[ebp+2683], eax
	mov	BYTE PTR _Temp$[ebp+2687], al
	mov	al, BYTE PTR ??_C@_00CNPNBAHC@?$AA@
	mov	BYTE PTR _Temp$[ebp+2688], al
	xor	eax, eax
	mov	DWORD PTR _Temp$[ebp+2689], eax
	mov	DWORD PTR _Temp$[ebp+2693], eax
	mov	DWORD PTR _Temp$[ebp+2697], eax
	mov	BYTE PTR _Temp$[ebp+2701], al

; 594  : 				  "","","","","Pause","Break","Home","Up","Page Up","","Left","","Right","","End","Down",

	mov	al, BYTE PTR ??_C@_00CNPNBAHC@?$AA@
	mov	BYTE PTR _Temp$[ebp+2702], al
	xor	eax, eax
	mov	DWORD PTR _Temp$[ebp+2703], eax
	mov	DWORD PTR _Temp$[ebp+2707], eax
	mov	DWORD PTR _Temp$[ebp+2711], eax
	mov	BYTE PTR _Temp$[ebp+2715], al
	mov	al, BYTE PTR ??_C@_00CNPNBAHC@?$AA@
	mov	BYTE PTR _Temp$[ebp+2716], al
	xor	eax, eax
	mov	DWORD PTR _Temp$[ebp+2717], eax
	mov	DWORD PTR _Temp$[ebp+2721], eax
	mov	DWORD PTR _Temp$[ebp+2725], eax
	mov	BYTE PTR _Temp$[ebp+2729], al
	mov	al, BYTE PTR ??_C@_00CNPNBAHC@?$AA@
	mov	BYTE PTR _Temp$[ebp+2730], al
	xor	eax, eax
	mov	DWORD PTR _Temp$[ebp+2731], eax
	mov	DWORD PTR _Temp$[ebp+2735], eax
	mov	DWORD PTR _Temp$[ebp+2739], eax
	mov	BYTE PTR _Temp$[ebp+2743], al
	mov	al, BYTE PTR ??_C@_00CNPNBAHC@?$AA@
	mov	BYTE PTR _Temp$[ebp+2744], al
	xor	eax, eax
	mov	DWORD PTR _Temp$[ebp+2745], eax
	mov	DWORD PTR _Temp$[ebp+2749], eax
	mov	DWORD PTR _Temp$[ebp+2753], eax
	mov	BYTE PTR _Temp$[ebp+2757], al
	mov	eax, DWORD PTR ??_C@_05PEDNBBBD@Pause?$AA@
	mov	DWORD PTR _Temp$[ebp+2758], eax
	mov	cx, WORD PTR ??_C@_05PEDNBBBD@Pause?$AA@+4
	mov	WORD PTR _Temp$[ebp+2762], cx
	xor	eax, eax
	mov	DWORD PTR _Temp$[ebp+2764], eax
	mov	DWORD PTR _Temp$[ebp+2768], eax
	mov	eax, DWORD PTR ??_C@_05EMFLFCNO@Break?$AA@
	mov	DWORD PTR _Temp$[ebp+2772], eax
	mov	cx, WORD PTR ??_C@_05EMFLFCNO@Break?$AA@+4
	mov	WORD PTR _Temp$[ebp+2776], cx
	xor	eax, eax
	mov	DWORD PTR _Temp$[ebp+2778], eax
	mov	DWORD PTR _Temp$[ebp+2782], eax
	mov	eax, DWORD PTR ??_C@_04GKJODLKO@Home?$AA@
	mov	DWORD PTR _Temp$[ebp+2786], eax
	mov	cl, BYTE PTR ??_C@_04GKJODLKO@Home?$AA@+4
	mov	BYTE PTR _Temp$[ebp+2790], cl
	xor	eax, eax
	mov	DWORD PTR _Temp$[ebp+2791], eax
	mov	DWORD PTR _Temp$[ebp+2795], eax
	mov	BYTE PTR _Temp$[ebp+2799], al
	mov	ax, WORD PTR ??_C@_02EFPGLDEA@Up?$AA@
	mov	WORD PTR _Temp$[ebp+2800], ax
	mov	cl, BYTE PTR ??_C@_02EFPGLDEA@Up?$AA@+2
	mov	BYTE PTR _Temp$[ebp+2802], cl
	xor	eax, eax
	mov	DWORD PTR _Temp$[ebp+2803], eax
	mov	DWORD PTR _Temp$[ebp+2807], eax
	mov	WORD PTR _Temp$[ebp+2811], ax
	mov	BYTE PTR _Temp$[ebp+2813], al
	mov	eax, DWORD PTR ??_C@_07EDGDGJEN@Page?5Up?$AA@
	mov	DWORD PTR _Temp$[ebp+2814], eax
	mov	ecx, DWORD PTR ??_C@_07EDGDGJEN@Page?5Up?$AA@+4
	mov	DWORD PTR _Temp$[ebp+2818], ecx
	xor	eax, eax
	mov	DWORD PTR _Temp$[ebp+2822], eax
	mov	WORD PTR _Temp$[ebp+2826], ax
	mov	al, BYTE PTR ??_C@_00CNPNBAHC@?$AA@
	mov	BYTE PTR _Temp$[ebp+2828], al
	xor	eax, eax
	mov	DWORD PTR _Temp$[ebp+2829], eax
	mov	DWORD PTR _Temp$[ebp+2833], eax
	mov	DWORD PTR _Temp$[ebp+2837], eax
	mov	BYTE PTR _Temp$[ebp+2841], al
	mov	eax, DWORD PTR ??_C@_04KPCPLBPL@Left?$AA@
	mov	DWORD PTR _Temp$[ebp+2842], eax
	mov	cl, BYTE PTR ??_C@_04KPCPLBPL@Left?$AA@+4
	mov	BYTE PTR _Temp$[ebp+2846], cl
	xor	eax, eax
	mov	DWORD PTR _Temp$[ebp+2847], eax
	mov	DWORD PTR _Temp$[ebp+2851], eax
	mov	BYTE PTR _Temp$[ebp+2855], al
	mov	al, BYTE PTR ??_C@_00CNPNBAHC@?$AA@
	mov	BYTE PTR _Temp$[ebp+2856], al
	xor	eax, eax
	mov	DWORD PTR _Temp$[ebp+2857], eax
	mov	DWORD PTR _Temp$[ebp+2861], eax
	mov	DWORD PTR _Temp$[ebp+2865], eax
	mov	BYTE PTR _Temp$[ebp+2869], al
	mov	eax, DWORD PTR ??_C@_05DADPALEM@Right?$AA@
	mov	DWORD PTR _Temp$[ebp+2870], eax
	mov	cx, WORD PTR ??_C@_05DADPALEM@Right?$AA@+4
	mov	WORD PTR _Temp$[ebp+2874], cx
	xor	eax, eax
	mov	DWORD PTR _Temp$[ebp+2876], eax
	mov	DWORD PTR _Temp$[ebp+2880], eax
	mov	al, BYTE PTR ??_C@_00CNPNBAHC@?$AA@
	mov	BYTE PTR _Temp$[ebp+2884], al
	xor	eax, eax
	mov	DWORD PTR _Temp$[ebp+2885], eax
	mov	DWORD PTR _Temp$[ebp+2889], eax
	mov	DWORD PTR _Temp$[ebp+2893], eax
	mov	BYTE PTR _Temp$[ebp+2897], al
	mov	eax, DWORD PTR ??_C@_03DBKJMAGF@End?$AA@
	mov	DWORD PTR _Temp$[ebp+2898], eax
	xor	eax, eax
	mov	DWORD PTR _Temp$[ebp+2902], eax
	mov	DWORD PTR _Temp$[ebp+2906], eax
	mov	WORD PTR _Temp$[ebp+2910], ax
	mov	eax, DWORD PTR ??_C@_04FNCLCJMC@Down?$AA@
	mov	DWORD PTR _Temp$[ebp+2912], eax
	mov	cl, BYTE PTR ??_C@_04FNCLCJMC@Down?$AA@+4
	mov	BYTE PTR _Temp$[ebp+2916], cl
	xor	eax, eax
	mov	DWORD PTR _Temp$[ebp+2917], eax
	mov	DWORD PTR _Temp$[ebp+2921], eax
	mov	BYTE PTR _Temp$[ebp+2925], al

; 595  : 				  "Page Down","Insert","Delete","","","","","","","","Left Windows","Right Windows","Thing","","","",

	mov	eax, DWORD PTR ??_C@_09IOIDGKNA@Page?5Down?$AA@
	mov	DWORD PTR _Temp$[ebp+2926], eax
	mov	ecx, DWORD PTR ??_C@_09IOIDGKNA@Page?5Down?$AA@+4
	mov	DWORD PTR _Temp$[ebp+2930], ecx
	mov	dx, WORD PTR ??_C@_09IOIDGKNA@Page?5Down?$AA@+8
	mov	WORD PTR _Temp$[ebp+2934], dx
	xor	eax, eax
	mov	DWORD PTR _Temp$[ebp+2936], eax
	mov	eax, DWORD PTR ??_C@_06CPFCODOD@Insert?$AA@
	mov	DWORD PTR _Temp$[ebp+2940], eax
	mov	cx, WORD PTR ??_C@_06CPFCODOD@Insert?$AA@+4
	mov	WORD PTR _Temp$[ebp+2944], cx
	mov	dl, BYTE PTR ??_C@_06CPFCODOD@Insert?$AA@+6
	mov	BYTE PTR _Temp$[ebp+2946], dl
	xor	eax, eax
	mov	DWORD PTR _Temp$[ebp+2947], eax
	mov	WORD PTR _Temp$[ebp+2951], ax
	mov	BYTE PTR _Temp$[ebp+2953], al
	mov	eax, DWORD PTR ??_C@_06JBKGCNBB@Delete?$AA@
	mov	DWORD PTR _Temp$[ebp+2954], eax
	mov	cx, WORD PTR ??_C@_06JBKGCNBB@Delete?$AA@+4
	mov	WORD PTR _Temp$[ebp+2958], cx
	mov	dl, BYTE PTR ??_C@_06JBKGCNBB@Delete?$AA@+6
	mov	BYTE PTR _Temp$[ebp+2960], dl
	xor	eax, eax
	mov	DWORD PTR _Temp$[ebp+2961], eax
	mov	WORD PTR _Temp$[ebp+2965], ax
	mov	BYTE PTR _Temp$[ebp+2967], al
	mov	al, BYTE PTR ??_C@_00CNPNBAHC@?$AA@
	mov	BYTE PTR _Temp$[ebp+2968], al
	xor	eax, eax
	mov	DWORD PTR _Temp$[ebp+2969], eax
	mov	DWORD PTR _Temp$[ebp+2973], eax
	mov	DWORD PTR _Temp$[ebp+2977], eax
	mov	BYTE PTR _Temp$[ebp+2981], al
	mov	al, BYTE PTR ??_C@_00CNPNBAHC@?$AA@
	mov	BYTE PTR _Temp$[ebp+2982], al
	xor	eax, eax
	mov	DWORD PTR _Temp$[ebp+2983], eax
	mov	DWORD PTR _Temp$[ebp+2987], eax
	mov	DWORD PTR _Temp$[ebp+2991], eax
	mov	BYTE PTR _Temp$[ebp+2995], al
	mov	al, BYTE PTR ??_C@_00CNPNBAHC@?$AA@
	mov	BYTE PTR _Temp$[ebp+2996], al
	xor	eax, eax
	mov	DWORD PTR _Temp$[ebp+2997], eax
	mov	DWORD PTR _Temp$[ebp+3001], eax
	mov	DWORD PTR _Temp$[ebp+3005], eax
	mov	BYTE PTR _Temp$[ebp+3009], al
	mov	al, BYTE PTR ??_C@_00CNPNBAHC@?$AA@
	mov	BYTE PTR _Temp$[ebp+3010], al
	xor	eax, eax
	mov	DWORD PTR _Temp$[ebp+3011], eax
	mov	DWORD PTR _Temp$[ebp+3015], eax
	mov	DWORD PTR _Temp$[ebp+3019], eax
	mov	BYTE PTR _Temp$[ebp+3023], al
	mov	al, BYTE PTR ??_C@_00CNPNBAHC@?$AA@
	mov	BYTE PTR _Temp$[ebp+3024], al
	xor	eax, eax
	mov	DWORD PTR _Temp$[ebp+3025], eax
	mov	DWORD PTR _Temp$[ebp+3029], eax
	mov	DWORD PTR _Temp$[ebp+3033], eax
	mov	BYTE PTR _Temp$[ebp+3037], al
	mov	al, BYTE PTR ??_C@_00CNPNBAHC@?$AA@
	mov	BYTE PTR _Temp$[ebp+3038], al
	xor	eax, eax
	mov	DWORD PTR _Temp$[ebp+3039], eax
	mov	DWORD PTR _Temp$[ebp+3043], eax
	mov	DWORD PTR _Temp$[ebp+3047], eax
	mov	BYTE PTR _Temp$[ebp+3051], al
	mov	al, BYTE PTR ??_C@_00CNPNBAHC@?$AA@
	mov	BYTE PTR _Temp$[ebp+3052], al
	xor	eax, eax
	mov	DWORD PTR _Temp$[ebp+3053], eax
	mov	DWORD PTR _Temp$[ebp+3057], eax
	mov	DWORD PTR _Temp$[ebp+3061], eax
	mov	BYTE PTR _Temp$[ebp+3065], al
	mov	eax, DWORD PTR ??_C@_0N@ILBHIOPE@Left?5Windows?$AA@
	mov	DWORD PTR _Temp$[ebp+3066], eax
	mov	ecx, DWORD PTR ??_C@_0N@ILBHIOPE@Left?5Windows?$AA@+4
	mov	DWORD PTR _Temp$[ebp+3070], ecx
	mov	edx, DWORD PTR ??_C@_0N@ILBHIOPE@Left?5Windows?$AA@+8
	mov	DWORD PTR _Temp$[ebp+3074], edx
	mov	al, BYTE PTR ??_C@_0N@ILBHIOPE@Left?5Windows?$AA@+12
	mov	BYTE PTR _Temp$[ebp+3078], al
	xor	eax, eax
	mov	BYTE PTR _Temp$[ebp+3079], al
	mov	eax, DWORD PTR ??_C@_0O@IDKBPDPO@Right?5Windows?$AA@
	mov	DWORD PTR _Temp$[ebp+3080], eax
	mov	ecx, DWORD PTR ??_C@_0O@IDKBPDPO@Right?5Windows?$AA@+4
	mov	DWORD PTR _Temp$[ebp+3084], ecx
	mov	edx, DWORD PTR ??_C@_0O@IDKBPDPO@Right?5Windows?$AA@+8
	mov	DWORD PTR _Temp$[ebp+3088], edx
	mov	ax, WORD PTR ??_C@_0O@IDKBPDPO@Right?5Windows?$AA@+12
	mov	WORD PTR _Temp$[ebp+3092], ax
	mov	eax, DWORD PTR ??_C@_05FOLLILPC@Thing?$AA@
	mov	DWORD PTR _Temp$[ebp+3094], eax
	mov	cx, WORD PTR ??_C@_05FOLLILPC@Thing?$AA@+4
	mov	WORD PTR _Temp$[ebp+3098], cx
	xor	eax, eax
	mov	DWORD PTR _Temp$[ebp+3100], eax
	mov	DWORD PTR _Temp$[ebp+3104], eax
	mov	al, BYTE PTR ??_C@_00CNPNBAHC@?$AA@
	mov	BYTE PTR _Temp$[ebp+3108], al
	xor	eax, eax
	mov	DWORD PTR _Temp$[ebp+3109], eax
	mov	DWORD PTR _Temp$[ebp+3113], eax
	mov	DWORD PTR _Temp$[ebp+3117], eax
	mov	BYTE PTR _Temp$[ebp+3121], al
	mov	al, BYTE PTR ??_C@_00CNPNBAHC@?$AA@
	mov	BYTE PTR _Temp$[ebp+3122], al
	xor	eax, eax
	mov	DWORD PTR _Temp$[ebp+3123], eax
	mov	DWORD PTR _Temp$[ebp+3127], eax
	mov	DWORD PTR _Temp$[ebp+3131], eax
	mov	BYTE PTR _Temp$[ebp+3135], al
	mov	al, BYTE PTR ??_C@_00CNPNBAHC@?$AA@
	mov	BYTE PTR _Temp$[ebp+3136], al
	xor	eax, eax
	mov	DWORD PTR _Temp$[ebp+3137], eax
	mov	DWORD PTR _Temp$[ebp+3141], eax
	mov	DWORD PTR _Temp$[ebp+3145], eax
	mov	BYTE PTR _Temp$[ebp+3149], al

; 596  : 				  "","","","","","","","","","","","","","","","",

	mov	al, BYTE PTR ??_C@_00CNPNBAHC@?$AA@
	mov	BYTE PTR _Temp$[ebp+3150], al
	xor	eax, eax
	mov	DWORD PTR _Temp$[ebp+3151], eax
	mov	DWORD PTR _Temp$[ebp+3155], eax
	mov	DWORD PTR _Temp$[ebp+3159], eax
	mov	BYTE PTR _Temp$[ebp+3163], al
	mov	al, BYTE PTR ??_C@_00CNPNBAHC@?$AA@
	mov	BYTE PTR _Temp$[ebp+3164], al
	xor	eax, eax
	mov	DWORD PTR _Temp$[ebp+3165], eax
	mov	DWORD PTR _Temp$[ebp+3169], eax
	mov	DWORD PTR _Temp$[ebp+3173], eax
	mov	BYTE PTR _Temp$[ebp+3177], al
	mov	al, BYTE PTR ??_C@_00CNPNBAHC@?$AA@
	mov	BYTE PTR _Temp$[ebp+3178], al
	xor	eax, eax
	mov	DWORD PTR _Temp$[ebp+3179], eax
	mov	DWORD PTR _Temp$[ebp+3183], eax
	mov	DWORD PTR _Temp$[ebp+3187], eax
	mov	BYTE PTR _Temp$[ebp+3191], al
	mov	al, BYTE PTR ??_C@_00CNPNBAHC@?$AA@
	mov	BYTE PTR _Temp$[ebp+3192], al
	xor	eax, eax
	mov	DWORD PTR _Temp$[ebp+3193], eax
	mov	DWORD PTR _Temp$[ebp+3197], eax
	mov	DWORD PTR _Temp$[ebp+3201], eax
	mov	BYTE PTR _Temp$[ebp+3205], al
	mov	al, BYTE PTR ??_C@_00CNPNBAHC@?$AA@
	mov	BYTE PTR _Temp$[ebp+3206], al
	xor	eax, eax
	mov	DWORD PTR _Temp$[ebp+3207], eax
	mov	DWORD PTR _Temp$[ebp+3211], eax
	mov	DWORD PTR _Temp$[ebp+3215], eax
	mov	BYTE PTR _Temp$[ebp+3219], al
	mov	al, BYTE PTR ??_C@_00CNPNBAHC@?$AA@
	mov	BYTE PTR _Temp$[ebp+3220], al
	xor	eax, eax
	mov	DWORD PTR _Temp$[ebp+3221], eax
	mov	DWORD PTR _Temp$[ebp+3225], eax
	mov	DWORD PTR _Temp$[ebp+3229], eax
	mov	BYTE PTR _Temp$[ebp+3233], al
	mov	al, BYTE PTR ??_C@_00CNPNBAHC@?$AA@
	mov	BYTE PTR _Temp$[ebp+3234], al
	xor	eax, eax
	mov	DWORD PTR _Temp$[ebp+3235], eax
	mov	DWORD PTR _Temp$[ebp+3239], eax
	mov	DWORD PTR _Temp$[ebp+3243], eax
	mov	BYTE PTR _Temp$[ebp+3247], al
	mov	al, BYTE PTR ??_C@_00CNPNBAHC@?$AA@
	mov	BYTE PTR _Temp$[ebp+3248], al
	xor	eax, eax
	mov	DWORD PTR _Temp$[ebp+3249], eax
	mov	DWORD PTR _Temp$[ebp+3253], eax
	mov	DWORD PTR _Temp$[ebp+3257], eax
	mov	BYTE PTR _Temp$[ebp+3261], al
	mov	al, BYTE PTR ??_C@_00CNPNBAHC@?$AA@
	mov	BYTE PTR _Temp$[ebp+3262], al
	xor	eax, eax
	mov	DWORD PTR _Temp$[ebp+3263], eax
	mov	DWORD PTR _Temp$[ebp+3267], eax
	mov	DWORD PTR _Temp$[ebp+3271], eax
	mov	BYTE PTR _Temp$[ebp+3275], al
	mov	al, BYTE PTR ??_C@_00CNPNBAHC@?$AA@
	mov	BYTE PTR _Temp$[ebp+3276], al
	xor	eax, eax
	mov	DWORD PTR _Temp$[ebp+3277], eax
	mov	DWORD PTR _Temp$[ebp+3281], eax
	mov	DWORD PTR _Temp$[ebp+3285], eax
	mov	BYTE PTR _Temp$[ebp+3289], al
	mov	al, BYTE PTR ??_C@_00CNPNBAHC@?$AA@
	mov	BYTE PTR _Temp$[ebp+3290], al
	xor	eax, eax
	mov	DWORD PTR _Temp$[ebp+3291], eax
	mov	DWORD PTR _Temp$[ebp+3295], eax
	mov	DWORD PTR _Temp$[ebp+3299], eax
	mov	BYTE PTR _Temp$[ebp+3303], al
	mov	al, BYTE PTR ??_C@_00CNPNBAHC@?$AA@
	mov	BYTE PTR _Temp$[ebp+3304], al
	xor	eax, eax
	mov	DWORD PTR _Temp$[ebp+3305], eax
	mov	DWORD PTR _Temp$[ebp+3309], eax
	mov	DWORD PTR _Temp$[ebp+3313], eax
	mov	BYTE PTR _Temp$[ebp+3317], al
	mov	al, BYTE PTR ??_C@_00CNPNBAHC@?$AA@
	mov	BYTE PTR _Temp$[ebp+3318], al
	xor	eax, eax
	mov	DWORD PTR _Temp$[ebp+3319], eax
	mov	DWORD PTR _Temp$[ebp+3323], eax
	mov	DWORD PTR _Temp$[ebp+3327], eax
	mov	BYTE PTR _Temp$[ebp+3331], al
	mov	al, BYTE PTR ??_C@_00CNPNBAHC@?$AA@
	mov	BYTE PTR _Temp$[ebp+3332], al
	xor	eax, eax
	mov	DWORD PTR _Temp$[ebp+3333], eax
	mov	DWORD PTR _Temp$[ebp+3337], eax
	mov	DWORD PTR _Temp$[ebp+3341], eax
	mov	BYTE PTR _Temp$[ebp+3345], al
	mov	al, BYTE PTR ??_C@_00CNPNBAHC@?$AA@
	mov	BYTE PTR _Temp$[ebp+3346], al
	xor	eax, eax
	mov	DWORD PTR _Temp$[ebp+3347], eax
	mov	DWORD PTR _Temp$[ebp+3351], eax
	mov	DWORD PTR _Temp$[ebp+3355], eax
	mov	BYTE PTR _Temp$[ebp+3359], al
	mov	al, BYTE PTR ??_C@_00CNPNBAHC@?$AA@
	mov	BYTE PTR _Temp$[ebp+3360], al
	xor	eax, eax
	mov	DWORD PTR _Temp$[ebp+3361], eax
	mov	DWORD PTR _Temp$[ebp+3365], eax
	mov	DWORD PTR _Temp$[ebp+3369], eax
	mov	BYTE PTR _Temp$[ebp+3373], al

; 597  : 				  "","","","","","","","","","","","","","","",""};

	mov	al, BYTE PTR ??_C@_00CNPNBAHC@?$AA@
	mov	BYTE PTR _Temp$[ebp+3374], al
	xor	eax, eax
	mov	DWORD PTR _Temp$[ebp+3375], eax
	mov	DWORD PTR _Temp$[ebp+3379], eax
	mov	DWORD PTR _Temp$[ebp+3383], eax
	mov	BYTE PTR _Temp$[ebp+3387], al
	mov	al, BYTE PTR ??_C@_00CNPNBAHC@?$AA@
	mov	BYTE PTR _Temp$[ebp+3388], al
	xor	eax, eax
	mov	DWORD PTR _Temp$[ebp+3389], eax
	mov	DWORD PTR _Temp$[ebp+3393], eax
	mov	DWORD PTR _Temp$[ebp+3397], eax
	mov	BYTE PTR _Temp$[ebp+3401], al
	mov	al, BYTE PTR ??_C@_00CNPNBAHC@?$AA@
	mov	BYTE PTR _Temp$[ebp+3402], al
	xor	eax, eax
	mov	DWORD PTR _Temp$[ebp+3403], eax
	mov	DWORD PTR _Temp$[ebp+3407], eax
	mov	DWORD PTR _Temp$[ebp+3411], eax
	mov	BYTE PTR _Temp$[ebp+3415], al
	mov	al, BYTE PTR ??_C@_00CNPNBAHC@?$AA@
	mov	BYTE PTR _Temp$[ebp+3416], al
	xor	eax, eax
	mov	DWORD PTR _Temp$[ebp+3417], eax
	mov	DWORD PTR _Temp$[ebp+3421], eax
	mov	DWORD PTR _Temp$[ebp+3425], eax
	mov	BYTE PTR _Temp$[ebp+3429], al
	mov	al, BYTE PTR ??_C@_00CNPNBAHC@?$AA@
	mov	BYTE PTR _Temp$[ebp+3430], al
	xor	eax, eax
	mov	DWORD PTR _Temp$[ebp+3431], eax
	mov	DWORD PTR _Temp$[ebp+3435], eax
	mov	DWORD PTR _Temp$[ebp+3439], eax
	mov	BYTE PTR _Temp$[ebp+3443], al
	mov	al, BYTE PTR ??_C@_00CNPNBAHC@?$AA@
	mov	BYTE PTR _Temp$[ebp+3444], al
	xor	eax, eax
	mov	DWORD PTR _Temp$[ebp+3445], eax
	mov	DWORD PTR _Temp$[ebp+3449], eax
	mov	DWORD PTR _Temp$[ebp+3453], eax
	mov	BYTE PTR _Temp$[ebp+3457], al
	mov	al, BYTE PTR ??_C@_00CNPNBAHC@?$AA@
	mov	BYTE PTR _Temp$[ebp+3458], al
	xor	eax, eax
	mov	DWORD PTR _Temp$[ebp+3459], eax
	mov	DWORD PTR _Temp$[ebp+3463], eax
	mov	DWORD PTR _Temp$[ebp+3467], eax
	mov	BYTE PTR _Temp$[ebp+3471], al
	mov	al, BYTE PTR ??_C@_00CNPNBAHC@?$AA@
	mov	BYTE PTR _Temp$[ebp+3472], al
	xor	eax, eax
	mov	DWORD PTR _Temp$[ebp+3473], eax
	mov	DWORD PTR _Temp$[ebp+3477], eax
	mov	DWORD PTR _Temp$[ebp+3481], eax
	mov	BYTE PTR _Temp$[ebp+3485], al
	mov	al, BYTE PTR ??_C@_00CNPNBAHC@?$AA@
	mov	BYTE PTR _Temp$[ebp+3486], al
	xor	eax, eax
	mov	DWORD PTR _Temp$[ebp+3487], eax
	mov	DWORD PTR _Temp$[ebp+3491], eax
	mov	DWORD PTR _Temp$[ebp+3495], eax
	mov	BYTE PTR _Temp$[ebp+3499], al
	mov	al, BYTE PTR ??_C@_00CNPNBAHC@?$AA@
	mov	BYTE PTR _Temp$[ebp+3500], al
	xor	eax, eax
	mov	DWORD PTR _Temp$[ebp+3501], eax
	mov	DWORD PTR _Temp$[ebp+3505], eax
	mov	DWORD PTR _Temp$[ebp+3509], eax
	mov	BYTE PTR _Temp$[ebp+3513], al
	mov	al, BYTE PTR ??_C@_00CNPNBAHC@?$AA@
	mov	BYTE PTR _Temp$[ebp+3514], al
	xor	eax, eax
	mov	DWORD PTR _Temp$[ebp+3515], eax
	mov	DWORD PTR _Temp$[ebp+3519], eax
	mov	DWORD PTR _Temp$[ebp+3523], eax
	mov	BYTE PTR _Temp$[ebp+3527], al
	mov	al, BYTE PTR ??_C@_00CNPNBAHC@?$AA@
	mov	BYTE PTR _Temp$[ebp+3528], al
	xor	eax, eax
	mov	DWORD PTR _Temp$[ebp+3529], eax
	mov	DWORD PTR _Temp$[ebp+3533], eax
	mov	DWORD PTR _Temp$[ebp+3537], eax
	mov	BYTE PTR _Temp$[ebp+3541], al
	mov	al, BYTE PTR ??_C@_00CNPNBAHC@?$AA@
	mov	BYTE PTR _Temp$[ebp+3542], al
	xor	eax, eax
	mov	DWORD PTR _Temp$[ebp+3543], eax
	mov	DWORD PTR _Temp$[ebp+3547], eax
	mov	DWORD PTR _Temp$[ebp+3551], eax
	mov	BYTE PTR _Temp$[ebp+3555], al
	mov	al, BYTE PTR ??_C@_00CNPNBAHC@?$AA@
	mov	BYTE PTR _Temp$[ebp+3556], al
	xor	eax, eax
	mov	DWORD PTR _Temp$[ebp+3557], eax
	mov	DWORD PTR _Temp$[ebp+3561], eax
	mov	DWORD PTR _Temp$[ebp+3565], eax
	mov	BYTE PTR _Temp$[ebp+3569], al
	mov	al, BYTE PTR ??_C@_00CNPNBAHC@?$AA@
	mov	BYTE PTR _Temp$[ebp+3570], al
	xor	eax, eax
	mov	DWORD PTR _Temp$[ebp+3571], eax
	mov	DWORD PTR _Temp$[ebp+3575], eax
	mov	DWORD PTR _Temp$[ebp+3579], eax
	mov	BYTE PTR _Temp$[ebp+3583], al
	mov	al, BYTE PTR ??_C@_00CNPNBAHC@?$AA@
	mov	BYTE PTR _Temp$[ebp+3584], al
	xor	eax, eax
	mov	DWORD PTR _Temp$[ebp+3585], eax
	mov	DWORD PTR _Temp$[ebp+3589], eax
	mov	DWORD PTR _Temp$[ebp+3593], eax
	mov	BYTE PTR _Temp$[ebp+3597], al

; 598  : 	
; 599  : 	for(int i=0;i<257;i++)

	mov	DWORD PTR _i$91503[ebp], 0
	jmp	SHORT $LN11@KeyHandler@2
$LN10@KeyHandler@2:
	mov	eax, DWORD PTR _i$91503[ebp]
	add	eax, 1
	mov	DWORD PTR _i$91503[ebp], eax
$LN11@KeyHandler@2:
	cmp	DWORD PTR _i$91503[ebp], 257		; 00000101H
	jge	SHORT $LN9@KeyHandler@2

; 600  : 		for(int j=0;j<14;j++)

	mov	DWORD PTR _j$91507[ebp], 0
	jmp	SHORT $LN8@KeyHandler@2
$LN7@KeyHandler@2:
	mov	eax, DWORD PTR _j$91507[ebp]
	add	eax, 1
	mov	DWORD PTR _j$91507[ebp], eax
$LN8@KeyHandler@2:
	cmp	DWORD PTR _j$91507[ebp], 14		; 0000000eH
	jge	SHORT $LN6@KeyHandler@2

; 601  : 			this->Keys[i][j]=Temp[i][j];

	mov	eax, DWORD PTR _i$91503[ebp]
	imul	eax, 14					; 0000000eH
	lea	ecx, DWORD PTR _Temp$[ebp+eax]
	mov	edx, DWORD PTR _i$91503[ebp]
	imul	edx, 14					; 0000000eH
	add	edx, DWORD PTR _j$91507[ebp]
	mov	eax, DWORD PTR _this$[ebp]
	mov	esi, DWORD PTR _j$91507[ebp]
	mov	cl, BYTE PTR [ecx+esi]
	mov	BYTE PTR [eax+edx+1281], cl
	jmp	SHORT $LN7@KeyHandler@2
$LN6@KeyHandler@2:
	jmp	SHORT $LN10@KeyHandler@2
$LN9@KeyHandler@2:

; 602  : 
; 603  : 	for(int i=0;i<256;i++)

	mov	DWORD PTR _i$91511[ebp], 0
	jmp	SHORT $LN5@KeyHandler@2
$LN4@KeyHandler@2:
	mov	eax, DWORD PTR _i$91511[ebp]
	add	eax, 1
	mov	DWORD PTR _i$91511[ebp], eax
$LN5@KeyHandler@2:
	cmp	DWORD PTR _i$91511[ebp], 256		; 00000100H
	jge	SHORT $LN3@KeyHandler@2

; 604  : 	{
; 605  : 		KeyState1[i]=false;

	mov	eax, DWORD PTR _this$[ebp]
	add	eax, DWORD PTR _i$91511[ebp]
	mov	BYTE PTR [eax+1], 0

; 606  : 		KeyState2[i]=false;

	mov	eax, DWORD PTR _this$[ebp]
	add	eax, DWORD PTR _i$91511[ebp]
	mov	BYTE PTR [eax+257], 0

; 607  : 		KeyState3[i]=false;

	mov	eax, DWORD PTR _this$[ebp]
	add	eax, DWORD PTR _i$91511[ebp]
	mov	BYTE PTR [eax+513], 0

; 608  : 		KeyState4[i]=false;

	mov	eax, DWORD PTR _this$[ebp]
	add	eax, DWORD PTR _i$91511[ebp]
	mov	BYTE PTR [eax+769], 0

; 609  : 		KeyState5[i]=false;

	mov	eax, DWORD PTR _this$[ebp]
	add	eax, DWORD PTR _i$91511[ebp]
	mov	BYTE PTR [eax+1025], 0

; 610  : 	}

	jmp	SHORT $LN4@KeyHandler@2
$LN3@KeyHandler@2:

; 611  : 
; 612  : 	this->CurrentMouse=Mouse;

	mov	eax, DWORD PTR _this$[ebp]
	mov	ecx, DWORD PTR _Mouse$[ebp]
	mov	DWORD PTR [eax+4904], ecx

; 613  : 
; 614  : 	if(this->CurrentMouse!=NULL)

	mov	eax, DWORD PTR _this$[ebp]
	cmp	DWORD PTR [eax+4904], 0
	je	SHORT $LN2@KeyHandler@2

; 615  : 		this->Bound=true;

	mov	eax, DWORD PTR _this$[ebp]
	mov	BYTE PTR [eax], 1

; 616  : 	else

	jmp	SHORT $LN1@KeyHandler@2
$LN2@KeyHandler@2:

; 617  : 		this->Bound=false;

	mov	eax, DWORD PTR _this$[ebp]
	mov	BYTE PTR [eax], 0
$LN1@KeyHandler@2:

; 618  : 
; 619  : 	this->MouseSyncX=XSpeed;

	mov	eax, DWORD PTR _this$[ebp]
	mov	ecx, DWORD PTR _XSpeed$[ebp]
	mov	DWORD PTR [eax+4892], ecx

; 620  : 	this->MouseSyncY=YSpeed;

	mov	eax, DWORD PTR _this$[ebp]
	mov	ecx, DWORD PTR _YSpeed$[ebp]
	mov	DWORD PTR [eax+4896], ecx

; 621  : 	this->MouseLeft=BindMouseXLeft;

	mov	eax, DWORD PTR _this$[ebp]
	mov	ecx, DWORD PTR _BindMouseXLeft$[ebp]
	mov	DWORD PTR [eax+4884], ecx

; 622  : 	this->MouseRight=BindMouseXRight;

	mov	eax, DWORD PTR _this$[ebp]
	mov	ecx, DWORD PTR _BindMouseXRight$[ebp]
	mov	DWORD PTR [eax+4888], ecx

; 623  : 	this->MouseDown=BindMouseYDown;

	mov	eax, DWORD PTR _this$[ebp]
	mov	ecx, DWORD PTR _BindMouseYDown$[ebp]
	mov	DWORD PTR [eax+4880], ecx

; 624  : 	this->MouseUp=BindMouseYUp;

	mov	eax, DWORD PTR _this$[ebp]
	mov	ecx, DWORD PTR _BindMouseYUp$[ebp]
	mov	DWORD PTR [eax+4900], ecx

; 625  : 
; 626  : 	return;
; 627  : }

	mov	eax, DWORD PTR _this$[ebp]
	pop	edi
	pop	esi
	pop	ebx
	mov	ecx, DWORD PTR __$ArrayPad$[ebp]
	xor	ecx, ebp
	call	@__security_check_cookie@4
	mov	esp, ebp
	pop	ebp
	ret	28					; 0000001cH
??0KeyHandler@@QAE@PAVMouseHandler@@HHHHHH@Z ENDP	; KeyHandler::KeyHandler
_TEXT	ENDS
PUBLIC	?CharToInt@KeyHandler@@QAEHPAD@Z		; KeyHandler::CharToInt
PUBLIC	__$ArrayPad$
PUBLIC	??0KeyHandler@@QAE@PAVMouseHandler@@HHPAD111@Z	; KeyHandler::KeyHandler
; Function compile flags: /Odtp /ZI
;	COMDAT ??0KeyHandler@@QAE@PAVMouseHandler@@HHPAD111@Z
_TEXT	SEGMENT
_i$91536 = -3620					; size = 4
_j$91532 = -3616					; size = 4
_i$91528 = -3612					; size = 4
_Temp$ = -3608						; size = 3598
_this$ = -8						; size = 4
__$ArrayPad$ = -4					; size = 4
_Mouse$ = 8						; size = 4
_XSpeed$ = 12						; size = 4
_YSpeed$ = 16						; size = 4
_BindMouseXLeft$ = 20					; size = 4
_BindMouseXRight$ = 24					; size = 4
_BindMouseYUp$ = 28					; size = 4
_BindMouseYDown$ = 32					; size = 4
??0KeyHandler@@QAE@PAVMouseHandler@@HHPAD111@Z PROC	; KeyHandler::KeyHandler, COMDAT
; _this$ = ecx

; 629  : {

	push	ebp
	mov	ebp, esp
	sub	esp, 3684				; 00000e64H
	mov	eax, DWORD PTR ___security_cookie
	xor	eax, ebp
	mov	DWORD PTR __$ArrayPad$[ebp], eax
	push	ebx
	push	esi
	push	edi
	mov	DWORD PTR _this$[ebp], ecx

; 630  : 	char Temp[257][14]={"Null Key","Escape","1 Key","2 Key","3 Key","4 Key","5 Key","6 Key","7 Key","8 Key","9 Key","0 Key","- Key","= Key","Backspace","Tab","Q",

	mov	eax, DWORD PTR ??_C@_08OFADHOMM@Null?5Key?$AA@
	mov	DWORD PTR _Temp$[ebp], eax
	mov	ecx, DWORD PTR ??_C@_08OFADHOMM@Null?5Key?$AA@+4
	mov	DWORD PTR _Temp$[ebp+4], ecx
	mov	dl, BYTE PTR ??_C@_08OFADHOMM@Null?5Key?$AA@+8
	mov	BYTE PTR _Temp$[ebp+8], dl
	xor	eax, eax
	mov	DWORD PTR _Temp$[ebp+9], eax
	mov	BYTE PTR _Temp$[ebp+13], al
	mov	eax, DWORD PTR ??_C@_06OIGFGPHJ@Escape?$AA@
	mov	DWORD PTR _Temp$[ebp+14], eax
	mov	cx, WORD PTR ??_C@_06OIGFGPHJ@Escape?$AA@+4
	mov	WORD PTR _Temp$[ebp+18], cx
	mov	dl, BYTE PTR ??_C@_06OIGFGPHJ@Escape?$AA@+6
	mov	BYTE PTR _Temp$[ebp+20], dl
	xor	eax, eax
	mov	DWORD PTR _Temp$[ebp+21], eax
	mov	WORD PTR _Temp$[ebp+25], ax
	mov	BYTE PTR _Temp$[ebp+27], al
	mov	eax, DWORD PTR ??_C@_05LMCOLBBI@1?5Key?$AA@
	mov	DWORD PTR _Temp$[ebp+28], eax
	mov	cx, WORD PTR ??_C@_05LMCOLBBI@1?5Key?$AA@+4
	mov	WORD PTR _Temp$[ebp+32], cx
	xor	eax, eax
	mov	DWORD PTR _Temp$[ebp+34], eax
	mov	DWORD PTR _Temp$[ebp+38], eax
	mov	eax, DWORD PTR ??_C@_05DKLKMDLG@2?5Key?$AA@
	mov	DWORD PTR _Temp$[ebp+42], eax
	mov	cx, WORD PTR ??_C@_05DKLKMDLG@2?5Key?$AA@+4
	mov	WORD PTR _Temp$[ebp+46], cx
	xor	eax, eax
	mov	DWORD PTR _Temp$[ebp+48], eax
	mov	DWORD PTR _Temp$[ebp+52], eax
	mov	eax, DWORD PTR ??_C@_05PBOGBABD@3?5Key?$AA@
	mov	DWORD PTR _Temp$[ebp+56], eax
	mov	cx, WORD PTR ??_C@_05PBOGBABD@3?5Key?$AA@+4
	mov	WORD PTR _Temp$[ebp+60], cx
	xor	eax, eax
	mov	DWORD PTR _Temp$[ebp+62], eax
	mov	DWORD PTR _Temp$[ebp+66], eax
	mov	eax, DWORD PTR ??_C@_05OMODCAKL@4?5Key?$AA@
	mov	DWORD PTR _Temp$[ebp+70], eax
	mov	cx, WORD PTR ??_C@_05OMODCAKL@4?5Key?$AA@+4
	mov	WORD PTR _Temp$[ebp+74], cx
	xor	eax, eax
	mov	DWORD PTR _Temp$[ebp+76], eax
	mov	DWORD PTR _Temp$[ebp+80], eax
	mov	eax, DWORD PTR ??_C@_05CHLPPDAO@5?5Key?$AA@
	mov	DWORD PTR _Temp$[ebp+84], eax
	mov	cx, WORD PTR ??_C@_05CHLPPDAO@5?5Key?$AA@+4
	mov	WORD PTR _Temp$[ebp+88], cx
	xor	eax, eax
	mov	DWORD PTR _Temp$[ebp+90], eax
	mov	DWORD PTR _Temp$[ebp+94], eax
	mov	eax, DWORD PTR ??_C@_05KBCLIBKA@6?5Key?$AA@
	mov	DWORD PTR _Temp$[ebp+98], eax
	mov	cx, WORD PTR ??_C@_05KBCLIBKA@6?5Key?$AA@+4
	mov	WORD PTR _Temp$[ebp+102], cx
	xor	eax, eax
	mov	DWORD PTR _Temp$[ebp+104], eax
	mov	DWORD PTR _Temp$[ebp+108], eax
	mov	eax, DWORD PTR ??_C@_05GKHHFCAF@7?5Key?$AA@
	mov	DWORD PTR _Temp$[ebp+112], eax
	mov	cx, WORD PTR ??_C@_05GKHHFCAF@7?5Key?$AA@+4
	mov	WORD PTR _Temp$[ebp+116], cx
	xor	eax, eax
	mov	DWORD PTR _Temp$[ebp+118], eax
	mov	DWORD PTR _Temp$[ebp+122], eax
	mov	eax, DWORD PTR ??_C@_05JLCBOANA@8?5Key?$AA@
	mov	DWORD PTR _Temp$[ebp+126], eax
	mov	cx, WORD PTR ??_C@_05JLCBOANA@8?5Key?$AA@+4
	mov	WORD PTR _Temp$[ebp+130], cx
	xor	eax, eax
	mov	DWORD PTR _Temp$[ebp+132], eax
	mov	DWORD PTR _Temp$[ebp+136], eax
	mov	eax, DWORD PTR ??_C@_05FAHNDDHF@9?5Key?$AA@
	mov	DWORD PTR _Temp$[ebp+140], eax
	mov	cx, WORD PTR ??_C@_05FAHNDDHF@9?5Key?$AA@+4
	mov	WORD PTR _Temp$[ebp+144], cx
	xor	eax, eax
	mov	DWORD PTR _Temp$[ebp+146], eax
	mov	DWORD PTR _Temp$[ebp+150], eax
	mov	eax, DWORD PTR ??_C@_05HHHCGCLN@0?5Key?$AA@
	mov	DWORD PTR _Temp$[ebp+154], eax
	mov	cx, WORD PTR ??_C@_05HHHCGCLN@0?5Key?$AA@+4
	mov	WORD PTR _Temp$[ebp+158], cx
	xor	eax, eax
	mov	DWORD PTR _Temp$[ebp+160], eax
	mov	DWORD PTR _Temp$[ebp+164], eax
	mov	eax, DWORD PTR ??_C@_05MIDKHDPI@?9?5Key?$AA@
	mov	DWORD PTR _Temp$[ebp+168], eax
	mov	cx, WORD PTR ??_C@_05MIDKHDPI@?9?5Key?$AA@+4
	mov	WORD PTR _Temp$[ebp+172], cx
	xor	eax, eax
	mov	DWORD PTR _Temp$[ebp+174], eax
	mov	DWORD PTR _Temp$[ebp+178], eax
	mov	eax, DWORD PTR ??_C@_05MLOMHBGD@?$DN?5Key?$AA@
	mov	DWORD PTR _Temp$[ebp+182], eax
	mov	cx, WORD PTR ??_C@_05MLOMHBGD@?$DN?5Key?$AA@+4
	mov	WORD PTR _Temp$[ebp+186], cx
	xor	eax, eax
	mov	DWORD PTR _Temp$[ebp+188], eax
	mov	DWORD PTR _Temp$[ebp+192], eax
	mov	eax, DWORD PTR ??_C@_09LPBCIPOJ@Backspace?$AA@
	mov	DWORD PTR _Temp$[ebp+196], eax
	mov	ecx, DWORD PTR ??_C@_09LPBCIPOJ@Backspace?$AA@+4
	mov	DWORD PTR _Temp$[ebp+200], ecx
	mov	dx, WORD PTR ??_C@_09LPBCIPOJ@Backspace?$AA@+8
	mov	WORD PTR _Temp$[ebp+204], dx
	xor	eax, eax
	mov	DWORD PTR _Temp$[ebp+206], eax
	mov	eax, DWORD PTR ??_C@_03IEAKBACE@Tab?$AA@
	mov	DWORD PTR _Temp$[ebp+210], eax
	xor	eax, eax
	mov	DWORD PTR _Temp$[ebp+214], eax
	mov	DWORD PTR _Temp$[ebp+218], eax
	mov	WORD PTR _Temp$[ebp+222], ax
	mov	ax, WORD PTR ??_C@_01BNIGIBBF@Q?$AA@
	mov	WORD PTR _Temp$[ebp+224], ax
	xor	eax, eax
	mov	DWORD PTR _Temp$[ebp+226], eax
	mov	DWORD PTR _Temp$[ebp+230], eax
	mov	DWORD PTR _Temp$[ebp+234], eax

; 631  : 				  "W","E","R","T","Y","U","I","O","P","[","]","Right Enter","Left Control","A","S","D",

	mov	ax, WORD PTR ??_C@_01ELNMCGJD@W?$AA@
	mov	WORD PTR _Temp$[ebp+238], ax
	xor	eax, eax
	mov	DWORD PTR _Temp$[ebp+240], eax
	mov	DWORD PTR _Temp$[ebp+244], eax
	mov	DWORD PTR _Temp$[ebp+248], eax
	mov	ax, WORD PTR ??_C@_01DDCIFGEA@E?$AA@
	mov	WORD PTR _Temp$[ebp+252], ax
	xor	eax, eax
	mov	DWORD PTR _Temp$[ebp+254], eax
	mov	DWORD PTR _Temp$[ebp+258], eax
	mov	DWORD PTR _Temp$[ebp+262], eax
	mov	ax, WORD PTR ??_C@_01DGKLNCNG@R?$AA@
	mov	WORD PTR _Temp$[ebp+266], ax
	xor	eax, eax
	mov	DWORD PTR _Temp$[ebp+268], eax
	mov	DWORD PTR _Temp$[ebp+272], eax
	mov	DWORD PTR _Temp$[ebp+276], eax
	mov	ax, WORD PTR ??_C@_01GAPBHFFA@T?$AA@
	mov	WORD PTR _Temp$[ebp+280], ax
	xor	eax, eax
	mov	DWORD PTR _Temp$[ebp+282], eax
	mov	DWORD PTR _Temp$[ebp+286], eax
	mov	DWORD PTR _Temp$[ebp+290], eax
	mov	ax, WORD PTR ??_C@_01NFFPALBN@Y?$AA@
	mov	WORD PTR _Temp$[ebp+294], ax
	xor	eax, eax
	mov	DWORD PTR _Temp$[ebp+296], eax
	mov	DWORD PTR _Temp$[ebp+300], eax
	mov	DWORD PTR _Temp$[ebp+304], eax
	mov	ax, WORD PTR ??_C@_01HJOKEEBB@U?$AA@
	mov	WORD PTR _Temp$[ebp+308], ax
	xor	eax, eax
	mov	DWORD PTR _Temp$[ebp+310], eax
	mov	DWORD PTR _Temp$[ebp+314], eax
	mov	DWORD PTR _Temp$[ebp+318], eax
	mov	ax, WORD PTR ??_C@_01JPJNBJEM@I?$AA@
	mov	WORD PTR _Temp$[ebp+322], ax
	xor	eax, eax
	mov	DWORD PTR _Temp$[ebp+324], eax
	mov	DWORD PTR _Temp$[ebp+328], eax
	mov	DWORD PTR _Temp$[ebp+332], eax
	mov	ax, WORD PTR ??_C@_01MJMHLOMK@O?$AA@
	mov	WORD PTR _Temp$[ebp+336], ax
	xor	eax, eax
	mov	DWORD PTR _Temp$[ebp+338], eax
	mov	DWORD PTR _Temp$[ebp+342], eax
	mov	DWORD PTR _Temp$[ebp+346], eax
	mov	ax, WORD PTR ??_C@_01EJNLAFE@P?$AA@
	mov	WORD PTR _Temp$[ebp+350], ax
	xor	eax, eax
	mov	DWORD PTR _Temp$[ebp+352], eax
	mov	DWORD PTR _Temp$[ebp+356], eax
	mov	DWORD PTR _Temp$[ebp+360], eax
	mov	ax, WORD PTR ??_C@_01OHGJGJJP@?$FL?$AA@
	mov	WORD PTR _Temp$[ebp+364], ax
	xor	eax, eax
	mov	DWORD PTR _Temp$[ebp+366], eax
	mov	DWORD PTR _Temp$[ebp+370], eax
	mov	DWORD PTR _Temp$[ebp+374], eax
	mov	ax, WORD PTR ??_C@_01LBDDMOBJ@?$FN?$AA@
	mov	WORD PTR _Temp$[ebp+378], ax
	xor	eax, eax
	mov	DWORD PTR _Temp$[ebp+380], eax
	mov	DWORD PTR _Temp$[ebp+384], eax
	mov	DWORD PTR _Temp$[ebp+388], eax
	mov	eax, DWORD PTR ??_C@_0M@ICALLIHK@Right?5Enter?$AA@
	mov	DWORD PTR _Temp$[ebp+392], eax
	mov	ecx, DWORD PTR ??_C@_0M@ICALLIHK@Right?5Enter?$AA@+4
	mov	DWORD PTR _Temp$[ebp+396], ecx
	mov	edx, DWORD PTR ??_C@_0M@ICALLIHK@Right?5Enter?$AA@+8
	mov	DWORD PTR _Temp$[ebp+400], edx
	xor	eax, eax
	mov	WORD PTR _Temp$[ebp+404], ax
	mov	eax, DWORD PTR ??_C@_0N@NMKGAIJ@Left?5Control?$AA@
	mov	DWORD PTR _Temp$[ebp+406], eax
	mov	ecx, DWORD PTR ??_C@_0N@NMKGAIJ@Left?5Control?$AA@+4
	mov	DWORD PTR _Temp$[ebp+410], ecx
	mov	edx, DWORD PTR ??_C@_0N@NMKGAIJ@Left?5Control?$AA@+8
	mov	DWORD PTR _Temp$[ebp+414], edx
	mov	al, BYTE PTR ??_C@_0N@NMKGAIJ@Left?5Control?$AA@+12
	mov	BYTE PTR _Temp$[ebp+418], al
	xor	eax, eax
	mov	BYTE PTR _Temp$[ebp+419], al
	mov	ax, WORD PTR ??_C@_01FHEEJDEE@A?$AA@
	mov	WORD PTR _Temp$[ebp+420], ax
	xor	eax, eax
	mov	DWORD PTR _Temp$[ebp+422], eax
	mov	DWORD PTR _Temp$[ebp+426], eax
	mov	DWORD PTR _Temp$[ebp+430], eax
	mov	ax, WORD PTR ??_C@_01CPLAODJH@S?$AA@
	mov	WORD PTR _Temp$[ebp+434], ax
	xor	eax, eax
	mov	DWORD PTR _Temp$[ebp+436], eax
	mov	DWORD PTR _Temp$[ebp+440], eax
	mov	DWORD PTR _Temp$[ebp+444], eax
	mov	ax, WORD PTR ??_C@_01CKDDGHAB@D?$AA@
	mov	WORD PTR _Temp$[ebp+448], ax
	xor	eax, eax
	mov	DWORD PTR _Temp$[ebp+450], eax
	mov	DWORD PTR _Temp$[ebp+454], eax
	mov	DWORD PTR _Temp$[ebp+458], eax

; 632  : 				  "F","G","H","J","K","L",";","\'","`","Left Shift","\\","Z","X","C","V","B",

	mov	ax, WORD PTR ??_C@_01BIAFAFID@F?$AA@
	mov	WORD PTR _Temp$[ebp+462], ax
	xor	eax, eax
	mov	DWORD PTR _Temp$[ebp+464], eax
	mov	DWORD PTR _Temp$[ebp+468], eax
	mov	DWORD PTR _Temp$[ebp+472], eax
	mov	ax, WORD PTR ??_C@_01BBODEMC@G?$AA@
	mov	WORD PTR _Temp$[ebp+476], ax
	xor	eax, eax
	mov	DWORD PTR _Temp$[ebp+478], eax
	mov	DWORD PTR _Temp$[ebp+482], eax
	mov	DWORD PTR _Temp$[ebp+486], eax
	mov	ax, WORD PTR ??_C@_01IGIGCIAN@H?$AA@
	mov	WORD PTR _Temp$[ebp+490], ax
	xor	eax, eax
	mov	DWORD PTR _Temp$[ebp+492], eax
	mov	DWORD PTR _Temp$[ebp+496], eax
	mov	DWORD PTR _Temp$[ebp+500], eax
	mov	ax, WORD PTR ??_C@_01LELAEKIP@J?$AA@
	mov	WORD PTR _Temp$[ebp+504], ax
	xor	eax, eax
	mov	DWORD PTR _Temp$[ebp+506], eax
	mov	DWORD PTR _Temp$[ebp+510], eax
	mov	DWORD PTR _Temp$[ebp+514], eax
	mov	ax, WORD PTR ??_C@_01KNKLHLMO@K?$AA@
	mov	WORD PTR _Temp$[ebp+518], ax
	xor	eax, eax
	mov	DWORD PTR _Temp$[ebp+520], eax
	mov	DWORD PTR _Temp$[ebp+524], eax
	mov	DWORD PTR _Temp$[ebp+528], eax
	mov	ax, WORD PTR ??_C@_01OCOKONAJ@L?$AA@
	mov	WORD PTR _Temp$[ebp+532], ax
	xor	eax, eax
	mov	DWORD PTR _Temp$[ebp+534], eax
	mov	DWORD PTR _Temp$[ebp+538], eax
	mov	DWORD PTR _Temp$[ebp+542], eax
	mov	ax, WORD PTR ??_C@_01ICJEACDI@?$DL?$AA@
	mov	WORD PTR _Temp$[ebp+546], ax
	xor	eax, eax
	mov	DWORD PTR _Temp$[ebp+548], eax
	mov	DWORD PTR _Temp$[ebp+552], eax
	mov	DWORD PTR _Temp$[ebp+556], eax
	mov	ax, WORD PTR ??_C@_01GEODFPGF@?8?$AA@
	mov	WORD PTR _Temp$[ebp+560], ax
	xor	eax, eax
	mov	DWORD PTR _Temp$[ebp+562], eax
	mov	DWORD PTR _Temp$[ebp+566], eax
	mov	DWORD PTR _Temp$[ebp+570], eax
	mov	ax, WORD PTR ??_C@_01NLNLIGKH@?$GA?$AA@
	mov	WORD PTR _Temp$[ebp+574], ax
	xor	eax, eax
	mov	DWORD PTR _Temp$[ebp+576], eax
	mov	DWORD PTR _Temp$[ebp+580], eax
	mov	DWORD PTR _Temp$[ebp+584], eax
	mov	eax, DWORD PTR ??_C@_0L@NFEFKBOL@Left?5Shift?$AA@
	mov	DWORD PTR _Temp$[ebp+588], eax
	mov	ecx, DWORD PTR ??_C@_0L@NFEFKBOL@Left?5Shift?$AA@+4
	mov	DWORD PTR _Temp$[ebp+592], ecx
	mov	dx, WORD PTR ??_C@_0L@NFEFKBOL@Left?5Shift?$AA@+8
	mov	WORD PTR _Temp$[ebp+596], dx
	mov	al, BYTE PTR ??_C@_0L@NFEFKBOL@Left?5Shift?$AA@+10
	mov	BYTE PTR _Temp$[ebp+598], al
	xor	eax, eax
	mov	WORD PTR _Temp$[ebp+599], ax
	mov	BYTE PTR _Temp$[ebp+601], al
	mov	ax, WORD PTR ??_C@_01KICIPPFI@?2?$AA@
	mov	WORD PTR _Temp$[ebp+602], ax
	xor	eax, eax
	mov	DWORD PTR _Temp$[ebp+604], eax
	mov	DWORD PTR _Temp$[ebp+608], eax
	mov	DWORD PTR _Temp$[ebp+612], eax
	mov	ax, WORD PTR ??_C@_01POHCFINO@Z?$AA@
	mov	WORD PTR _Temp$[ebp+616], ax
	xor	eax, eax
	mov	DWORD PTR _Temp$[ebp+618], eax
	mov	DWORD PTR _Temp$[ebp+622], eax
	mov	DWORD PTR _Temp$[ebp+626], eax
	mov	ax, WORD PTR ??_C@_01MMEEDKFM@X?$AA@
	mov	WORD PTR _Temp$[ebp+630], ax
	xor	eax, eax
	mov	DWORD PTR _Temp$[ebp+632], eax
	mov	DWORD PTR _Temp$[ebp+636], eax
	mov	DWORD PTR _Temp$[ebp+640], eax
	mov	ax, WORD PTR ??_C@_01GFHCPBMG@C?$AA@
	mov	WORD PTR _Temp$[ebp+644], ax
	xor	eax, eax
	mov	DWORD PTR _Temp$[ebp+646], eax
	mov	DWORD PTR _Temp$[ebp+650], eax
	mov	DWORD PTR _Temp$[ebp+654], eax
	mov	ax, WORD PTR ??_C@_01FCMHBHNC@V?$AA@
	mov	WORD PTR _Temp$[ebp+658], ax
	xor	eax, eax
	mov	DWORD PTR _Temp$[ebp+660], eax
	mov	DWORD PTR _Temp$[ebp+664], eax
	mov	DWORD PTR _Temp$[ebp+668], eax
	mov	ax, WORD PTR ??_C@_01HMGJMAIH@B?$AA@
	mov	WORD PTR _Temp$[ebp+672], ax
	xor	eax, eax
	mov	DWORD PTR _Temp$[ebp+674], eax
	mov	DWORD PTR _Temp$[ebp+678], eax
	mov	DWORD PTR _Temp$[ebp+682], eax

; 633  : 				  "N","M",",",".","/","Right Shift","*","Left Alt","Space","Caps Lock","F1","F2","F3","F4","F5","F6",

	mov	ax, WORD PTR ??_C@_01NANMIPIL@N?$AA@
	mov	WORD PTR _Temp$[ebp+686], ax
	xor	eax, eax
	mov	DWORD PTR _Temp$[ebp+688], eax
	mov	DWORD PTR _Temp$[ebp+692], eax
	mov	DWORD PTR _Temp$[ebp+696], eax
	mov	ax, WORD PTR ??_C@_01PLPBNMEI@M?$AA@
	mov	WORD PTR _Temp$[ebp+700], ax
	xor	eax, eax
	mov	DWORD PTR _Temp$[ebp+702], eax
	mov	DWORD PTR _Temp$[ebp+706], eax
	mov	DWORD PTR _Temp$[ebp+710], eax
	mov	ax, WORD PTR ??_C@_01IHBHIGKO@?0?$AA@
	mov	WORD PTR _Temp$[ebp+714], ax
	xor	eax, eax
	mov	DWORD PTR _Temp$[ebp+716], eax
	mov	DWORD PTR _Temp$[ebp+720], eax
	mov	DWORD PTR _Temp$[ebp+724], eax
	mov	ax, WORD PTR ??_C@_01LFCBOECM@?4?$AA@
	mov	WORD PTR _Temp$[ebp+728], ax
	xor	eax, eax
	mov	DWORD PTR _Temp$[ebp+730], eax
	mov	DWORD PTR _Temp$[ebp+734], eax
	mov	DWORD PTR _Temp$[ebp+738], eax
	mov	ax, WORD PTR ??_C@_01KMDKNFGN@?1?$AA@
	mov	WORD PTR _Temp$[ebp+742], ax
	xor	eax, eax
	mov	DWORD PTR _Temp$[ebp+744], eax
	mov	DWORD PTR _Temp$[ebp+748], eax
	mov	DWORD PTR _Temp$[ebp+752], eax
	mov	eax, DWORD PTR ??_C@_0M@COKLDKMB@Right?5Shift?$AA@
	mov	DWORD PTR _Temp$[ebp+756], eax
	mov	ecx, DWORD PTR ??_C@_0M@COKLDKMB@Right?5Shift?$AA@+4
	mov	DWORD PTR _Temp$[ebp+760], ecx
	mov	edx, DWORD PTR ??_C@_0M@COKLDKMB@Right?5Shift?$AA@+8
	mov	DWORD PTR _Temp$[ebp+764], edx
	xor	eax, eax
	mov	WORD PTR _Temp$[ebp+768], ax
	mov	ax, WORD PTR ??_C@_01NBENCBCI@?$CK?$AA@
	mov	WORD PTR _Temp$[ebp+770], ax
	xor	eax, eax
	mov	DWORD PTR _Temp$[ebp+772], eax
	mov	DWORD PTR _Temp$[ebp+776], eax
	mov	DWORD PTR _Temp$[ebp+780], eax
	mov	eax, DWORD PTR ??_C@_08CJHJBNHP@Left?5Alt?$AA@
	mov	DWORD PTR _Temp$[ebp+784], eax
	mov	ecx, DWORD PTR ??_C@_08CJHJBNHP@Left?5Alt?$AA@+4
	mov	DWORD PTR _Temp$[ebp+788], ecx
	mov	dl, BYTE PTR ??_C@_08CJHJBNHP@Left?5Alt?$AA@+8
	mov	BYTE PTR _Temp$[ebp+792], dl
	xor	eax, eax
	mov	DWORD PTR _Temp$[ebp+793], eax
	mov	BYTE PTR _Temp$[ebp+797], al
	mov	eax, DWORD PTR ??_C@_05OMHELODH@Space?$AA@
	mov	DWORD PTR _Temp$[ebp+798], eax
	mov	cx, WORD PTR ??_C@_05OMHELODH@Space?$AA@+4
	mov	WORD PTR _Temp$[ebp+802], cx
	xor	eax, eax
	mov	DWORD PTR _Temp$[ebp+804], eax
	mov	DWORD PTR _Temp$[ebp+808], eax
	mov	eax, DWORD PTR ??_C@_09GGECHFNF@Caps?5Lock?$AA@
	mov	DWORD PTR _Temp$[ebp+812], eax
	mov	ecx, DWORD PTR ??_C@_09GGECHFNF@Caps?5Lock?$AA@+4
	mov	DWORD PTR _Temp$[ebp+816], ecx
	mov	dx, WORD PTR ??_C@_09GGECHFNF@Caps?5Lock?$AA@+8
	mov	WORD PTR _Temp$[ebp+820], dx
	xor	eax, eax
	mov	DWORD PTR _Temp$[ebp+822], eax
	mov	ax, WORD PTR ??_C@_02LCPENACN@F1?$AA@
	mov	WORD PTR _Temp$[ebp+826], ax
	mov	cl, BYTE PTR ??_C@_02LCPENACN@F1?$AA@+2
	mov	BYTE PTR _Temp$[ebp+828], cl
	xor	eax, eax
	mov	DWORD PTR _Temp$[ebp+829], eax
	mov	DWORD PTR _Temp$[ebp+833], eax
	mov	WORD PTR _Temp$[ebp+837], ax
	mov	BYTE PTR _Temp$[ebp+839], al
	mov	ax, WORD PTR ??_C@_02JJNJIDOO@F2?$AA@
	mov	WORD PTR _Temp$[ebp+840], ax
	mov	cl, BYTE PTR ??_C@_02JJNJIDOO@F2?$AA@+2
	mov	BYTE PTR _Temp$[ebp+842], cl
	xor	eax, eax
	mov	DWORD PTR _Temp$[ebp+843], eax
	mov	DWORD PTR _Temp$[ebp+847], eax
	mov	WORD PTR _Temp$[ebp+851], ax
	mov	BYTE PTR _Temp$[ebp+853], al
	mov	ax, WORD PTR ??_C@_02IAMCLCKP@F3?$AA@
	mov	WORD PTR _Temp$[ebp+854], ax
	mov	cl, BYTE PTR ??_C@_02IAMCLCKP@F3?$AA@+2
	mov	BYTE PTR _Temp$[ebp+856], cl
	xor	eax, eax
	mov	DWORD PTR _Temp$[ebp+857], eax
	mov	DWORD PTR _Temp$[ebp+861], eax
	mov	WORD PTR _Temp$[ebp+865], ax
	mov	BYTE PTR _Temp$[ebp+867], al
	mov	ax, WORD PTR ??_C@_02MPIDCEGI@F4?$AA@
	mov	WORD PTR _Temp$[ebp+868], ax
	mov	cl, BYTE PTR ??_C@_02MPIDCEGI@F4?$AA@+2
	mov	BYTE PTR _Temp$[ebp+870], cl
	xor	eax, eax
	mov	DWORD PTR _Temp$[ebp+871], eax
	mov	DWORD PTR _Temp$[ebp+875], eax
	mov	WORD PTR _Temp$[ebp+879], ax
	mov	BYTE PTR _Temp$[ebp+881], al
	mov	ax, WORD PTR ??_C@_02NGJIBFCJ@F5?$AA@
	mov	WORD PTR _Temp$[ebp+882], ax
	mov	cl, BYTE PTR ??_C@_02NGJIBFCJ@F5?$AA@+2
	mov	BYTE PTR _Temp$[ebp+884], cl
	xor	eax, eax
	mov	DWORD PTR _Temp$[ebp+885], eax
	mov	DWORD PTR _Temp$[ebp+889], eax
	mov	WORD PTR _Temp$[ebp+893], ax
	mov	BYTE PTR _Temp$[ebp+895], al
	mov	ax, WORD PTR ??_C@_02PNLFEGOK@F6?$AA@
	mov	WORD PTR _Temp$[ebp+896], ax
	mov	cl, BYTE PTR ??_C@_02PNLFEGOK@F6?$AA@+2
	mov	BYTE PTR _Temp$[ebp+898], cl
	xor	eax, eax
	mov	DWORD PTR _Temp$[ebp+899], eax
	mov	DWORD PTR _Temp$[ebp+903], eax
	mov	WORD PTR _Temp$[ebp+907], ax
	mov	BYTE PTR _Temp$[ebp+909], al

; 634  : 				  "F7","F8","F9","F10","Num Lock","","7","8","9","-","4","5","6","+","1","2",

	mov	ax, WORD PTR ??_C@_02OEKOHHKL@F7?$AA@
	mov	WORD PTR _Temp$[ebp+910], ax
	mov	cl, BYTE PTR ??_C@_02OEKOHHKL@F7?$AA@+2
	mov	BYTE PTR _Temp$[ebp+912], cl
	xor	eax, eax
	mov	DWORD PTR _Temp$[ebp+913], eax
	mov	DWORD PTR _Temp$[ebp+917], eax
	mov	WORD PTR _Temp$[ebp+921], ax
	mov	BYTE PTR _Temp$[ebp+923], al
	mov	ax, WORD PTR ??_C@_02GDDGGLGE@F8?$AA@
	mov	WORD PTR _Temp$[ebp+924], ax
	mov	cl, BYTE PTR ??_C@_02GDDGGLGE@F8?$AA@+2
	mov	BYTE PTR _Temp$[ebp+926], cl
	xor	eax, eax
	mov	DWORD PTR _Temp$[ebp+927], eax
	mov	DWORD PTR _Temp$[ebp+931], eax
	mov	WORD PTR _Temp$[ebp+935], ax
	mov	BYTE PTR _Temp$[ebp+937], al
	mov	ax, WORD PTR ??_C@_02HKCNFKCF@F9?$AA@
	mov	WORD PTR _Temp$[ebp+938], ax
	mov	cl, BYTE PTR ??_C@_02HKCNFKCF@F9?$AA@+2
	mov	BYTE PTR _Temp$[ebp+940], cl
	xor	eax, eax
	mov	DWORD PTR _Temp$[ebp+941], eax
	mov	DWORD PTR _Temp$[ebp+945], eax
	mov	WORD PTR _Temp$[ebp+949], ax
	mov	BYTE PTR _Temp$[ebp+951], al
	mov	eax, DWORD PTR ??_C@_03JKCLJOFG@F10?$AA@
	mov	DWORD PTR _Temp$[ebp+952], eax
	xor	eax, eax
	mov	DWORD PTR _Temp$[ebp+956], eax
	mov	DWORD PTR _Temp$[ebp+960], eax
	mov	WORD PTR _Temp$[ebp+964], ax
	mov	eax, DWORD PTR ??_C@_08DEAFBBCL@Num?5Lock?$AA@
	mov	DWORD PTR _Temp$[ebp+966], eax
	mov	ecx, DWORD PTR ??_C@_08DEAFBBCL@Num?5Lock?$AA@+4
	mov	DWORD PTR _Temp$[ebp+970], ecx
	mov	dl, BYTE PTR ??_C@_08DEAFBBCL@Num?5Lock?$AA@+8
	mov	BYTE PTR _Temp$[ebp+974], dl
	xor	eax, eax
	mov	DWORD PTR _Temp$[ebp+975], eax
	mov	BYTE PTR _Temp$[ebp+979], al
	mov	al, BYTE PTR ??_C@_00CNPNBAHC@?$AA@
	mov	BYTE PTR _Temp$[ebp+980], al
	xor	eax, eax
	mov	DWORD PTR _Temp$[ebp+981], eax
	mov	DWORD PTR _Temp$[ebp+985], eax
	mov	DWORD PTR _Temp$[ebp+989], eax
	mov	BYTE PTR _Temp$[ebp+993], al
	mov	ax, WORD PTR ??_C@_01COCBENDE@7?$AA@
	mov	WORD PTR _Temp$[ebp+994], ax
	xor	eax, eax
	mov	DWORD PTR _Temp$[ebp+996], eax
	mov	DWORD PTR _Temp$[ebp+1000], eax
	mov	DWORD PTR _Temp$[ebp+1004], eax
	mov	ax, WORD PTR ??_C@_01KJLJFBPL@8?$AA@
	mov	WORD PTR _Temp$[ebp+1008], ax
	xor	eax, eax
	mov	DWORD PTR _Temp$[ebp+1010], eax
	mov	DWORD PTR _Temp$[ebp+1014], eax
	mov	DWORD PTR _Temp$[ebp+1018], eax
	mov	ax, WORD PTR ??_C@_01LAKCGALK@9?$AA@
	mov	WORD PTR _Temp$[ebp+1022], ax
	xor	eax, eax
	mov	DWORD PTR _Temp$[ebp+1024], eax
	mov	DWORD PTR _Temp$[ebp+1028], eax
	mov	DWORD PTR _Temp$[ebp+1032], eax
	mov	ax, WORD PTR ??_C@_01JOAMLHOP@?9?$AA@
	mov	WORD PTR _Temp$[ebp+1036], ax
	xor	eax, eax
	mov	DWORD PTR _Temp$[ebp+1038], eax
	mov	DWORD PTR _Temp$[ebp+1042], eax
	mov	DWORD PTR _Temp$[ebp+1046], eax
	mov	ax, WORD PTR ??_C@_01FAMBOPH@4?$AA@
	mov	WORD PTR _Temp$[ebp+1050], ax
	xor	eax, eax
	mov	DWORD PTR _Temp$[ebp+1052], eax
	mov	DWORD PTR _Temp$[ebp+1056], eax
	mov	DWORD PTR _Temp$[ebp+1060], eax
	mov	ax, WORD PTR ??_C@_01BMBHCPLG@5?$AA@
	mov	WORD PTR _Temp$[ebp+1064], ax
	xor	eax, eax
	mov	DWORD PTR _Temp$[ebp+1066], eax
	mov	DWORD PTR _Temp$[ebp+1070], eax
	mov	DWORD PTR _Temp$[ebp+1074], eax
	mov	ax, WORD PTR ??_C@_01DHDKHMHF@6?$AA@
	mov	WORD PTR _Temp$[ebp+1078], ax
	xor	eax, eax
	mov	DWORD PTR _Temp$[ebp+1080], eax
	mov	DWORD PTR _Temp$[ebp+1084], eax
	mov	DWORD PTR _Temp$[ebp+1088], eax
	mov	ax, WORD PTR ??_C@_01MIFGBAGJ@?$CL?$AA@
	mov	WORD PTR _Temp$[ebp+1092], ax
	xor	eax, eax
	mov	DWORD PTR _Temp$[ebp+1094], eax
	mov	DWORD PTR _Temp$[ebp+1098], eax
	mov	DWORD PTR _Temp$[ebp+1102], eax
	mov	ax, WORD PTR ??_C@_01HIHLOKLC@1?$AA@
	mov	WORD PTR _Temp$[ebp+1106], ax
	xor	eax, eax
	mov	DWORD PTR _Temp$[ebp+1108], eax
	mov	DWORD PTR _Temp$[ebp+1112], eax
	mov	DWORD PTR _Temp$[ebp+1116], eax
	mov	ax, WORD PTR ??_C@_01FDFGLJHB@2?$AA@
	mov	WORD PTR _Temp$[ebp+1120], ax
	xor	eax, eax
	mov	DWORD PTR _Temp$[ebp+1122], eax
	mov	DWORD PTR _Temp$[ebp+1126], eax
	mov	DWORD PTR _Temp$[ebp+1130], eax

; 635  : 				  "3","0","Num .","SysRq","","","F11","F12","","","","","","","","",

	mov	ax, WORD PTR ??_C@_01EKENIIDA@3?$AA@
	mov	WORD PTR _Temp$[ebp+1134], ax
	xor	eax, eax
	mov	DWORD PTR _Temp$[ebp+1136], eax
	mov	DWORD PTR _Temp$[ebp+1140], eax
	mov	DWORD PTR _Temp$[ebp+1144], eax
	mov	ax, WORD PTR ??_C@_01GBGANLPD@0?$AA@
	mov	WORD PTR _Temp$[ebp+1148], ax
	xor	eax, eax
	mov	DWORD PTR _Temp$[ebp+1150], eax
	mov	DWORD PTR _Temp$[ebp+1154], eax
	mov	DWORD PTR _Temp$[ebp+1158], eax
