; Listing generated by Microsoft (R) Optimizing Compiler Version 15.00.21022.08 

	TITLE	c:\Users\FireEmblem16\Documents\Visual Studio 2008\Projects\Chronicles\Chronicles\Source\Input.cpp
	.686P
	.XMM
	include listing.inc
	.model	flat

INCLUDELIB LIBCMTD
INCLUDELIB OLDNAMES

PUBLIC	??_C@_0P@GHFPNOJB@bad?5allocation?$AA@		; `string'
_DATA	SEGMENT
__bad_alloc_Message DD FLAT:??_C@_0P@GHFPNOJB@bad?5allocation?$AA@
_DATA	ENDS
;	COMDAT ??_C@_0P@GHFPNOJB@bad?5allocation?$AA@
CONST	SEGMENT
??_C@_0P@GHFPNOJB@bad?5allocation?$AA@ DB 'bad allocation', 00H ; `string'
CONST	ENDS
PUBLIC	__real@3f800000
PUBLIC	??_C@_00CNPNBAHC@?$AA@				; `string'
PUBLIC	??0MouseHandler@@QAE@_NPADPAVWindow@@M@Z	; MouseHandler::MouseHandler
EXTRN	?dbMouseZ@@YAHXZ:PROC				; dbMouseZ
EXTRN	?dbMouseY@@YAHXZ:PROC				; dbMouseY
EXTRN	?dbMouseX@@YAHXZ:PROC				; dbMouseX
EXTRN	?dbHideMouse@@YAXXZ:PROC			; dbHideMouse
EXTRN	?dbShowMouse@@YAXXZ:PROC			; dbShowMouse
EXTRN	?dbGetImageWidth@@YAHH@Z:PROC			; dbGetImageWidth
EXTRN	?dbGetImageHeight@@YAHH@Z:PROC			; dbGetImageHeight
EXTRN	?dbLoadImage@@YAXPADHH@Z:PROC			; dbLoadImage
EXTRN	?dbImageExist@@YAHH@Z:PROC			; dbImageExist
EXTRN	?dbLoadImage@@YAXPADH@Z:PROC			; dbLoadImage
EXTRN	?dbFileExist@@YAHPAD@Z:PROC			; dbFileExist
EXTRN	__fltused:DWORD
;	COMDAT __real@3f800000
; File c:\users\fireemblem16\documents\visual studio 2008\projects\chronicles\chronicles\source\input.cpp
CONST	SEGMENT
__real@3f800000 DD 03f800000r			; 1
CONST	ENDS
;	COMDAT ??_C@_00CNPNBAHC@?$AA@
CONST	SEGMENT
??_C@_00CNPNBAHC@?$AA@ DB 00H				; `string'
; Function compile flags: /Odtp /ZI
CONST	ENDS
;	COMDAT ??0MouseHandler@@QAE@_NPADPAVWindow@@M@Z
_TEXT	SEGMENT
_i$90822 = -12						; size = 4
_i$90818 = -8						; size = 4
_this$ = -4						; size = 4
_SeeMouse$ = 8						; size = 1
_MouseCursor$ = 12					; size = 4
_Win$ = 16						; size = 4
_Speeder$ = 20						; size = 4
??0MouseHandler@@QAE@_NPADPAVWindow@@M@Z PROC		; MouseHandler::MouseHandler, COMDAT
; _this$ = ecx

; 22   : {

  00000	55		 push	 ebp
  00001	8b ec		 mov	 ebp, esp
  00003	83 ec 4c	 sub	 esp, 76			; 0000004cH
  00006	53		 push	 ebx
  00007	56		 push	 esi
  00008	57		 push	 edi
  00009	89 4d fc	 mov	 DWORD PTR _this$[ebp], ecx

; 23   : 	this->ShowMouse=SeeMouse;

  0000c	8b 45 fc	 mov	 eax, DWORD PTR _this$[ebp]
  0000f	8a 4d 08	 mov	 cl, BYTE PTR _SeeMouse$[ebp]
  00012	88 48 01	 mov	 BYTE PTR [eax+1], cl

; 24   : 	this->CursorName=MouseCursor;

  00015	8b 45 fc	 mov	 eax, DWORD PTR _this$[ebp]
  00018	8b 4d 0c	 mov	 ecx, DWORD PTR _MouseCursor$[ebp]
  0001b	89 88 94 01 00
	00		 mov	 DWORD PTR [eax+404], ecx

; 25   : 	this->CurrentWindow=Win;

  00021	8b 45 fc	 mov	 eax, DWORD PTR _this$[ebp]
  00024	8b 4d 10	 mov	 ecx, DWORD PTR _Win$[ebp]
  00027	89 88 20 02 00
	00		 mov	 DWORD PTR [eax+544], ecx

; 26   : 	this->BindMouseToPosition=true;

  0002d	8b 45 fc	 mov	 eax, DWORD PTR _this$[ebp]
  00030	c6 00 01	 mov	 BYTE PTR [eax], 1

; 27   : 
; 28   : 	if(this->CursorName!="")

  00033	8b 45 fc	 mov	 eax, DWORD PTR _this$[ebp]
  00036	81 b8 94 01 00
	00 00 00 00 00	 cmp	 DWORD PTR [eax+404], OFFSET ??_C@_00CNPNBAHC@?$AA@
  00040	74 0e		 je	 SHORT $LN16@MouseHandl

; 29   : 		this->Multiplier=Speeder;

  00042	8b 45 fc	 mov	 eax, DWORD PTR _this$[ebp]
  00045	d9 45 14	 fld	 DWORD PTR _Speeder$[ebp]
  00048	d9 98 98 01 00
	00		 fstp	 DWORD PTR [eax+408]

; 30   : 	else

  0004e	eb 0b		 jmp	 SHORT $LN15@MouseHandl
$LN16@MouseHandl:

; 31   : 		this->Multiplier=1.0f;

  00050	8b 45 fc	 mov	 eax, DWORD PTR _this$[ebp]
  00053	d9 e8		 fld1
  00055	d9 98 98 01 00
	00		 fstp	 DWORD PTR [eax+408]
$LN15@MouseHandl:

; 32   : 
; 33   : 	for(int i=0;i<100;i++)

  0005b	c7 45 f8 00 00
	00 00		 mov	 DWORD PTR _i$90818[ebp], 0
  00062	eb 09		 jmp	 SHORT $LN14@MouseHandl
$LN13@MouseHandl:
  00064	8b 45 f8	 mov	 eax, DWORD PTR _i$90818[ebp]
  00067	83 c0 01	 add	 eax, 1
  0006a	89 45 f8	 mov	 DWORD PTR _i$90818[ebp], eax
$LN14@MouseHandl:
  0006d	83 7d f8 64	 cmp	 DWORD PTR _i$90818[ebp], 100 ; 00000064H
  00071	7d 30		 jge	 SHORT $LN12@MouseHandl

; 34   : 	{
; 35   : 		this->LeftClick[i]=false;

  00073	8b 45 fc	 mov	 eax, DWORD PTR _this$[ebp]
  00076	03 45 f8	 add	 eax, DWORD PTR _i$90818[ebp]
  00079	c6 40 02 00	 mov	 BYTE PTR [eax+2], 0

; 36   : 		this->RightClick[i]=false;

  0007d	8b 45 fc	 mov	 eax, DWORD PTR _this$[ebp]
  00080	03 45 f8	 add	 eax, DWORD PTR _i$90818[ebp]
  00083	c6 80 2e 01 00
	00 00		 mov	 BYTE PTR [eax+302], 0

; 37   : 		this->MouseButton3[i]=false;

  0008a	8b 45 fc	 mov	 eax, DWORD PTR _this$[ebp]
  0008d	03 45 f8	 add	 eax, DWORD PTR _i$90818[ebp]
  00090	c6 40 66 00	 mov	 BYTE PTR [eax+102], 0

; 38   : 		this->MouseButton4[i]=false;

  00094	8b 45 fc	 mov	 eax, DWORD PTR _this$[ebp]
  00097	03 45 f8	 add	 eax, DWORD PTR _i$90818[ebp]
  0009a	c6 80 ca 00 00
	00 00		 mov	 BYTE PTR [eax+202], 0

; 39   : 	}

  000a1	eb c1		 jmp	 SHORT $LN13@MouseHandl
$LN12@MouseHandl:

; 40   : 
; 41   : 	for(int i=0;i<10;i++)

  000a3	c7 45 f4 00 00
	00 00		 mov	 DWORD PTR _i$90822[ebp], 0
  000aa	eb 09		 jmp	 SHORT $LN11@MouseHandl
$LN10@MouseHandl:
  000ac	8b 45 f4	 mov	 eax, DWORD PTR _i$90822[ebp]
  000af	83 c0 01	 add	 eax, 1
  000b2	89 45 f4	 mov	 DWORD PTR _i$90822[ebp], eax
$LN11@MouseHandl:
  000b5	83 7d f4 0a	 cmp	 DWORD PTR _i$90822[ebp], 10 ; 0000000aH
  000b9	7d 35		 jge	 SHORT $LN9@MouseHandl

; 42   : 	{
; 43   : 		this->MousePosX[i]=0;

  000bb	8b 45 f4	 mov	 eax, DWORD PTR _i$90822[ebp]
  000be	8b 4d fc	 mov	 ecx, DWORD PTR _this$[ebp]
  000c1	c7 84 81 a8 01
	00 00 00 00 00
	00		 mov	 DWORD PTR [ecx+eax*4+424], 0

; 44   : 		this->MousePosY[i]=0;

  000cc	8b 45 f4	 mov	 eax, DWORD PTR _i$90822[ebp]
  000cf	8b 4d fc	 mov	 ecx, DWORD PTR _this$[ebp]
  000d2	c7 84 81 d0 01
	00 00 00 00 00
	00		 mov	 DWORD PTR [ecx+eax*4+464], 0

; 45   : 		this->MousePosZ[i]=0;

  000dd	8b 45 f4	 mov	 eax, DWORD PTR _i$90822[ebp]
  000e0	8b 4d fc	 mov	 ecx, DWORD PTR _this$[ebp]
  000e3	c7 84 81 f8 01
	00 00 00 00 00
	00		 mov	 DWORD PTR [ecx+eax*4+504], 0

; 46   : 	}

  000ee	eb bc		 jmp	 SHORT $LN10@MouseHandl
$LN9@MouseHandl:

; 47   : 
; 48   : 	if(this->CursorName!="")

  000f0	8b 45 fc	 mov	 eax, DWORD PTR _this$[ebp]
  000f3	81 b8 94 01 00
	00 00 00 00 00	 cmp	 DWORD PTR [eax+404], OFFSET ??_C@_00CNPNBAHC@?$AA@
  000fd	0f 84 f6 00 00
	00		 je	 $LN3@MouseHandl

; 49   : 	{
; 50   : 		if(dbFileExist(this->CursorName)==1)

  00103	8b 45 fc	 mov	 eax, DWORD PTR _this$[ebp]
  00106	8b 88 94 01 00
	00		 mov	 ecx, DWORD PTR [eax+404]
  0010c	51		 push	 ecx
  0010d	e8 00 00 00 00	 call	 ?dbFileExist@@YAHPAD@Z	; dbFileExist
  00112	83 c4 04	 add	 esp, 4
  00115	83 f8 01	 cmp	 eax, 1
  00118	0f 85 a7 00 00
	00		 jne	 $LN7@MouseHandl

; 51   : 		{
; 52   : 			dbLoadImage(this->CursorName,1);

  0011e	6a 01		 push	 1
  00120	8b 45 fc	 mov	 eax, DWORD PTR _this$[ebp]
  00123	8b 88 94 01 00
	00		 mov	 ecx, DWORD PTR [eax+404]
  00129	51		 push	 ecx
  0012a	e8 00 00 00 00	 call	 ?dbLoadImage@@YAXPADH@Z	; dbLoadImage
  0012f	83 c4 08	 add	 esp, 8

; 53   : 			for(this->CursorImage=1;dbImageExist(this->CursorImage)==1;this->CursorImage++);

  00132	8b 45 fc	 mov	 eax, DWORD PTR _this$[ebp]
  00135	c7 80 a0 01 00
	00 01 00 00 00	 mov	 DWORD PTR [eax+416], 1
  0013f	eb 15		 jmp	 SHORT $LN6@MouseHandl
$LN5@MouseHandl:
  00141	8b 45 fc	 mov	 eax, DWORD PTR _this$[ebp]
  00144	8b 88 a0 01 00
	00		 mov	 ecx, DWORD PTR [eax+416]
  0014a	83 c1 01	 add	 ecx, 1
  0014d	8b 55 fc	 mov	 edx, DWORD PTR _this$[ebp]
  00150	89 8a a0 01 00
	00		 mov	 DWORD PTR [edx+416], ecx
$LN6@MouseHandl:
  00156	8b 45 fc	 mov	 eax, DWORD PTR _this$[ebp]
  00159	8b 88 a0 01 00
	00		 mov	 ecx, DWORD PTR [eax+416]
  0015f	51		 push	 ecx
  00160	e8 00 00 00 00	 call	 ?dbImageExist@@YAHH@Z	; dbImageExist
  00165	83 c4 04	 add	 esp, 4
  00168	83 f8 01	 cmp	 eax, 1
  0016b	75 02		 jne	 SHORT $LN4@MouseHandl
  0016d	eb d2		 jmp	 SHORT $LN5@MouseHandl
$LN4@MouseHandl:

; 54   : 			dbLoadImage(this->CursorName,this->CursorImage,1);

  0016f	6a 01		 push	 1
  00171	8b 45 fc	 mov	 eax, DWORD PTR _this$[ebp]
  00174	8b 88 a0 01 00
	00		 mov	 ecx, DWORD PTR [eax+416]
  0017a	51		 push	 ecx
  0017b	8b 55 fc	 mov	 edx, DWORD PTR _this$[ebp]
  0017e	8b 82 94 01 00
	00		 mov	 eax, DWORD PTR [edx+404]
  00184	50		 push	 eax
  00185	e8 00 00 00 00	 call	 ?dbLoadImage@@YAXPADHH@Z ; dbLoadImage
  0018a	83 c4 0c	 add	 esp, 12			; 0000000cH

; 55   : 
; 56   : 			this->CursorHeight=dbGetImageHeight(this->CursorImage);

  0018d	8b 45 fc	 mov	 eax, DWORD PTR _this$[ebp]
  00190	8b 88 a0 01 00
	00		 mov	 ecx, DWORD PTR [eax+416]
  00196	51		 push	 ecx
  00197	e8 00 00 00 00	 call	 ?dbGetImageHeight@@YAHH@Z ; dbGetImageHeight
  0019c	83 c4 04	 add	 esp, 4
  0019f	8b 55 fc	 mov	 edx, DWORD PTR _this$[ebp]
  001a2	89 82 9c 01 00
	00		 mov	 DWORD PTR [edx+412], eax

; 57   : 			this->CursorWidth=dbGetImageWidth(this->CursorImage);

  001a8	8b 45 fc	 mov	 eax, DWORD PTR _this$[ebp]
  001ab	8b 88 a0 01 00
	00		 mov	 ecx, DWORD PTR [eax+416]
  001b1	51		 push	 ecx
  001b2	e8 00 00 00 00	 call	 ?dbGetImageWidth@@YAHH@Z ; dbGetImageWidth
  001b7	83 c4 04	 add	 esp, 4
  001ba	8b 55 fc	 mov	 edx, DWORD PTR _this$[ebp]
  001bd	89 82 a4 01 00
	00		 mov	 DWORD PTR [edx+420], eax

; 58   : 		}
; 59   : 		else

  001c3	eb 34		 jmp	 SHORT $LN3@MouseHandl
$LN7@MouseHandl:

; 60   : 		{
; 61   : 			this->CursorName="";

  001c5	8b 45 fc	 mov	 eax, DWORD PTR _this$[ebp]
  001c8	c7 80 94 01 00
	00 00 00 00 00	 mov	 DWORD PTR [eax+404], OFFSET ??_C@_00CNPNBAHC@?$AA@

; 62   : 			this->CursorImage=0;

  001d2	8b 45 fc	 mov	 eax, DWORD PTR _this$[ebp]
  001d5	c7 80 a0 01 00
	00 00 00 00 00	 mov	 DWORD PTR [eax+416], 0

; 63   : 			this->CursorHeight=0;

  001df	8b 45 fc	 mov	 eax, DWORD PTR _this$[ebp]
  001e2	c7 80 9c 01 00
	00 00 00 00 00	 mov	 DWORD PTR [eax+412], 0

; 64   : 			this->CursorWidth=0;

  001ec	8b 45 fc	 mov	 eax, DWORD PTR _this$[ebp]
  001ef	c7 80 a4 01 00
	00 00 00 00 00	 mov	 DWORD PTR [eax+420], 0
$LN3@MouseHandl:

; 65   : 		}
; 66   : 	}
; 67   : 
; 68   : 	if(this->ShowMouse&&this->CursorName=="")

  001f9	8b 45 fc	 mov	 eax, DWORD PTR _this$[ebp]
  001fc	0f b6 48 01	 movzx	 ecx, BYTE PTR [eax+1]
  00200	85 c9		 test	 ecx, ecx
  00202	74 16		 je	 SHORT $LN2@MouseHandl
  00204	8b 45 fc	 mov	 eax, DWORD PTR _this$[ebp]
  00207	81 b8 94 01 00
	00 00 00 00 00	 cmp	 DWORD PTR [eax+404], OFFSET ??_C@_00CNPNBAHC@?$AA@
  00211	75 07		 jne	 SHORT $LN2@MouseHandl

; 69   : 		dbShowMouse();

  00213	e8 00 00 00 00	 call	 ?dbShowMouse@@YAXXZ	; dbShowMouse

; 70   : 	else

  00218	eb 05		 jmp	 SHORT $LN1@MouseHandl
$LN2@MouseHandl:

; 71   : 		dbHideMouse();

  0021a	e8 00 00 00 00	 call	 ?dbHideMouse@@YAXXZ	; dbHideMouse
$LN1@MouseHandl:

; 72   : 
; 73   : 	this->MousePosX[0]=dbMouseX();

  0021f	e8 00 00 00 00	 call	 ?dbMouseX@@YAHXZ	; dbMouseX
  00224	8b 4d fc	 mov	 ecx, DWORD PTR _this$[ebp]
  00227	89 81 a8 01 00
	00		 mov	 DWORD PTR [ecx+424], eax

; 74   : 	this->MousePosY[0]=dbMouseY();

  0022d	e8 00 00 00 00	 call	 ?dbMouseY@@YAHXZ	; dbMouseY
  00232	8b 4d fc	 mov	 ecx, DWORD PTR _this$[ebp]
  00235	89 81 d0 01 00
	00		 mov	 DWORD PTR [ecx+464], eax

; 75   : 	this->MousePosZ[0]=dbMouseZ();

  0023b	e8 00 00 00 00	 call	 ?dbMouseZ@@YAHXZ	; dbMouseZ
  00240	8b 4d fc	 mov	 ecx, DWORD PTR _this$[ebp]
  00243	89 81 f8 01 00
	00		 mov	 DWORD PTR [ecx+504], eax

; 76   : 
; 77   : 	return;
; 78   : }

  00249	8b 45 fc	 mov	 eax, DWORD PTR _this$[ebp]
  0024c	5f		 pop	 edi
  0024d	5e		 pop	 esi
  0024e	5b		 pop	 ebx
  0024f	8b e5		 mov	 esp, ebp
  00251	5d		 pop	 ebp
  00252	c2 10 00	 ret	 16			; 00000010H
??0MouseHandler@@QAE@_NPADPAVWindow@@M@Z ENDP		; MouseHandler::MouseHandler
_TEXT	ENDS
PUBLIC	??_GWindow@@QAEPAXI@Z				; Window::`scalar deleting destructor'
PUBLIC	??1MouseHandler@@QAE@XZ				; MouseHandler::~MouseHandler
EXTRN	?dbDeleteImage@@YAXH@Z:PROC			; dbDeleteImage
EXTRN	??3@YAXPAX@Z:PROC				; operator delete
; Function compile flags: /Odtp /ZI
;	COMDAT ??1MouseHandler@@QAE@XZ
_TEXT	SEGMENT
tv71 = -84						; size = 4
$T94164 = -80						; size = 4
$T94165 = -76						; size = 4
$T94166 = -72						; size = 4
_this$ = -4						; size = 4
??1MouseHandler@@QAE@XZ PROC				; MouseHandler::~MouseHandler, COMDAT
; _this$ = ecx

; 80   : {

  00000	55		 push	 ebp
  00001	8b ec		 mov	 ebp, esp
  00003	83 ec 54	 sub	 esp, 84			; 00000054H
  00006	53		 push	 ebx
  00007	56		 push	 esi
  00008	57		 push	 edi
  00009	89 4d fc	 mov	 DWORD PTR _this$[ebp], ecx

; 81   : 	delete this->CursorName;

  0000c	8b 45 fc	 mov	 eax, DWORD PTR _this$[ebp]
  0000f	8b 88 94 01 00
	00		 mov	 ecx, DWORD PTR [eax+404]
  00015	89 4d b0	 mov	 DWORD PTR $T94164[ebp], ecx
  00018	8b 55 b0	 mov	 edx, DWORD PTR $T94164[ebp]
  0001b	52		 push	 edx
  0001c	e8 00 00 00 00	 call	 ??3@YAXPAX@Z		; operator delete
  00021	83 c4 04	 add	 esp, 4

; 82   : 	delete this->CurrentWindow;

  00024	8b 45 fc	 mov	 eax, DWORD PTR _this$[ebp]
  00027	8b 88 20 02 00
	00		 mov	 ecx, DWORD PTR [eax+544]
  0002d	89 4d b8	 mov	 DWORD PTR $T94166[ebp], ecx
  00030	8b 55 b8	 mov	 edx, DWORD PTR $T94166[ebp]
  00033	89 55 b4	 mov	 DWORD PTR $T94165[ebp], edx
  00036	83 7d b4 00	 cmp	 DWORD PTR $T94165[ebp], 0
  0003a	74 0f		 je	 SHORT $LN3@MouseHandl@2
  0003c	6a 01		 push	 1
  0003e	8b 4d b4	 mov	 ecx, DWORD PTR $T94165[ebp]
  00041	e8 00 00 00 00	 call	 ??_GWindow@@QAEPAXI@Z
  00046	89 45 ac	 mov	 DWORD PTR tv71[ebp], eax
  00049	eb 07		 jmp	 SHORT $LN4@MouseHandl@2
$LN3@MouseHandl@2:
  0004b	c7 45 ac 00 00
	00 00		 mov	 DWORD PTR tv71[ebp], 0
$LN4@MouseHandl@2:

; 83   : 	dbDeleteImage(this->CursorImage);

  00052	8b 45 fc	 mov	 eax, DWORD PTR _this$[ebp]
  00055	8b 88 a0 01 00
	00		 mov	 ecx, DWORD PTR [eax+416]
  0005b	51		 push	 ecx
  0005c	e8 00 00 00 00	 call	 ?dbDeleteImage@@YAXH@Z	; dbDeleteImage
  00061	83 c4 04	 add	 esp, 4

; 84   : 
; 85   : 	return;
; 86   : }

  00064	5f		 pop	 edi
  00065	5e		 pop	 esi
  00066	5b		 pop	 ebx
  00067	8b e5		 mov	 esp, ebp
  00069	5d		 pop	 ebp
  0006a	c3		 ret	 0
??1MouseHandler@@QAE@XZ ENDP				; MouseHandler::~MouseHandler
_TEXT	ENDS
EXTRN	??1Window@@QAE@XZ:PROC				; Window::~Window
; Function compile flags: /Odtp /ZI
;	COMDAT ??_GWindow@@QAEPAXI@Z
_TEXT	SEGMENT
_this$ = -4						; size = 4
___flags$ = 8						; size = 4
??_GWindow@@QAEPAXI@Z PROC				; Window::`scalar deleting destructor', COMDAT
; _this$ = ecx
  00000	55		 push	 ebp
  00001	8b ec		 mov	 ebp, esp
  00003	83 ec 44	 sub	 esp, 68			; 00000044H
  00006	53		 push	 ebx
  00007	56		 push	 esi
  00008	57		 push	 edi
  00009	89 4d fc	 mov	 DWORD PTR _this$[ebp], ecx
  0000c	8b 4d fc	 mov	 ecx, DWORD PTR _this$[ebp]
  0000f	e8 00 00 00 00	 call	 ??1Window@@QAE@XZ	; Window::~Window
  00014	8b 45 08	 mov	 eax, DWORD PTR ___flags$[ebp]
  00017	83 e0 01	 and	 eax, 1
  0001a	74 0c		 je	 SHORT $LN1@scalar
  0001c	8b 45 fc	 mov	 eax, DWORD PTR _this$[ebp]
  0001f	50		 push	 eax
  00020	e8 00 00 00 00	 call	 ??3@YAXPAX@Z		; operator delete
  00025	83 c4 04	 add	 esp, 4
$LN1@scalar:
  00028	8b 45 fc	 mov	 eax, DWORD PTR _this$[ebp]
  0002b	5f		 pop	 edi
  0002c	5e		 pop	 esi
  0002d	5b		 pop	 ebx
  0002e	8b e5		 mov	 esp, ebp
  00030	5d		 pop	 ebp
  00031	c2 04 00	 ret	 4
??_GWindow@@QAEPAXI@Z ENDP				; Window::`scalar deleting destructor'
_TEXT	ENDS
PUBLIC	?Button3Click@MouseHandler@@QAE_NXZ		; MouseHandler::Button3Click
; Function compile flags: /Odtp /ZI
;	COMDAT ?Button3Click@MouseHandler@@QAE_NXZ
_TEXT	SEGMENT
tv72 = -72						; size = 4
_this$ = -4						; size = 4
?Button3Click@MouseHandler@@QAE_NXZ PROC		; MouseHandler::Button3Click, COMDAT
; _this$ = ecx

; 88   : {

  00000	55		 push	 ebp
  00001	8b ec		 mov	 ebp, esp
  00003	83 ec 48	 sub	 esp, 72			; 00000048H
  00006	53		 push	 ebx
  00007	56		 push	 esi
  00008	57		 push	 edi
  00009	89 4d fc	 mov	 DWORD PTR _this$[ebp], ecx

; 89   : 	return (!this->MouseButton3[0]&&this->MouseButton3[1]);

  0000c	8b 45 fc	 mov	 eax, DWORD PTR _this$[ebp]
  0000f	0f b6 48 66	 movzx	 ecx, BYTE PTR [eax+102]
  00013	85 c9		 test	 ecx, ecx
  00015	75 14		 jne	 SHORT $LN3@Button3Cli
  00017	8b 55 fc	 mov	 edx, DWORD PTR _this$[ebp]
  0001a	0f b6 42 67	 movzx	 eax, BYTE PTR [edx+103]
  0001e	85 c0		 test	 eax, eax
  00020	74 09		 je	 SHORT $LN3@Button3Cli
  00022	c7 45 b8 01 00
	00 00		 mov	 DWORD PTR tv72[ebp], 1
  00029	eb 07		 jmp	 SHORT $LN4@Button3Cli
$LN3@Button3Cli:
  0002b	c7 45 b8 00 00
	00 00		 mov	 DWORD PTR tv72[ebp], 0
$LN4@Button3Cli:
  00032	8a 45 b8	 mov	 al, BYTE PTR tv72[ebp]

; 90   : }

  00035	5f		 pop	 edi
  00036	5e		 pop	 esi
  00037	5b		 pop	 ebx
  00038	8b e5		 mov	 esp, ebp
  0003a	5d		 pop	 ebp
  0003b	c3		 ret	 0
?Button3Click@MouseHandler@@QAE_NXZ ENDP		; MouseHandler::Button3Click
_TEXT	ENDS
PUBLIC	?Button3DoubleClick@MouseHandler@@QAE_NH@Z	; MouseHandler::Button3DoubleClick
; Function compile flags: /Odtp /ZI
;	COMDAT ?Button3DoubleClick@MouseHandler@@QAE_NH@Z
_TEXT	SEGMENT
_index2$ = -12						; size = 4
_index$ = -8						; size = 4
_this$ = -4						; size = 4
_MaximumLag$ = 8					; size = 4
?Button3DoubleClick@MouseHandler@@QAE_NH@Z PROC		; MouseHandler::Button3DoubleClick, COMDAT
; _this$ = ecx

; 92   : {

  00000	55		 push	 ebp
  00001	8b ec		 mov	 ebp, esp
  00003	83 ec 4c	 sub	 esp, 76			; 0000004cH
  00006	53		 push	 ebx
  00007	56		 push	 esi
  00008	57		 push	 edi
  00009	89 4d fc	 mov	 DWORD PTR _this$[ebp], ecx

; 93   : 	if(MaximumLag>96)

  0000c	83 7d 08 60	 cmp	 DWORD PTR _MaximumLag$[ebp], 96 ; 00000060H
  00010	7e 07		 jle	 SHORT $LN10@Button3Dou

; 94   : 		return false;

  00012	32 c0		 xor	 al, al
  00014	e9 9f 00 00 00	 jmp	 $LN11@Button3Dou
$LN10@Button3Dou:

; 95   : 
; 96   : 	int index=1;

  00019	c7 45 f8 01 00
	00 00		 mov	 DWORD PTR _index$[ebp], 1

; 97   : 	int index2;
; 98   : 
; 99   : 	if(this->MouseButton3[0]&&!this->MouseButton3[1])

  00020	8b 45 fc	 mov	 eax, DWORD PTR _this$[ebp]
  00023	0f b6 48 66	 movzx	 ecx, BYTE PTR [eax+102]
  00027	85 c9		 test	 ecx, ecx
  00029	74 0f		 je	 SHORT $LN9@Button3Dou
  0002b	8b 45 fc	 mov	 eax, DWORD PTR _this$[ebp]
  0002e	0f b6 48 67	 movzx	 ecx, BYTE PTR [eax+103]
  00032	85 c9		 test	 ecx, ecx
  00034	75 04		 jne	 SHORT $LN9@Button3Dou

; 100  : 		return false;

  00036	32 c0		 xor	 al, al
  00038	eb 7e		 jmp	 SHORT $LN11@Button3Dou
$LN9@Button3Dou:

; 101  : 
; 102  : 	for(index2=index-1;this->MouseButton3[index]&&index-index2<=MaximumLag;index++);

  0003a	8b 45 f8	 mov	 eax, DWORD PTR _index$[ebp]
  0003d	83 e8 01	 sub	 eax, 1
  00040	89 45 f4	 mov	 DWORD PTR _index2$[ebp], eax
  00043	eb 09		 jmp	 SHORT $LN8@Button3Dou
$LN7@Button3Dou:
  00045	8b 45 f8	 mov	 eax, DWORD PTR _index$[ebp]
  00048	83 c0 01	 add	 eax, 1
  0004b	89 45 f8	 mov	 DWORD PTR _index$[ebp], eax
$LN8@Button3Dou:
  0004e	8b 45 fc	 mov	 eax, DWORD PTR _this$[ebp]
  00051	03 45 f8	 add	 eax, DWORD PTR _index$[ebp]
  00054	0f b6 48 66	 movzx	 ecx, BYTE PTR [eax+102]
  00058	85 c9		 test	 ecx, ecx
  0005a	74 0d		 je	 SHORT $LN6@Button3Dou
  0005c	8b 45 f8	 mov	 eax, DWORD PTR _index$[ebp]
  0005f	2b 45 f4	 sub	 eax, DWORD PTR _index2$[ebp]
  00062	3b 45 08	 cmp	 eax, DWORD PTR _MaximumLag$[ebp]
  00065	7f 02		 jg	 SHORT $LN6@Button3Dou
  00067	eb dc		 jmp	 SHORT $LN7@Button3Dou
$LN6@Button3Dou:

; 103  : 
; 104  : 	if(index-index2>MaximumLag)

  00069	8b 45 f8	 mov	 eax, DWORD PTR _index$[ebp]
  0006c	2b 45 f4	 sub	 eax, DWORD PTR _index2$[ebp]
  0006f	3b 45 08	 cmp	 eax, DWORD PTR _MaximumLag$[ebp]
  00072	7e 04		 jle	 SHORT $LN5@Button3Dou

; 105  : 		return false;

  00074	32 c0		 xor	 al, al
  00076	eb 40		 jmp	 SHORT $LN11@Button3Dou
$LN5@Button3Dou:

; 106  : 
; 107  : 	for(index2=index-1;!this->MouseButton3[index]&&index-index2<=MaximumLag;index++);

  00078	8b 45 f8	 mov	 eax, DWORD PTR _index$[ebp]
  0007b	83 e8 01	 sub	 eax, 1
  0007e	89 45 f4	 mov	 DWORD PTR _index2$[ebp], eax
  00081	eb 09		 jmp	 SHORT $LN4@Button3Dou
$LN3@Button3Dou:
  00083	8b 45 f8	 mov	 eax, DWORD PTR _index$[ebp]
  00086	83 c0 01	 add	 eax, 1
  00089	89 45 f8	 mov	 DWORD PTR _index$[ebp], eax
$LN4@Button3Dou:
  0008c	8b 45 fc	 mov	 eax, DWORD PTR _this$[ebp]
  0008f	03 45 f8	 add	 eax, DWORD PTR _index$[ebp]
  00092	0f b6 48 66	 movzx	 ecx, BYTE PTR [eax+102]
  00096	85 c9		 test	 ecx, ecx
  00098	75 0d		 jne	 SHORT $LN2@Button3Dou
  0009a	8b 45 f8	 mov	 eax, DWORD PTR _index$[ebp]
  0009d	2b 45 f4	 sub	 eax, DWORD PTR _index2$[ebp]
  000a0	3b 45 08	 cmp	 eax, DWORD PTR _MaximumLag$[ebp]
  000a3	7f 02		 jg	 SHORT $LN2@Button3Dou
  000a5	eb dc		 jmp	 SHORT $LN3@Button3Dou
$LN2@Button3Dou:

; 108  : 
; 109  : 	if(index-index2>MaximumLag)

  000a7	8b 45 f8	 mov	 eax, DWORD PTR _index$[ebp]
  000aa	2b 45 f4	 sub	 eax, DWORD PTR _index2$[ebp]
  000ad	3b 45 08	 cmp	 eax, DWORD PTR _MaximumLag$[ebp]
  000b0	7e 04		 jle	 SHORT $LN1@Button3Dou

; 110  : 		return false;

  000b2	32 c0		 xor	 al, al
  000b4	eb 02		 jmp	 SHORT $LN11@Button3Dou
$LN1@Button3Dou:

; 111  : 
; 112  : 	return true;

  000b6	b0 01		 mov	 al, 1
$LN11@Button3Dou:

; 113  : }

  000b8	5f		 pop	 edi
  000b9	5e		 pop	 esi
  000ba	5b		 pop	 ebx
  000bb	8b e5		 mov	 esp, ebp
  000bd	5d		 pop	 ebp
  000be	c2 04 00	 ret	 4
?Button3DoubleClick@MouseHandler@@QAE_NH@Z ENDP		; MouseHandler::Button3DoubleClick
_TEXT	ENDS
PUBLIC	?Button3HoldFor@MouseHandler@@QAE_NH@Z		; MouseHandler::Button3HoldFor
; Function compile flags: /Odtp /ZI
;	COMDAT ?Button3HoldFor@MouseHandler@@QAE_NH@Z
_TEXT	SEGMENT
_i$90868 = -8						; size = 4
_this$ = -4						; size = 4
_length$ = 8						; size = 4
?Button3HoldFor@MouseHandler@@QAE_NH@Z PROC		; MouseHandler::Button3HoldFor, COMDAT
; _this$ = ecx

; 115  : {

  00000	55		 push	 ebp
  00001	8b ec		 mov	 ebp, esp
  00003	83 ec 48	 sub	 esp, 72			; 00000048H
  00006	53		 push	 ebx
  00007	56		 push	 esi
  00008	57		 push	 edi
  00009	89 4d fc	 mov	 DWORD PTR _this$[ebp], ecx

; 116  : 	if(length>100)

  0000c	83 7d 08 64	 cmp	 DWORD PTR _length$[ebp], 100 ; 00000064H
  00010	7e 07		 jle	 SHORT $LN5@Button3Hol

; 117  : 		length=100;

  00012	c7 45 08 64 00
	00 00		 mov	 DWORD PTR _length$[ebp], 100 ; 00000064H
$LN5@Button3Hol:

; 118  : 
; 119  : 	for(int i=0;this->MouseButton3[i];i++)

  00019	c7 45 f8 00 00
	00 00		 mov	 DWORD PTR _i$90868[ebp], 0
  00020	eb 09		 jmp	 SHORT $LN4@Button3Hol
$LN3@Button3Hol:
  00022	8b 45 f8	 mov	 eax, DWORD PTR _i$90868[ebp]
  00025	83 c0 01	 add	 eax, 1
  00028	89 45 f8	 mov	 DWORD PTR _i$90868[ebp], eax
$LN4@Button3Hol:
  0002b	8b 45 fc	 mov	 eax, DWORD PTR _this$[ebp]
  0002e	03 45 f8	 add	 eax, DWORD PTR _i$90868[ebp]
  00031	0f b6 48 66	 movzx	 ecx, BYTE PTR [eax+102]
  00035	85 c9		 test	 ecx, ecx
  00037	74 11		 je	 SHORT $LN2@Button3Hol

; 120  : 		if(i==length-1)

  00039	8b 45 08	 mov	 eax, DWORD PTR _length$[ebp]
  0003c	83 e8 01	 sub	 eax, 1
  0003f	39 45 f8	 cmp	 DWORD PTR _i$90868[ebp], eax
  00042	75 04		 jne	 SHORT $LN1@Button3Hol

; 121  : 			return true;

  00044	b0 01		 mov	 al, 1
  00046	eb 04		 jmp	 SHORT $LN6@Button3Hol
$LN1@Button3Hol:

; 122  : 
; 123  : 	return false;

  00048	eb d8		 jmp	 SHORT $LN3@Button3Hol
$LN2@Button3Hol:
  0004a	32 c0		 xor	 al, al
$LN6@Button3Hol:

; 124  : }

  0004c	5f		 pop	 edi
  0004d	5e		 pop	 esi
  0004e	5b		 pop	 ebx
  0004f	8b e5		 mov	 esp, ebp
  00051	5d		 pop	 ebp
  00052	c2 04 00	 ret	 4
?Button3HoldFor@MouseHandler@@QAE_NH@Z ENDP		; MouseHandler::Button3HoldFor
_TEXT	ENDS
PUBLIC	?Button4Click@MouseHandler@@QAE_NXZ		; MouseHandler::Button4Click
; Function compile flags: /Odtp /ZI
;	COMDAT ?Button4Click@MouseHandler@@QAE_NXZ
_TEXT	SEGMENT
tv72 = -72						; size = 4
_this$ = -4						; size = 4
?Button4Click@MouseHandler@@QAE_NXZ PROC		; MouseHandler::Button4Click, COMDAT
; _this$ = ecx

; 126  : {

  00000	55		 push	 ebp
  00001	8b ec		 mov	 ebp, esp
  00003	83 ec 48	 sub	 esp, 72			; 00000048H
  00006	53		 push	 ebx
  00007	56		 push	 esi
  00008	57		 push	 edi
  00009	89 4d fc	 mov	 DWORD PTR _this$[ebp], ecx

; 127  : 	return (!this->MouseButton4[0]&&this->MouseButton4[1]);

  0000c	8b 45 fc	 mov	 eax, DWORD PTR _this$[ebp]
  0000f	0f b6 88 ca 00
	00 00		 movzx	 ecx, BYTE PTR [eax+202]
  00016	85 c9		 test	 ecx, ecx
  00018	75 17		 jne	 SHORT $LN3@Button4Cli
  0001a	8b 55 fc	 mov	 edx, DWORD PTR _this$[ebp]
  0001d	0f b6 82 cb 00
	00 00		 movzx	 eax, BYTE PTR [edx+203]
  00024	85 c0		 test	 eax, eax
  00026	74 09		 je	 SHORT $LN3@Button4Cli
  00028	c7 45 b8 01 00
	00 00		 mov	 DWORD PTR tv72[ebp], 1
  0002f	eb 07		 jmp	 SHORT $LN4@Button4Cli
$LN3@Button4Cli:
  00031	c7 45 b8 00 00
	00 00		 mov	 DWORD PTR tv72[ebp], 0
$LN4@Button4Cli:
  00038	8a 45 b8	 mov	 al, BYTE PTR tv72[ebp]

; 128  : }

  0003b	5f		 pop	 edi
  0003c	5e		 pop	 esi
  0003d	5b		 pop	 ebx
  0003e	8b e5		 mov	 esp, ebp
  00040	5d		 pop	 ebp
  00041	c3		 ret	 0
?Button4Click@MouseHandler@@QAE_NXZ ENDP		; MouseHandler::Button4Click
_TEXT	ENDS
PUBLIC	?Button4DoubleClick@MouseHandler@@QAE_NH@Z	; MouseHandler::Button4DoubleClick
; Function compile flags: /Odtp /ZI
;	COMDAT ?Button4DoubleClick@MouseHandler@@QAE_NH@Z
_TEXT	SEGMENT
_index2$ = -12						; size = 4
_index$ = -8						; size = 4
_this$ = -4						; size = 4
_MaximumLag$ = 8					; size = 4
?Button4DoubleClick@MouseHandler@@QAE_NH@Z PROC		; MouseHandler::Button4DoubleClick, COMDAT
; _this$ = ecx

; 130  : {

  00000	55		 push	 ebp
  00001	8b ec		 mov	 ebp, esp
  00003	83 ec 4c	 sub	 esp, 76			; 0000004cH
  00006	53		 push	 ebx
  00007	56		 push	 esi
  00008	57		 push	 edi
  00009	89 4d fc	 mov	 DWORD PTR _this$[ebp], ecx

; 131  : 	if(MaximumLag>96)

  0000c	83 7d 08 60	 cmp	 DWORD PTR _MaximumLag$[ebp], 96 ; 00000060H
  00010	7e 07		 jle	 SHORT $LN10@Button4Dou

; 132  : 		return false;

  00012	32 c0		 xor	 al, al
  00014	e9 ae 00 00 00	 jmp	 $LN11@Button4Dou
$LN10@Button4Dou:

; 133  : 
; 134  : 	int index=1;

  00019	c7 45 f8 01 00
	00 00		 mov	 DWORD PTR _index$[ebp], 1

; 135  : 	int index2;
; 136  : 
; 137  : 	if(this->MouseButton4[0]&&!this->MouseButton4[1])

  00020	8b 45 fc	 mov	 eax, DWORD PTR _this$[ebp]
  00023	0f b6 88 ca 00
	00 00		 movzx	 ecx, BYTE PTR [eax+202]
  0002a	85 c9		 test	 ecx, ecx
  0002c	74 15		 je	 SHORT $LN9@Button4Dou
  0002e	8b 45 fc	 mov	 eax, DWORD PTR _this$[ebp]
  00031	0f b6 88 cb 00
	00 00		 movzx	 ecx, BYTE PTR [eax+203]
  00038	85 c9		 test	 ecx, ecx
  0003a	75 07		 jne	 SHORT $LN9@Button4Dou

; 138  : 		return false;

  0003c	32 c0		 xor	 al, al
  0003e	e9 84 00 00 00	 jmp	 $LN11@Button4Dou
$LN9@Button4Dou:

; 139  : 
; 140  : 	for(index2=index-1;this->MouseButton4[index]&&index-index2<=MaximumLag;index++);

  00043	8b 45 f8	 mov	 eax, DWORD PTR _index$[ebp]
  00046	83 e8 01	 sub	 eax, 1
  00049	89 45 f4	 mov	 DWORD PTR _index2$[ebp], eax
  0004c	eb 09		 jmp	 SHORT $LN8@Button4Dou
$LN7@Button4Dou:
  0004e	8b 45 f8	 mov	 eax, DWORD PTR _index$[ebp]
  00051	83 c0 01	 add	 eax, 1
  00054	89 45 f8	 mov	 DWORD PTR _index$[ebp], eax
$LN8@Button4Dou:
  00057	8b 45 fc	 mov	 eax, DWORD PTR _this$[ebp]
  0005a	03 45 f8	 add	 eax, DWORD PTR _index$[ebp]
  0005d	0f b6 88 ca 00
	00 00		 movzx	 ecx, BYTE PTR [eax+202]
  00064	85 c9		 test	 ecx, ecx
  00066	74 0d		 je	 SHORT $LN6@Button4Dou
  00068	8b 45 f8	 mov	 eax, DWORD PTR _index$[ebp]
  0006b	2b 45 f4	 sub	 eax, DWORD PTR _index2$[ebp]
  0006e	3b 45 08	 cmp	 eax, DWORD PTR _MaximumLag$[ebp]
  00071	7f 02		 jg	 SHORT $LN6@Button4Dou
  00073	eb d9		 jmp	 SHORT $LN7@Button4Dou
$LN6@Button4Dou:

; 141  : 
; 142  : 	if(index-index2>MaximumLag)

  00075	8b 45 f8	 mov	 eax, DWORD PTR _index$[ebp]
  00078	2b 45 f4	 sub	 eax, DWORD PTR _index2$[ebp]
  0007b	3b 45 08	 cmp	 eax, DWORD PTR _MaximumLag$[ebp]
  0007e	7e 04		 jle	 SHORT $LN5@Button4Dou

; 143  : 		return false;

  00080	32 c0		 xor	 al, al
  00082	eb 43		 jmp	 SHORT $LN11@Button4Dou
$LN5@Button4Dou:

; 144  : 
; 145  : 	for(index2=index-1;!this->MouseButton4[index]&&index-index2<=MaximumLag;index++);

  00084	8b 45 f8	 mov	 eax, DWORD PTR _index$[ebp]
  00087	83 e8 01	 sub	 eax, 1
  0008a	89 45 f4	 mov	 DWORD PTR _index2$[ebp], eax
  0008d	eb 09		 jmp	 SHORT $LN4@Button4Dou
$LN3@Button4Dou:
  0008f	8b 45 f8	 mov	 eax, DWORD PTR _index$[ebp]
  00092	83 c0 01	 add	 eax, 1
  00095	89 45 f8	 mov	 DWORD PTR _index$[ebp], eax
$LN4@Button4Dou:
  00098	8b 45 fc	 mov	 eax, DWORD PTR _this$[ebp]
  0009b	03 45 f8	 add	 eax, DWORD PTR _index$[ebp]
  0009e	0f b6 88 ca 00
	00 00		 movzx	 ecx, BYTE PTR [eax+202]
  000a5	85 c9		 test	 ecx, ecx
  000a7	75 0d		 jne	 SHORT $LN2@Button4Dou
  000a9	8b 45 f8	 mov	 eax, DWORD PTR _index$[ebp]
  000ac	2b 45 f4	 sub	 eax, DWORD PTR _index2$[ebp]
  000af	3b 45 08	 cmp	 eax, DWORD PTR _MaximumLag$[ebp]
  000b2	7f 02		 jg	 SHORT $LN2@Button4Dou
  000b4	eb d9		 jmp	 SHORT $LN3@Button4Dou
$LN2@Button4Dou:

; 146  : 
; 147  : 	if(index-index2>MaximumLag)

  000b6	8b 45 f8	 mov	 eax, DWORD PTR _index$[ebp]
  000b9	2b 45 f4	 sub	 eax, DWORD PTR _index2$[ebp]
  000bc	3b 45 08	 cmp	 eax, DWORD PTR _MaximumLag$[ebp]
  000bf	7e 04		 jle	 SHORT $LN1@Button4Dou

; 148  : 		return false;

  000c1	32 c0		 xor	 al, al
  000c3	eb 02		 jmp	 SHORT $LN11@Button4Dou
$LN1@Button4Dou:

; 149  : 
; 150  : 	return true;

  000c5	b0 01		 mov	 al, 1
$LN11@Button4Dou:

; 151  : }

  000c7	5f		 pop	 edi
  000c8	5e		 pop	 esi
  000c9	5b		 pop	 ebx
  000ca	8b e5		 mov	 esp, ebp
  000cc	5d		 pop	 ebp
  000cd	c2 04 00	 ret	 4
?Button4DoubleClick@MouseHandler@@QAE_NH@Z ENDP		; MouseHandler::Button4DoubleClick
_TEXT	ENDS
PUBLIC	?Button4HoldFor@MouseHandler@@QAE_NH@Z		; MouseHandler::Button4HoldFor
; Function compile flags: /Odtp /ZI
;	COMDAT ?Button4HoldFor@MouseHandler@@QAE_NH@Z
_TEXT	SEGMENT
_i$90897 = -8						; size = 4
_this$ = -4						; size = 4
_length$ = 8						; size = 4
?Button4HoldFor@MouseHandler@@QAE_NH@Z PROC		; MouseHandler::Button4HoldFor, COMDAT
; _this$ = ecx

; 153  : {

  00000	55		 push	 ebp
  00001	8b ec		 mov	 ebp, esp
  00003	83 ec 48	 sub	 esp, 72			; 00000048H
  00006	53		 push	 ebx
  00007	56		 push	 esi
  00008	57		 push	 edi
  00009	89 4d fc	 mov	 DWORD PTR _this$[ebp], ecx

; 154  : 	if(length>100)

  0000c	83 7d 08 64	 cmp	 DWORD PTR _length$[ebp], 100 ; 00000064H
  00010	7e 07		 jle	 SHORT $LN5@Button4Hol

; 155  : 		length=100;

  00012	c7 45 08 64 00
	00 00		 mov	 DWORD PTR _length$[ebp], 100 ; 00000064H
$LN5@Button4Hol:

; 156  : 
; 157  : 	for(int i=0;this->MouseButton4[i];i++)

  00019	c7 45 f8 00 00
	00 00		 mov	 DWORD PTR _i$90897[ebp], 0
  00020	eb 09		 jmp	 SHORT $LN4@Button4Hol
$LN3@Button4Hol:
  00022	8b 45 f8	 mov	 eax, DWORD PTR _i$90897[ebp]
  00025	83 c0 01	 add	 eax, 1
  00028	89 45 f8	 mov	 DWORD PTR _i$90897[ebp], eax
$LN4@Button4Hol:
  0002b	8b 45 fc	 mov	 eax, DWORD PTR _this$[ebp]
  0002e	03 45 f8	 add	 eax, DWORD PTR _i$90897[ebp]
  00031	0f b6 88 ca 00
	00 00		 movzx	 ecx, BYTE PTR [eax+202]
  00038	85 c9		 test	 ecx, ecx
  0003a	74 11		 je	 SHORT $LN2@Button4Hol

; 158  : 		if(i==length-1)

  0003c	8b 45 08	 mov	 eax, DWORD PTR _length$[ebp]
  0003f	83 e8 01	 sub	 eax, 1
  00042	39 45 f8	 cmp	 DWORD PTR _i$90897[ebp], eax
  00045	75 04		 jne	 SHORT $LN1@Button4Hol

; 159  : 			return true;

  00047	b0 01		 mov	 al, 1
  00049	eb 04		 jmp	 SHORT $LN6@Button4Hol
$LN1@Button4Hol:

; 160  : 
; 161  : 	return false;

  0004b	eb d5		 jmp	 SHORT $LN3@Button4Hol
$LN2@Button4Hol:
  0004d	32 c0		 xor	 al, al
$LN6@Button4Hol:

; 162  : }

  0004f	5f		 pop	 edi
  00050	5e		 pop	 esi
  00051	5b		 pop	 ebx
  00052	8b e5		 mov	 esp, ebp
  00054	5d		 pop	 ebp
  00055	c2 04 00	 ret	 4
?Button4HoldFor@MouseHandler@@QAE_NH@Z ENDP		; MouseHandler::Button4HoldFor
_TEXT	ENDS
PUBLIC	?GetMouseBoundToPosition@MouseHandler@@QAE_NXZ	; MouseHandler::GetMouseBoundToPosition
; Function compile flags: /Odtp /ZI
;	COMDAT ?GetMouseBoundToPosition@MouseHandler@@QAE_NXZ
_TEXT	SEGMENT
_this$ = -4						; size = 4
?GetMouseBoundToPosition@MouseHandler@@QAE_NXZ PROC	; MouseHandler::GetMouseBoundToPosition, COMDAT
; _this$ = ecx

; 164  : {

  00000	55		 push	 ebp
  00001	8b ec		 mov	 ebp, esp
  00003	83 ec 44	 sub	 esp, 68			; 00000044H
  00006	53		 push	 ebx
  00007	56		 push	 esi
  00008	57		 push	 edi
  00009	89 4d fc	 mov	 DWORD PTR _this$[ebp], ecx

; 165  : 	return this->BindMouseToPosition;

  0000c	8b 45 fc	 mov	 eax, DWORD PTR _this$[ebp]
  0000f	8a 00		 mov	 al, BYTE PTR [eax]

; 166  : }

  00011	5f		 pop	 edi
  00012	5e		 pop	 esi
  00013	5b		 pop	 ebx
  00014	8b e5		 mov	 esp, ebp
  00016	5d		 pop	 ebp
  00017	c3		 ret	 0
?GetMouseBoundToPosition@MouseHandler@@QAE_NXZ ENDP	; MouseHandler::GetMouseBoundToPosition
_TEXT	ENDS
PUBLIC	?MouseRightClick@MouseHandler@@QAE_NXZ		; MouseHandler::MouseRightClick
PUBLIC	?MouseLeftClick@MouseHandler@@QAE_NXZ		; MouseHandler::MouseLeftClick
PUBLIC	?IsClicked@MouseHandler@@QAE_NH@Z		; MouseHandler::IsClicked
; Function compile flags: /Odtp /ZI
;	COMDAT ?IsClicked@MouseHandler@@QAE_NH@Z
_TEXT	SEGMENT
tv64 = -72						; size = 4
_this$ = -4						; size = 4
_Button$ = 8						; size = 4
?IsClicked@MouseHandler@@QAE_NH@Z PROC			; MouseHandler::IsClicked, COMDAT
; _this$ = ecx

; 168  : {

  00000	55		 push	 ebp
  00001	8b ec		 mov	 ebp, esp
  00003	83 ec 48	 sub	 esp, 72			; 00000048H
  00006	53		 push	 ebx
  00007	56		 push	 esi
  00008	57		 push	 edi
  00009	89 4d fc	 mov	 DWORD PTR _this$[ebp], ecx

; 169  : 	switch(Button)

  0000c	8b 45 08	 mov	 eax, DWORD PTR _Button$[ebp]
  0000f	89 45 b8	 mov	 DWORD PTR tv64[ebp], eax
  00012	8b 4d b8	 mov	 ecx, DWORD PTR tv64[ebp]
  00015	83 e9 01	 sub	 ecx, 1
  00018	89 4d b8	 mov	 DWORD PTR tv64[ebp], ecx
  0001b	83 7d b8 03	 cmp	 DWORD PTR tv64[ebp], 3
  0001f	77 3a		 ja	 SHORT $LN1@IsClicked
  00021	8b 55 b8	 mov	 edx, DWORD PTR tv64[ebp]
  00024	ff 24 95 00 00
	00 00		 jmp	 DWORD PTR $LN10@IsClicked[edx*4]
$LN5@IsClicked:

; 170  : 	{
; 171  : 	case 1:
; 172  : 		return this->MouseLeftClick();

  0002b	8b 4d fc	 mov	 ecx, DWORD PTR _this$[ebp]
  0002e	e8 00 00 00 00	 call	 ?MouseLeftClick@MouseHandler@@QAE_NXZ ; MouseHandler::MouseLeftClick
  00033	eb 2c		 jmp	 SHORT $LN8@IsClicked

; 173  : 		break;

  00035	eb 28		 jmp	 SHORT $LN6@IsClicked
$LN4@IsClicked:

; 174  : 	case 2:
; 175  : 		return this->MouseRightClick();

  00037	8b 4d fc	 mov	 ecx, DWORD PTR _this$[ebp]
  0003a	e8 00 00 00 00	 call	 ?MouseRightClick@MouseHandler@@QAE_NXZ ; MouseHandler::MouseRightClick
  0003f	eb 20		 jmp	 SHORT $LN8@IsClicked

; 176  : 		break;

  00041	eb 1c		 jmp	 SHORT $LN6@IsClicked
$LN3@IsClicked:

; 177  : 	case 3:
; 178  : 		return this->Button3Click();

  00043	8b 4d fc	 mov	 ecx, DWORD PTR _this$[ebp]
  00046	e8 00 00 00 00	 call	 ?Button3Click@MouseHandler@@QAE_NXZ ; MouseHandler::Button3Click
  0004b	eb 14		 jmp	 SHORT $LN8@IsClicked

; 179  : 		break;

  0004d	eb 10		 jmp	 SHORT $LN6@IsClicked
$LN2@IsClicked:

; 180  : 	case 4:
; 181  : 		return this->Button4Click();

  0004f	8b 4d fc	 mov	 ecx, DWORD PTR _this$[ebp]
  00052	e8 00 00 00 00	 call	 ?Button4Click@MouseHandler@@QAE_NXZ ; MouseHandler::Button4Click
  00057	eb 08		 jmp	 SHORT $LN8@IsClicked

; 182  : 		break;

  00059	eb 04		 jmp	 SHORT $LN6@IsClicked
$LN1@IsClicked:

; 183  : 	default:
; 184  : 		return false;

  0005b	32 c0		 xor	 al, al
  0005d	eb 02		 jmp	 SHORT $LN8@IsClicked
$LN6@IsClicked:

; 185  : 		break;
; 186  : 	}
; 187  : 
; 188  : 	return false;

  0005f	32 c0		 xor	 al, al
$LN8@IsClicked:

; 189  : }

  00061	5f		 pop	 edi
  00062	5e		 pop	 esi
  00063	5b		 pop	 ebx
  00064	8b e5		 mov	 esp, ebp
  00066	5d		 pop	 ebp
  00067	c2 04 00	 ret	 4
  0006a	8b ff		 npad	 2
$LN10@IsClicked:
  0006c	00 00 00 00	 DD	 $LN5@IsClicked
  00070	00 00 00 00	 DD	 $LN4@IsClicked
  00074	00 00 00 00	 DD	 $LN3@IsClicked
  00078	00 00 00 00	 DD	 $LN2@IsClicked
?IsClicked@MouseHandler@@QAE_NH@Z ENDP			; MouseHandler::IsClicked
_TEXT	ENDS
PUBLIC	?MouseRightDoubleClick@MouseHandler@@QAE_NH@Z	; MouseHandler::MouseRightDoubleClick
PUBLIC	?MouseLeftDoubleClick@MouseHandler@@QAE_NH@Z	; MouseHandler::MouseLeftDoubleClick
PUBLIC	?IsDoubleClicked@MouseHandler@@QAE_NHH@Z	; MouseHandler::IsDoubleClicked
; Function compile flags: /Odtp /ZI
;	COMDAT ?IsDoubleClicked@MouseHandler@@QAE_NHH@Z
_TEXT	SEGMENT
tv64 = -72						; size = 4
_this$ = -4						; size = 4
_Button$ = 8						; size = 4
_MaximumLag$ = 12					; size = 4
?IsDoubleClicked@MouseHandler@@QAE_NHH@Z PROC		; MouseHandler::IsDoubleClicked, COMDAT
; _this$ = ecx

; 191  : {

  00000	55		 push	 ebp
  00001	8b ec		 mov	 ebp, esp
  00003	83 ec 48	 sub	 esp, 72			; 00000048H
  00006	53		 push	 ebx
  00007	56		 push	 esi
  00008	57		 push	 edi
  00009	89 4d fc	 mov	 DWORD PTR _this$[ebp], ecx

; 192  : 	switch(Button)

  0000c	8b 45 08	 mov	 eax, DWORD PTR _Button$[ebp]
  0000f	89 45 b8	 mov	 DWORD PTR tv64[ebp], eax
  00012	8b 4d b8	 mov	 ecx, DWORD PTR tv64[ebp]
  00015	83 e9 01	 sub	 ecx, 1
  00018	89 4d b8	 mov	 DWORD PTR tv64[ebp], ecx
  0001b	83 7d b8 03	 cmp	 DWORD PTR tv64[ebp], 3
  0001f	77 4a		 ja	 SHORT $LN1@IsDoubleCl
  00021	8b 55 b8	 mov	 edx, DWORD PTR tv64[ebp]
  00024	ff 24 95 00 00
	00 00		 jmp	 DWORD PTR $LN10@IsDoubleCl[edx*4]
$LN5@IsDoubleCl:

; 193  : 	{
; 194  : 	case 1:
; 195  : 		return this->MouseLeftDoubleClick(MaximumLag);

  0002b	8b 45 0c	 mov	 eax, DWORD PTR _MaximumLag$[ebp]
  0002e	50		 push	 eax
  0002f	8b 4d fc	 mov	 ecx, DWORD PTR _this$[ebp]
  00032	e8 00 00 00 00	 call	 ?MouseLeftDoubleClick@MouseHandler@@QAE_NH@Z ; MouseHandler::MouseLeftDoubleClick
  00037	eb 38		 jmp	 SHORT $LN8@IsDoubleCl

; 196  : 		break;

  00039	eb 34		 jmp	 SHORT $LN6@IsDoubleCl
$LN4@IsDoubleCl:

; 197  : 	case 2:
; 198  : 		return this->MouseRightDoubleClick(MaximumLag);

  0003b	8b 45 0c	 mov	 eax, DWORD PTR _MaximumLag$[ebp]
  0003e	50		 push	 eax
  0003f	8b 4d fc	 mov	 ecx, DWORD PTR _this$[ebp]
  00042	e8 00 00 00 00	 call	 ?MouseRightDoubleClick@MouseHandler@@QAE_NH@Z ; MouseHandler::MouseRightDoubleClick
  00047	eb 28		 jmp	 SHORT $LN8@IsDoubleCl

; 199  : 		break;

  00049	eb 24		 jmp	 SHORT $LN6@IsDoubleCl
$LN3@IsDoubleCl:

; 200  : 	case 3:
; 201  : 		return this->Button3DoubleClick(MaximumLag);

  0004b	8b 45 0c	 mov	 eax, DWORD PTR _MaximumLag$[ebp]
  0004e	50		 push	 eax
  0004f	8b 4d fc	 mov	 ecx, DWORD PTR _this$[ebp]
  00052	e8 00 00 00 00	 call	 ?Button3DoubleClick@MouseHandler@@QAE_NH@Z ; MouseHandler::Button3DoubleClick
  00057	eb 18		 jmp	 SHORT $LN8@IsDoubleCl

; 202  : 		break;

  00059	eb 14		 jmp	 SHORT $LN6@IsDoubleCl
$LN2@IsDoubleCl:

; 203  : 	case 4:
; 204  : 		return this->Button4DoubleClick(MaximumLag);

  0005b	8b 45 0c	 mov	 eax, DWORD PTR _MaximumLag$[ebp]
  0005e	50		 push	 eax
  0005f	8b 4d fc	 mov	 ecx, DWORD PTR _this$[ebp]
  00062	e8 00 00 00 00	 call	 ?Button4DoubleClick@MouseHandler@@QAE_NH@Z ; MouseHandler::Button4DoubleClick
  00067	eb 08		 jmp	 SHORT $LN8@IsDoubleCl

; 205  : 		break;

  00069	eb 04		 jmp	 SHORT $LN6@IsDoubleCl
$LN1@IsDoubleCl:

; 206  : 	default:
; 207  : 		return false;

  0006b	32 c0		 xor	 al, al
  0006d	eb 02		 jmp	 SHORT $LN8@IsDoubleCl
$LN6@IsDoubleCl:

; 208  : 		break;
; 209  : 	}
; 210  : 
; 211  : 	return false;

  0006f	32 c0		 xor	 al, al
$LN8@IsDoubleCl:

; 212  : }

  00071	5f		 pop	 edi
  00072	5e		 pop	 esi
  00073	5b		 pop	 ebx
  00074	8b e5		 mov	 esp, ebp
  00076	5d		 pop	 ebp
  00077	c2 08 00	 ret	 8
  0007a	8b ff		 npad	 2
$LN10@IsDoubleCl:
  0007c	00 00 00 00	 DD	 $LN5@IsDoubleCl
  00080	00 00 00 00	 DD	 $LN4@IsDoubleCl
  00084	00 00 00 00	 DD	 $LN3@IsDoubleCl
  00088	00 00 00 00	 DD	 $LN2@IsDoubleCl
?IsDoubleClicked@MouseHandler@@QAE_NHH@Z ENDP		; MouseHandler::IsDoubleClicked
_TEXT	ENDS
PUBLIC	?MouseRightHoldFor@MouseHandler@@QAE_NH@Z	; MouseHandler::MouseRightHoldFor
PUBLIC	?MouseLeftHoldFor@MouseHandler@@QAE_NH@Z	; MouseHandler::MouseLeftHoldFor
PUBLIC	?IsHoldFor@MouseHandler@@QAE_NHH@Z		; MouseHandler::IsHoldFor
; Function compile flags: /Odtp /ZI
;	COMDAT ?IsHoldFor@MouseHandler@@QAE_NHH@Z
_TEXT	SEGMENT
tv64 = -72						; size = 4
_this$ = -4						; size = 4
_Button$ = 8						; size = 4
_Length$ = 12						; size = 4
?IsHoldFor@MouseHandler@@QAE_NHH@Z PROC			; MouseHandler::IsHoldFor, COMDAT
; _this$ = ecx

; 214  : {

  00000	55		 push	 ebp
  00001	8b ec		 mov	 ebp, esp
  00003	83 ec 48	 sub	 esp, 72			; 00000048H
  00006	53		 push	 ebx
  00007	56		 push	 esi
  00008	57		 push	 edi
  00009	89 4d fc	 mov	 DWORD PTR _this$[ebp], ecx

; 215  : 	switch(Button)

  0000c	8b 45 08	 mov	 eax, DWORD PTR _Button$[ebp]
  0000f	89 45 b8	 mov	 DWORD PTR tv64[ebp], eax
  00012	8b 4d b8	 mov	 ecx, DWORD PTR tv64[ebp]
  00015	83 e9 01	 sub	 ecx, 1
  00018	89 4d b8	 mov	 DWORD PTR tv64[ebp], ecx
  0001b	83 7d b8 03	 cmp	 DWORD PTR tv64[ebp], 3
  0001f	77 4a		 ja	 SHORT $LN1@IsHoldFor
  00021	8b 55 b8	 mov	 edx, DWORD PTR tv64[ebp]
  00024	ff 24 95 00 00
	00 00		 jmp	 DWORD PTR $LN10@IsHoldFor[edx*4]
$LN5@IsHoldFor:

; 216  : 	{
; 217  : 	case 1:
; 218  : 		return this->MouseLeftHoldFor(Length);

  0002b	8b 45 0c	 mov	 eax, DWORD PTR _Length$[ebp]
  0002e	50		 push	 eax
  0002f	8b 4d fc	 mov	 ecx, DWORD PTR _this$[ebp]
  00032	e8 00 00 00 00	 call	 ?MouseLeftHoldFor@MouseHandler@@QAE_NH@Z ; MouseHandler::MouseLeftHoldFor
  00037	eb 38		 jmp	 SHORT $LN8@IsHoldFor

; 219  : 		break;

  00039	eb 34		 jmp	 SHORT $LN6@IsHoldFor
$LN4@IsHoldFor:

; 220  : 	case 2:
; 221  : 		return this->MouseRightHoldFor(Length);

  0003b	8b 45 0c	 mov	 eax, DWORD PTR _Length$[ebp]
  0003e	50		 push	 eax
  0003f	8b 4d fc	 mov	 ecx, DWORD PTR _this$[ebp]
  00042	e8 00 00 00 00	 call	 ?MouseRightHoldFor@MouseHandler@@QAE_NH@Z ; MouseHandler::MouseRightHoldFor
  00047	eb 28		 jmp	 SHORT $LN8@IsHoldFor

; 222  : 		break;

  00049	eb 24		 jmp	 SHORT $LN6@IsHoldFor
$LN3@IsHoldFor:

; 223  : 	case 3:
; 224  : 		return this->Button3HoldFor(Length);

  0004b	8b 45 0c	 mov	 eax, DWORD PTR _Length$[ebp]
  0004e	50		 push	 eax
  0004f	8b 4d fc	 mov	 ecx, DWORD PTR _this$[ebp]
  00052	e8 00 00 00 00	 call	 ?Button3HoldFor@MouseHandler@@QAE_NH@Z ; MouseHandler::Button3HoldFor
  00057	eb 18		 jmp	 SHORT $LN8@IsHoldFor

; 225  : 		break;

  00059	eb 14		 jmp	 SHORT $LN6@IsHoldFor
$LN2@IsHoldFor:

; 226  : 	case 4:
; 227  : 		return this->Button4HoldFor(Length);

  0005b	8b 45 0c	 mov	 eax, DWORD PTR _Length$[ebp]
  0005e	50		 push	 eax
  0005f	8b 4d fc	 mov	 ecx, DWORD PTR _this$[ebp]
  00062	e8 00 00 00 00	 call	 ?Button4HoldFor@MouseHandler@@QAE_NH@Z ; MouseHandler::Button4HoldFor
  00067	eb 08		 jmp	 SHORT $LN8@IsHoldFor

; 228  : 		break;

  00069	eb 04		 jmp	 SHORT $LN6@IsHoldFor
$LN1@IsHoldFor:

; 229  : 	default:
; 230  : 		return false;

  0006b	32 c0		 xor	 al, al
  0006d	eb 02		 jmp	 SHORT $LN8@IsHoldFor
$LN6@IsHoldFor:

; 231  : 		break;
; 232  : 	}
; 233  : 
; 234  : 	return false;

  0006f	32 c0		 xor	 al, al
$LN8@IsHoldFor:

; 235  : }

  00071	5f		 pop	 edi
  00072	5e		 pop	 esi
  00073	5b		 pop	 ebx
  00074	8b e5		 mov	 esp, ebp
  00076	5d		 pop	 ebp
  00077	c2 08 00	 ret	 8
  0007a	8b ff		 npad	 2
$LN10@IsHoldFor:
  0007c	00 00 00 00	 DD	 $LN5@IsHoldFor
  00080	00 00 00 00	 DD	 $LN4@IsHoldFor
  00084	00 00 00 00	 DD	 $LN3@IsHoldFor
  00088	00 00 00 00	 DD	 $LN2@IsHoldFor
?IsHoldFor@MouseHandler@@QAE_NHH@Z ENDP			; MouseHandler::IsHoldFor
; Function compile flags: /Odtp /ZI
_TEXT	ENDS
;	COMDAT ?MouseLeftClick@MouseHandler@@QAE_NXZ
_TEXT	SEGMENT
tv72 = -72						; size = 4
_this$ = -4						; size = 4
?MouseLeftClick@MouseHandler@@QAE_NXZ PROC		; MouseHandler::MouseLeftClick, COMDAT
; _this$ = ecx

; 237  : {

  00000	55		 push	 ebp
  00001	8b ec		 mov	 ebp, esp
  00003	83 ec 48	 sub	 esp, 72			; 00000048H
  00006	53		 push	 ebx
  00007	56		 push	 esi
  00008	57		 push	 edi
  00009	89 4d fc	 mov	 DWORD PTR _this$[ebp], ecx

; 238  : 	return (!this->LeftClick[0]&&this->LeftClick[1]);

  0000c	8b 45 fc	 mov	 eax, DWORD PTR _this$[ebp]
  0000f	0f b6 48 02	 movzx	 ecx, BYTE PTR [eax+2]
  00013	85 c9		 test	 ecx, ecx
  00015	75 14		 jne	 SHORT $LN3@MouseLeftC
  00017	8b 55 fc	 mov	 edx, DWORD PTR _this$[ebp]
  0001a	0f b6 42 03	 movzx	 eax, BYTE PTR [edx+3]
  0001e	85 c0		 test	 eax, eax
  00020	74 09		 je	 SHORT $LN3@MouseLeftC
  00022	c7 45 b8 01 00
	00 00		 mov	 DWORD PTR tv72[ebp], 1
  00029	eb 07		 jmp	 SHORT $LN4@MouseLeftC
$LN3@MouseLeftC:
  0002b	c7 45 b8 00 00
	00 00		 mov	 DWORD PTR tv72[ebp], 0
$LN4@MouseLeftC:
  00032	8a 45 b8	 mov	 al, BYTE PTR tv72[ebp]

; 239  : }

  00035	5f		 pop	 edi
  00036	5e		 pop	 esi
  00037	5b		 pop	 ebx
  00038	8b e5		 mov	 esp, ebp
  0003a	5d		 pop	 ebp
  0003b	c3		 ret	 0
?MouseLeftClick@MouseHandler@@QAE_NXZ ENDP		; MouseHandler::MouseLeftClick
; Function compile flags: /Odtp /ZI
_TEXT	ENDS
;	COMDAT ?MouseLeftDoubleClick@MouseHandler@@QAE_NH@Z
_TEXT	SEGMENT
_index2$ = -12						; size = 4
_index$ = -8						; size = 4
_this$ = -4						; size = 4
_MaximumLag$ = 8					; size = 4
?MouseLeftDoubleClick@MouseHandler@@QAE_NH@Z PROC	; MouseHandler::MouseLeftDoubleClick, COMDAT
; _this$ = ecx

; 241  : {

  00000	55		 push	 ebp
  00001	8b ec		 mov	 ebp, esp
  00003	83 ec 4c	 sub	 esp, 76			; 0000004cH
  00006	53		 push	 ebx
  00007	56		 push	 esi
  00008	57		 push	 edi
  00009	89 4d fc	 mov	 DWORD PTR _this$[ebp], ecx

; 242  : 	if(MaximumLag>96)

  0000c	83 7d 08 60	 cmp	 DWORD PTR _MaximumLag$[ebp], 96 ; 00000060H
  00010	7e 07		 jle	 SHORT $LN11@MouseLeftD

; 243  : 		return false;

  00012	32 c0		 xor	 al, al
  00014	e9 9f 00 00 00	 jmp	 $LN12@MouseLeftD
$LN11@MouseLeftD:

; 244  : 
; 245  : 	int index=1;

  00019	c7 45 f8 01 00
	00 00		 mov	 DWORD PTR _index$[ebp], 1

; 246  : 	int index2;
; 247  : 
; 248  : 	if(this->LeftClick[0]||!this->LeftClick[1])

  00020	8b 45 fc	 mov	 eax, DWORD PTR _this$[ebp]
  00023	0f b6 48 02	 movzx	 ecx, BYTE PTR [eax+2]
  00027	85 c9		 test	 ecx, ecx
  00029	75 0b		 jne	 SHORT $LN9@MouseLeftD
  0002b	8b 45 fc	 mov	 eax, DWORD PTR _this$[ebp]
  0002e	0f b6 48 03	 movzx	 ecx, BYTE PTR [eax+3]
  00032	85 c9		 test	 ecx, ecx
  00034	75 04		 jne	 SHORT $LN10@MouseLeftD
$LN9@MouseLeftD:

; 249  : 		return false;

  00036	32 c0		 xor	 al, al
  00038	eb 7e		 jmp	 SHORT $LN12@MouseLeftD
$LN10@MouseLeftD:

; 250  : 
; 251  : 	for(index2=index-1;this->LeftClick[index]&&index-index2<=MaximumLag;index++);

  0003a	8b 45 f8	 mov	 eax, DWORD PTR _index$[ebp]
  0003d	83 e8 01	 sub	 eax, 1
  00040	89 45 f4	 mov	 DWORD PTR _index2$[ebp], eax
  00043	eb 09		 jmp	 SHORT $LN8@MouseLeftD
$LN7@MouseLeftD:
  00045	8b 45 f8	 mov	 eax, DWORD PTR _index$[ebp]
  00048	83 c0 01	 add	 eax, 1
  0004b	89 45 f8	 mov	 DWORD PTR _index$[ebp], eax
$LN8@MouseLeftD:
  0004e	8b 45 fc	 mov	 eax, DWORD PTR _this$[ebp]
  00051	03 45 f8	 add	 eax, DWORD PTR _index$[ebp]
  00054	0f b6 48 02	 movzx	 ecx, BYTE PTR [eax+2]
  00058	85 c9		 test	 ecx, ecx
  0005a	74 0d		 je	 SHORT $LN6@MouseLeftD
  0005c	8b 45 f8	 mov	 eax, DWORD PTR _index$[ebp]
  0005f	2b 45 f4	 sub	 eax, DWORD PTR _index2$[ebp]
  00062	3b 45 08	 cmp	 eax, DWORD PTR _MaximumLag$[ebp]
  00065	7f 02		 jg	 SHORT $LN6@MouseLeftD
  00067	eb dc		 jmp	 SHORT $LN7@MouseLeftD
$LN6@MouseLeftD:

; 252  : 
; 253  : 	if(index-index2>MaximumLag)

  00069	8b 45 f8	 mov	 eax, DWORD PTR _index$[ebp]
  0006c	2b 45 f4	 sub	 eax, DWORD PTR _index2$[ebp]
  0006f	3b 45 08	 cmp	 eax, DWORD PTR _MaximumLag$[ebp]
  00072	7e 04		 jle	 SHORT $LN5@MouseLeftD

; 254  : 		return false;

  00074	32 c0		 xor	 al, al
  00076	eb 40		 jmp	 SHORT $LN12@MouseLeftD
$LN5@MouseLeftD:

; 255  : 
; 256  : 	for(index2=index-1;!this->LeftClick[index]&&index-index2<=MaximumLag;index++);

  00078	8b 45 f8	 mov	 eax, DWORD PTR _index$[ebp]
  0007b	83 e8 01	 sub	 eax, 1
  0007e	89 45 f4	 mov	 DWORD PTR _index2$[ebp], eax
  00081	eb 09		 jmp	 SHORT $LN4@MouseLeftD
$LN3@MouseLeftD:
  00083	8b 45 f8	 mov	 eax, DWORD PTR _index$[ebp]
  00086	83 c0 01	 add	 eax, 1
  00089	89 45 f8	 mov	 DWORD PTR _index$[ebp], eax
$LN4@MouseLeftD:
  0008c	8b 45 fc	 mov	 eax, DWORD PTR _this$[ebp]
  0008f	03 45 f8	 add	 eax, DWORD PTR _index$[ebp]
  00092	0f b6 48 02	 movzx	 ecx, BYTE PTR [eax+2]
  00096	85 c9		 test	 ecx, ecx
  00098	75 0d		 jne	 SHORT $LN2@MouseLeftD
  0009a	8b 45 f8	 mov	 eax, DWORD PTR _index$[ebp]
  0009d	2b 45 f4	 sub	 eax, DWORD PTR _index2$[ebp]
  000a0	3b 45 08	 cmp	 eax, DWORD PTR _MaximumLag$[ebp]
  000a3	7f 02		 jg	 SHORT $LN2@MouseLeftD
  000a5	eb dc		 jmp	 SHORT $LN3@MouseLeftD
$LN2@MouseLeftD:

; 257  : 
; 258  : 	if(index-index2>MaximumLag)

  000a7	8b 45 f8	 mov	 eax, DWORD PTR _index$[ebp]
  000aa	2b 45 f4	 sub	 eax, DWORD PTR _index2$[ebp]
  000ad	3b 45 08	 cmp	 eax, DWORD PTR _MaximumLag$[ebp]
  000b0	7e 04		 jle	 SHORT $LN1@MouseLeftD

; 259  : 		return false;

  000b2	32 c0		 xor	 al, al
  000b4	eb 02		 jmp	 SHORT $LN12@MouseLeftD
$LN1@MouseLeftD:

; 260  : 
; 261  : 	return true;

  000b6	b0 01		 mov	 al, 1
$LN12@MouseLeftD:

; 262  : }

  000b8	5f		 pop	 edi
  000b9	5e		 pop	 esi
  000ba	5b		 pop	 ebx
  000bb	8b e5		 mov	 esp, ebp
  000bd	5d		 pop	 ebp
  000be	c2 04 00	 ret	 4
?MouseLeftDoubleClick@MouseHandler@@QAE_NH@Z ENDP	; MouseHandler::MouseLeftDoubleClick
; Function compile flags: /Odtp /ZI
_TEXT	ENDS
;	COMDAT ?MouseLeftHoldFor@MouseHandler@@QAE_NH@Z
_TEXT	SEGMENT
_i$90971 = -8						; size = 4
_this$ = -4						; size = 4
_length$ = 8						; size = 4
?MouseLeftHoldFor@MouseHandler@@QAE_NH@Z PROC		; MouseHandler::MouseLeftHoldFor, COMDAT
; _this$ = ecx

; 264  : {

  00000	55		 push	 ebp
  00001	8b ec		 mov	 ebp, esp
  00003	83 ec 48	 sub	 esp, 72			; 00000048H
  00006	53		 push	 ebx
  00007	56		 push	 esi
  00008	57		 push	 edi
  00009	89 4d fc	 mov	 DWORD PTR _this$[ebp], ecx

; 265  : 	if(length>100)

  0000c	83 7d 08 64	 cmp	 DWORD PTR _length$[ebp], 100 ; 00000064H
  00010	7e 07		 jle	 SHORT $LN5@MouseLeftH

; 266  : 		length=100;

  00012	c7 45 08 64 00
	00 00		 mov	 DWORD PTR _length$[ebp], 100 ; 00000064H
$LN5@MouseLeftH:

; 267  : 
; 268  : 	for(int i=0;this->LeftClick[i];i++)

  00019	c7 45 f8 00 00
	00 00		 mov	 DWORD PTR _i$90971[ebp], 0
  00020	eb 09		 jmp	 SHORT $LN4@MouseLeftH
$LN3@MouseLeftH:
  00022	8b 45 f8	 mov	 eax, DWORD PTR _i$90971[ebp]
  00025	83 c0 01	 add	 eax, 1
  00028	89 45 f8	 mov	 DWORD PTR _i$90971[ebp], eax
$LN4@MouseLeftH:
  0002b	8b 45 fc	 mov	 eax, DWORD PTR _this$[ebp]
  0002e	03 45 f8	 add	 eax, DWORD PTR _i$90971[ebp]
  00031	0f b6 48 02	 movzx	 ecx, BYTE PTR [eax+2]
  00035	85 c9		 test	 ecx, ecx
  00037	74 11		 je	 SHORT $LN2@MouseLeftH

; 269  : 		if(i==length-1)

  00039	8b 45 08	 mov	 eax, DWORD PTR _length$[ebp]
  0003c	83 e8 01	 sub	 eax, 1
  0003f	39 45 f8	 cmp	 DWORD PTR _i$90971[ebp], eax
  00042	75 04		 jne	 SHORT $LN1@MouseLeftH

; 270  : 			return true;

  00044	b0 01		 mov	 al, 1
  00046	eb 04		 jmp	 SHORT $LN6@MouseLeftH
$LN1@MouseLeftH:

; 271  : 
; 272  : 	return false;

  00048	eb d8		 jmp	 SHORT $LN3@MouseLeftH
$LN2@MouseLeftH:
  0004a	32 c0		 xor	 al, al
$LN6@MouseLeftH:

; 273  : }

  0004c	5f		 pop	 edi
  0004d	5e		 pop	 esi
  0004e	5b		 pop	 ebx
  0004f	8b e5		 mov	 esp, ebp
  00051	5d		 pop	 ebp
  00052	c2 04 00	 ret	 4
?MouseLeftHoldFor@MouseHandler@@QAE_NH@Z ENDP		; MouseHandler::MouseLeftHoldFor
; Function compile flags: /Odtp /ZI
_TEXT	ENDS
;	COMDAT ?MouseRightClick@MouseHandler@@QAE_NXZ
_TEXT	SEGMENT
tv72 = -72						; size = 4
_this$ = -4						; size = 4
?MouseRightClick@MouseHandler@@QAE_NXZ PROC		; MouseHandler::MouseRightClick, COMDAT
; _this$ = ecx

; 275  : {

  00000	55		 push	 ebp
  00001	8b ec		 mov	 ebp, esp
  00003	83 ec 48	 sub	 esp, 72			; 00000048H
  00006	53		 push	 ebx
  00007	56		 push	 esi
  00008	57		 push	 edi
  00009	89 4d fc	 mov	 DWORD PTR _this$[ebp], ecx

; 276  : 	return (!this->RightClick[0]&&this->RightClick[1]);

  0000c	8b 45 fc	 mov	 eax, DWORD PTR _this$[ebp]
  0000f	0f b6 88 2e 01
	00 00		 movzx	 ecx, BYTE PTR [eax+302]
  00016	85 c9		 test	 ecx, ecx
  00018	75 17		 jne	 SHORT $LN3@MouseRight
  0001a	8b 55 fc	 mov	 edx, DWORD PTR _this$[ebp]
  0001d	0f b6 82 2f 01
	00 00		 movzx	 eax, BYTE PTR [edx+303]
  00024	85 c0		 test	 eax, eax
  00026	74 09		 je	 SHORT $LN3@MouseRight
  00028	c7 45 b8 01 00
	00 00		 mov	 DWORD PTR tv72[ebp], 1
  0002f	eb 07		 jmp	 SHORT $LN4@MouseRight
$LN3@MouseRight:
  00031	c7 45 b8 00 00
	00 00		 mov	 DWORD PTR tv72[ebp], 0
$LN4@MouseRight:
  00038	8a 45 b8	 mov	 al, BYTE PTR tv72[ebp]

; 277  : }

  0003b	5f		 pop	 edi
  0003c	5e		 pop	 esi
  0003d	5b		 pop	 ebx
  0003e	8b e5		 mov	 esp, ebp
  00040	5d		 pop	 ebp
  00041	c3		 ret	 0
?MouseRightClick@MouseHandler@@QAE_NXZ ENDP		; MouseHandler::MouseRightClick
; Function compile flags: /Odtp /ZI
_TEXT	ENDS
;	COMDAT ?MouseRightDoubleClick@MouseHandler@@QAE_NH@Z
_TEXT	SEGMENT
_index2$ = -12						; size = 4
_index$ = -8						; size = 4
_this$ = -4						; size = 4
_MaximumLag$ = 8					; size = 4
?MouseRightDoubleClick@MouseHandler@@QAE_NH@Z PROC	; MouseHandler::MouseRightDoubleClick, COMDAT
; _this$ = ecx

; 279  : {

  00000	55		 push	 ebp
  00001	8b ec		 mov	 ebp, esp
  00003	83 ec 4c	 sub	 esp, 76			; 0000004cH
  00006	53		 push	 ebx
  00007	56		 push	 esi
  00008	57		 push	 edi
  00009	89 4d fc	 mov	 DWORD PTR _this$[ebp], ecx

; 280  : 	if(MaximumLag>96)

  0000c	83 7d 08 60	 cmp	 DWORD PTR _MaximumLag$[ebp], 96 ; 00000060H
  00010	7e 07		 jle	 SHORT $LN11@MouseRight@2

; 281  : 		return false;

  00012	32 c0		 xor	 al, al
  00014	e9 ae 00 00 00	 jmp	 $LN12@MouseRight@2
$LN11@MouseRight@2:

; 282  : 
; 283  : 	int index=1;

  00019	c7 45 f8 01 00
	00 00		 mov	 DWORD PTR _index$[ebp], 1

; 284  : 	int index2;
; 285  : 
; 286  : 	if(this->RightClick[0]||!this->RightClick[1])

  00020	8b 45 fc	 mov	 eax, DWORD PTR _this$[ebp]
  00023	0f b6 88 2e 01
	00 00		 movzx	 ecx, BYTE PTR [eax+302]
  0002a	85 c9		 test	 ecx, ecx
  0002c	75 0e		 jne	 SHORT $LN9@MouseRight@2
  0002e	8b 45 fc	 mov	 eax, DWORD PTR _this$[ebp]
  00031	0f b6 88 2f 01
	00 00		 movzx	 ecx, BYTE PTR [eax+303]
  00038	85 c9		 test	 ecx, ecx
  0003a	75 07		 jne	 SHORT $LN10@MouseRight@2
$LN9@MouseRight@2:

; 287  : 		return false;

  0003c	32 c0		 xor	 al, al
  0003e	e9 84 00 00 00	 jmp	 $LN12@MouseRight@2
$LN10@MouseRight@2:

; 288  : 
; 289  : 	for(index2=index-1;this->RightClick[index]&&index-index2<=MaximumLag;index++);

  00043	8b 45 f8	 mov	 eax, DWORD PTR _index$[ebp]
  00046	83 e8 01	 sub	 eax, 1
  00049	89 45 f4	 mov	 DWORD PTR _index2$[ebp], eax
  0004c	eb 09		 jmp	 SHORT $LN8@MouseRight@2
$LN7@MouseRight@2:
  0004e	8b 45 f8	 mov	 eax, DWORD PTR _index$[ebp]
  00051	83 c0 01	 add	 eax, 1
  00054	89 45 f8	 mov	 DWORD PTR _index$[ebp], eax
$LN8@MouseRight@2:
  00057	8b 45 fc	 mov	 eax, DWORD PTR _this$[ebp]
  0005a	03 45 f8	 add	 eax, DWORD PTR _index$[ebp]
  0005d	0f b6 88 2e 01
	00 00		 movzx	 ecx, BYTE PTR [eax+302]
  00064	85 c9		 test	 ecx, ecx
  00066	74 0d		 je	 SHORT $LN6@MouseRight@2
  00068	8b 45 f8	 mov	 eax, DWORD PTR _index$[ebp]
  0006b	2b 45 f4	 sub	 eax, DWORD PTR _index2$[ebp]
  0006e	3b 45 08	 cmp	 eax, DWORD PTR _MaximumLag$[ebp]
  00071	7f 02		 jg	 SHORT $LN6@MouseRight@2
  00073	eb d9		 jmp	 SHORT $LN7@MouseRight@2
$LN6@MouseRight@2:

; 290  : 
; 291  : 	if(index-index2>MaximumLag)

  00075	8b 45 f8	 mov	 eax, DWORD PTR _index$[ebp]
  00078	2b 45 f4	 sub	 eax, DWORD PTR _index2$[ebp]
  0007b	3b 45 08	 cmp	 eax, DWORD PTR _MaximumLag$[ebp]
  0007e	7e 04		 jle	 SHORT $LN5@MouseRight@2

; 292  : 		return false;

  00080	32 c0		 xor	 al, al
  00082	eb 43		 jmp	 SHORT $LN12@MouseRight@2
$LN5@MouseRight@2:

; 293  : 
; 294  : 	for(index2=index-1;!this->RightClick[index]&&index-index2<=MaximumLag;index++);

  00084	8b 45 f8	 mov	 eax, DWORD PTR _index$[ebp]
  00087	83 e8 01	 sub	 eax, 1
  0008a	89 45 f4	 mov	 DWORD PTR _index2$[ebp], eax
  0008d	eb 09		 jmp	 SHORT $LN4@MouseRight@2
$LN3@MouseRight@2:
  0008f	8b 45 f8	 mov	 eax, DWORD PTR _index$[ebp]
  00092	83 c0 01	 add	 eax, 1
  00095	89 45 f8	 mov	 DWORD PTR _index$[ebp], eax
$LN4@MouseRight@2:
  00098	8b 45 fc	 mov	 eax, DWORD PTR _this$[ebp]
  0009b	03 45 f8	 add	 eax, DWORD PTR _index$[ebp]
  0009e	0f b6 88 2e 01
	00 00		 movzx	 ecx, BYTE PTR [eax+302]
  000a5	85 c9		 test	 ecx, ecx
  000a7	75 0d		 jne	 SHORT $LN2@MouseRight@2
  000a9	8b 45 f8	 mov	 eax, DWORD PTR _index$[ebp]
  000ac	2b 45 f4	 sub	 eax, DWORD PTR _index2$[ebp]
  000af	3b 45 08	 cmp	 eax, DWORD PTR _MaximumLag$[ebp]
  000b2	7f 02		 jg	 SHORT $LN2@MouseRight@2
  000b4	eb d9		 jmp	 SHORT $LN3@MouseRight@2
$LN2@MouseRight@2:

; 295  : 
; 296  : 	if(index-index2>MaximumLag)

  000b6	8b 45 f8	 mov	 eax, DWORD PTR _index$[ebp]
  000b9	2b 45 f4	 sub	 eax, DWORD PTR _index2$[ebp]
  000bc	3b 45 08	 cmp	 eax, DWORD PTR _MaximumLag$[ebp]
  000bf	7e 04		 jle	 SHORT $LN1@MouseRight@2

; 297  : 		return false;

  000c1	32 c0		 xor	 al, al
  000c3	eb 02		 jmp	 SHORT $LN12@MouseRight@2
$LN1@MouseRight@2:

; 298  : 
; 299  : 	return true;

  000c5	b0 01		 mov	 al, 1
$LN12@MouseRight@2:

; 300  : }

  000c7	5f		 pop	 edi
  000c8	5e		 pop	 esi
  000c9	5b		 pop	 ebx
  000ca	8b e5		 mov	 esp, ebp
  000cc	5d		 pop	 ebp
  000cd	c2 04 00	 ret	 4
?MouseRightDoubleClick@MouseHandler@@QAE_NH@Z ENDP	; MouseHandler::MouseRightDoubleClick
; Function compile flags: /Odtp /ZI
_TEXT	ENDS
;	COMDAT ?MouseRightHoldFor@MouseHandler@@QAE_NH@Z
_TEXT	SEGMENT
_i$91001 = -8						; size = 4
_this$ = -4						; size = 4
_length$ = 8						; size = 4
?MouseRightHoldFor@MouseHandler@@QAE_NH@Z PROC		; MouseHandler::MouseRightHoldFor, COMDAT
; _this$ = ecx

; 302  : {

  00000	55		 push	 ebp
  00001	8b ec		 mov	 ebp, esp
  00003	83 ec 48	 sub	 esp, 72			; 00000048H
  00006	53		 push	 ebx
  00007	56		 push	 esi
  00008	57		 push	 edi
  00009	89 4d fc	 mov	 DWORD PTR _this$[ebp], ecx

; 303  : 	if(length>100)

  0000c	83 7d 08 64	 cmp	 DWORD PTR _length$[ebp], 100 ; 00000064H
  00010	7e 07		 jle	 SHORT $LN5@MouseRight@3

; 304  : 		length=100;

  00012	c7 45 08 64 00
	00 00		 mov	 DWORD PTR _length$[ebp], 100 ; 00000064H
$LN5@MouseRight@3:

; 305  : 
; 306  : 	for(int i=0;this->RightClick[i];i++)

  00019	c7 45 f8 00 00
	00 00		 mov	 DWORD PTR _i$91001[ebp], 0
  00020	eb 09		 jmp	 SHORT $LN4@MouseRight@3
$LN3@MouseRight@3:
  00022	8b 45 f8	 mov	 eax, DWORD PTR _i$91001[ebp]
  00025	83 c0 01	 add	 eax, 1
  00028	89 45 f8	 mov	 DWORD PTR _i$91001[ebp], eax
$LN4@MouseRight@3:
  0002b	8b 45 fc	 mov	 eax, DWORD PTR _this$[ebp]
  0002e	03 45 f8	 add	 eax, DWORD PTR _i$91001[ebp]
  00031	0f b6 88 2e 01
	00 00		 movzx	 ecx, BYTE PTR [eax+302]
  00038	85 c9		 test	 ecx, ecx
  0003a	74 11		 je	 SHORT $LN2@MouseRight@3

; 307  : 		if(i==length-1)

  0003c	8b 45 08	 mov	 eax, DWORD PTR _length$[ebp]
  0003f	83 e8 01	 sub	 eax, 1
  00042	39 45 f8	 cmp	 DWORD PTR _i$91001[ebp], eax
  00045	75 04		 jne	 SHORT $LN1@MouseRight@3

; 308  : 			return true;

  00047	b0 01		 mov	 al, 1
  00049	eb 04		 jmp	 SHORT $LN6@MouseRight@3
$LN1@MouseRight@3:

; 309  : 
; 310  : 	return false;

  0004b	eb d5		 jmp	 SHORT $LN3@MouseRight@3
$LN2@MouseRight@3:
  0004d	32 c0		 xor	 al, al
$LN6@MouseRight@3:

; 311  : }

  0004f	5f		 pop	 edi
  00050	5e		 pop	 esi
  00051	5b		 pop	 ebx
  00052	8b e5		 mov	 esp, ebp
  00054	5d		 pop	 ebp
  00055	c2 04 00	 ret	 4
?MouseRightHoldFor@MouseHandler@@QAE_NH@Z ENDP		; MouseHandler::MouseRightHoldFor
_TEXT	ENDS
PUBLIC	?GetCursorName@MouseHandler@@QAEPADXZ		; MouseHandler::GetCursorName
; Function compile flags: /Odtp /ZI
;	COMDAT ?GetCursorName@MouseHandler@@QAEPADXZ
_TEXT	SEGMENT
_this$ = -4						; size = 4
?GetCursorName@MouseHandler@@QAEPADXZ PROC		; MouseHandler::GetCursorName, COMDAT
; _this$ = ecx

; 313  : {

  00000	55		 push	 ebp
  00001	8b ec		 mov	 ebp, esp
  00003	83 ec 44	 sub	 esp, 68			; 00000044H
  00006	53		 push	 ebx
  00007	56		 push	 esi
  00008	57		 push	 edi
  00009	89 4d fc	 mov	 DWORD PTR _this$[ebp], ecx

; 314  : 	return this->CursorName;

  0000c	8b 45 fc	 mov	 eax, DWORD PTR _this$[ebp]
  0000f	8b 80 94 01 00
	00		 mov	 eax, DWORD PTR [eax+404]

; 315  : }

  00015	5f		 pop	 edi
  00016	5e		 pop	 esi
  00017	5b		 pop	 ebx
  00018	8b e5		 mov	 esp, ebp
  0001a	5d		 pop	 ebp
  0001b	c3		 ret	 0
?GetCursorName@MouseHandler@@QAEPADXZ ENDP		; MouseHandler::GetCursorName
_TEXT	ENDS
PUBLIC	??_C@_0BF@KEPEKHJ@Mouse?5Button?54?5Click?$AA@	; `string'
PUBLIC	??_C@_0BF@IKEDGA@Mouse?5Button?53?5Click?$AA@	; `string'
PUBLIC	??_C@_0M@BDGMFCOP@Right?5Click?$AA@		; `string'
PUBLIC	??_C@_0L@OIICMJMF@Left?5Click?$AA@		; `string'
PUBLIC	?GetFirstClick$@MouseHandler@@QAEPADXZ		; MouseHandler::GetFirstClick$
;	COMDAT ??_C@_0BF@KEPEKHJ@Mouse?5Button?54?5Click?$AA@
CONST	SEGMENT
??_C@_0BF@KEPEKHJ@Mouse?5Button?54?5Click?$AA@ DB 'Mouse Button 4 Click', 00H ; `string'
CONST	ENDS
;	COMDAT ??_C@_0BF@IKEDGA@Mouse?5Button?53?5Click?$AA@
CONST	SEGMENT
??_C@_0BF@IKEDGA@Mouse?5Button?53?5Click?$AA@ DB 'Mouse Button 3 Click', 00H ; `string'
CONST	ENDS
;	COMDAT ??_C@_0M@BDGMFCOP@Right?5Click?$AA@
CONST	SEGMENT
??_C@_0M@BDGMFCOP@Right?5Click?$AA@ DB 'Right Click', 00H ; `string'
CONST	ENDS
;	COMDAT ??_C@_0L@OIICMJMF@Left?5Click?$AA@
CONST	SEGMENT
??_C@_0L@OIICMJMF@Left?5Click?$AA@ DB 'Left Click', 00H	; `string'
; Function compile flags: /Odtp /ZI
CONST	ENDS
;	COMDAT ?GetFirstClick$@MouseHandler@@QAEPADXZ
_TEXT	SEGMENT
_this$ = -4						; size = 4
?GetFirstClick$@MouseHandler@@QAEPADXZ PROC		; MouseHandler::GetFirstClick$, COMDAT
; _this$ = ecx

; 317  : {

  00000	55		 push	 ebp
  00001	8b ec		 mov	 ebp, esp
  00003	83 ec 44	 sub	 esp, 68			; 00000044H
  00006	53		 push	 ebx
  00007	56		 push	 esi
  00008	57		 push	 edi
  00009	89 4d fc	 mov	 DWORD PTR _this$[ebp], ecx

; 318  : 	if(this->MouseLeftClick())

  0000c	8b 4d fc	 mov	 ecx, DWORD PTR _this$[ebp]
  0000f	e8 00 00 00 00	 call	 ?MouseLeftClick@MouseHandler@@QAE_NXZ ; MouseHandler::MouseLeftClick
  00014	0f b6 c0	 movzx	 eax, al
  00017	85 c0		 test	 eax, eax
  00019	74 09		 je	 SHORT $LN8@GetFirstCl

; 319  : 		return "Left Click";

  0001b	b8 00 00 00 00	 mov	 eax, OFFSET ??_C@_0L@OIICMJMF@Left?5Click?$AA@
  00020	eb 4f		 jmp	 SHORT $LN9@GetFirstCl
  00022	eb 4d		 jmp	 SHORT $LN9@GetFirstCl
$LN8@GetFirstCl:

; 320  : 	else if(this->MouseRightClick())

  00024	8b 4d fc	 mov	 ecx, DWORD PTR _this$[ebp]
  00027	e8 00 00 00 00	 call	 ?MouseRightClick@MouseHandler@@QAE_NXZ ; MouseHandler::MouseRightClick
  0002c	0f b6 c0	 movzx	 eax, al
  0002f	85 c0		 test	 eax, eax
  00031	74 09		 je	 SHORT $LN6@GetFirstCl

; 321  : 		return "Right Click";

  00033	b8 00 00 00 00	 mov	 eax, OFFSET ??_C@_0M@BDGMFCOP@Right?5Click?$AA@
  00038	eb 37		 jmp	 SHORT $LN9@GetFirstCl
  0003a	eb 35		 jmp	 SHORT $LN9@GetFirstCl
$LN6@GetFirstCl:

; 322  : 	else if(this->Button3Click())

  0003c	8b 4d fc	 mov	 ecx, DWORD PTR _this$[ebp]
  0003f	e8 00 00 00 00	 call	 ?Button3Click@MouseHandler@@QAE_NXZ ; MouseHandler::Button3Click
  00044	0f b6 c0	 movzx	 eax, al
  00047	85 c0		 test	 eax, eax
  00049	74 09		 je	 SHORT $LN4@GetFirstCl

; 323  : 		return "Mouse Button 3 Click";

  0004b	b8 00 00 00 00	 mov	 eax, OFFSET ??_C@_0BF@IKEDGA@Mouse?5Button?53?5Click?$AA@
  00050	eb 1f		 jmp	 SHORT $LN9@GetFirstCl
  00052	eb 1d		 jmp	 SHORT $LN9@GetFirstCl
$LN4@GetFirstCl:

; 324  : 	else if(this->Button4Click())

  00054	8b 4d fc	 mov	 ecx, DWORD PTR _this$[ebp]
  00057	e8 00 00 00 00	 call	 ?Button4Click@MouseHandler@@QAE_NXZ ; MouseHandler::Button4Click
  0005c	0f b6 c0	 movzx	 eax, al
  0005f	85 c0		 test	 eax, eax
  00061	74 09		 je	 SHORT $LN2@GetFirstCl

; 325  : 		return "Mouse Button 4 Click";

  00063	b8 00 00 00 00	 mov	 eax, OFFSET ??_C@_0BF@KEPEKHJ@Mouse?5Button?54?5Click?$AA@
  00068	eb 07		 jmp	 SHORT $LN9@GetFirstCl

; 326  : 	else

  0006a	eb 05		 jmp	 SHORT $LN9@GetFirstCl
$LN2@GetFirstCl:

; 327  : 		return "";

  0006c	b8 00 00 00 00	 mov	 eax, OFFSET ??_C@_00CNPNBAHC@?$AA@
$LN9@GetFirstCl:

; 328  : }

  00071	5f		 pop	 edi
  00072	5e		 pop	 esi
  00073	5b		 pop	 ebx
  00074	8b e5		 mov	 esp, ebp
  00076	5d		 pop	 ebp
  00077	c3		 ret	 0
?GetFirstClick$@MouseHandler@@QAEPADXZ ENDP		; MouseHandler::GetFirstClick$
_TEXT	ENDS
PUBLIC	?GetMultiplier@MouseHandler@@QAEMXZ		; MouseHandler::GetMultiplier
; Function compile flags: /Odtp /ZI
;	COMDAT ?GetMultiplier@MouseHandler@@QAEMXZ
_TEXT	SEGMENT
_this$ = -4						; size = 4
?GetMultiplier@MouseHandler@@QAEMXZ PROC		; MouseHandler::GetMultiplier, COMDAT
; _this$ = ecx

; 330  : {

  00000	55		 push	 ebp
  00001	8b ec		 mov	 ebp, esp
  00003	83 ec 44	 sub	 esp, 68			; 00000044H
  00006	53		 push	 ebx
  00007	56		 push	 esi
  00008	57		 push	 edi
  00009	89 4d fc	 mov	 DWORD PTR _this$[ebp], ecx

; 331  : 	return this->Multiplier;

  0000c	8b 45 fc	 mov	 eax, DWORD PTR _this$[ebp]
  0000f	d9 80 98 01 00
	00		 fld	 DWORD PTR [eax+408]

; 332  : }

  00015	5f		 pop	 edi
  00016	5e		 pop	 esi
  00017	5b		 pop	 ebx
  00018	8b e5		 mov	 esp, ebp
  0001a	5d		 pop	 ebp
  0001b	c3		 ret	 0
?GetMultiplier@MouseHandler@@QAEMXZ ENDP		; MouseHandler::GetMultiplier
_TEXT	ENDS
PUBLIC	?GetCursorHeight@MouseHandler@@QAEHXZ		; MouseHandler::GetCursorHeight
; Function compile flags: /Odtp /ZI
;	COMDAT ?GetCursorHeight@MouseHandler@@QAEHXZ
_TEXT	SEGMENT
_this$ = -4						; size = 4
?GetCursorHeight@MouseHandler@@QAEHXZ PROC		; MouseHandler::GetCursorHeight, COMDAT
; _this$ = ecx

; 334  : {

  00000	55		 push	 ebp
  00001	8b ec		 mov	 ebp, esp
  00003	83 ec 44	 sub	 esp, 68			; 00000044H
  00006	53		 push	 ebx
  00007	56		 push	 esi
  00008	57		 push	 edi
  00009	89 4d fc	 mov	 DWORD PTR _this$[ebp], ecx

; 335  : 	return this->CursorHeight;

  0000c	8b 45 fc	 mov	 eax, DWORD PTR _this$[ebp]
  0000f	8b 80 9c 01 00
	00		 mov	 eax, DWORD PTR [eax+412]

; 336  : }

  00015	5f		 pop	 edi
  00016	5e		 pop	 esi
  00017	5b		 pop	 ebx
  00018	8b e5		 mov	 esp, ebp
  0001a	5d		 pop	 ebp
  0001b	c3		 ret	 0
?GetCursorHeight@MouseHandler@@QAEHXZ ENDP		; MouseHandler::GetCursorHeight
_TEXT	ENDS
PUBLIC	?GetCursorImage@MouseHandler@@QAEHXZ		; MouseHandler::GetCursorImage
; Function compile flags: /Odtp /ZI
;	COMDAT ?GetCursorImage@MouseHandler@@QAEHXZ
_TEXT	SEGMENT
_this$ = -4						; size = 4
?GetCursorImage@MouseHandler@@QAEHXZ PROC		; MouseHandler::GetCursorImage, COMDAT
; _this$ = ecx

; 338  : {

  00000	55		 push	 ebp
  00001	8b ec		 mov	 ebp, esp
  00003	83 ec 44	 sub	 esp, 68			; 00000044H
  00006	53		 push	 ebx
  00007	56		 push	 esi
  00008	57		 push	 edi
  00009	89 4d fc	 mov	 DWORD PTR _this$[ebp], ecx

; 339  : 	return this->CursorImage;

  0000c	8b 45 fc	 mov	 eax, DWORD PTR _this$[ebp]
  0000f	8b 80 a0 01 00
	00		 mov	 eax, DWORD PTR [eax+416]

; 340  : }

  00015	5f		 pop	 edi
  00016	5e		 pop	 esi
  00017	5b		 pop	 ebx
  00018	8b e5		 mov	 esp, ebp
  0001a	5d		 pop	 ebp
  0001b	c3		 ret	 0
?GetCursorImage@MouseHandler@@QAEHXZ ENDP		; MouseHandler::GetCursorImage
_TEXT	ENDS
PUBLIC	?GetCursorWidth@MouseHandler@@QAEHXZ		; MouseHandler::GetCursorWidth
; Function compile flags: /Odtp /ZI
;	COMDAT ?GetCursorWidth@MouseHandler@@QAEHXZ
_TEXT	SEGMENT
_this$ = -4						; size = 4
?GetCursorWidth@MouseHandler@@QAEHXZ PROC		; MouseHandler::GetCursorWidth, COMDAT
; _this$ = ecx

; 342  : {

  00000	55		 push	 ebp
  00001	8b ec		 mov	 ebp, esp
  00003	83 ec 44	 sub	 esp, 68			; 00000044H
  00006	53		 push	 ebx
  00007	56		 push	 esi
  00008	57		 push	 edi
  00009	89 4d fc	 mov	 DWORD PTR _this$[ebp], ecx

; 343  : 	return this->CursorWidth;

  0000c	8b 45 fc	 mov	 eax, DWORD PTR _this$[ebp]
  0000f	8b 80 a4 01 00
	00		 mov	 eax, DWORD PTR [eax+420]

; 344  : }

  00015	5f		 pop	 edi
  00016	5e		 pop	 esi
  00017	5b		 pop	 ebx
  00018	8b e5		 mov	 esp, ebp
  0001a	5d		 pop	 ebp
  0001b	c3		 ret	 0
?GetCursorWidth@MouseHandler@@QAEHXZ ENDP		; MouseHandler::GetCursorWidth
_TEXT	ENDS
PUBLIC	?GetFirstClick@MouseHandler@@QAEHXZ		; MouseHandler::GetFirstClick
; Function compile flags: /Odtp /ZI
;	COMDAT ?GetFirstClick@MouseHandler@@QAEHXZ
_TEXT	SEGMENT
_this$ = -4						; size = 4
?GetFirstClick@MouseHandler@@QAEHXZ PROC		; MouseHandler::GetFirstClick, COMDAT
; _this$ = ecx

; 346  : {

  00000	55		 push	 ebp
  00001	8b ec		 mov	 ebp, esp
  00003	83 ec 44	 sub	 esp, 68			; 00000044H
  00006	53		 push	 ebx
  00007	56		 push	 esi
  00008	57		 push	 edi
  00009	89 4d fc	 mov	 DWORD PTR _this$[ebp], ecx

; 347  : 	if(this->MouseLeftClick())

  0000c	8b 4d fc	 mov	 ecx, DWORD PTR _this$[ebp]
  0000f	e8 00 00 00 00	 call	 ?MouseLeftClick@MouseHandler@@QAE_NXZ ; MouseHandler::MouseLeftClick
  00014	0f b6 c0	 movzx	 eax, al
  00017	85 c0		 test	 eax, eax
  00019	74 09		 je	 SHORT $LN8@GetFirstCl@2

; 348  : 		return 1;

  0001b	b8 01 00 00 00	 mov	 eax, 1
  00020	eb 4d		 jmp	 SHORT $LN9@GetFirstCl@2
  00022	eb 4b		 jmp	 SHORT $LN9@GetFirstCl@2
$LN8@GetFirstCl@2:

; 349  : 	else if(this->MouseRightClick())

  00024	8b 4d fc	 mov	 ecx, DWORD PTR _this$[ebp]
  00027	e8 00 00 00 00	 call	 ?MouseRightClick@MouseHandler@@QAE_NXZ ; MouseHandler::MouseRightClick
  0002c	0f b6 c0	 movzx	 eax, al
  0002f	85 c0		 test	 eax, eax
  00031	74 09		 je	 SHORT $LN6@GetFirstCl@2

; 350  : 		return 2;

  00033	b8 02 00 00 00	 mov	 eax, 2
  00038	eb 35		 jmp	 SHORT $LN9@GetFirstCl@2
  0003a	eb 33		 jmp	 SHORT $LN9@GetFirstCl@2
$LN6@GetFirstCl@2:

; 351  : 	else if(this->Button3Click())

  0003c	8b 4d fc	 mov	 ecx, DWORD PTR _this$[ebp]
  0003f	e8 00 00 00 00	 call	 ?Button3Click@MouseHandler@@QAE_NXZ ; MouseHandler::Button3Click
  00044	0f b6 c0	 movzx	 eax, al
  00047	85 c0		 test	 eax, eax
  00049	74 09		 je	 SHORT $LN4@GetFirstCl@2

; 352  : 		return 3;

  0004b	b8 03 00 00 00	 mov	 eax, 3
  00050	eb 1d		 jmp	 SHORT $LN9@GetFirstCl@2
  00052	eb 1b		 jmp	 SHORT $LN9@GetFirstCl@2
$LN4@GetFirstCl@2:

; 353  : 	else if(this->Button4Click())

  00054	8b 4d fc	 mov	 ecx, DWORD PTR _this$[ebp]
  00057	e8 00 00 00 00	 call	 ?Button4Click@MouseHandler@@QAE_NXZ ; MouseHandler::Button4Click
  0005c	0f b6 c0	 movzx	 eax, al
  0005f	85 c0		 test	 eax, eax
  00061	74 09		 je	 SHORT $LN2@GetFirstCl@2

; 354  : 		return 4;

  00063	b8 04 00 00 00	 mov	 eax, 4
  00068	eb 05		 jmp	 SHORT $LN9@GetFirstCl@2

; 355  : 	else

  0006a	eb 03		 jmp	 SHORT $LN9@GetFirstCl@2
$LN2@GetFirstCl@2:

; 356  : 		return -1;

  0006c	83 c8 ff	 or	 eax, -1
$LN9@GetFirstCl@2:

; 357  : }

  0006f	5f		 pop	 edi
  00070	5e		 pop	 esi
  00071	5b		 pop	 ebx
  00072	8b e5		 mov	 esp, ebp
  00074	5d		 pop	 ebp
  00075	c3		 ret	 0
?GetFirstClick@MouseHandler@@QAEHXZ ENDP		; MouseHandler::GetFirstClick
_TEXT	ENDS
PUBLIC	?MouseXPos@MouseHandler@@QAEHXZ			; MouseHandler::MouseXPos
; Function compile flags: /Odtp /ZI
;	COMDAT ?MouseXPos@MouseHandler@@QAEHXZ
_TEXT	SEGMENT
_this$ = -4						; size = 4
?MouseXPos@MouseHandler@@QAEHXZ PROC			; MouseHandler::MouseXPos, COMDAT
; _this$ = ecx

; 359  : {

  00000	55		 push	 ebp
  00001	8b ec		 mov	 ebp, esp
  00003	83 ec 44	 sub	 esp, 68			; 00000044H
  00006	53		 push	 ebx
  00007	56		 push	 esi
  00008	57		 push	 edi
  00009	89 4d fc	 mov	 DWORD PTR _this$[ebp], ecx

; 360  : 	return this->MousePosX[0];

  0000c	8b 45 fc	 mov	 eax, DWORD PTR _this$[ebp]
  0000f	8b 80 a8 01 00
	00		 mov	 eax, DWORD PTR [eax+424]

; 361  : }

  00015	5f		 pop	 edi
  00016	5e		 pop	 esi
  00017	5b		 pop	 ebx
  00018	8b e5		 mov	 esp, ebp
  0001a	5d		 pop	 ebp
  0001b	c3		 ret	 0
?MouseXPos@MouseHandler@@QAEHXZ ENDP			; MouseHandler::MouseXPos
_TEXT	ENDS
PUBLIC	?MouseYPos@MouseHandler@@QAEHXZ			; MouseHandler::MouseYPos
; Function compile flags: /Odtp /ZI
;	COMDAT ?MouseYPos@MouseHandler@@QAEHXZ
_TEXT	SEGMENT
_this$ = -4						; size = 4
?MouseYPos@MouseHandler@@QAEHXZ PROC			; MouseHandler::MouseYPos, COMDAT
; _this$ = ecx

; 363  : {

  00000	55		 push	 ebp
  00001	8b ec		 mov	 ebp, esp
  00003	83 ec 44	 sub	 esp, 68			; 00000044H
  00006	53		 push	 ebx
  00007	56		 push	 esi
  00008	57		 push	 edi
  00009	89 4d fc	 mov	 DWORD PTR _this$[ebp], ecx

; 364  : 	return this->MousePosY[0];

  0000c	8b 45 fc	 mov	 eax, DWORD PTR _this$[ebp]
  0000f	8b 80 d0 01 00
	00		 mov	 eax, DWORD PTR [eax+464]

; 365  : }

  00015	5f		 pop	 edi
  00016	5e		 pop	 esi
  00017	5b		 pop	 ebx
  00018	8b e5		 mov	 esp, ebp
  0001a	5d		 pop	 ebp
  0001b	c3		 ret	 0
?MouseYPos@MouseHandler@@QAEHXZ ENDP			; MouseHandler::MouseYPos
_TEXT	ENDS
PUBLIC	?MouseZPos@MouseHandler@@QAEHXZ			; MouseHandler::MouseZPos
; Function compile flags: /Odtp /ZI
;	COMDAT ?MouseZPos@MouseHandler@@QAEHXZ
_TEXT	SEGMENT
_this$ = -4						; size = 4
?MouseZPos@MouseHandler@@QAEHXZ PROC			; MouseHandler::MouseZPos, COMDAT
; _this$ = ecx

; 367  : {

  00000	55		 push	 ebp
  00001	8b ec		 mov	 ebp, esp
  00003	83 ec 44	 sub	 esp, 68			; 00000044H
  00006	53		 push	 ebx
  00007	56		 push	 esi
  00008	57		 push	 edi
  00009	89 4d fc	 mov	 DWORD PTR _this$[ebp], ecx

; 368  : 	return this->MousePosZ[0];

  0000c	8b 45 fc	 mov	 eax, DWORD PTR _this$[ebp]
  0000f	8b 80 f8 01 00
	00		 mov	 eax, DWORD PTR [eax+504]

; 369  : }

  00015	5f		 pop	 edi
  00016	5e		 pop	 esi
  00017	5b		 pop	 ebx
  00018	8b e5		 mov	 esp, ebp
  0001a	5d		 pop	 ebp
  0001b	c3		 ret	 0
?MouseZPos@MouseHandler@@QAEHXZ ENDP			; MouseHandler::MouseZPos
_TEXT	ENDS
PUBLIC	?SetMouseView@MouseHandler@@QAEX_N@Z		; MouseHandler::SetMouseView
PUBLIC	?SetCursorPosition@MouseHandler@@QAEXHHH@Z	; MouseHandler::SetCursorPosition
PUBLIC	?ApplyToApp@MouseHandler@@QAEXXZ		; MouseHandler::ApplyToApp
; Function compile flags: /Odtp /ZI
;	COMDAT ?ApplyToApp@MouseHandler@@QAEXXZ
_TEXT	SEGMENT
_this$ = -4						; size = 4
?ApplyToApp@MouseHandler@@QAEXXZ PROC			; MouseHandler::ApplyToApp, COMDAT
; _this$ = ecx

; 371  : {

  00000	55		 push	 ebp
  00001	8b ec		 mov	 ebp, esp
  00003	83 ec 44	 sub	 esp, 68			; 00000044H
  00006	53		 push	 ebx
  00007	56		 push	 esi
  00008	57		 push	 edi
  00009	89 4d fc	 mov	 DWORD PTR _this$[ebp], ecx

; 372  : 	this->SetCursorPosition(this->MousePosX[0],this->MousePosY[0],this->MousePosX[0]);

  0000c	8b 45 fc	 mov	 eax, DWORD PTR _this$[ebp]
  0000f	8b 88 a8 01 00
	00		 mov	 ecx, DWORD PTR [eax+424]
  00015	51		 push	 ecx
  00016	8b 55 fc	 mov	 edx, DWORD PTR _this$[ebp]
  00019	8b 82 d0 01 00
	00		 mov	 eax, DWORD PTR [edx+464]
  0001f	50		 push	 eax
  00020	8b 4d fc	 mov	 ecx, DWORD PTR _this$[ebp]
  00023	8b 91 a8 01 00
	00		 mov	 edx, DWORD PTR [ecx+424]
  00029	52		 push	 edx
  0002a	8b 4d fc	 mov	 ecx, DWORD PTR _this$[ebp]
  0002d	e8 00 00 00 00	 call	 ?SetCursorPosition@MouseHandler@@QAEXHHH@Z ; MouseHandler::SetCursorPosition

; 373  : 	this->SetMouseView(this->ShowMouse);

  00032	8b 45 fc	 mov	 eax, DWORD PTR _this$[ebp]
  00035	0f b6 48 01	 movzx	 ecx, BYTE PTR [eax+1]
  00039	51		 push	 ecx
  0003a	8b 4d fc	 mov	 ecx, DWORD PTR _this$[ebp]
  0003d	e8 00 00 00 00	 call	 ?SetMouseView@MouseHandler@@QAEX_N@Z ; MouseHandler::SetMouseView

; 374  : 
; 375  : 	return;
; 376  : }

  00042	5f		 pop	 edi
  00043	5e		 pop	 esi
  00044	5b		 pop	 ebx
  00045	8b e5		 mov	 esp, ebp
  00047	5d		 pop	 ebp
  00048	c3		 ret	 0
?ApplyToApp@MouseHandler@@QAEXXZ ENDP			; MouseHandler::ApplyToApp
_TEXT	ENDS
PUBLIC	?MoveMouse@MouseHandler@@QAEXHHH@Z		; MouseHandler::MoveMouse
EXTRN	?dbPositionMouse@@YAXHH@Z:PROC			; dbPositionMouse
; Function compile flags: /Odtp /ZI
;	COMDAT ?MoveMouse@MouseHandler@@QAEXHHH@Z
_TEXT	SEGMENT
_this$ = -4						; size = 4
_X$ = 8							; size = 4
_Y$ = 12						; size = 4
_Z$ = 16						; size = 4
?MoveMouse@MouseHandler@@QAEXHHH@Z PROC			; MouseHandler::MoveMouse, COMDAT
; _this$ = ecx

; 378  : {

  00000	55		 push	 ebp
  00001	8b ec		 mov	 ebp, esp
  00003	83 ec 44	 sub	 esp, 68			; 00000044H
  00006	53		 push	 ebx
  00007	56		 push	 esi
  00008	57		 push	 edi
  00009	89 4d fc	 mov	 DWORD PTR _this$[ebp], ecx

; 379  : 	if(this->CursorName!="")

  0000c	8b 45 fc	 mov	 eax, DWORD PTR _this$[ebp]
  0000f	81 b8 94 01 00
	00 00 00 00 00	 cmp	 DWORD PTR [eax+404], OFFSET ??_C@_00CNPNBAHC@?$AA@
  00019	74 65		 je	 SHORT $LN3@MoveMouse

; 380  : 	{
; 381  : 		this->MousePosX[0]+=X;

  0001b	8b 45 fc	 mov	 eax, DWORD PTR _this$[ebp]
  0001e	8b 88 a8 01 00
	00		 mov	 ecx, DWORD PTR [eax+424]
  00024	03 4d 08	 add	 ecx, DWORD PTR _X$[ebp]
  00027	8b 55 fc	 mov	 edx, DWORD PTR _this$[ebp]
  0002a	89 8a a8 01 00
	00		 mov	 DWORD PTR [edx+424], ecx

; 382  : 		this->MousePosY[0]+=Y;

  00030	8b 45 fc	 mov	 eax, DWORD PTR _this$[ebp]
  00033	8b 88 d0 01 00
	00		 mov	 ecx, DWORD PTR [eax+464]
  00039	03 4d 0c	 add	 ecx, DWORD PTR _Y$[ebp]
  0003c	8b 55 fc	 mov	 edx, DWORD PTR _this$[ebp]
  0003f	89 8a d0 01 00
	00		 mov	 DWORD PTR [edx+464], ecx

; 383  : 		this->MousePosZ[0]+=Z;

  00045	8b 45 fc	 mov	 eax, DWORD PTR _this$[ebp]
  00048	8b 88 f8 01 00
	00		 mov	 ecx, DWORD PTR [eax+504]
  0004e	03 4d 10	 add	 ecx, DWORD PTR _Z$[ebp]
  00051	8b 55 fc	 mov	 edx, DWORD PTR _this$[ebp]
  00054	89 8a f8 01 00
	00		 mov	 DWORD PTR [edx+504], ecx

; 384  : 
; 385  : 		if(this->BindMouseToPosition)

  0005a	8b 45 fc	 mov	 eax, DWORD PTR _this$[ebp]
  0005d	0f b6 08	 movzx	 ecx, BYTE PTR [eax]
  00060	85 c9		 test	 ecx, ecx
  00062	74 1c		 je	 SHORT $LN3@MoveMouse

; 386  : 			dbPositionMouse(this->MousePosX[0],this->MousePosY[0]);

  00064	8b 45 fc	 mov	 eax, DWORD PTR _this$[ebp]
  00067	8b 88 d0 01 00
	00		 mov	 ecx, DWORD PTR [eax+464]
  0006d	51		 push	 ecx
  0006e	8b 55 fc	 mov	 edx, DWORD PTR _this$[ebp]
  00071	8b 82 a8 01 00
	00		 mov	 eax, DWORD PTR [edx+424]
  00077	50		 push	 eax
  00078	e8 00 00 00 00	 call	 ?dbPositionMouse@@YAXHH@Z ; dbPositionMouse
  0007d	83 c4 08	 add	 esp, 8
$LN3@MoveMouse:

; 387  : 	}
; 388  : 
; 389  : 	return;
; 390  : }

  00080	5f		 pop	 edi
  00081	5e		 pop	 esi
  00082	5b		 pop	 ebx
  00083	8b e5		 mov	 esp, ebp
  00085	5d		 pop	 ebp
  00086	c2 0c 00	 ret	 12			; 0000000cH
?MoveMouse@MouseHandler@@QAEXHHH@Z ENDP			; MouseHandler::MoveMouse
_TEXT	ENDS
PUBLIC	?SetCursorFile@MouseHandler@@QAEXPAD@Z		; MouseHandler::SetCursorFile
; Function compile flags: /Odtp /ZI
;	COMDAT ?SetCursorFile@MouseHandler@@QAEXPAD@Z
_TEXT	SEGMENT
_this$ = -4						; size = 4
_name$ = 8						; size = 4
?SetCursorFile@MouseHandler@@QAEXPAD@Z PROC		; MouseHandler::SetCursorFile, COMDAT
; _this$ = ecx

; 392  : {

  00000	55		 push	 ebp
  00001	8b ec		 mov	 ebp, esp
  00003	83 ec 44	 sub	 esp, 68			; 00000044H
  00006	53		 push	 ebx
  00007	56		 push	 esi
  00008	57		 push	 edi
  00009	89 4d fc	 mov	 DWORD PTR _this$[ebp], ecx

; 393  : 	if(dbFileExist(name)==1)

  0000c	8b 45 08	 mov	 eax, DWORD PTR _name$[ebp]
  0000f	50		 push	 eax
  00010	e8 00 00 00 00	 call	 ?dbFileExist@@YAHPAD@Z	; dbFileExist
  00015	83 c4 04	 add	 esp, 4
  00018	83 f8 01	 cmp	 eax, 1
  0001b	75 7e		 jne	 SHORT $LN3@SetCursorF

; 394  : 	{
; 395  : 		this->CursorName=name;

  0001d	8b 45 fc	 mov	 eax, DWORD PTR _this$[ebp]
  00020	8b 4d 08	 mov	 ecx, DWORD PTR _name$[ebp]
  00023	89 88 94 01 00
	00		 mov	 DWORD PTR [eax+404], ecx

; 396  : 
; 397  : 		dbDeleteImage(this->CursorImage);

  00029	8b 45 fc	 mov	 eax, DWORD PTR _this$[ebp]
  0002c	8b 88 a0 01 00
	00		 mov	 ecx, DWORD PTR [eax+416]
  00032	51		 push	 ecx
  00033	e8 00 00 00 00	 call	 ?dbDeleteImage@@YAXH@Z	; dbDeleteImage
  00038	83 c4 04	 add	 esp, 4

; 398  : 		dbLoadImage(this->CursorName,this->CursorImage);

  0003b	8b 45 fc	 mov	 eax, DWORD PTR _this$[ebp]
  0003e	8b 88 a0 01 00
	00		 mov	 ecx, DWORD PTR [eax+416]
  00044	51		 push	 ecx
  00045	8b 55 fc	 mov	 edx, DWORD PTR _this$[ebp]
  00048	8b 82 94 01 00
	00		 mov	 eax, DWORD PTR [edx+404]
  0004e	50		 push	 eax
  0004f	e8 00 00 00 00	 call	 ?dbLoadImage@@YAXPADH@Z	; dbLoadImage
  00054	83 c4 08	 add	 esp, 8

; 399  : 		dbHideMouse();

  00057	e8 00 00 00 00	 call	 ?dbHideMouse@@YAXXZ	; dbHideMouse

; 400  : 
; 401  : 		this->CursorHeight=dbGetImageHeight(this->CursorImage);

  0005c	8b 45 fc	 mov	 eax, DWORD PTR _this$[ebp]
  0005f	8b 88 a0 01 00
	00		 mov	 ecx, DWORD PTR [eax+416]
  00065	51		 push	 ecx
  00066	e8 00 00 00 00	 call	 ?dbGetImageHeight@@YAHH@Z ; dbGetImageHeight
  0006b	83 c4 04	 add	 esp, 4
  0006e	8b 55 fc	 mov	 edx, DWORD PTR _this$[ebp]
  00071	89 82 9c 01 00
	00		 mov	 DWORD PTR [edx+412], eax

; 402  : 		this->CursorWidth=dbGetImageWidth(this->CursorImage);

  00077	8b 45 fc	 mov	 eax, DWORD PTR _this$[ebp]
  0007a	8b 88 a0 01 00
	00		 mov	 ecx, DWORD PTR [eax+416]
  00080	51		 push	 ecx
  00081	e8 00 00 00 00	 call	 ?dbGetImageWidth@@YAHH@Z ; dbGetImageWidth
  00086	83 c4 04	 add	 esp, 4
  00089	8b 55 fc	 mov	 edx, DWORD PTR _this$[ebp]
  0008c	89 82 a4 01 00
	00		 mov	 DWORD PTR [edx+420], eax

; 403  : 		this->ShowMouse=true;

  00092	8b 45 fc	 mov	 eax, DWORD PTR _this$[ebp]
  00095	c6 40 01 01	 mov	 BYTE PTR [eax+1], 1
  00099	eb 33		 jmp	 SHORT $LN4@SetCursorF
$LN3@SetCursorF:

; 404  : 	}
; 405  : 	else if(name=="")

  0009b	81 7d 08 00 00
	00 00		 cmp	 DWORD PTR _name$[ebp], OFFSET ??_C@_00CNPNBAHC@?$AA@
  000a2	75 2a		 jne	 SHORT $LN4@SetCursorF

; 406  : 	{
; 407  : 		this->CursorName=name;

  000a4	8b 45 fc	 mov	 eax, DWORD PTR _this$[ebp]
  000a7	8b 4d 08	 mov	 ecx, DWORD PTR _name$[ebp]
  000aa	89 88 94 01 00
	00		 mov	 DWORD PTR [eax+404], ecx

; 408  : 		this->ShowMouse=true;

  000b0	8b 45 fc	 mov	 eax, DWORD PTR _this$[ebp]
  000b3	c6 40 01 01	 mov	 BYTE PTR [eax+1], 1

; 409  : 
; 410  : 		dbDeleteImage(this->CursorImage);

  000b7	8b 45 fc	 mov	 eax, DWORD PTR _this$[ebp]
  000ba	8b 88 a0 01 00
	00		 mov	 ecx, DWORD PTR [eax+416]
  000c0	51		 push	 ecx
  000c1	e8 00 00 00 00	 call	 ?dbDeleteImage@@YAXH@Z	; dbDeleteImage
  000c6	83 c4 04	 add	 esp, 4

; 411  : 		dbShowMouse();

  000c9	e8 00 00 00 00	 call	 ?dbShowMouse@@YAXXZ	; dbShowMouse
$LN4@SetCursorF:

; 412  : 	}
; 413  : 
; 414  : 	return;
; 415  : }

  000ce	5f		 pop	 edi
  000cf	5e		 pop	 esi
  000d0	5b		 pop	 ebx
  000d1	8b e5		 mov	 esp, ebp
  000d3	5d		 pop	 ebp
  000d4	c2 04 00	 ret	 4
?SetCursorFile@MouseHandler@@QAEXPAD@Z ENDP		; MouseHandler::SetCursorFile
_TEXT	ENDS
PUBLIC	?SetCursorImage@MouseHandler@@QAEXH@Z		; MouseHandler::SetCursorImage
; Function compile flags: /Odtp /ZI
;	COMDAT ?SetCursorImage@MouseHandler@@QAEXH@Z
_TEXT	SEGMENT
_this$ = -4						; size = 4
_img$ = 8						; size = 4
?SetCursorImage@MouseHandler@@QAEXH@Z PROC		; MouseHandler::SetCursorImage, COMDAT
; _this$ = ecx

; 417  : {

  00000	55		 push	 ebp
  00001	8b ec		 mov	 ebp, esp
  00003	83 ec 44	 sub	 esp, 68			; 00000044H
  00006	53		 push	 ebx
  00007	56		 push	 esi
  00008	57		 push	 edi
  00009	89 4d fc	 mov	 DWORD PTR _this$[ebp], ecx

; 418  : 	this->CursorImage=img;

  0000c	8b 45 fc	 mov	 eax, DWORD PTR _this$[ebp]
  0000f	8b 4d 08	 mov	 ecx, DWORD PTR _img$[ebp]
  00012	89 88 a0 01 00
	00		 mov	 DWORD PTR [eax+416], ecx

; 419  : 
; 420  : 	return;
; 421  : }

  00018	5f		 pop	 edi
  00019	5e		 pop	 esi
  0001a	5b		 pop	 ebx
  0001b	8b e5		 mov	 esp, ebp
  0001d	5d		 pop	 ebp
  0001e	c2 04 00	 ret	 4
?SetCursorImage@MouseHandler@@QAEXH@Z ENDP		; MouseHandler::SetCursorImage
_TEXT	ENDS
PUBLIC	?SetCursorPosition@MouseHandler@@QAEXHH@Z	; MouseHandler::SetCursorPosition
; Function compile flags: /Odtp /ZI
;	COMDAT ?SetCursorPosition@MouseHandler@@QAEXHH@Z
_TEXT	SEGMENT
_this$ = -4						; size = 4
_X$ = 8							; size = 4
_Y$ = 12						; size = 4
?SetCursorPosition@MouseHandler@@QAEXHH@Z PROC		; MouseHandler::SetCursorPosition, COMDAT
; _this$ = ecx

; 423  : {

  00000	55		 push	 ebp
  00001	8b ec		 mov	 ebp, esp
  00003	83 ec 44	 sub	 esp, 68			; 00000044H
  00006	53		 push	 ebx
  00007	56		 push	 esi
  00008	57		 push	 edi
  00009	89 4d fc	 mov	 DWORD PTR _this$[ebp], ecx

; 424  : 	dbPositionMouse(X,Y);

  0000c	8b 45 0c	 mov	 eax, DWORD PTR _Y$[ebp]
  0000f	50		 push	 eax
  00010	8b 4d 08	 mov	 ecx, DWORD PTR _X$[ebp]
  00013	51		 push	 ecx
  00014	e8 00 00 00 00	 call	 ?dbPositionMouse@@YAXHH@Z ; dbPositionMouse
  00019	83 c4 08	 add	 esp, 8

; 425  : 
; 426  : 	this->MousePosX[0]=X;

  0001c	8b 45 fc	 mov	 eax, DWORD PTR _this$[ebp]
  0001f	8b 4d 08	 mov	 ecx, DWORD PTR _X$[ebp]
  00022	89 88 a8 01 00
	00		 mov	 DWORD PTR [eax+424], ecx

; 427  : 	this->MousePosY[0]=Y;

  00028	8b 45 fc	 mov	 eax, DWORD PTR _this$[ebp]
  0002b	8b 4d 0c	 mov	 ecx, DWORD PTR _Y$[ebp]
  0002e	89 88 d0 01 00
	00		 mov	 DWORD PTR [eax+464], ecx

; 428  : 
; 429  : 	return;
; 430  : }

  00034	5f		 pop	 edi
  00035	5e		 pop	 esi
  00036	5b		 pop	 ebx
  00037	8b e5		 mov	 esp, ebp
  00039	5d		 pop	 ebp
  0003a	c2 08 00	 ret	 8
?SetCursorPosition@MouseHandler@@QAEXHH@Z ENDP		; MouseHandler::SetCursorPosition
; Function compile flags: /Odtp /ZI
_TEXT	ENDS
;	COMDAT ?SetCursorPosition@MouseHandler@@QAEXHHH@Z
_TEXT	SEGMENT
_this$ = -4						; size = 4
_X$ = 8							; size = 4
_Y$ = 12						; size = 4
_Z$ = 16						; size = 4
?SetCursorPosition@MouseHandler@@QAEXHHH@Z PROC		; MouseHandler::SetCursorPosition, COMDAT
; _this$ = ecx

; 432  : {

  00000	55		 push	 ebp
  00001	8b ec		 mov	 ebp, esp
  00003	83 ec 44	 sub	 esp, 68			; 00000044H
  00006	53		 push	 ebx
  00007	56		 push	 esi
  00008	57		 push	 edi
  00009	89 4d fc	 mov	 DWORD PTR _this$[ebp], ecx

; 433  : 	dbPositionMouse(X,Y);

  0000c	8b 45 0c	 mov	 eax, DWORD PTR _Y$[ebp]
  0000f	50		 push	 eax
  00010	8b 4d 08	 mov	 ecx, DWORD PTR _X$[ebp]
  00013	51		 push	 ecx
  00014	e8 00 00 00 00	 call	 ?dbPositionMouse@@YAXHH@Z ; dbPositionMouse
  00019	83 c4 08	 add	 esp, 8

; 434  : 
; 435  : 	this->MousePosX[0]=X;

  0001c	8b 45 fc	 mov	 eax, DWORD PTR _this$[ebp]
  0001f	8b 4d 08	 mov	 ecx, DWORD PTR _X$[ebp]
  00022	89 88 a8 01 00
	00		 mov	 DWORD PTR [eax+424], ecx

; 436  : 	this->MousePosY[0]=Y;

  00028	8b 45 fc	 mov	 eax, DWORD PTR _this$[ebp]
  0002b	8b 4d 0c	 mov	 ecx, DWORD PTR _Y$[ebp]
  0002e	89 88 d0 01 00
	00		 mov	 DWORD PTR [eax+464], ecx

; 437  : 	this->MousePosZ[0]=Z;

  00034	8b 45 fc	 mov	 eax, DWORD PTR _this$[ebp]
  00037	8b 4d 10	 mov	 ecx, DWORD PTR _Z$[ebp]
  0003a	89 88 f8 01 00
	00		 mov	 DWORD PTR [eax+504], ecx

; 438  : 
; 439  : 	return;
; 440  : }

  00040	5f		 pop	 edi
  00041	5e		 pop	 esi
  00042	5b		 pop	 ebx
  00043	8b e5		 mov	 esp, ebp
  00045	5d		 pop	 ebp
  00046	c2 0c 00	 ret	 12			; 0000000cH
?SetCursorPosition@MouseHandler@@QAEXHHH@Z ENDP		; MouseHandler::SetCursorPosition
_TEXT	ENDS
PUBLIC	?SetMouseBoundToCursor@MouseHandler@@QAEX_N@Z	; MouseHandler::SetMouseBoundToCursor
; Function compile flags: /Odtp /ZI
;	COMDAT ?SetMouseBoundToCursor@MouseHandler@@QAEX_N@Z
_TEXT	SEGMENT
_this$ = -4						; size = 4
_Binding$ = 8						; size = 1
?SetMouseBoundToCursor@MouseHandler@@QAEX_N@Z PROC	; MouseHandler::SetMouseBoundToCursor, COMDAT
; _this$ = ecx

; 442  : {

  00000	55		 push	 ebp
  00001	8b ec		 mov	 ebp, esp
  00003	83 ec 44	 sub	 esp, 68			; 00000044H
  00006	53		 push	 ebx
  00007	56		 push	 esi
  00008	57		 push	 edi
  00009	89 4d fc	 mov	 DWORD PTR _this$[ebp], ecx

; 443  : 	this->BindMouseToPosition=Binding;

  0000c	8b 45 fc	 mov	 eax, DWORD PTR _this$[ebp]
  0000f	8a 4d 08	 mov	 cl, BYTE PTR _Binding$[ebp]
  00012	88 08		 mov	 BYTE PTR [eax], cl

; 444  : 
; 445  : 	return;
; 446  : }

  00014	5f		 pop	 edi
  00015	5e		 pop	 esi
  00016	5b		 pop	 ebx
  00017	8b e5		 mov	 esp, ebp
  00019	5d		 pop	 ebp
  0001a	c2 04 00	 ret	 4
?SetMouseBoundToCursor@MouseHandler@@QAEX_N@Z ENDP	; MouseHandler::SetMouseBoundToCursor
; Function compile flags: /Odtp /ZI
_TEXT	ENDS
;	COMDAT ?SetMouseView@MouseHandler@@QAEX_N@Z
_TEXT	SEGMENT
_this$ = -4						; size = 4
_view$ = 8						; size = 1
?SetMouseView@MouseHandler@@QAEX_N@Z PROC		; MouseHandler::SetMouseView, COMDAT
; _this$ = ecx

; 448  : {

  00000	55		 push	 ebp
  00001	8b ec		 mov	 ebp, esp
  00003	83 ec 44	 sub	 esp, 68			; 00000044H
  00006	53		 push	 ebx
  00007	56		 push	 esi
  00008	57		 push	 edi
  00009	89 4d fc	 mov	 DWORD PTR _this$[ebp], ecx

; 449  : 	this->ShowMouse=view;

  0000c	8b 45 fc	 mov	 eax, DWORD PTR _this$[ebp]
  0000f	8a 4d 08	 mov	 cl, BYTE PTR _view$[ebp]
  00012	88 48 01	 mov	 BYTE PTR [eax+1], cl

; 450  : 
; 451  : 	if(this->ShowMouse&&this->CursorName=="")

  00015	8b 45 fc	 mov	 eax, DWORD PTR _this$[ebp]
  00018	0f b6 48 01	 movzx	 ecx, BYTE PTR [eax+1]
  0001c	85 c9		 test	 ecx, ecx
  0001e	74 16		 je	 SHORT $LN2@SetMouseVi
  00020	8b 45 fc	 mov	 eax, DWORD PTR _this$[ebp]
  00023	81 b8 94 01 00
	00 00 00 00 00	 cmp	 DWORD PTR [eax+404], OFFSET ??_C@_00CNPNBAHC@?$AA@
  0002d	75 07		 jne	 SHORT $LN2@SetMouseVi

; 452  : 		dbShowMouse();

  0002f	e8 00 00 00 00	 call	 ?dbShowMouse@@YAXXZ	; dbShowMouse

; 453  : 	else

  00034	eb 05		 jmp	 SHORT $LN3@SetMouseVi
$LN2@SetMouseVi:

; 454  : 		dbHideMouse();

  00036	e8 00 00 00 00	 call	 ?dbHideMouse@@YAXXZ	; dbHideMouse
$LN3@SetMouseVi:

; 455  : 
; 456  : 	return;
; 457  : }

  0003b	5f		 pop	 edi
  0003c	5e		 pop	 esi
  0003d	5b		 pop	 ebx
  0003e	8b e5		 mov	 esp, ebp
  00040	5d		 pop	 ebp
  00041	c2 04 00	 ret	 4
?SetMouseView@MouseHandler@@QAEX_N@Z ENDP		; MouseHandler::SetMouseView
_TEXT	ENDS
PUBLIC	?SetMultiplier@MouseHandler@@QAEXM@Z		; MouseHandler::SetMultiplier
; Function compile flags: /Odtp /ZI
;	COMDAT ?SetMultiplier@MouseHandler@@QAEXM@Z
_TEXT	SEGMENT
_this$ = -4						; size = 4
_Speeder$ = 8						; size = 4
?SetMultiplier@MouseHandler@@QAEXM@Z PROC		; MouseHandler::SetMultiplier, COMDAT
; _this$ = ecx

; 459  : {

  00000	55		 push	 ebp
  00001	8b ec		 mov	 ebp, esp
  00003	83 ec 44	 sub	 esp, 68			; 00000044H
  00006	53		 push	 ebx
  00007	56		 push	 esi
  00008	57		 push	 edi
  00009	89 4d fc	 mov	 DWORD PTR _this$[ebp], ecx

; 460  : 	this->Multiplier=Speeder;

  0000c	8b 45 fc	 mov	 eax, DWORD PTR _this$[ebp]
  0000f	d9 45 08	 fld	 DWORD PTR _Speeder$[ebp]
  00012	d9 98 98 01 00
	00		 fstp	 DWORD PTR [eax+408]

; 461  : 
; 462  : 	return;
; 463  : }

  00018	5f		 pop	 edi
  00019	5e		 pop	 esi
  0001a	5b		 pop	 ebx
  0001b	8b e5		 mov	 esp, ebp
  0001d	5d		 pop	 ebp
  0001e	c2 04 00	 ret	 4
?SetMultiplier@MouseHandler@@QAEXM@Z ENDP		; MouseHandler::SetMultiplier
_TEXT	ENDS
PUBLIC	?Update@MouseHandler@@QAEXXZ			; MouseHandler::Update
EXTRN	?dbPasteImage@@YAXHHH@Z:PROC			; dbPasteImage
EXTRN	?dbMouseClick@@YAHXZ:PROC			; dbMouseClick
EXTRN	?GetCurrentHeight@Window@@QAEHXZ:PROC		; Window::GetCurrentHeight
EXTRN	?GetCurrentWidth@Window@@QAEHXZ:PROC		; Window::GetCurrentWidth
EXTRN	?dbMouseMoveZ@@YAHXZ:PROC			; dbMouseMoveZ
EXTRN	?dbMouseMoveY@@YAHXZ:PROC			; dbMouseMoveY
EXTRN	?dbMouseMoveX@@YAHXZ:PROC			; dbMouseMoveX
EXTRN	__ftol2_sse:PROC
; Function compile flags: /Odtp /ZI
;	COMDAT ?Update@MouseHandler@@QAEXXZ
_TEXT	SEGMENT
tv320 = -92						; size = 4
tv310 = -92						; size = 4
tv300 = -92						; size = 4
tv386 = -88						; size = 8
tv384 = -88						; size = 8
tv382 = -88						; size = 8
_MouseClickValue$ = -16					; size = 4
_i$91110 = -12						; size = 4
_i$91106 = -8						; size = 4
_this$ = -4						; size = 4
?Update@MouseHandler@@QAEXXZ PROC			; MouseHandler::Update, COMDAT
; _this$ = ecx

; 465  : {

  00000	55		 push	 ebp
  00001	8b ec		 mov	 ebp, esp
  00003	83 ec 5c	 sub	 esp, 92			; 0000005cH
  00006	53		 push	 ebx
  00007	56		 push	 esi
  00008	57		 push	 edi
  00009	89 4d fc	 mov	 DWORD PTR _this$[ebp], ecx

; 466  : 	for(int i=99;i>=0;i--)

  0000c	c7 45 f8 63 00
	00 00		 mov	 DWORD PTR _i$91106[ebp], 99 ; 00000063H
  00013	eb 09		 jmp	 SHORT $LN22@Update
$LN21@Update:
  00015	8b 45 f8	 mov	 eax, DWORD PTR _i$91106[ebp]
  00018	83 e8 01	 sub	 eax, 1
  0001b	89 45 f8	 mov	 DWORD PTR _i$91106[ebp], eax
$LN22@Update:
  0001e	83 7d f8 00	 cmp	 DWORD PTR _i$91106[ebp], 0
  00022	7c 56		 jl	 SHORT $LN20@Update

; 467  : 	{
; 468  : 		this->LeftClick[i]=this->LeftClick[i-1];

  00024	8b 45 fc	 mov	 eax, DWORD PTR _this$[ebp]
  00027	03 45 f8	 add	 eax, DWORD PTR _i$91106[ebp]
  0002a	8b 4d fc	 mov	 ecx, DWORD PTR _this$[ebp]
  0002d	03 4d f8	 add	 ecx, DWORD PTR _i$91106[ebp]
  00030	8a 51 01	 mov	 dl, BYTE PTR [ecx+1]
  00033	88 50 02	 mov	 BYTE PTR [eax+2], dl

; 469  : 		this->RightClick[i]=this->RightClick[i-1];

  00036	8b 45 fc	 mov	 eax, DWORD PTR _this$[ebp]
  00039	03 45 f8	 add	 eax, DWORD PTR _i$91106[ebp]
  0003c	8b 4d fc	 mov	 ecx, DWORD PTR _this$[ebp]
  0003f	03 4d f8	 add	 ecx, DWORD PTR _i$91106[ebp]
  00042	8a 91 2d 01 00
	00		 mov	 dl, BYTE PTR [ecx+301]
  00048	88 90 2e 01 00
	00		 mov	 BYTE PTR [eax+302], dl

; 470  : 		this->MouseButton3[i]=this->MouseButton3[i-1];

  0004e	8b 45 fc	 mov	 eax, DWORD PTR _this$[ebp]
  00051	03 45 f8	 add	 eax, DWORD PTR _i$91106[ebp]
  00054	8b 4d fc	 mov	 ecx, DWORD PTR _this$[ebp]
  00057	03 4d f8	 add	 ecx, DWORD PTR _i$91106[ebp]
  0005a	8a 51 65	 mov	 dl, BYTE PTR [ecx+101]
  0005d	88 50 66	 mov	 BYTE PTR [eax+102], dl

; 471  : 		this->MouseButton4[i]=this->MouseButton4[i-1];

  00060	8b 45 fc	 mov	 eax, DWORD PTR _this$[ebp]
  00063	03 45 f8	 add	 eax, DWORD PTR _i$91106[ebp]
  00066	8b 4d fc	 mov	 ecx, DWORD PTR _this$[ebp]
  00069	03 4d f8	 add	 ecx, DWORD PTR _i$91106[ebp]
  0006c	8a 91 c9 00 00
	00		 mov	 dl, BYTE PTR [ecx+201]
  00072	88 90 ca 00 00
	00		 mov	 BYTE PTR [eax+202], dl

; 472  : 	}

  00078	eb 9b		 jmp	 SHORT $LN21@Update
$LN20@Update:

; 473  : 
; 474  : 	for(int i=9;i>=0;i--)

  0007a	c7 45 f4 09 00
	00 00		 mov	 DWORD PTR _i$91110[ebp], 9
  00081	eb 09		 jmp	 SHORT $LN19@Update
$LN18@Update:
  00083	8b 45 f4	 mov	 eax, DWORD PTR _i$91110[ebp]
  00086	83 e8 01	 sub	 eax, 1
  00089	89 45 f4	 mov	 DWORD PTR _i$91110[ebp], eax
$LN19@Update:
  0008c	83 7d f4 00	 cmp	 DWORD PTR _i$91110[ebp], 0
  00090	7c 50		 jl	 SHORT $LN17@Update

; 475  : 	{
; 476  : 		this->MousePosX[i]=this->MousePosX[i-1];

  00092	8b 45 f4	 mov	 eax, DWORD PTR _i$91110[ebp]
  00095	8b 4d fc	 mov	 ecx, DWORD PTR _this$[ebp]
  00098	8b 55 f4	 mov	 edx, DWORD PTR _i$91110[ebp]
  0009b	8b 75 fc	 mov	 esi, DWORD PTR _this$[ebp]
  0009e	8b 94 96 a4 01
	00 00		 mov	 edx, DWORD PTR [esi+edx*4+420]
  000a5	89 94 81 a8 01
	00 00		 mov	 DWORD PTR [ecx+eax*4+424], edx

; 477  : 		this->MousePosY[i]=this->MousePosY[i-1];

  000ac	8b 45 f4	 mov	 eax, DWORD PTR _i$91110[ebp]
  000af	8b 4d fc	 mov	 ecx, DWORD PTR _this$[ebp]
  000b2	8b 55 f4	 mov	 edx, DWORD PTR _i$91110[ebp]
  000b5	8b 75 fc	 mov	 esi, DWORD PTR _this$[ebp]
  000b8	8b 94 96 cc 01
	00 00		 mov	 edx, DWORD PTR [esi+edx*4+460]
  000bf	89 94 81 d0 01
	00 00		 mov	 DWORD PTR [ecx+eax*4+464], edx

; 478  : 		this->MousePosZ[i]=this->MousePosZ[i-1];

  000c6	8b 45 f4	 mov	 eax, DWORD PTR _i$91110[ebp]
  000c9	8b 4d fc	 mov	 ecx, DWORD PTR _this$[ebp]
  000cc	8b 55 f4	 mov	 edx, DWORD PTR _i$91110[ebp]
  000cf	8b 75 fc	 mov	 esi, DWORD PTR _this$[ebp]
  000d2	8b 94 96 f4 01
	00 00		 mov	 edx, DWORD PTR [esi+edx*4+500]
  000d9	89 94 81 f8 01
	00 00		 mov	 DWORD PTR [ecx+eax*4+504], edx

; 479  : 	}

  000e0	eb a1		 jmp	 SHORT $LN18@Update
$LN17@Update:

; 480  : 
; 481  : 	this->MousePosX[0]=this->MousePosX[1]+dbMouseMoveX()*this->Multiplier;

  000e2	8b 45 fc	 mov	 eax, DWORD PTR _this$[ebp]
  000e5	db 80 ac 01 00
	00		 fild	 DWORD PTR [eax+428]
  000eb	dd 5d a8	 fstp	 QWORD PTR tv382[ebp]
  000ee	e8 00 00 00 00	 call	 ?dbMouseMoveX@@YAHXZ	; dbMouseMoveX
  000f3	89 45 a4	 mov	 DWORD PTR tv300[ebp], eax
  000f6	db 45 a4	 fild	 DWORD PTR tv300[ebp]
  000f9	8b 4d fc	 mov	 ecx, DWORD PTR _this$[ebp]
  000fc	d8 89 98 01 00
	00		 fmul	 DWORD PTR [ecx+408]
  00102	dc 45 a8	 fadd	 QWORD PTR tv382[ebp]
  00105	e8 00 00 00 00	 call	 __ftol2_sse
  0010a	8b 55 fc	 mov	 edx, DWORD PTR _this$[ebp]
  0010d	89 82 a8 01 00
	00		 mov	 DWORD PTR [edx+424], eax

; 482  : 	this->MousePosY[0]=this->MousePosY[1]+dbMouseMoveY()*this->Multiplier;

  00113	8b 45 fc	 mov	 eax, DWORD PTR _this$[ebp]
  00116	db 80 d4 01 00
	00		 fild	 DWORD PTR [eax+468]
  0011c	dd 5d a8	 fstp	 QWORD PTR tv384[ebp]
  0011f	e8 00 00 00 00	 call	 ?dbMouseMoveY@@YAHXZ	; dbMouseMoveY
  00124	89 45 a4	 mov	 DWORD PTR tv310[ebp], eax
  00127	db 45 a4	 fild	 DWORD PTR tv310[ebp]
  0012a	8b 4d fc	 mov	 ecx, DWORD PTR _this$[ebp]
  0012d	d8 89 98 01 00
	00		 fmul	 DWORD PTR [ecx+408]
  00133	dc 45 a8	 fadd	 QWORD PTR tv384[ebp]
  00136	e8 00 00 00 00	 call	 __ftol2_sse
  0013b	8b 55 fc	 mov	 edx, DWORD PTR _this$[ebp]
  0013e	89 82 d0 01 00
	00		 mov	 DWORD PTR [edx+464], eax

; 483  : 	this->MousePosZ[0]=this->MousePosZ[1]+dbMouseMoveZ()*this->Multiplier;

  00144	8b 45 fc	 mov	 eax, DWORD PTR _this$[ebp]
  00147	db 80 fc 01 00
	00		 fild	 DWORD PTR [eax+508]
  0014d	dd 5d a8	 fstp	 QWORD PTR tv386[ebp]
  00150	e8 00 00 00 00	 call	 ?dbMouseMoveZ@@YAHXZ	; dbMouseMoveZ
  00155	89 45 a4	 mov	 DWORD PTR tv320[ebp], eax
  00158	db 45 a4	 fild	 DWORD PTR tv320[ebp]
  0015b	8b 4d fc	 mov	 ecx, DWORD PTR _this$[ebp]
  0015e	d8 89 98 01 00
	00		 fmul	 DWORD PTR [ecx+408]
  00164	dc 45 a8	 fadd	 QWORD PTR tv386[ebp]
  00167	e8 00 00 00 00	 call	 __ftol2_sse
  0016c	8b 55 fc	 mov	 edx, DWORD PTR _this$[ebp]
  0016f	89 82 f8 01 00
	00		 mov	 DWORD PTR [edx+504], eax

; 484  : 	
; 485  : 	if(MousePosX[0]<0)

  00175	8b 45 fc	 mov	 eax, DWORD PTR _this$[ebp]
  00178	83 b8 a8 01 00
	00 00		 cmp	 DWORD PTR [eax+424], 0
  0017f	7d 0d		 jge	 SHORT $LN16@Update

; 486  : 		MousePosX[0]=0;

  00181	8b 45 fc	 mov	 eax, DWORD PTR _this$[ebp]
  00184	c7 80 a8 01 00
	00 00 00 00 00	 mov	 DWORD PTR [eax+424], 0
$LN16@Update:

; 487  : 	if(MousePosX[0]>this->CurrentWindow->GetCurrentWidth())

  0018e	8b 45 fc	 mov	 eax, DWORD PTR _this$[ebp]
  00191	8b 88 20 02 00
	00		 mov	 ecx, DWORD PTR [eax+544]
  00197	e8 00 00 00 00	 call	 ?GetCurrentWidth@Window@@QAEHXZ ; Window::GetCurrentWidth
  0019c	8b 4d fc	 mov	 ecx, DWORD PTR _this$[ebp]
  0019f	39 81 a8 01 00
	00		 cmp	 DWORD PTR [ecx+424], eax
  001a5	7e 17		 jle	 SHORT $LN15@Update

; 488  : 		MousePosX[0]=this->CurrentWindow->GetCurrentWidth();

  001a7	8b 45 fc	 mov	 eax, DWORD PTR _this$[ebp]
  001aa	8b 88 20 02 00
	00		 mov	 ecx, DWORD PTR [eax+544]
  001b0	e8 00 00 00 00	 call	 ?GetCurrentWidth@Window@@QAEHXZ ; Window::GetCurrentWidth
  001b5	8b 4d fc	 mov	 ecx, DWORD PTR _this$[ebp]
  001b8	89 81 a8 01 00
	00		 mov	 DWORD PTR [ecx+424], eax
$LN15@Update:

; 489  : 	if(MousePosY[0]<0)

  001be	8b 45 fc	 mov	 eax, DWORD PTR _this$[ebp]
  001c1	83 b8 d0 01 00
	00 00		 cmp	 DWORD PTR [eax+464], 0
  001c8	7d 0d		 jge	 SHORT $LN14@Update

; 490  : 		MousePosY[0]=0;

  001ca	8b 45 fc	 mov	 eax, DWORD PTR _this$[ebp]
  001cd	c7 80 d0 01 00
	00 00 00 00 00	 mov	 DWORD PTR [eax+464], 0
$LN14@Update:

; 491  : 	if(MousePosY[0]>this->CurrentWindow->GetCurrentHeight())

  001d7	8b 45 fc	 mov	 eax, DWORD PTR _this$[ebp]
  001da	8b 88 20 02 00
	00		 mov	 ecx, DWORD PTR [eax+544]
  001e0	e8 00 00 00 00	 call	 ?GetCurrentHeight@Window@@QAEHXZ ; Window::GetCurrentHeight
  001e5	8b 4d fc	 mov	 ecx, DWORD PTR _this$[ebp]
  001e8	39 81 d0 01 00
	00		 cmp	 DWORD PTR [ecx+464], eax
  001ee	7e 17		 jle	 SHORT $LN13@Update

; 492  : 		MousePosY[0]=this->CurrentWindow->GetCurrentHeight();

  001f0	8b 45 fc	 mov	 eax, DWORD PTR _this$[ebp]
  001f3	8b 88 20 02 00
	00		 mov	 ecx, DWORD PTR [eax+544]
  001f9	e8 00 00 00 00	 call	 ?GetCurrentHeight@Window@@QAEHXZ ; Window::GetCurrentHeight
  001fe	8b 4d fc	 mov	 ecx, DWORD PTR _this$[ebp]
  00201	89 81 d0 01 00
	00		 mov	 DWORD PTR [ecx+464], eax
$LN13@Update:

; 493  : 
; 494  : 	if(this->MousePosZ[0]>100)

  00207	8b 45 fc	 mov	 eax, DWORD PTR _this$[ebp]
  0020a	83 b8 f8 01 00
	00 64		 cmp	 DWORD PTR [eax+504], 100 ; 00000064H
  00211	7e 0f		 jle	 SHORT $LN12@Update

; 495  : 		this->MousePosZ[0]=100;

  00213	8b 45 fc	 mov	 eax, DWORD PTR _this$[ebp]
  00216	c7 80 f8 01 00
	00 64 00 00 00	 mov	 DWORD PTR [eax+504], 100 ; 00000064H
  00220	eb 19		 jmp	 SHORT $LN10@Update
$LN12@Update:

; 496  : 	else if(this->MousePosZ[0]<0)

  00222	8b 45 fc	 mov	 eax, DWORD PTR _this$[ebp]
  00225	83 b8 f8 01 00
	00 00		 cmp	 DWORD PTR [eax+504], 0
  0022c	7d 0d		 jge	 SHORT $LN10@Update

; 497  : 		this->MousePosZ[0]=0;

  0022e	8b 45 fc	 mov	 eax, DWORD PTR _this$[ebp]
  00231	c7 80 f8 01 00
	00 00 00 00 00	 mov	 DWORD PTR [eax+504], 0
$LN10@Update:

; 498  : 	
; 499  : 	int MouseClickValue=dbMouseClick();

  0023b	e8 00 00 00 00	 call	 ?dbMouseClick@@YAHXZ	; dbMouseClick
  00240	89 45 f0	 mov	 DWORD PTR _MouseClickValue$[ebp], eax

; 500  : 
; 501  : 	if(MouseClickValue>=8)

  00243	83 7d f0 08	 cmp	 DWORD PTR _MouseClickValue$[ebp], 8
  00247	7c 15		 jl	 SHORT $LN9@Update

; 502  : 	{
; 503  : 		this->MouseButton4[0]=true;

  00249	8b 45 fc	 mov	 eax, DWORD PTR _this$[ebp]
  0024c	c6 80 ca 00 00
	00 01		 mov	 BYTE PTR [eax+202], 1

; 504  : 		MouseClickValue-=8;

  00253	8b 45 f0	 mov	 eax, DWORD PTR _MouseClickValue$[ebp]
  00256	83 e8 08	 sub	 eax, 8
  00259	89 45 f0	 mov	 DWORD PTR _MouseClickValue$[ebp], eax

; 505  : 	}
; 506  : 	else

  0025c	eb 0a		 jmp	 SHORT $LN8@Update
$LN9@Update:

; 507  : 		this->MouseButton4[0]=false;

  0025e	8b 45 fc	 mov	 eax, DWORD PTR _this$[ebp]
  00261	c6 80 ca 00 00
	00 00		 mov	 BYTE PTR [eax+202], 0
$LN8@Update:

; 508  : 	if(MouseClickValue>=4)

  00268	83 7d f0 04	 cmp	 DWORD PTR _MouseClickValue$[ebp], 4
  0026c	7c 12		 jl	 SHORT $LN7@Update

; 509  : 	{
; 510  : 		this->MouseButton3[0]=true;

  0026e	8b 45 fc	 mov	 eax, DWORD PTR _this$[ebp]
  00271	c6 40 66 01	 mov	 BYTE PTR [eax+102], 1

; 511  : 		MouseClickValue-=4;

  00275	8b 45 f0	 mov	 eax, DWORD PTR _MouseClickValue$[ebp]
  00278	83 e8 04	 sub	 eax, 4
  0027b	89 45 f0	 mov	 DWORD PTR _MouseClickValue$[ebp], eax

; 512  : 	}
; 513  : 	else

  0027e	eb 07		 jmp	 SHORT $LN6@Update
$LN7@Update:

; 514  : 		this->MouseButton3[0]=false;

  00280	8b 45 fc	 mov	 eax, DWORD PTR _this$[ebp]
  00283	c6 40 66 00	 mov	 BYTE PTR [eax+102], 0
$LN6@Update:

; 515  : 	if(MouseClickValue>=2)

  00287	83 7d f0 02	 cmp	 DWORD PTR _MouseClickValue$[ebp], 2
  0028b	7c 15		 jl	 SHORT $LN5@Update

; 516  : 	{
; 517  : 		this->RightClick[0]=true;

  0028d	8b 45 fc	 mov	 eax, DWORD PTR _this$[ebp]
  00290	c6 80 2e 01 00
	00 01		 mov	 BYTE PTR [eax+302], 1

; 518  : 		MouseClickValue-=2;

  00297	8b 45 f0	 mov	 eax, DWORD PTR _MouseClickValue$[ebp]
  0029a	83 e8 02	 sub	 eax, 2
  0029d	89 45 f0	 mov	 DWORD PTR _MouseClickValue$[ebp], eax

; 519  : 	}
; 520  : 	else

  002a0	eb 0a		 jmp	 SHORT $LN4@Update
$LN5@Update:

; 521  : 		this->RightClick[0]=false;

  002a2	8b 45 fc	 mov	 eax, DWORD PTR _this$[ebp]
  002a5	c6 80 2e 01 00
	00 00		 mov	 BYTE PTR [eax+302], 0
$LN4@Update:

; 522  : 	if(MouseClickValue==1)

  002ac	83 7d f0 01	 cmp	 DWORD PTR _MouseClickValue$[ebp], 1
  002b0	75 12		 jne	 SHORT $LN3@Update

; 523  : 	{
; 524  : 		this->LeftClick[0]=true;

  002b2	8b 45 fc	 mov	 eax, DWORD PTR _this$[ebp]
  002b5	c6 40 02 01	 mov	 BYTE PTR [eax+2], 1

; 525  : 		MouseClickValue--;

  002b9	8b 45 f0	 mov	 eax, DWORD PTR _MouseClickValue$[ebp]
  002bc	83 e8 01	 sub	 eax, 1
  002bf	89 45 f0	 mov	 DWORD PTR _MouseClickValue$[ebp], eax

; 526  : 	}
; 527  : 	else

  002c2	eb 07		 jmp	 SHORT $LN2@Update
$LN3@Update:

; 528  : 		this->LeftClick[0]=false;

  002c4	8b 45 fc	 mov	 eax, DWORD PTR _this$[ebp]
  002c7	c6 40 02 00	 mov	 BYTE PTR [eax+2], 0
$LN2@Update:

; 529  : 
; 530  : 	if(this->ShowMouse&&this->CursorName!="")

  002cb	8b 45 fc	 mov	 eax, DWORD PTR _this$[ebp]
  002ce	0f b6 48 01	 movzx	 ecx, BYTE PTR [eax+1]
  002d2	85 c9		 test	 ecx, ecx
  002d4	74 55		 je	 SHORT $LN1@Update
  002d6	8b 45 fc	 mov	 eax, DWORD PTR _this$[ebp]
  002d9	81 b8 94 01 00
	00 00 00 00 00	 cmp	 DWORD PTR [eax+404], OFFSET ??_C@_00CNPNBAHC@?$AA@
  002e3	74 46		 je	 SHORT $LN1@Update

; 531  : 		dbPasteImage(this->CursorImage,this->MousePosX[0]-this->CursorWidth/2,this->MousePosY[0]-this->CursorHeight/2);

  002e5	8b 45 fc	 mov	 eax, DWORD PTR _this$[ebp]
  002e8	8b 80 9c 01 00
	00		 mov	 eax, DWORD PTR [eax+412]
  002ee	99		 cdq
  002ef	2b c2		 sub	 eax, edx
  002f1	d1 f8		 sar	 eax, 1
  002f3	8b 4d fc	 mov	 ecx, DWORD PTR _this$[ebp]
  002f6	8b 91 d0 01 00
	00		 mov	 edx, DWORD PTR [ecx+464]
  002fc	2b d0		 sub	 edx, eax
  002fe	52		 push	 edx
  002ff	8b 45 fc	 mov	 eax, DWORD PTR _this$[ebp]
  00302	8b 80 a4 01 00
	00		 mov	 eax, DWORD PTR [eax+420]
  00308	99		 cdq
  00309	2b c2		 sub	 eax, edx
  0030b	d1 f8		 sar	 eax, 1
  0030d	8b 4d fc	 mov	 ecx, DWORD PTR _this$[ebp]
  00310	8b 91 a8 01 00
	00		 mov	 edx, DWORD PTR [ecx+424]
  00316	2b d0		 sub	 edx, eax
  00318	52		 push	 edx
  00319	8b 45 fc	 mov	 eax, DWORD PTR _this$[ebp]
  0031c	8b 88 a0 01 00
	00		 mov	 ecx, DWORD PTR [eax+416]
  00322	51		 push	 ecx
  00323	e8 00 00 00 00	 call	 ?dbPasteImage@@YAXHHH@Z	; dbPasteImage
  00328	83 c4 0c	 add	 esp, 12			; 0000000cH
$LN1@Update:

; 532  : 
; 533  : 	return;
; 534  : }

  0032b	5f		 pop	 edi
  0032c	5e		 pop	 esi
  0032d	5b		 pop	 ebx
  0032e	8b e5		 mov	 esp, ebp
  00330	5d		 pop	 ebp
  00331	c3		 ret	 0
?Update@MouseHandler@@QAEXXZ ENDP			; MouseHandler::Update
_TEXT	ENDS
PUBLIC	??_C@_05FOLLILPC@Thing?$AA@			; `string'
PUBLIC	??_C@_0O@IDKBPDPO@Right?5Windows?$AA@		; `string'
PUBLIC	??_C@_0N@ILBHIOPE@Left?5Windows?$AA@		; `string'
PUBLIC	??_C@_06JBKGCNBB@Delete?$AA@			; `string'
PUBLIC	??_C@_06CPFCODOD@Insert?$AA@			; `string'
PUBLIC	??_C@_09IOIDGKNA@Page?5Down?$AA@		; `string'
PUBLIC	??_C@_04FNCLCJMC@Down?$AA@			; `string'
PUBLIC	??_C@_03DBKJMAGF@End?$AA@			; `string'
PUBLIC	??_C@_05DADPALEM@Right?$AA@			; `string'
PUBLIC	??_C@_04KPCPLBPL@Left?$AA@			; `string'
PUBLIC	??_C@_07EDGDGJEN@Page?5Up?$AA@			; `string'
PUBLIC	??_C@_02EFPGLDEA@Up?$AA@			; `string'
PUBLIC	??_C@_04GKJODLKO@Home?$AA@			; `string'
PUBLIC	??_C@_05EMFLFCNO@Break?$AA@			; `string'
PUBLIC	??_C@_05PEDNBBBD@Pause?$AA@			; `string'
PUBLIC	??_C@_09ELGHIMBO@Right?5Alt?$AA@		; `string'
PUBLIC	??_C@_0N@CHCLIIDE@Print?5Screen?$AA@		; `string'
PUBLIC	??_C@_05IAKEFGOE@?1?5Num?$AA@			; `string'
PUBLIC	??_C@_0M@LHBLIFBA@Function?5F3?$AA@		; `string'
PUBLIC	??_C@_0O@FHMBNID@Right?5Control?$AA@		; `string'
PUBLIC	??_C@_03KIBNPMNE@F12?$AA@			; `string'
PUBLIC	??_C@_03IDDAKPBH@F11?$AA@			; `string'
PUBLIC	??_C@_05BAHDBLKA@SysRq?$AA@			; `string'
PUBLIC	??_C@_05LAFLDKON@Num?5?4?$AA@			; `string'
PUBLIC	??_C@_01GBGANLPD@0?$AA@				; `string'
PUBLIC	??_C@_01EKENIIDA@3?$AA@				; `string'
PUBLIC	??_C@_01FDFGLJHB@2?$AA@				; `string'
PUBLIC	??_C@_01HIHLOKLC@1?$AA@				; `string'
PUBLIC	??_C@_01MIFGBAGJ@?$CL?$AA@			; `string'
PUBLIC	??_C@_01DHDKHMHF@6?$AA@				; `string'
PUBLIC	??_C@_01BMBHCPLG@5?$AA@				; `string'
PUBLIC	??_C@_01FAMBOPH@4?$AA@				; `string'
PUBLIC	??_C@_01JOAMLHOP@?9?$AA@			; `string'
PUBLIC	??_C@_01LAKCGALK@9?$AA@				; `string'
PUBLIC	??_C@_01KJLJFBPL@8?$AA@				; `string'
PUBLIC	??_C@_01COCBENDE@7?$AA@				; `string'
PUBLIC	??_C@_08DEAFBBCL@Num?5Lock?$AA@			; `string'
PUBLIC	??_C@_03JKCLJOFG@F10?$AA@			; `string'
PUBLIC	??_C@_02HKCNFKCF@F9?$AA@			; `string'
PUBLIC	??_C@_02GDDGGLGE@F8?$AA@			; `string'
PUBLIC	??_C@_02OEKOHHKL@F7?$AA@			; `string'
PUBLIC	??_C@_02PNLFEGOK@F6?$AA@			; `string'
PUBLIC	??_C@_02NGJIBFCJ@F5?$AA@			; `string'
PUBLIC	??_C@_02MPIDCEGI@F4?$AA@			; `string'
PUBLIC	??_C@_02IAMCLCKP@F3?$AA@			; `string'
PUBLIC	??_C@_02JJNJIDOO@F2?$AA@			; `string'
PUBLIC	??_C@_02LCPENACN@F1?$AA@			; `string'
PUBLIC	??_C@_09GGECHFNF@Caps?5Lock?$AA@		; `string'
PUBLIC	??_C@_05OMHELODH@Space?$AA@			; `string'
PUBLIC	??_C@_08CJHJBNHP@Left?5Alt?$AA@			; `string'
PUBLIC	??_C@_01NBENCBCI@?$CK?$AA@			; `string'
PUBLIC	??_C@_0M@COKLDKMB@Right?5Shift?$AA@		; `string'
PUBLIC	??_C@_01KMDKNFGN@?1?$AA@			; `string'
PUBLIC	??_C@_01LFCBOECM@?4?$AA@			; `string'
PUBLIC	??_C@_01IHBHIGKO@?0?$AA@			; `string'
PUBLIC	??_C@_01PLPBNMEI@M?$AA@				; `string'
PUBLIC	??_C@_01NANMIPIL@N?$AA@				; `string'
PUBLIC	??_C@_01HMGJMAIH@B?$AA@				; `string'
PUBLIC	??_C@_01FCMHBHNC@V?$AA@				; `string'
PUBLIC	??_C@_01GFHCPBMG@C?$AA@				; `string'
PUBLIC	??_C@_01MMEEDKFM@X?$AA@				; `string'
PUBLIC	??_C@_01POHCFINO@Z?$AA@				; `string'
PUBLIC	??_C@_01KICIPPFI@?2?$AA@			; `string'
PUBLIC	??_C@_0L@NFEFKBOL@Left?5Shift?$AA@		; `string'
PUBLIC	??_C@_01NLNLIGKH@?$GA?$AA@			; `string'
PUBLIC	??_C@_01GEODFPGF@?8?$AA@			; `string'
PUBLIC	??_C@_01ICJEACDI@?$DL?$AA@			; `string'
PUBLIC	??_C@_01OCOKONAJ@L?$AA@				; `string'
PUBLIC	??_C@_01KNKLHLMO@K?$AA@				; `string'
PUBLIC	??_C@_01LELAEKIP@J?$AA@				; `string'
PUBLIC	??_C@_01IGIGCIAN@H?$AA@				; `string'
PUBLIC	??_C@_01BBODEMC@G?$AA@				; `string'
PUBLIC	??_C@_01BIAFAFID@F?$AA@				; `string'
PUBLIC	??_C@_01CKDDGHAB@D?$AA@				; `string'
PUBLIC	??_C@_01CPLAODJH@S?$AA@				; `string'
PUBLIC	??_C@_01FHEEJDEE@A?$AA@				; `string'
PUBLIC	??_C@_0N@NMKGAIJ@Left?5Control?$AA@		; `string'
PUBLIC	??_C@_0M@ICALLIHK@Right?5Enter?$AA@		; `string'
PUBLIC	??_C@_01LBDDMOBJ@?$FN?$AA@			; `string'
PUBLIC	??_C@_01OHGJGJJP@?$FL?$AA@			; `string'
PUBLIC	??_C@_01EJNLAFE@P?$AA@				; `string'
PUBLIC	??_C@_01MJMHLOMK@O?$AA@				; `string'
PUBLIC	??_C@_01JPJNBJEM@I?$AA@				; `string'
PUBLIC	??_C@_01HJOKEEBB@U?$AA@				; `string'
PUBLIC	??_C@_01NFFPALBN@Y?$AA@				; `string'
PUBLIC	??_C@_01GAPBHFFA@T?$AA@				; `string'
PUBLIC	??_C@_01DGKLNCNG@R?$AA@				; `string'
PUBLIC	??_C@_01DDCIFGEA@E?$AA@				; `string'
PUBLIC	??_C@_01ELNMCGJD@W?$AA@				; `string'
PUBLIC	??_C@_01BNIGIBBF@Q?$AA@				; `string'
PUBLIC	??_C@_03IEAKBACE@Tab?$AA@			; `string'
PUBLIC	??_C@_09LPBCIPOJ@Backspace?$AA@			; `string'
PUBLIC	??_C@_05MLOMHBGD@?$DN?5Key?$AA@			; `string'
PUBLIC	??_C@_05MIDKHDPI@?9?5Key?$AA@			; `string'
PUBLIC	??_C@_05HHHCGCLN@0?5Key?$AA@			; `string'
PUBLIC	??_C@_05FAHNDDHF@9?5Key?$AA@			; `string'
PUBLIC	??_C@_05JLCBOANA@8?5Key?$AA@			; `string'
PUBLIC	??_C@_05GKHHFCAF@7?5Key?$AA@			; `string'
PUBLIC	??_C@_05KBCLIBKA@6?5Key?$AA@			; `string'
PUBLIC	??_C@_05CHLPPDAO@5?5Key?$AA@			; `string'
PUBLIC	??_C@_05OMODCAKL@4?5Key?$AA@			; `string'
PUBLIC	??_C@_05PBOGBABD@3?5Key?$AA@			; `string'
PUBLIC	??_C@_05DKLKMDLG@2?5Key?$AA@			; `string'
PUBLIC	??_C@_05LMCOLBBI@1?5Key?$AA@			; `string'
PUBLIC	??_C@_06OIGFGPHJ@Escape?$AA@			; `string'
PUBLIC	??_C@_08OFADHOMM@Null?5Key?$AA@			; `string'
PUBLIC	__$ArrayPad$
PUBLIC	??0KeyHandler@@QAE@XZ				; KeyHandler::KeyHandler
EXTRN	___security_cookie:DWORD
EXTRN	@__security_check_cookie@4:PROC
;	COMDAT ??_C@_05FOLLILPC@Thing?$AA@
CONST	SEGMENT
??_C@_05FOLLILPC@Thing?$AA@ DB 'Thing', 00H		; `string'
CONST	ENDS
;	COMDAT ??_C@_0O@IDKBPDPO@Right?5Windows?$AA@
CONST	SEGMENT
??_C@_0O@IDKBPDPO@Right?5Windows?$AA@ DB 'Right Windows', 00H ; `string'
CONST	ENDS
;	COMDAT ??_C@_0N@ILBHIOPE@Left?5Windows?$AA@
CONST	SEGMENT
??_C@_0N@ILBHIOPE@Left?5Windows?$AA@ DB 'Left Windows', 00H ; `string'
CONST	ENDS
;	COMDAT ??_C@_06JBKGCNBB@Delete?$AA@
CONST	SEGMENT
??_C@_06JBKGCNBB@Delete?$AA@ DB 'Delete', 00H		; `string'
CONST	ENDS
;	COMDAT ??_C@_06CPFCODOD@Insert?$AA@
CONST	SEGMENT
??_C@_06CPFCODOD@Insert?$AA@ DB 'Insert', 00H		; `string'
CONST	ENDS
;	COMDAT ??_C@_09IOIDGKNA@Page?5Down?$AA@
CONST	SEGMENT
??_C@_09IOIDGKNA@Page?5Down?$AA@ DB 'Page Down', 00H	; `string'
CONST	ENDS
;	COMDAT ??_C@_04FNCLCJMC@Down?$AA@
CONST	SEGMENT
??_C@_04FNCLCJMC@Down?$AA@ DB 'Down', 00H		; `string'
CONST	ENDS
;	COMDAT ??_C@_03DBKJMAGF@End?$AA@
CONST	SEGMENT
??_C@_03DBKJMAGF@End?$AA@ DB 'End', 00H			; `string'
CONST	ENDS
;	COMDAT ??_C@_05DADPALEM@Right?$AA@
CONST	SEGMENT
??_C@_05DADPALEM@Right?$AA@ DB 'Right', 00H		; `string'
CONST	ENDS
;	COMDAT ??_C@_04KPCPLBPL@Left?$AA@
CONST	SEGMENT
??_C@_04KPCPLBPL@Left?$AA@ DB 'Left', 00H		; `string'
CONST	ENDS
;	COMDAT ??_C@_07EDGDGJEN@Page?5Up?$AA@
CONST	SEGMENT
??_C@_07EDGDGJEN@Page?5Up?$AA@ DB 'Page Up', 00H	; `string'
CONST	ENDS
;	COMDAT ??_C@_02EFPGLDEA@Up?$AA@
CONST	SEGMENT
??_C@_02EFPGLDEA@Up?$AA@ DB 'Up', 00H			; `string'
CONST	ENDS
;	COMDAT ??_C@_04GKJODLKO@Home?$AA@
CONST	SEGMENT
??_C@_04GKJODLKO@Home?$AA@ DB 'Home', 00H		; `string'
CONST	ENDS
;	COMDAT ??_C@_05EMFLFCNO@Break?$AA@
CONST	SEGMENT
??_C@_05EMFLFCNO@Break?$AA@ DB 'Break', 00H		; `string'
CONST	ENDS
;	COMDAT ??_C@_05PEDNBBBD@Pause?$AA@
CONST	SEGMENT
??_C@_05PEDNBBBD@Pause?$AA@ DB 'Pause', 00H		; `string'
CONST	ENDS
;	COMDAT ??_C@_09ELGHIMBO@Right?5Alt?$AA@
CONST	SEGMENT
??_C@_09ELGHIMBO@Right?5Alt?$AA@ DB 'Right Alt', 00H	; `string'
CONST	ENDS
;	COMDAT ??_C@_0N@CHCLIIDE@Print?5Screen?$AA@
CONST	SEGMENT
??_C@_0N@CHCLIIDE@Print?5Screen?$AA@ DB 'Print Screen', 00H ; `string'
CONST	ENDS
;	COMDAT ??_C@_05IAKEFGOE@?1?5Num?$AA@
CONST	SEGMENT
??_C@_05IAKEFGOE@?1?5Num?$AA@ DB '/ Num', 00H		; `string'
CONST	ENDS
;	COMDAT ??_C@_0M@LHBLIFBA@Function?5F3?$AA@
CONST	SEGMENT
??_C@_0M@LHBLIFBA@Function?5F3?$AA@ DB 'Function F3', 00H ; `string'
CONST	ENDS
;	COMDAT ??_C@_0O@FHMBNID@Right?5Control?$AA@
CONST	SEGMENT
??_C@_0O@FHMBNID@Right?5Control?$AA@ DB 'Right Control', 00H ; `string'
CONST	ENDS
;	COMDAT ??_C@_03KIBNPMNE@F12?$AA@
CONST	SEGMENT
??_C@_03KIBNPMNE@F12?$AA@ DB 'F12', 00H			; `string'
CONST	ENDS
;	COMDAT ??_C@_03IDDAKPBH@F11?$AA@
CONST	SEGMENT
??_C@_03IDDAKPBH@F11?$AA@ DB 'F11', 00H			; `string'
CONST	ENDS
;	COMDAT ??_C@_05BAHDBLKA@SysRq?$AA@
CONST	SEGMENT
??_C@_05BAHDBLKA@SysRq?$AA@ DB 'SysRq', 00H		; `string'
CONST	ENDS
;	COMDAT ??_C@_05LAFLDKON@Num?5?4?$AA@
CONST	SEGMENT
??_C@_05LAFLDKON@Num?5?4?$AA@ DB 'Num .', 00H		; `string'
CONST	ENDS
;	COMDAT ??_C@_01GBGANLPD@0?$AA@
CONST	SEGMENT
??_C@_01GBGANLPD@0?$AA@ DB '0', 00H			; `string'
CONST	ENDS
;	COMDAT ??_C@_01EKENIIDA@3?$AA@
CONST	SEGMENT
??_C@_01EKENIIDA@3?$AA@ DB '3', 00H			; `string'
CONST	ENDS
;	COMDAT ??_C@_01FDFGLJHB@2?$AA@
CONST	SEGMENT
??_C@_01FDFGLJHB@2?$AA@ DB '2', 00H			; `string'
CONST	ENDS
;	COMDAT ??_C@_01HIHLOKLC@1?$AA@
CONST	SEGMENT
??_C@_01HIHLOKLC@1?$AA@ DB '1', 00H			; `string'
CONST	ENDS
;	COMDAT ??_C@_01MIFGBAGJ@?$CL?$AA@
CONST	SEGMENT
??_C@_01MIFGBAGJ@?$CL?$AA@ DB '+', 00H			; `string'
CONST	ENDS
;	COMDAT ??_C@_01DHDKHMHF@6?$AA@
CONST	SEGMENT
??_C@_01DHDKHMHF@6?$AA@ DB '6', 00H			; `string'
CONST	ENDS
;	COMDAT ??_C@_01BMBHCPLG@5?$AA@
CONST	SEGMENT
??_C@_01BMBHCPLG@5?$AA@ DB '5', 00H			; `string'
CONST	ENDS
;	COMDAT ??_C@_01FAMBOPH@4?$AA@
CONST	SEGMENT
??_C@_01FAMBOPH@4?$AA@ DB '4', 00H			; `string'
CONST	ENDS
;	COMDAT ??_C@_01JOAMLHOP@?9?$AA@
CONST	SEGMENT
??_C@_01JOAMLHOP@?9?$AA@ DB '-', 00H			; `string'
CONST	ENDS
;	COMDAT ??_C@_01LAKCGALK@9?$AA@
CONST	SEGMENT
??_C@_01LAKCGALK@9?$AA@ DB '9', 00H			; `string'
CONST	ENDS
;	COMDAT ??_C@_01KJLJFBPL@8?$AA@
CONST	SEGMENT
??_C@_01KJLJFBPL@8?$AA@ DB '8', 00H			; `string'
CONST	ENDS
;	COMDAT ??_C@_01COCBENDE@7?$AA@
CONST	SEGMENT
??_C@_01COCBENDE@7?$AA@ DB '7', 00H			; `string'
CONST	ENDS
;	COMDAT ??_C@_08DEAFBBCL@Num?5Lock?$AA@
CONST	SEGMENT
??_C@_08DEAFBBCL@Num?5Lock?$AA@ DB 'Num Lock', 00H	; `string'
CONST	ENDS
;	COMDAT ??_C@_03JKCLJOFG@F10?$AA@
CONST	SEGMENT
??_C@_03JKCLJOFG@F10?$AA@ DB 'F10', 00H			; `string'
CONST	ENDS
;	COMDAT ??_C@_02HKCNFKCF@F9?$AA@
CONST	SEGMENT
??_C@_02HKCNFKCF@F9?$AA@ DB 'F9', 00H			; `string'
CONST	ENDS
;	COMDAT ??_C@_02GDDGGLGE@F8?$AA@
CONST	SEGMENT
??_C@_02GDDGGLGE@F8?$AA@ DB 'F8', 00H			; `string'
CONST	ENDS
;	COMDAT ??_C@_02OEKOHHKL@F7?$AA@
CONST	SEGMENT
??_C@_02OEKOHHKL@F7?$AA@ DB 'F7', 00H			; `string'
CONST	ENDS
;	COMDAT ??_C@_02PNLFEGOK@F6?$AA@
CONST	SEGMENT
??_C@_02PNLFEGOK@F6?$AA@ DB 'F6', 00H			; `string'
CONST	ENDS
;	COMDAT ??_C@_02NGJIBFCJ@F5?$AA@
CONST	SEGMENT
??_C@_02NGJIBFCJ@F5?$AA@ DB 'F5', 00H			; `string'
CONST	ENDS
;	COMDAT ??_C@_02MPIDCEGI@F4?$AA@
CONST	SEGMENT
??_C@_02MPIDCEGI@F4?$AA@ DB 'F4', 00H			; `string'
CONST	ENDS
;	COMDAT ??_C@_02IAMCLCKP@F3?$AA@
CONST	SEGMENT
??_C@_02IAMCLCKP@F3?$AA@ DB 'F3', 00H			; `string'
CONST	ENDS
;	COMDAT ??_C@_02JJNJIDOO@F2?$AA@
CONST	SEGMENT
??_C@_02JJNJIDOO@F2?$AA@ DB 'F2', 00H			; `string'
CONST	ENDS
;	COMDAT ??_C@_02LCPENACN@F1?$AA@
CONST	SEGMENT
??_C@_02LCPENACN@F1?$AA@ DB 'F1', 00H			; `string'
CONST	ENDS
;	COMDAT ??_C@_09GGECHFNF@Caps?5Lock?$AA@
CONST	SEGMENT
??_C@_09GGECHFNF@Caps?5Lock?$AA@ DB 'Caps Lock', 00H	; `string'
CONST	ENDS
;	COMDAT ??_C@_05OMHELODH@Space?$AA@
CONST	SEGMENT
??_C@_05OMHELODH@Space?$AA@ DB 'Space', 00H		; `string'
CONST	ENDS
;	COMDAT ??_C@_08CJHJBNHP@Left?5Alt?$AA@
CONST	SEGMENT
??_C@_08CJHJBNHP@Left?5Alt?$AA@ DB 'Left Alt', 00H	; `string'
CONST	ENDS
;	COMDAT ??_C@_01NBENCBCI@?$CK?$AA@
CONST	SEGMENT
??_C@_01NBENCBCI@?$CK?$AA@ DB '*', 00H			; `string'
CONST	ENDS
;	COMDAT ??_C@_0M@COKLDKMB@Right?5Shift?$AA@
CONST	SEGMENT
??_C@_0M@COKLDKMB@Right?5Shift?$AA@ DB 'Right Shift', 00H ; `string'
CONST	ENDS
;	COMDAT ??_C@_01KMDKNFGN@?1?$AA@
CONST	SEGMENT
??_C@_01KMDKNFGN@?1?$AA@ DB '/', 00H			; `string'
CONST	ENDS
;	COMDAT ??_C@_01LFCBOECM@?4?$AA@
CONST	SEGMENT
??_C@_01LFCBOECM@?4?$AA@ DB '.', 00H			; `string'
CONST	ENDS
;	COMDAT ??_C@_01IHBHIGKO@?0?$AA@
CONST	SEGMENT
??_C@_01IHBHIGKO@?0?$AA@ DB ',', 00H			; `string'
CONST	ENDS
;	COMDAT ??_C@_01PLPBNMEI@M?$AA@
CONST	SEGMENT
??_C@_01PLPBNMEI@M?$AA@ DB 'M', 00H			; `string'
CONST	ENDS
;	COMDAT ??_C@_01NANMIPIL@N?$AA@
CONST	SEGMENT
??_C@_01NANMIPIL@N?$AA@ DB 'N', 00H			; `string'
CONST	ENDS
;	COMDAT ??_C@_01HMGJMAIH@B?$AA@
CONST	SEGMENT
??_C@_01HMGJMAIH@B?$AA@ DB 'B', 00H			; `string'
CONST	ENDS
;	COMDAT ??_C@_01FCMHBHNC@V?$AA@
CONST	SEGMENT
??_C@_01FCMHBHNC@V?$AA@ DB 'V', 00H			; `string'
CONST	ENDS
;	COMDAT ??_C@_01GFHCPBMG@C?$AA@
CONST	SEGMENT
??_C@_01GFHCPBMG@C?$AA@ DB 'C', 00H			; `string'
CONST	ENDS
;	COMDAT ??_C@_01MMEEDKFM@X?$AA@
CONST	SEGMENT
??_C@_01MMEEDKFM@X?$AA@ DB 'X', 00H			; `string'
CONST	ENDS
;	COMDAT ??_C@_01POHCFINO@Z?$AA@
CONST	SEGMENT
??_C@_01POHCFINO@Z?$AA@ DB 'Z', 00H			; `string'
CONST	ENDS
;	COMDAT ??_C@_01KICIPPFI@?2?$AA@
CONST	SEGMENT
??_C@_01KICIPPFI@?2?$AA@ DB '\', 00H			; `string'
CONST	ENDS
;	COMDAT ??_C@_0L@NFEFKBOL@Left?5Shift?$AA@
CONST	SEGMENT
??_C@_0L@NFEFKBOL@Left?5Shift?$AA@ DB 'Left Shift', 00H	; `string'
CONST	ENDS
;	COMDAT ??_C@_01NLNLIGKH@?$GA?$AA@
CONST	SEGMENT
??_C@_01NLNLIGKH@?$GA?$AA@ DB '`', 00H			; `string'
CONST	ENDS
;	COMDAT ??_C@_01GEODFPGF@?8?$AA@
CONST	SEGMENT
??_C@_01GEODFPGF@?8?$AA@ DB '''', 00H			; `string'
CONST	ENDS
;	COMDAT ??_C@_01ICJEACDI@?$DL?$AA@
CONST	SEGMENT
??_C@_01ICJEACDI@?$DL?$AA@ DB ';', 00H			; `string'
CONST	ENDS
;	COMDAT ??_C@_01OCOKONAJ@L?$AA@
CONST	SEGMENT
??_C@_01OCOKONAJ@L?$AA@ DB 'L', 00H			; `string'
CONST	ENDS
;	COMDAT ??_C@_01KNKLHLMO@K?$AA@
CONST	SEGMENT
??_C@_01KNKLHLMO@K?$AA@ DB 'K', 00H			; `string'
CONST	ENDS
;	COMDAT ??_C@_01LELAEKIP@J?$AA@
CONST	SEGMENT
??_C@_01LELAEKIP@J?$AA@ DB 'J', 00H			; `string'
CONST	ENDS
;	COMDAT ??_C@_01IGIGCIAN@H?$AA@
CONST	SEGMENT
??_C@_01IGIGCIAN@H?$AA@ DB 'H', 00H			; `string'
CONST	ENDS
;	COMDAT ??_C@_01BBODEMC@G?$AA@
CONST	SEGMENT
??_C@_01BBODEMC@G?$AA@ DB 'G', 00H			; `string'
CONST	ENDS
;	COMDAT ??_C@_01BIAFAFID@F?$AA@
CONST	SEGMENT
??_C@_01BIAFAFID@F?$AA@ DB 'F', 00H			; `string'
CONST	ENDS
;	COMDAT ??_C@_01CKDDGHAB@D?$AA@
CONST	SEGMENT
??_C@_01CKDDGHAB@D?$AA@ DB 'D', 00H			; `string'
CONST	ENDS
;	COMDAT ??_C@_01CPLAODJH@S?$AA@
CONST	SEGMENT
??_C@_01CPLAODJH@S?$AA@ DB 'S', 00H			; `string'
CONST	ENDS
;	COMDAT ??_C@_01FHEEJDEE@A?$AA@
CONST	SEGMENT
??_C@_01FHEEJDEE@A?$AA@ DB 'A', 00H			; `string'
CONST	ENDS
;	COMDAT ??_C@_0N@NMKGAIJ@Left?5Control?$AA@
CONST	SEGMENT
??_C@_0N@NMKGAIJ@Left?5Control?$AA@ DB 'Left Control', 00H ; `string'
CONST	ENDS
;	COMDAT ??_C@_0M@ICALLIHK@Right?5Enter?$AA@
CONST	SEGMENT
??_C@_0M@ICALLIHK@Right?5Enter?$AA@ DB 'Right Enter', 00H ; `string'
CONST	ENDS
;	COMDAT ??_C@_01LBDDMOBJ@?$FN?$AA@
CONST	SEGMENT
??_C@_01LBDDMOBJ@?$FN?$AA@ DB ']', 00H			; `string'
CONST	ENDS
;	COMDAT ??_C@_01OHGJGJJP@?$FL?$AA@
CONST	SEGMENT
??_C@_01OHGJGJJP@?$FL?$AA@ DB '[', 00H			; `string'
CONST	ENDS
;	COMDAT ??_C@_01EJNLAFE@P?$AA@
CONST	SEGMENT
??_C@_01EJNLAFE@P?$AA@ DB 'P', 00H			; `string'
CONST	ENDS
;	COMDAT ??_C@_01MJMHLOMK@O?$AA@
CONST	SEGMENT
??_C@_01MJMHLOMK@O?$AA@ DB 'O', 00H			; `string'
CONST	ENDS
;	COMDAT ??_C@_01JPJNBJEM@I?$AA@
CONST	SEGMENT
??_C@_01JPJNBJEM@I?$AA@ DB 'I', 00H			; `string'
CONST	ENDS
;	COMDAT ??_C@_01HJOKEEBB@U?$AA@
CONST	SEGMENT
??_C@_01HJOKEEBB@U?$AA@ DB 'U', 00H			; `string'
CONST	ENDS
;	COMDAT ??_C@_01NFFPALBN@Y?$AA@
CONST	SEGMENT
??_C@_01NFFPALBN@Y?$AA@ DB 'Y', 00H			; `string'
CONST	ENDS
;	COMDAT ??_C@_01GAPBHFFA@T?$AA@
CONST	SEGMENT
??_C@_01GAPBHFFA@T?$AA@ DB 'T', 00H			; `string'
CONST	ENDS
;	COMDAT ??_C@_01DGKLNCNG@R?$AA@
CONST	SEGMENT
??_C@_01DGKLNCNG@R?$AA@ DB 'R', 00H			; `string'
CONST	ENDS
;	COMDAT ??_C@_01DDCIFGEA@E?$AA@
CONST	SEGMENT
??_C@_01DDCIFGEA@E?$AA@ DB 'E', 00H			; `string'
CONST	ENDS
;	COMDAT ??_C@_01ELNMCGJD@W?$AA@
CONST	SEGMENT
??_C@_01ELNMCGJD@W?$AA@ DB 'W', 00H			; `string'
CONST	ENDS
;	COMDAT ??_C@_01BNIGIBBF@Q?$AA@
CONST	SEGMENT
??_C@_01BNIGIBBF@Q?$AA@ DB 'Q', 00H			; `string'
CONST	ENDS
;	COMDAT ??_C@_03IEAKBACE@Tab?$AA@
CONST	SEGMENT
??_C@_03IEAKBACE@Tab?$AA@ DB 'Tab', 00H			; `string'
CONST	ENDS
;	COMDAT ??_C@_09LPBCIPOJ@Backspace?$AA@
CONST	SEGMENT
??_C@_09LPBCIPOJ@Backspace?$AA@ DB 'Backspace', 00H	; `string'
CONST	ENDS
;	COMDAT ??_C@_05MLOMHBGD@?$DN?5Key?$AA@
CONST	SEGMENT
??_C@_05MLOMHBGD@?$DN?5Key?$AA@ DB '= Key', 00H		; `string'
CONST	ENDS
;	COMDAT ??_C@_05MIDKHDPI@?9?5Key?$AA@
CONST	SEGMENT
??_C@_05MIDKHDPI@?9?5Key?$AA@ DB '- Key', 00H		; `string'
CONST	ENDS
;	COMDAT ??_C@_05HHHCGCLN@0?5Key?$AA@
CONST	SEGMENT
??_C@_05HHHCGCLN@0?5Key?$AA@ DB '0 Key', 00H		; `string'
CONST	ENDS
;	COMDAT ??_C@_05FAHNDDHF@9?5Key?$AA@
CONST	SEGMENT
??_C@_05FAHNDDHF@9?5Key?$AA@ DB '9 Key', 00H		; `string'
CONST	ENDS
;	COMDAT ??_C@_05JLCBOANA@8?5Key?$AA@
CONST	SEGMENT
??_C@_05JLCBOANA@8?5Key?$AA@ DB '8 Key', 00H		; `string'
CONST	ENDS
;	COMDAT ??_C@_05GKHHFCAF@7?5Key?$AA@
CONST	SEGMENT
??_C@_05GKHHFCAF@7?5Key?$AA@ DB '7 Key', 00H		; `string'
CONST	ENDS
;	COMDAT ??_C@_05KBCLIBKA@6?5Key?$AA@
CONST	SEGMENT
??_C@_05KBCLIBKA@6?5Key?$AA@ DB '6 Key', 00H		; `string'
CONST	ENDS
;	COMDAT ??_C@_05CHLPPDAO@5?5Key?$AA@
CONST	SEGMENT
??_C@_05CHLPPDAO@5?5Key?$AA@ DB '5 Key', 00H		; `string'
CONST	ENDS
;	COMDAT ??_C@_05OMODCAKL@4?5Key?$AA@
CONST	SEGMENT
??_C@_05OMODCAKL@4?5Key?$AA@ DB '4 Key', 00H		; `string'
CONST	ENDS
;	COMDAT ??_C@_05PBOGBABD@3?5Key?$AA@
CONST	SEGMENT
??_C@_05PBOGBABD@3?5Key?$AA@ DB '3 Key', 00H		; `string'
CONST	ENDS
;	COMDAT ??_C@_05DKLKMDLG@2?5Key?$AA@
CONST	SEGMENT
??_C@_05DKLKMDLG@2?5Key?$AA@ DB '2 Key', 00H		; `string'
CONST	ENDS
;	COMDAT ??_C@_05LMCOLBBI@1?5Key?$AA@
CONST	SEGMENT
??_C@_05LMCOLBBI@1?5Key?$AA@ DB '1 Key', 00H		; `string'
CONST	ENDS
;	COMDAT ??_C@_06OIGFGPHJ@Escape?$AA@
CONST	SEGMENT
??_C@_06OIGFGPHJ@Escape?$AA@ DB 'Escape', 00H		; `string'
CONST	ENDS
;	COMDAT ??_C@_08OFADHOMM@Null?5Key?$AA@
CONST	SEGMENT
??_C@_08OFADHOMM@Null?5Key?$AA@ DB 'Null Key', 00H	; `string'
; Function compile flags: /Odtp /ZI
CONST	ENDS
;	COMDAT ??0KeyHandler@@QAE@XZ
_TEXT	SEGMENT
_i$91249 = -3620					; size = 4
_j$91245 = -3616					; size = 4
_i$91241 = -3612					; size = 4
_Temp$ = -3608						; size = 3598
_this$ = -8						; size = 4
__$ArrayPad$ = -4					; size = 4
??0KeyHandler@@QAE@XZ PROC				; KeyHandler::KeyHandler, COMDAT
; _this$ = ecx

; 539  : {

  00000	55		 push	 ebp
  00001	8b ec		 mov	 ebp, esp
  00003	81 ec 64 0e 00
	00		 sub	 esp, 3684		; 00000e64H
  00009	a1 00 00 00 00	 mov	 eax, DWORD PTR ___security_cookie
  0000e	33 c5		 xor	 eax, ebp
  00010	89 45 fc	 mov	 DWORD PTR __$ArrayPad$[ebp], eax
  00013	53		 push	 ebx
  00014	56		 push	 esi
  00015	57		 push	 edi
  00016	89 4d f8	 mov	 DWORD PTR _this$[ebp], ecx

; 540  : 	char Temp[257][14]={"Null Key","Escape","1 Key","2 Key","3 Key","4 Key","5 Key","6 Key","7 Key","8 Key","9 Key","0 Key","- Key","= Key","Backspace","Tab","Q",

  00019	a1 00 00 00 00	 mov	 eax, DWORD PTR ??_C@_08OFADHOMM@Null?5Key?$AA@
  0001e	89 85 e8 f1 ff
	ff		 mov	 DWORD PTR _Temp$[ebp], eax
  00024	8b 0d 04 00 00
	00		 mov	 ecx, DWORD PTR ??_C@_08OFADHOMM@Null?5Key?$AA@+4
  0002a	89 8d ec f1 ff
	ff		 mov	 DWORD PTR _Temp$[ebp+4], ecx
  00030	8a 15 08 00 00
	00		 mov	 dl, BYTE PTR ??_C@_08OFADHOMM@Null?5Key?$AA@+8
  00036	88 95 f0 f1 ff
	ff		 mov	 BYTE PTR _Temp$[ebp+8], dl
  0003c	33 c0		 xor	 eax, eax
  0003e	89 85 f1 f1 ff
	ff		 mov	 DWORD PTR _Temp$[ebp+9], eax
  00044	88 85 f5 f1 ff
	ff		 mov	 BYTE PTR _Temp$[ebp+13], al
  0004a	a1 00 00 00 00	 mov	 eax, DWORD PTR ??_C@_06OIGFGPHJ@Escape?$AA@
  0004f	89 85 f6 f1 ff
	ff		 mov	 DWORD PTR _Temp$[ebp+14], eax
  00055	66 8b 0d 04 00
	00 00		 mov	 cx, WORD PTR ??_C@_06OIGFGPHJ@Escape?$AA@+4
  0005c	66 89 8d fa f1
	ff ff		 mov	 WORD PTR _Temp$[ebp+18], cx
  00063	8a 15 06 00 00
	00		 mov	 dl, BYTE PTR ??_C@_06OIGFGPHJ@Escape?$AA@+6
  00069	88 95 fc f1 ff
	ff		 mov	 BYTE PTR _Temp$[ebp+20], dl
  0006f	33 c0		 xor	 eax, eax
  00071	89 85 fd f1 ff
	ff		 mov	 DWORD PTR _Temp$[ebp+21], eax
  00077	66 89 85 01 f2
	ff ff		 mov	 WORD PTR _Temp$[ebp+25], ax
  0007e	88 85 03 f2 ff
	ff		 mov	 BYTE PTR _Temp$[ebp+27], al
  00084	a1 00 00 00 00	 mov	 eax, DWORD PTR ??_C@_05LMCOLBBI@1?5Key?$AA@
  00089	89 85 04 f2 ff
	ff		 mov	 DWORD PTR _Temp$[ebp+28], eax
  0008f	66 8b 0d 04 00
	00 00		 mov	 cx, WORD PTR ??_C@_05LMCOLBBI@1?5Key?$AA@+4
  00096	66 89 8d 08 f2
	ff ff		 mov	 WORD PTR _Temp$[ebp+32], cx
  0009d	33 c0		 xor	 eax, eax
  0009f	89 85 0a f2 ff
	ff		 mov	 DWORD PTR _Temp$[ebp+34], eax
  000a5	89 85 0e f2 ff
	ff		 mov	 DWORD PTR _Temp$[ebp+38], eax
  000ab	a1 00 00 00 00	 mov	 eax, DWORD PTR ??_C@_05DKLKMDLG@2?5Key?$AA@
  000b0	89 85 12 f2 ff
	ff		 mov	 DWORD PTR _Temp$[ebp+42], eax
  000b6	66 8b 0d 04 00
	00 00		 mov	 cx, WORD PTR ??_C@_05DKLKMDLG@2?5Key?$AA@+4
  000bd	66 89 8d 16 f2
	ff ff		 mov	 WORD PTR _Temp$[ebp+46], cx
  000c4	33 c0		 xor	 eax, eax
  000c6	89 85 18 f2 ff
	ff		 mov	 DWORD PTR _Temp$[ebp+48], eax
  000cc	89 85 1c f2 ff
	ff		 mov	 DWORD PTR _Temp$[ebp+52], eax
  000d2	a1 00 00 00 00	 mov	 eax, DWORD PTR ??_C@_05PBOGBABD@3?5Key?$AA@
  000d7	89 85 20 f2 ff
	ff		 mov	 DWORD PTR _Temp$[ebp+56], eax
  000dd	66 8b 0d 04 00
	00 00		 mov	 cx, WORD PTR ??_C@_05PBOGBABD@3?5Key?$AA@+4
  000e4	66 89 8d 24 f2
	ff ff		 mov	 WORD PTR _Temp$[ebp+60], cx
  000eb	33 c0		 xor	 eax, eax
  000ed	89 85 26 f2 ff
	ff		 mov	 DWORD PTR _Temp$[ebp+62], eax
  000f3	89 85 2a f2 ff
	ff		 mov	 DWORD PTR _Temp$[ebp+66], eax
  000f9	a1 00 00 00 00	 mov	 eax, DWORD PTR ??_C@_05OMODCAKL@4?5Key?$AA@
  000fe	89 85 2e f2 ff
	ff		 mov	 DWORD PTR _Temp$[ebp+70], eax
  00104	66 8b 0d 04 00
	00 00		 mov	 cx, WORD PTR ??_C@_05OMODCAKL@4?5Key?$AA@+4
  0010b	66 89 8d 32 f2
	ff ff		 mov	 WORD PTR _Temp$[ebp+74], cx
  00112	33 c0		 xor	 eax, eax
  00114	89 85 34 f2 ff
	ff		 mov	 DWORD PTR _Temp$[ebp+76], eax
  0011a	89 85 38 f2 ff
	ff		 mov	 DWORD PTR _Temp$[ebp+80], eax
  00120	a1 00 00 00 00	 mov	 eax, DWORD PTR ??_C@_05CHLPPDAO@5?5Key?$AA@
  00125	89 85 3c f2 ff
	ff		 mov	 DWORD PTR _Temp$[ebp+84], eax
  0012b	66 8b 0d 04 00
	00 00		 mov	 cx, WORD PTR ??_C@_05CHLPPDAO@5?5Key?$AA@+4
  00132	66 89 8d 40 f2
	ff ff		 mov	 WORD PTR _Temp$[ebp+88], cx
  00139	33 c0		 xor	 eax, eax
  0013b	89 85 42 f2 ff
	ff		 mov	 DWORD PTR _Temp$[ebp+90], eax
  00141	89 85 46 f2 ff
	ff		 mov	 DWORD PTR _Temp$[ebp+94], eax
  00147	a1 00 00 00 00	 mov	 eax, DWORD PTR ??_C@_05KBCLIBKA@6?5Key?$AA@
  0014c	89 85 4a f2 ff
	ff		 mov	 DWORD PTR _Temp$[ebp+98], eax
  00152	66 8b 0d 04 00
	00 00		 mov	 cx, WORD PTR ??_C@_05KBCLIBKA@6?5Key?$AA@+4
  00159	66 89 8d 4e f2
	ff ff		 mov	 WORD PTR _Temp$[ebp+102], cx
  00160	33 c0		 xor	 eax, eax
  00162	89 85 50 f2 ff
	ff		 mov	 DWORD PTR _Temp$[ebp+104], eax
  00168	89 85 54 f2 ff
	ff		 mov	 DWORD PTR _Temp$[ebp+108], eax
  0016e	a1 00 00 00 00	 mov	 eax, DWORD PTR ??_C@_05GKHHFCAF@7?5Key?$AA@
  00173	89 85 58 f2 ff
	ff		 mov	 DWORD PTR _Temp$[ebp+112], eax
  00179	66 8b 0d 04 00
	00 00		 mov	 cx, WORD PTR ??_C@_05GKHHFCAF@7?5Key?$AA@+4
  00180	66 89 8d 5c f2
	ff ff		 mov	 WORD PTR _Temp$[ebp+116], cx
  00187	33 c0		 xor	 eax, eax
  00189	89 85 5e f2 ff
	ff		 mov	 DWORD PTR _Temp$[ebp+118], eax
  0018f	89 85 62 f2 ff
	ff		 mov	 DWORD PTR _Temp$[ebp+122], eax
  00195	a1 00 00 00 00	 mov	 eax, DWORD PTR ??_C@_05JLCBOANA@8?5Key?$AA@
  0019a	89 85 66 f2 ff
	ff		 mov	 DWORD PTR _Temp$[ebp+126], eax
  001a0	66 8b 0d 04 00
	00 00		 mov	 cx, WORD PTR ??_C@_05JLCBOANA@8?5Key?$AA@+4
  001a7	66 89 8d 6a f2
	ff ff		 mov	 WORD PTR _Temp$[ebp+130], cx
  001ae	33 c0		 xor	 eax, eax
  001b0	89 85 6c f2 ff
	ff		 mov	 DWORD PTR _Temp$[ebp+132], eax
  001b6	89 85 70 f2 ff
	ff		 mov	 DWORD PTR _Temp$[ebp+136], eax
  001bc	a1 00 00 00 00	 mov	 eax, DWORD PTR ??_C@_05FAHNDDHF@9?5Key?$AA@
  001c1	89 85 74 f2 ff
	ff		 mov	 DWORD PTR _Temp$[ebp+140], eax
  001c7	66 8b 0d 04 00
	00 00		 mov	 cx, WORD PTR ??_C@_05FAHNDDHF@9?5Key?$AA@+4
  001ce	66 89 8d 78 f2
	ff ff		 mov	 WORD PTR _Temp$[ebp+144], cx
  001d5	33 c0		 xor	 eax, eax
  001d7	89 85 7a f2 ff
	ff		 mov	 DWORD PTR _Temp$[ebp+146], eax
  001dd	89 85 7e f2 ff
	ff		 mov	 DWORD PTR _Temp$[ebp+150], eax
  001e3	a1 00 00 00 00	 mov	 eax, DWORD PTR ??_C@_05HHHCGCLN@0?5Key?$AA@
  001e8	89 85 82 f2 ff
	ff		 mov	 DWORD PTR _Temp$[ebp+154], eax
  001ee	66 8b 0d 04 00
	00 00		 mov	 cx, WORD PTR ??_C@_05HHHCGCLN@0?5Key?$AA@+4
  001f5	66 89 8d 86 f2
	ff ff		 mov	 WORD PTR _Temp$[ebp+158], cx
  001fc	33 c0		 xor	 eax, eax
  001fe	89 85 88 f2 ff
	ff		 mov	 DWORD PTR _Temp$[ebp+160], eax
  00204	89 85 8c f2 ff
	ff		 mov	 DWORD PTR _Temp$[ebp+164], eax
  0020a	a1 00 00 00 00	 mov	 eax, DWORD PTR ??_C@_05MIDKHDPI@?9?5Key?$AA@
  0020f	89 85 90 f2 ff
	ff		 mov	 DWORD PTR _Temp$[ebp+168], eax
  00215	66 8b 0d 04 00
	00 00		 mov	 cx, WORD PTR ??_C@_05MIDKHDPI@?9?5Key?$AA@+4
  0021c	66 89 8d 94 f2
	ff ff		 mov	 WORD PTR _Temp$[ebp+172], cx
  00223	33 c0		 xor	 eax, eax
  00225	89 85 96 f2 ff
	ff		 mov	 DWORD PTR _Temp$[ebp+174], eax
  0022b	89 85 9a f2 ff
	ff		 mov	 DWORD PTR _Temp$[ebp+178], eax
  00231	a1 00 00 00 00	 mov	 eax, DWORD PTR ??_C@_05MLOMHBGD@?$DN?5Key?$AA@
  00236	89 85 9e f2 ff
	ff		 mov	 DWORD PTR _Temp$[ebp+182], eax
  0023c	66 8b 0d 04 00
	00 00		 mov	 cx, WORD PTR ??_C@_05MLOMHBGD@?$DN?5Key?$AA@+4
  00243	66 89 8d a2 f2
	ff ff		 mov	 WORD PTR _Temp$[ebp+186], cx
  0024a	33 c0		 xor	 eax, eax
  0024c	89 85 a4 f2 ff
	ff		 mov	 DWORD PTR _Temp$[ebp+188], eax
  00252	89 85 a8 f2 ff
	ff		 mov	 DWORD PTR _Temp$[ebp+192], eax
  00258	a1 00 00 00 00	 mov	 eax, DWORD PTR ??_C@_09LPBCIPOJ@Backspace?$AA@
  0025d	89 85 ac f2 ff
	ff		 mov	 DWORD PTR _Temp$[ebp+196], eax
  00263	8b 0d 04 00 00
	00		 mov	 ecx, DWORD PTR ??_C@_09LPBCIPOJ@Backspace?$AA@+4
  00269	89 8d b0 f2 ff
	ff		 mov	 DWORD PTR _Temp$[ebp+200], ecx
  0026f	66 8b 15 08 00
	00 00		 mov	 dx, WORD PTR ??_C@_09LPBCIPOJ@Backspace?$AA@+8
  00276	66 89 95 b4 f2
	ff ff		 mov	 WORD PTR _Temp$[ebp+204], dx
  0027d	33 c0		 xor	 eax, eax
  0027f	89 85 b6 f2 ff
	ff		 mov	 DWORD PTR _Temp$[ebp+206], eax
  00285	a1 00 00 00 00	 mov	 eax, DWORD PTR ??_C@_03IEAKBACE@Tab?$AA@
  0028a	89 85 ba f2 ff
	ff		 mov	 DWORD PTR _Temp$[ebp+210], eax
  00290	33 c0		 xor	 eax, eax
  00292	89 85 be f2 ff
	ff		 mov	 DWORD PTR _Temp$[ebp+214], eax
  00298	89 85 c2 f2 ff
	ff		 mov	 DWORD PTR _Temp$[ebp+218], eax
  0029e	66 89 85 c6 f2
	ff ff		 mov	 WORD PTR _Temp$[ebp+222], ax
  002a5	66 a1 00 00 00
	00		 mov	 ax, WORD PTR ??_C@_01BNIGIBBF@Q?$AA@
  002ab	66 89 85 c8 f2
	ff ff		 mov	 WORD PTR _Temp$[ebp+224], ax
  002b2	33 c0		 xor	 eax, eax
  002b4	89 85 ca f2 ff
	ff		 mov	 DWORD PTR _Temp$[ebp+226], eax
  002ba	89 85 ce f2 ff
	ff		 mov	 DWORD PTR _Temp$[ebp+230], eax
  002c0	89 85 d2 f2 ff
	ff		 mov	 DWORD PTR _Temp$[ebp+234], eax

; 541  : 				  "W","E","R","T","Y","U","I","O","P","[","]","Right Enter","Left Control","A","S","D",

  002c6	66 a1 00 00 00
	00		 mov	 ax, WORD PTR ??_C@_01ELNMCGJD@W?$AA@
  002cc	66 89 85 d6 f2
	ff ff		 mov	 WORD PTR _Temp$[ebp+238], ax
  002d3	33 c0		 xor	 eax, eax
  002d5	89 85 d8 f2 ff
	ff		 mov	 DWORD PTR _Temp$[ebp+240], eax
  002db	89 85 dc f2 ff
	ff		 mov	 DWORD PTR _Temp$[ebp+244], eax
  002e1	89 85 e0 f2 ff
	ff		 mov	 DWORD PTR _Temp$[ebp+248], eax
  002e7	66 a1 00 00 00
	00		 mov	 ax, WORD PTR ??_C@_01DDCIFGEA@E?$AA@
  002ed	66 89 85 e4 f2
	ff ff		 mov	 WORD PTR _Temp$[ebp+252], ax
  002f4	33 c0		 xor	 eax, eax
  002f6	89 85 e6 f2 ff
	ff		 mov	 DWORD PTR _Temp$[ebp+254], eax
  002fc	89 85 ea f2 ff
	ff		 mov	 DWORD PTR _Temp$[ebp+258], eax
  00302	89 85 ee f2 ff
	ff		 mov	 DWORD PTR _Temp$[ebp+262], eax
  00308	66 a1 00 00 00
	00		 mov	 ax, WORD PTR ??_C@_01DGKLNCNG@R?$AA@
  0030e	66 89 85 f2 f2
	ff ff		 mov	 WORD PTR _Temp$[ebp+266], ax
  00315	33 c0		 xor	 eax, eax
  00317	89 85 f4 f2 ff
	ff		 mov	 DWORD PTR _Temp$[ebp+268], eax
  0031d	89 85 f8 f2 ff
	ff		 mov	 DWORD PTR _Temp$[ebp+272], eax
  00323	89 85 fc f2 ff
	ff		 mov	 DWORD PTR _Temp$[ebp+276], eax
  00329	66 a1 00 00 00
	00		 mov	 ax, WORD PTR ??_C@_01GAPBHFFA@T?$AA@
  0032f	66 89 85 00 f3
	ff ff		 mov	 WORD PTR _Temp$[ebp+280], ax
  00336	33 c0		 xor	 eax, eax
  00338	89 85 02 f3 ff
	ff		 mov	 DWORD PTR _Temp$[ebp+282], eax
  0033e	89 85 06 f3 ff
	ff		 mov	 DWORD PTR _Temp$[ebp+286], eax
  00344	89 85 0a f3 ff
	ff		 mov	 DWORD PTR _Temp$[ebp+290], eax
  0034a	66 a1 00 00 00
	00		 mov	 ax, WORD PTR ??_C@_01NFFPALBN@Y?$AA@
  00350	66 89 85 0e f3
	ff ff		 mov	 WORD PTR _Temp$[ebp+294], ax
  00357	33 c0		 xor	 eax, eax
  00359	89 85 10 f3 ff
	ff		 mov	 DWORD PTR _Temp$[ebp+296], eax
  0035f	89 85 14 f3 ff
	ff		 mov	 DWORD PTR _Temp$[ebp+300], eax
  00365	89 85 18 f3 ff
	ff		 mov	 DWORD PTR _Temp$[ebp+304], eax
  0036b	66 a1 00 00 00
	00		 mov	 ax, WORD PTR ??_C@_01HJOKEEBB@U?$AA@
  00371	66 89 85 1c f3
	ff ff		 mov	 WORD PTR _Temp$[ebp+308], ax
  00378	33 c0		 xor	 eax, eax
  0037a	89 85 1e f3 ff
	ff		 mov	 DWORD PTR _Temp$[ebp+310], eax
  00380	89 85 22 f3 ff
	ff		 mov	 DWORD PTR _Temp$[ebp+314], eax
  00386	89 85 26 f3 ff
	ff		 mov	 DWORD PTR _Temp$[ebp+318], eax
  0038c	66 a1 00 00 00
	00		 mov	 ax, WORD PTR ??_C@_01JPJNBJEM@I?$AA@
  00392	66 89 85 2a f3
	ff ff		 mov	 WORD PTR _Temp$[ebp+322], ax
  00399	33 c0		 xor	 eax, eax
  0039b	89 85 2c f3 ff
	ff		 mov	 DWORD PTR _Temp$[ebp+324], eax
  003a1	89 85 30 f3 ff
	ff		 mov	 DWORD PTR _Temp$[ebp+328], eax
  003a7	89 85 34 f3 ff
	ff		 mov	 DWORD PTR _Temp$[ebp+332], eax
  003ad	66 a1 00 00 00
	00		 mov	 ax, WORD PTR ??_C@_01MJMHLOMK@O?$AA@
  003b3	66 89 85 38 f3
	ff ff		 mov	 WORD PTR _Temp$[ebp+336], ax
  003ba	33 c0		 xor	 eax, eax
  003bc	89 85 3a f3 ff
	ff		 mov	 DWORD PTR _Temp$[ebp+338], eax
  003c2	89 85 3e f3 ff
	ff		 mov	 DWORD PTR _Temp$[ebp+342], eax
  003c8	89 85 42 f3 ff
	ff		 mov	 DWORD PTR _Temp$[ebp+346], eax
  003ce	66 a1 00 00 00
	00		 mov	 ax, WORD PTR ??_C@_01EJNLAFE@P?$AA@
  003d4	66 89 85 46 f3
	ff ff		 mov	 WORD PTR _Temp$[ebp+350], ax
  003db	33 c0		 xor	 eax, eax
  003dd	89 85 48 f3 ff
	ff		 mov	 DWORD PTR _Temp$[ebp+352], eax
  003e3	89 85 4c f3 ff
	ff		 mov	 DWORD PTR _Temp$[ebp+356], eax
  003e9	89 85 50 f3 ff
	ff		 mov	 DWORD PTR _Temp$[ebp+360], eax
  003ef	66 a1 00 00 00
	00		 mov	 ax, WORD PTR ??_C@_01OHGJGJJP@?$FL?$AA@
  003f5	66 89 85 54 f3
	ff ff		 mov	 WORD PTR _Temp$[ebp+364], ax
  003fc	33 c0		 xor	 eax, eax
  003fe	89 85 56 f3 ff
	ff		 mov	 DWORD PTR _Temp$[ebp+366], eax
  00404	89 85 5a f3 ff
	ff		 mov	 DWORD PTR _Temp$[ebp+370], eax
  0040a	89 85 5e f3 ff
	ff		 mov	 DWORD PTR _Temp$[ebp+374], eax
  00410	66 a1 00 00 00
	00		 mov	 ax, WORD PTR ??_C@_01LBDDMOBJ@?$FN?$AA@
  00416	66 89 85 62 f3
	ff ff		 mov	 WORD PTR _Temp$[ebp+378], ax
  0041d	33 c0		 xor	 eax, eax
  0041f	89 85 64 f3 ff
	ff		 mov	 DWORD PTR _Temp$[ebp+380], eax
  00425	89 85 68 f3 ff
	ff		 mov	 DWORD PTR _Temp$[ebp+384], eax
  0042b	89 85 6c f3 ff
	ff		 mov	 DWORD PTR _Temp$[ebp+388], eax
  00431	a1 00 00 00 00	 mov	 eax, DWORD PTR ??_C@_0M@ICALLIHK@Right?5Enter?$AA@
  00436	89 85 70 f3 ff
	ff		 mov	 DWORD PTR _Temp$[ebp+392], eax
  0043c	8b 0d 04 00 00
	00		 mov	 ecx, DWORD PTR ??_C@_0M@ICALLIHK@Right?5Enter?$AA@+4
  00442	89 8d 74 f3 ff
	ff		 mov	 DWORD PTR _Temp$[ebp+396], ecx
  00448	8b 15 08 00 00
	00		 mov	 edx, DWORD PTR ??_C@_0M@ICALLIHK@Right?5Enter?$AA@+8
  0044e	89 95 78 f3 ff
	ff		 mov	 DWORD PTR _Temp$[ebp+400], edx
  00454	33 c0		 xor	 eax, eax
  00456	66 89 85 7c f3
	ff ff		 mov	 WORD PTR _Temp$[ebp+404], ax
  0045d	a1 00 00 00 00	 mov	 eax, DWORD PTR ??_C@_0N@NMKGAIJ@Left?5Control?$AA@
  00462	89 85 7e f3 ff
	ff		 mov	 DWORD PTR _Temp$[ebp+406], eax
  00468	8b 0d 04 00 00
	00		 mov	 ecx, DWORD PTR ??_C@_0N@NMKGAIJ@Left?5Control?$AA@+4
  0046e	89 8d 82 f3 ff
	ff		 mov	 DWORD PTR _Temp$[ebp+410], ecx
  00474	8b 15 08 00 00
	00		 mov	 edx, DWORD PTR ??_C@_0N@NMKGAIJ@Left?5Control?$AA@+8
  0047a	89 95 86 f3 ff
	ff		 mov	 DWORD PTR _Temp$[ebp+414], edx
  00480	a0 0c 00 00 00	 mov	 al, BYTE PTR ??_C@_0N@NMKGAIJ@Left?5Control?$AA@+12
  00485	88 85 8a f3 ff
	ff		 mov	 BYTE PTR _Temp$[ebp+418], al
  0048b	33 c0		 xor	 eax, eax
  0048d	88 85 8b f3 ff
	ff		 mov	 BYTE PTR _Temp$[ebp+419], al
  00493	66 a1 00 00 00
	00		 mov	 ax, WORD PTR ??_C@_01FHEEJDEE@A?$AA@
  00499	66 89 85 8c f3
	ff ff		 mov	 WORD PTR _Temp$[ebp+420], ax
  004a0	33 c0		 xor	 eax, eax
  004a2	89 85 8e f3 ff
	ff		 mov	 DWORD PTR _Temp$[ebp+422], eax
  004a8	89 85 92 f3 ff
	ff		 mov	 DWORD PTR _Temp$[ebp+426], eax
  004ae	89 85 96 f3 ff
	ff		 mov	 DWORD PTR _Temp$[ebp+430], eax
  004b4	66 a1 00 00 00
	00		 mov	 ax, WORD PTR ??_C@_01CPLAODJH@S?$AA@
  004ba	66 89 85 9a f3
	ff ff		 mov	 WORD PTR _Temp$[ebp+434], ax
  004c1	33 c0		 xor	 eax, eax
  004c3	89 85 9c f3 ff
	ff		 mov	 DWORD PTR _Temp$[ebp+436], eax
  004c9	89 85 a0 f3 ff
	ff		 mov	 DWORD PTR _Temp$[ebp+440], eax
  004cf	89 85 a4 f3 ff
	ff		 mov	 DWORD PTR _Temp$[ebp+444], eax
  004d5	66 a1 00 00 00
	00		 mov	 ax, WORD PTR ??_C@_01CKDDGHAB@D?$AA@
  004db	66 89 85 a8 f3
	ff ff		 mov	 WORD PTR _Temp$[ebp+448], ax
  004e2	33 c0		 xor	 eax, eax
  004e4	89 85 aa f3 ff
	ff		 mov	 DWORD PTR _Temp$[ebp+450], eax
  004ea	89 85 ae f3 ff
	ff		 mov	 DWORD PTR _Temp$[ebp+454], eax
  004f0	89 85 b2 f3 ff
	ff		 mov	 DWORD PTR _Temp$[ebp+458], eax

; 542  : 				  "F","G","H","J","K","L",";","\'","`","Left Shift","\\","Z","X","C","V","B",

  004f6	66 a1 00 00 00
	00		 mov	 ax, WORD PTR ??_C@_01BIAFAFID@F?$AA@
  004fc	66 89 85 b6 f3
	ff ff		 mov	 WORD PTR _Temp$[ebp+462], ax
  00503	33 c0		 xor	 eax, eax
  00505	89 85 b8 f3 ff
	ff		 mov	 DWORD PTR _Temp$[ebp+464], eax
  0050b	89 85 bc f3 ff
	ff		 mov	 DWORD PTR _Temp$[ebp+468], eax
  00511	89 85 c0 f3 ff
	ff		 mov	 DWORD PTR _Temp$[ebp+472], eax
  00517	66 a1 00 00 00
	00		 mov	 ax, WORD PTR ??_C@_01BBODEMC@G?$AA@
  0051d	66 89 85 c4 f3
	ff ff		 mov	 WORD PTR _Temp$[ebp+476], ax
  00524	33 c0		 xor	 eax, eax
  00526	89 85 c6 f3 ff
	ff		 mov	 DWORD PTR _Temp$[ebp+478], eax
  0052c	89 85 ca f3 ff
	ff		 mov	 DWORD PTR _Temp$[ebp+482], eax
  00532	89 85 ce f3 ff
	ff		 mov	 DWORD PTR _Temp$[ebp+486], eax
  00538	66 a1 00 00 00
	00		 mov	 ax, WORD PTR ??_C@_01IGIGCIAN@H?$AA@
  0053e	66 89 85 d2 f3
	ff ff		 mov	 WORD PTR _Temp$[ebp+490], ax
  00545	33 c0		 xor	 eax, eax
  00547	89 85 d4 f3 ff
	ff		 mov	 DWORD PTR _Temp$[ebp+492], eax
  0054d	89 85 d8 f3 ff
	ff		 mov	 DWORD PTR _Temp$[ebp+496], eax
  00553	89 85 dc f3 ff
	ff		 mov	 DWORD PTR _Temp$[ebp+500], eax
  00559	66 a1 00 00 00
	00		 mov	 ax, WORD PTR ??_C@_01LELAEKIP@J?$AA@
  0055f	66 89 85 e0 f3
	ff ff		 mov	 WORD PTR _Temp$[ebp+504], ax
  00566	33 c0		 xor	 eax, eax
  00568	89 85 e2 f3 ff
	ff		 mov	 DWORD PTR _Temp$[ebp+506], eax
  0056e	89 85 e6 f3 ff
	ff		 mov	 DWORD PTR _Temp$[ebp+510], eax
  00574	89 85 ea f3 ff
	ff		 mov	 DWORD PTR _Temp$[ebp+514], eax
  0057a	66 a1 00 00 00
	00		 mov	 ax, WORD PTR ??_C@_01KNKLHLMO@K?$AA@
  00580	66 89 85 ee f3
	ff ff		 mov	 WORD PTR _Temp$[ebp+518], ax
  00587	33 c0		 xor	 eax, eax
  00589	89 85 f0 f3 ff
	ff		 mov	 DWORD PTR _Temp$[ebp+520], eax
  0058f	89 85 f4 f3 ff
	ff		 mov	 DWORD PTR _Temp$[ebp+524], eax
  00595	89 85 f8 f3 ff
	ff		 mov	 DWORD PTR _Temp$[ebp+528], eax
  0059b	66 a1 00 00 00
	00		 mov	 ax, WORD PTR ??_C@_01OCOKONAJ@L?$AA@
  005a1	66 89 85 fc f3
	ff ff		 mov	 WORD PTR _Temp$[ebp+532], ax
  005a8	33 c0		 xor	 eax, eax
  005aa	89 85 fe f3 ff
	ff		 mov	 DWORD PTR _Temp$[ebp+534], eax
  005b0	89 85 02 f4 ff
	ff		 mov	 DWORD PTR _Temp$[ebp+538], eax
  005b6	89 85 06 f4 ff
	ff		 mov	 DWORD PTR _Temp$[ebp+542], eax
  005bc	66 a1 00 00 00
	00		 mov	 ax, WORD PTR ??_C@_01ICJEACDI@?$DL?$AA@
  005c2	66 89 85 0a f4
	ff ff		 mov	 WORD PTR _Temp$[ebp+546], ax
  005c9	33 c0		 xor	 eax, eax
  005cb	89 85 0c f4 ff
	ff		 mov	 DWORD PTR _Temp$[ebp+548], eax
  005d1	89 85 10 f4 ff
	ff		 mov	 DWORD PTR _Temp$[ebp+552], eax
  005d7	89 85 14 f4 ff
	ff		 mov	 DWORD PTR _Temp$[ebp+556], eax
  005dd	66 a1 00 00 00
	00		 mov	 ax, WORD PTR ??_C@_01GEODFPGF@?8?$AA@
  005e3	66 89 85 18 f4
	ff ff		 mov	 WORD PTR _Temp$[ebp+560], ax
  005ea	33 c0		 xor	 eax, eax
  005ec	89 85 1a f4 ff
	ff		 mov	 DWORD PTR _Temp$[ebp+562], eax
  005f2	89 85 1e f4 ff
	ff		 mov	 DWORD PTR _Temp$[ebp+566], eax
  005f8	89 85 22 f4 ff
	ff		 mov	 DWORD PTR _Temp$[ebp+570], eax
  005fe	66 a1 00 00 00
	00		 mov	 ax, WORD PTR ??_C@_01NLNLIGKH@?$GA?$AA@
  00604	66 89 85 26 f4
	ff ff		 mov	 WORD PTR _Temp$[ebp+574], ax
  0060b	33 c0		 xor	 eax, eax
  0060d	89 85 28 f4 ff
	ff		 mov	 DWORD PTR _Temp$[ebp+576], eax
  00613	89 85 2c f4 ff
	ff		 mov	 DWORD PTR _Temp$[ebp+580], eax
  00619	89 85 30 f4 ff
	ff		 mov	 DWORD PTR _Temp$[ebp+584], eax
  0061f	a1 00 00 00 00	 mov	 eax, DWORD PTR ??_C@_0L@NFEFKBOL@Left?5Shift?$AA@
  00624	89 85 34 f4 ff
	ff		 mov	 DWORD PTR _Temp$[ebp+588], eax
  0062a	8b 0d 04 00 00
	00		 mov	 ecx, DWORD PTR ??_C@_0L@NFEFKBOL@Left?5Shift?$AA@+4
  00630	89 8d 38 f4 ff
	ff		 mov	 DWORD PTR _Temp$[ebp+592], ecx
  00636	66 8b 15 08 00
	00 00		 mov	 dx, WORD PTR ??_C@_0L@NFEFKBOL@Left?5Shift?$AA@+8
  0063d	66 89 95 3c f4
	ff ff		 mov	 WORD PTR _Temp$[ebp+596], dx
  00644	a0 0a 00 00 00	 mov	 al, BYTE PTR ??_C@_0L@NFEFKBOL@Left?5Shift?$AA@+10
  00649	88 85 3e f4 ff
	ff		 mov	 BYTE PTR _Temp$[ebp+598], al
  0064f	33 c0		 xor	 eax, eax
  00651	66 89 85 3f f4
	ff ff		 mov	 WORD PTR _Temp$[ebp+599], ax
  00658	88 85 41 f4 ff
	ff		 mov	 BYTE PTR _Temp$[ebp+601], al
  0065e	66 a1 00 00 00
	00		 mov	 ax, WORD PTR ??_C@_01KICIPPFI@?2?$AA@
  00664	66 89 85 42 f4
	ff ff		 mov	 WORD PTR _Temp$[ebp+602], ax
  0066b	33 c0		 xor	 eax, eax
  0066d	89 85 44 f4 ff
	ff		 mov	 DWORD PTR _Temp$[ebp+604], eax
  00673	89 85 48 f4 ff
	ff		 mov	 DWORD PTR _Temp$[ebp+608], eax
  00679	89 85 4c f4 ff
	ff		 mov	 DWORD PTR _Temp$[ebp+612], eax
  0067f	66 a1 00 00 00
	00		 mov	 ax, WORD PTR ??_C@_01POHCFINO@Z?$AA@
  00685	66 89 85 50 f4
	ff ff		 mov	 WORD PTR _Temp$[ebp+616], ax
  0068c	33 c0		 xor	 eax, eax
  0068e	89 85 52 f4 ff
	ff		 mov	 DWORD PTR _Temp$[ebp+618], eax
  00694	89 85 56 f4 ff
	ff		 mov	 DWORD PTR _Temp$[ebp+622], eax
  0069a	89 85 5a f4 ff
	ff		 mov	 DWORD PTR _Temp$[ebp+626], eax
  006a0	66 a1 00 00 00
	00		 mov	 ax, WORD PTR ??_C@_01MMEEDKFM@X?$AA@
  006a6	66 89 85 5e f4
	ff ff		 mov	 WORD PTR _Temp$[ebp+630], ax
  006ad	33 c0		 xor	 eax, eax
  006af	89 85 60 f4 ff
	ff		 mov	 DWORD PTR _Temp$[ebp+632], eax
  006b5	89 85 64 f4 ff
	ff		 mov	 DWORD PTR _Temp$[ebp+636], eax
  006bb	89 85 68 f4 ff
	ff		 mov	 DWORD PTR _Temp$[ebp+640], eax
  006c1	66 a1 00 00 00
	00		 mov	 ax, WORD PTR ??_C@_01GFHCPBMG@C?$AA@
  006c7	66 89 85 6c f4
	ff ff		 mov	 WORD PTR _Temp$[ebp+644], ax
  006ce	33 c0		 xor	 eax, eax
  006d0	89 85 6e f4 ff
	ff		 mov	 DWORD PTR _Temp$[ebp+646], eax
  006d6	89 85 72 f4 ff
	ff		 mov	 DWORD PTR _Temp$[ebp+650], eax
  006dc	89 85 76 f4 ff
	ff		 mov	 DWORD PTR _Temp$[ebp+654], eax
  006e2	66 a1 00 00 00
	00		 mov	 ax, WORD PTR ??_C@_01FCMHBHNC@V?$AA@
  006e8	66 89 85 7a f4
	ff ff		 mov	 WORD PTR _Temp$[ebp+658], ax
  006ef	33 c0		 xor	 eax, eax
  006f1	89 85 7c f4 ff
	ff		 mov	 DWORD PTR _Temp$[ebp+660], eax
  006f7	89 85 80 f4 ff
	ff		 mov	 DWORD PTR _Temp$[ebp+664], eax
  006fd	89 85 84 f4 ff
	ff		 mov	 DWORD PTR _Temp$[ebp+668], eax
  00703	66 a1 00 00 00
	00		 mov	 ax, WORD PTR ??_C@_01HMGJMAIH@B?$AA@
  00709	66 89 85 88 f4
	ff ff		 mov	 WORD PTR _Temp$[ebp+672], ax
  00710	33 c0		 xor	 eax, eax
  00712	89 85 8a f4 ff
	ff		 mov	 DWORD PTR _Temp$[ebp+674], eax
  00718	89 85 8e f4 ff
	ff		 mov	 DWORD PTR _Temp$[ebp+678], eax
  0071e	89 85 92 f4 ff
	ff		 mov	 DWORD PTR _Temp$[ebp+682], eax

; 543  : 				  "N","M",",",".","/","Right Shift","*","Left Alt","Space","Caps Lock","F1","F2","F3","F4","F5","F6",

  00724	66 a1 00 00 00
	00		 mov	 ax, WORD PTR ??_C@_01NANMIPIL@N?$AA@
  0072a	66 89 85 96 f4
	ff ff		 mov	 WORD PTR _Temp$[ebp+686], ax
  00731	33 c0		 xor	 eax, eax
  00733	89 85 98 f4 ff
	ff		 mov	 DWORD PTR _Temp$[ebp+688], eax
  00739	89 85 9c f4 ff
	ff		 mov	 DWORD PTR _Temp$[ebp+692], eax
  0073f	89 85 a0 f4 ff
	ff		 mov	 DWORD PTR _Temp$[ebp+696], eax
  00745	66 a1 00 00 00
	00		 mov	 ax, WORD PTR ??_C@_01PLPBNMEI@M?$AA@
  0074b	66 89 85 a4 f4
	ff ff		 mov	 WORD PTR _Temp$[ebp+700], ax
  00752	33 c0		 xor	 eax, eax
  00754	89 85 a6 f4 ff
	ff		 mov	 DWORD PTR _Temp$[ebp+702], eax
  0075a	89 85 aa f4 ff
	ff		 mov	 DWORD PTR _Temp$[ebp+706], eax
  00760	89 85 ae f4 ff
	ff		 mov	 DWORD PTR _Temp$[ebp+710], eax
  00766	66 a1 00 00 00
	00		 mov	 ax, WORD PTR ??_C@_01IHBHIGKO@?0?$AA@
  0076c	66 89 85 b2 f4
	ff ff		 mov	 WORD PTR _Temp$[ebp+714], ax
  00773	33 c0		 xor	 eax, eax
  00775	89 85 b4 f4 ff
	ff		 mov	 DWORD PTR _Temp$[ebp+716], eax
  0077b	89 85 b8 f4 ff
	ff		 mov	 DWORD PTR _Temp$[ebp+720], eax
  00781	89 85 bc f4 ff
	ff		 mov	 DWORD PTR _Temp$[ebp+724], eax
  00787	66 a1 00 00 00
	00		 mov	 ax, WORD PTR ??_C@_01LFCBOECM@?4?$AA@
  0078d	66 89 85 c0 f4
	ff ff		 mov	 WORD PTR _Temp$[ebp+728], ax
  00794	33 c0		 xor	 eax, eax
  00796	89 85 c2 f4 ff
	ff		 mov	 DWORD PTR _Temp$[ebp+730], eax
  0079c	89 85 c6 f4 ff
	ff		 mov	 DWORD PTR _Temp$[ebp+734], eax
  007a2	89 85 ca f4 ff
	ff		 mov	 DWORD PTR _Temp$[ebp+738], eax
  007a8	66 a1 00 00 00
	00		 mov	 ax, WORD PTR ??_C@_01KMDKNFGN@?1?$AA@
  007ae	66 89 85 ce f4
	ff ff		 mov	 WORD PTR _Temp$[ebp+742], ax
  007b5	33 c0		 xor	 eax, eax
  007b7	89 85 d0 f4 ff
	ff		 mov	 DWORD PTR _Temp$[ebp+744], eax
  007bd	89 85 d4 f4 ff
	ff		 mov	 DWORD PTR _Temp$[ebp+748], eax
  007c3	89 85 d8 f4 ff
	ff		 mov	 DWORD PTR _Temp$[ebp+752], eax
  007c9	a1 00 00 00 00	 mov	 eax, DWORD PTR ??_C@_0M@COKLDKMB@Right?5Shift?$AA@
  007ce	89 85 dc f4 ff
	ff		 mov	 DWORD PTR _Temp$[ebp+756], eax
  007d4	8b 0d 04 00 00
	00		 mov	 ecx, DWORD PTR ??_C@_0M@COKLDKMB@Right?5Shift?$AA@+4
  007da	89 8d e0 f4 ff
	ff		 mov	 DWORD PTR _Temp$[ebp+760], ecx
  007e0	8b 15 08 00 00
	00		 mov	 edx, DWORD PTR ??_C@_0M@COKLDKMB@Right?5Shift?$AA@+8
  007e6	89 95 e4 f4 ff
	ff		 mov	 DWORD PTR _Temp$[ebp+764], edx
  007ec	33 c0		 xor	 eax, eax
  007ee	66 89 85 e8 f4
	ff ff		 mov	 WORD PTR _Temp$[ebp+768], ax
  007f5	66 a1 00 00 00
	00		 mov	 ax, WORD PTR ??_C@_01NBENCBCI@?$CK?$AA@
  007fb	66 89 85 ea f4
	ff ff		 mov	 WORD PTR _Temp$[ebp+770], ax
  00802	33 c0		 xor	 eax, eax
  00804	89 85 ec f4 ff
	ff		 mov	 DWORD PTR _Temp$[ebp+772], eax
  0080a	89 85 f0 f4 ff
	ff		 mov	 DWORD PTR _Temp$[ebp+776], eax
  00810	89 85 f4 f4 ff
	ff		 mov	 DWORD PTR _Temp$[ebp+780], eax
  00816	a1 00 00 00 00	 mov	 eax, DWORD PTR ??_C@_08CJHJBNHP@Left?5Alt?$AA@
  0081b	89 85 f8 f4 ff
	ff		 mov	 DWORD PTR _Temp$[ebp+784], eax
  00821	8b 0d 04 00 00
	00		 mov	 ecx, DWORD PTR ??_C@_08CJHJBNHP@Left?5Alt?$AA@+4
  00827	89 8d fc f4 ff
	ff		 mov	 DWORD PTR _Temp$[ebp+788], ecx
  0082d	8a 15 08 00 00
	00		 mov	 dl, BYTE PTR ??_C@_08CJHJBNHP@Left?5Alt?$AA@+8
  00833	88 95 00 f5 ff
	ff		 mov	 BYTE PTR _Temp$[ebp+792], dl
  00839	33 c0		 xor	 eax, eax
  0083b	89 85 01 f5 ff
	ff		 mov	 DWORD PTR _Temp$[ebp+793], eax
  00841	88 85 05 f5 ff
	ff		 mov	 BYTE PTR _Temp$[ebp+797], al
  00847	a1 00 00 00 00	 mov	 eax, DWORD PTR ??_C@_05OMHELODH@Space?$AA@
  0084c	89 85 06 f5 ff
	ff		 mov	 DWORD PTR _Temp$[ebp+798], eax
  00852	66 8b 0d 04 00
	00 00		 mov	 cx, WORD PTR ??_C@_05OMHELODH@Space?$AA@+4
  00859	66 89 8d 0a f5
	ff ff		 mov	 WORD PTR _Temp$[ebp+802], cx
  00860	33 c0		 xor	 eax, eax
  00862	89 85 0c f5 ff
	ff		 mov	 DWORD PTR _Temp$[ebp+804], eax
  00868	89 85 10 f5 ff
	ff		 mov	 DWORD PTR _Temp$[ebp+808], eax
  0086e	a1 00 00 00 00	 mov	 eax, DWORD PTR ??_C@_09GGECHFNF@Caps?5Lock?$AA@
  00873	89 85 14 f5 ff
	ff		 mov	 DWORD PTR _Temp$[ebp+812], eax
  00879	8b 0d 04 00 00
	00		 mov	 ecx, DWORD PTR ??_C@_09GGECHFNF@Caps?5Lock?$AA@+4
  0087f	89 8d 18 f5 ff
	ff		 mov	 DWORD PTR _Temp$[ebp+816], ecx
  00885	66 8b 15 08 00
	00 00		 mov	 dx, WORD PTR ??_C@_09GGECHFNF@Caps?5Lock?$AA@+8
  0088c	66 89 95 1c f5
	ff ff		 mov	 WORD PTR _Temp$[ebp+820], dx
  00893	33 c0		 xor	 eax, eax
  00895	89 85 1e f5 ff
	ff		 mov	 DWORD PTR _Temp$[ebp+822], eax
  0089b	66 a1 00 00 00
	00		 mov	 ax, WORD PTR ??_C@_02LCPENACN@F1?$AA@
  008a1	66 89 85 22 f5
	ff ff		 mov	 WORD PTR _Temp$[ebp+826], ax
  008a8	8a 0d 02 00 00
	00		 mov	 cl, BYTE PTR ??_C@_02LCPENACN@F1?$AA@+2
  008ae	88 8d 24 f5 ff
	ff		 mov	 BYTE PTR _Temp$[ebp+828], cl
  008b4	33 c0		 xor	 eax, eax
  008b6	89 85 25 f5 ff
	ff		 mov	 DWORD PTR _Temp$[ebp+829], eax
  008bc	89 85 29 f5 ff
	ff		 mov	 DWORD PTR _Temp$[ebp+833], eax
  008c2	66 89 85 2d f5
	ff ff		 mov	 WORD PTR _Temp$[ebp+837], ax
  008c9	88 85 2f f5 ff
	ff		 mov	 BYTE PTR _Temp$[ebp+839], al
  008cf	66 a1 00 00 00
	00		 mov	 ax, WORD PTR ??_C@_02JJNJIDOO@F2?$AA@
  008d5	66 89 85 30 f5
	ff ff		 mov	 WORD PTR _Temp$[ebp+840], ax
  008dc	8a 0d 02 00 00
	00		 mov	 cl, BYTE PTR ??_C@_02JJNJIDOO@F2?$AA@+2
  008e2	88 8d 32 f5 ff
	ff		 mov	 BYTE PTR _Temp$[ebp+842], cl
  008e8	33 c0		 xor	 eax, eax
  008ea	89 85 33 f5 ff
	ff		 mov	 DWORD PTR _Temp$[ebp+843], eax
  008f0	89 85 37 f5 ff
	ff		 mov	 DWORD PTR _Temp$[ebp+847], eax
  008f6	66 89 85 3b f5
	ff ff		 mov	 WORD PTR _Temp$[ebp+851], ax
  008fd	88 85 3d f5 ff
	ff		 mov	 BYTE PTR _Temp$[ebp+853], al
  00903	66 a1 00 00 00
	00		 mov	 ax, WORD PTR ??_C@_02IAMCLCKP@F3?$AA@
  00909	66 89 85 3e f5
	ff ff		 mov	 WORD PTR _Temp$[ebp+854], ax
  00910	8a 0d 02 00 00
	00		 mov	 cl, BYTE PTR ??_C@_02IAMCLCKP@F3?$AA@+2
  00916	88 8d 40 f5 ff
	ff		 mov	 BYTE PTR _Temp$[ebp+856], cl
  0091c	33 c0		 xor	 eax, eax
  0091e	89 85 41 f5 ff
	ff		 mov	 DWORD PTR _Temp$[ebp+857], eax
  00924	89 85 45 f5 ff
	ff		 mov	 DWORD PTR _Temp$[ebp+861], eax
  0092a	66 89 85 49 f5
	ff ff		 mov	 WORD PTR _Temp$[ebp+865], ax
  00931	88 85 4b f5 ff
	ff		 mov	 BYTE PTR _Temp$[ebp+867], al
  00937	66 a1 00 00 00
	00		 mov	 ax, WORD PTR ??_C@_02MPIDCEGI@F4?$AA@
  0093d	66 89 85 4c f5
	ff ff		 mov	 WORD PTR _Temp$[ebp+868], ax
  00944	8a 0d 02 00 00
	00		 mov	 cl, BYTE PTR ??_C@_02MPIDCEGI@F4?$AA@+2
  0094a	88 8d 4e f5 ff
	ff		 mov	 BYTE PTR _Temp$[ebp+870], cl
  00950	33 c0		 xor	 eax, eax
  00952	89 85 4f f5 ff
	ff		 mov	 DWORD PTR _Temp$[ebp+871], eax
  00958	89 85 53 f5 ff
	ff		 mov	 DWORD PTR _Temp$[ebp+875], eax
  0095e	66 89 85 57 f5
	ff ff		 mov	 WORD PTR _Temp$[ebp+879], ax
  00965	88 85 59 f5 ff
	ff		 mov	 BYTE PTR _Temp$[ebp+881], al
  0096b	66 a1 00 00 00
	00		 mov	 ax, WORD PTR ??_C@_02NGJIBFCJ@F5?$AA@
  00971	66 89 85 5a f5
	ff ff		 mov	 WORD PTR _Temp$[ebp+882], ax
  00978	8a 0d 02 00 00
	00		 mov	 cl, BYTE PTR ??_C@_02NGJIBFCJ@F5?$AA@+2
  0097e	88 8d 5c f5 ff
	ff		 mov	 BYTE PTR _Temp$[ebp+884], cl
  00984	33 c0		 xor	 eax, eax
  00986	89 85 5d f5 ff
	ff		 mov	 DWORD PTR _Temp$[ebp+885], eax
  0098c	89 85 61 f5 ff
	ff		 mov	 DWORD PTR _Temp$[ebp+889], eax
  00992	66 89 85 65 f5
	ff ff		 mov	 WORD PTR _Temp$[ebp+893], ax
  00999	88 85 67 f5 ff
	ff		 mov	 BYTE PTR _Temp$[ebp+895], al
  0099f	66 a1 00 00 00
	00		 mov	 ax, WORD PTR ??_C@_02PNLFEGOK@F6?$AA@
  009a5	66 89 85 68 f5
	ff ff		 mov	 WORD PTR _Temp$[ebp+896], ax
  009ac	8a 0d 02 00 00
	00		 mov	 cl, BYTE PTR ??_C@_02PNLFEGOK@F6?$AA@+2
  009b2	88 8d 6a f5 ff
	ff		 mov	 BYTE PTR _Temp$[ebp+898], cl
  009b8	33 c0		 xor	 eax, eax
  009ba	89 85 6b f5 ff
	ff		 mov	 DWORD PTR _Temp$[ebp+899], eax
  009c0	89 85 6f f5 ff
	ff		 mov	 DWORD PTR _Temp$[ebp+903], eax
  009c6	66 89 85 73 f5
	ff ff		 mov	 WORD PTR _Temp$[ebp+907], ax
  009cd	88 85 75 f5 ff
	ff		 mov	 BYTE PTR _Temp$[ebp+909], al

; 544  : 				  "F7","F8","F9","F10","Num Lock","","7","8","9","-","4","5","6","+","1","2",

  009d3	66 a1 00 00 00
	00		 mov	 ax, WORD PTR ??_C@_02OEKOHHKL@F7?$AA@
  009d9	66 89 85 76 f5
	ff ff		 mov	 WORD PTR _Temp$[ebp+910], ax
  009e0	8a 0d 02 00 00
	00		 mov	 cl, BYTE PTR ??_C@_02OEKOHHKL@F7?$AA@+2
  009e6	88 8d 78 f5 ff
	ff		 mov	 BYTE PTR _Temp$[ebp+912], cl
  009ec	33 c0		 xor	 eax, eax
  009ee	89 85 79 f5 ff
	ff		 mov	 DWORD PTR _Temp$[ebp+913], eax
  009f4	89 85 7d f5 ff
	ff		 mov	 DWORD PTR _Temp$[ebp+917], eax
  009fa	66 89 85 81 f5
	ff ff		 mov	 WORD PTR _Temp$[ebp+921], ax
  00a01	88 85 83 f5 ff
	ff		 mov	 BYTE PTR _Temp$[ebp+923], al
  00a07	66 a1 00 00 00
	00		 mov	 ax, WORD PTR ??_C@_02GDDGGLGE@F8?$AA@
  00a0d	66 89 85 84 f5
	ff ff		 mov	 WORD PTR _Temp$[ebp+924], ax
  00a14	8a 0d 02 00 00
	00		 mov	 cl, BYTE PTR ??_C@_02GDDGGLGE@F8?$AA@+2
  00a1a	88 8d 86 f5 ff
	ff		 mov	 BYTE PTR _Temp$[ebp+926], cl
  00a20	33 c0		 xor	 eax, eax
  00a22	89 85 87 f5 ff
	ff		 mov	 DWORD PTR _Temp$[ebp+927], eax
  00a28	89 85 8b f5 ff
	ff		 mov	 DWORD PTR _Temp$[ebp+931], eax
  00a2e	66 89 85 8f f5
	ff ff		 mov	 WORD PTR _Temp$[ebp+935], ax
  00a35	88 85 91 f5 ff
	ff		 mov	 BYTE PTR _Temp$[ebp+937], al
  00a3b	66 a1 00 00 00
	00		 mov	 ax, WORD PTR ??_C@_02HKCNFKCF@F9?$AA@
  00a41	66 89 85 92 f5
	ff ff		 mov	 WORD PTR _Temp$[ebp+938], ax
  00a48	8a 0d 02 00 00
	00		 mov	 cl, BYTE PTR ??_C@_02HKCNFKCF@F9?$AA@+2
  00a4e	88 8d 94 f5 ff
	ff		 mov	 BYTE PTR _Temp$[ebp+940], cl
  00a54	33 c0		 xor	 eax, eax
  00a56	89 85 95 f5 ff
	ff		 mov	 DWORD PTR _Temp$[ebp+941], eax
  00a5c	89 85 99 f5 ff
	ff		 mov	 DWORD PTR _Temp$[ebp+945], eax
  00a62	66 89 85 9d f5
	ff ff		 mov	 WORD PTR _Temp$[ebp+949], ax
  00a69	88 85 9f f5 ff
	ff		 mov	 BYTE PTR _Temp$[ebp+951], al
  00a6f	a1 00 00 00 00	 mov	 eax, DWORD PTR ??_C@_03JKCLJOFG@F10?$AA@
  00a74	89 85 a0 f5 ff
	ff		 mov	 DWORD PTR _Temp$[ebp+952], eax
  00a7a	33 c0		 xor	 eax, eax
  00a7c	89 85 a4 f5 ff
	ff		 mov	 DWORD PTR _Temp$[ebp+956], eax
  00a82	89 85 a8 f5 ff
	ff		 mov	 DWORD PTR _Temp$[ebp+960], eax
  00a88	66 89 85 ac f5
	ff ff		 mov	 WORD PTR _Temp$[ebp+964], ax
  00a8f	a1 00 00 00 00	 mov	 eax, DWORD PTR ??_C@_08DEAFBBCL@Num?5Lock?$AA@
  00a94	89 85 ae f5 ff
	ff		 mov	 DWORD PTR _Temp$[ebp+966], eax
  00a9a	8b 0d 04 00 00
	00		 mov	 ecx, DWORD PTR ??_C@_08DEAFBBCL@Num?5Lock?$AA@+4
  00aa0	89 8d b2 f5 ff
	ff		 mov	 DWORD PTR _Temp$[ebp+970], ecx
  00aa6	8a 15 08 00 00
	00		 mov	 dl, BYTE PTR ??_C@_08DEAFBBCL@Num?5Lock?$AA@+8
  00aac	88 95 b6 f5 ff
	ff		 mov	 BYTE PTR _Temp$[ebp+974], dl
  00ab2	33 c0		 xor	 eax, eax
  00ab4	89 85 b7 f5 ff
	ff		 mov	 DWORD PTR _Temp$[ebp+975], eax
  00aba	88 85 bb f5 ff
	ff		 mov	 BYTE PTR _Temp$[ebp+979], al
  00ac0	a0 00 00 00 00	 mov	 al, BYTE PTR ??_C@_00CNPNBAHC@?$AA@
  00ac5	88 85 bc f5 ff
	ff		 mov	 BYTE PTR _Temp$[ebp+980], al
  00acb	33 c0		 xor	 eax, eax
  00acd	89 85 bd f5 ff
	ff		 mov	 DWORD PTR _Temp$[ebp+981], eax
  00ad3	89 85 c1 f5 ff
	ff		 mov	 DWORD PTR _Temp$[ebp+985], eax
  00ad9	89 85 c5 f5 ff
	ff		 mov	 DWORD PTR _Temp$[ebp+989], eax
  00adf	88 85 c9 f5 ff
	ff		 mov	 BYTE PTR _Temp$[ebp+993], al
  00ae5	66 a1 00 00 00
	00		 mov	 ax, WORD PTR ??_C@_01COCBENDE@7?$AA@
  00aeb	66 89 85 ca f5
	ff ff		 mov	 WORD PTR _Temp$[ebp+994], ax
  00af2	33 c0		 xor	 eax, eax
  00af4	89 85 cc f5 ff
	ff		 mov	 DWORD PTR _Temp$[ebp+996], eax
  00afa	89 85 d0 f5 ff
	ff		 mov	 DWORD PTR _Temp$[ebp+1000], eax
  00b00	89 85 d4 f5 ff
	ff		 mov	 DWORD PTR _Temp$[ebp+1004], eax
  00b06	66 a1 00 00 00
	00		 mov	 ax, WORD PTR ??_C@_01KJLJFBPL@8?$AA@
  00b0c	66 89 85 d8 f5
	ff ff		 mov	 WORD PTR _Temp$[ebp+1008], ax
  00b13	33 c0		 xor	 eax, eax
  00b15	89 85 da f5 ff
	ff		 mov	 DWORD PTR _Temp$[ebp+1010], eax
  00b1b	89 85 de f5 ff
	ff		 mov	 DWORD PTR _Temp$[ebp+1014], eax
  00b21	89 85 e2 f5 ff
	ff		 mov	 DWORD PTR _Temp$[ebp+1018], eax
  00b27	66 a1 00 00 00
	00		 mov	 ax, WORD PTR ??_C@_01LAKCGALK@9?$AA@
  00b2d	66 89 85 e6 f5
	ff ff		 mov	 WORD PTR _Temp$[ebp+1022], ax
  00b34	33 c0		 xor	 eax, eax
  00b36	89 85 e8 f5 ff
	ff		 mov	 DWORD PTR _Temp$[ebp+1024], eax
  00b3c	89 85 ec f5 ff
	ff		 mov	 DWORD PTR _Temp$[ebp+1028], eax
  00b42	89 85 f0 f5 ff
	ff		 mov	 DWORD PTR _Temp$[ebp+1032], eax
  00b48	66 a1 00 00 00
	00		 mov	 ax, WORD PTR ??_C@_01JOAMLHOP@?9?$AA@
  00b4e	66 89 85 f4 f5
	ff ff		 mov	 WORD PTR _Temp$[ebp+1036], ax
  00b55	33 c0		 xor	 eax, eax
  00b57	89 85 f6 f5 ff
	ff		 mov	 DWORD PTR _Temp$[ebp+1038], eax
  00b5d	89 85 fa f5 ff
	ff		 mov	 DWORD PTR _Temp$[ebp+1042], eax
  00b63	89 85 fe f5 ff
	ff		 mov	 DWORD PTR _Temp$[ebp+1046], eax
  00b69	66 a1 00 00 00
	00		 mov	 ax, WORD PTR ??_C@_01FAMBOPH@4?$AA@
  00b6f	66 89 85 02 f6
	ff ff		 mov	 WORD PTR _Temp$[ebp+1050], ax
  00b76	33 c0		 xor	 eax, eax
  00b78	89 85 04 f6 ff
	ff		 mov	 DWORD PTR _Temp$[ebp+1052], eax
  00b7e	89 85 08 f6 ff
	ff		 mov	 DWORD PTR _Temp$[ebp+1056], eax
  00b84	89 85 0c f6 ff
	ff		 mov	 DWORD PTR _Temp$[ebp+1060], eax
  00b8a	66 a1 00 00 00
	00		 mov	 ax, WORD PTR ??_C@_01BMBHCPLG@5?$AA@
  00b90	66 89 85 10 f6
	ff ff		 mov	 WORD PTR _Temp$[ebp+1064], ax
  00b97	33 c0		 xor	 eax, eax
  00b99	89 85 12 f6 ff
	ff		 mov	 DWORD PTR _Temp$[ebp+1066], eax
  00b9f	89 85 16 f6 ff
	ff		 mov	 DWORD PTR _Temp$[ebp+1070], eax
  00ba5	89 85 1a f6 ff
	ff		 mov	 DWORD PTR _Temp$[ebp+1074], eax
  00bab	66 a1 00 00 00
	00		 mov	 ax, WORD PTR ??_C@_01DHDKHMHF@6?$AA@
  00bb1	66 89 85 1e f6
	ff ff		 mov	 WORD PTR _Temp$[ebp+1078], ax
  00bb8	33 c0		 xor	 eax, eax
  00bba	89 85 20 f6 ff
	ff		 mov	 DWORD PTR _Temp$[ebp+1080], eax
  00bc0	89 85 24 f6 ff
	ff		 mov	 DWORD PTR _Temp$[ebp+1084], eax
  00bc6	89 85 28 f6 ff
	ff		 mov	 DWORD PTR _Temp$[ebp+1088], eax
  00bcc	66 a1 00 00 00
	00		 mov	 ax, WORD PTR ??_C@_01MIFGBAGJ@?$CL?$AA@
  00bd2	66 89 85 2c f6
	ff ff		 mov	 WORD PTR _Temp$[ebp+1092], ax
  00bd9	33 c0		 xor	 eax, eax
  00bdb	89 85 2e f6 ff
	ff		 mov	 DWORD PTR _Temp$[ebp+1094], eax
  00be1	89 85 32 f6 ff
	ff		 mov	 DWORD PTR _Temp$[ebp+1098], eax
  00be7	89 85 36 f6 ff
	ff		 mov	 DWORD PTR _Temp$[ebp+1102], eax
  00bed	66 a1 00 00 00
	00		 mov	 ax, WORD PTR ??_C@_01HIHLOKLC@1?$AA@
  00bf3	66 89 85 3a f6
	ff ff		 mov	 WORD PTR _Temp$[ebp+1106], ax
  00bfa	33 c0		 xor	 eax, eax
  00bfc	89 85 3c f6 ff
	ff		 mov	 DWORD PTR _Temp$[ebp+1108], eax
  00c02	89 85 40 f6 ff
	ff		 mov	 DWORD PTR _Temp$[ebp+1112], eax
  00c08	89 85 44 f6 ff
	ff		 mov	 DWORD PTR _Temp$[ebp+1116], eax
  00c0e	66 a1 00 00 00
	00		 mov	 ax, WORD PTR ??_C@_01FDFGLJHB@2?$AA@
  00c14	66 89 85 48 f6
	ff ff		 mov	 WORD PTR _Temp$[ebp+1120], ax
  00c1b	33 c0		 xor	 eax, eax
  00c1d	89 85 4a f6 ff
	ff		 mov	 DWORD PTR _Temp$[ebp+1122], eax
  00c23	89 85 4e f6 ff
	ff		 mov	 DWORD PTR _Temp$[ebp+1126], eax
  00c29	89 85 52 f6 ff
	ff		 mov	 DWORD PTR _Temp$[ebp+1130], eax

; 545  : 				  "3","0","Num .","SysRq","","","F11","F12","","","","","","","","",

  00c2f	66 a1 00 00 00
	00		 mov	 ax, WORD PTR ??_C@_01EKENIIDA@3?$AA@
  00c35	66 89 85 56 f6
	ff ff		 mov	 WORD PTR _Temp$[ebp+1134], ax
  00c3c	33 c0		 xor	 eax, eax
  00c3e	89 85 58 f6 ff
	ff		 mov	 DWORD PTR _Temp$[ebp+1136], eax
  00c44	89 85 5c f6 ff
	ff		 mov	 DWORD PTR _Temp$[ebp+1140], eax
  00c4a	89 85 60 f6 ff
	ff		 mov	 DWORD PTR _Temp$[ebp+1144], eax
  00c50	66 a1 00 00 00
	00		 mov	 ax, WORD PTR ??_C@_01GBGANLPD@0?$AA@
  00c56	66 89 85 64 f6
	ff ff		 mov	 WORD PTR _Temp$[ebp+1148], ax
  00c5d	33 c0		 xor	 eax, eax
  00c5f	89 85 66 f6 ff
	ff		 mov	 DWORD PTR _Temp$[ebp+1150], eax
  00c65	89 85 6a f6 ff
	ff		 mov	 DWORD PTR _Temp$[ebp+1154], eax
  00c6b	89 85 6e f6 ff
	ff		 mov	 DWORD PTR _Temp$[ebp+1158], eax
  00c71	a1 00 00 00 00	 mov	 eax, DWORD PTR ??_C@_05LAFLDKON@Num?5?4?$AA@
  00c76	89 85 72 f6 ff
	ff		 mov	 DWORD PTR _Temp$[ebp+1162], eax
  00c7c	66 8b 0d 04 00
	00 00		 mov	 cx, WORD PTR ??_C@_05LAFLDKON@Num?5?4?$AA@+4
  00c83	66 89 8d 76 f6
	ff ff		 mov	 WORD PTR _Temp$[ebp+1166], cx
  00c8a	33 c0		 xor	 eax, eax
  00c8c	89 85 78 f6 ff
	ff		 mov	 DWORD PTR _Temp$[ebp+1168], eax
  00c92	89 85 7c f6 ff
	ff		 mov	 DWORD PTR _Temp$[ebp+1172], eax
  00c98	a1 00 00 00 00	 mov	 eax, DWORD PTR ??_C@_05BAHDBLKA@SysRq?$AA@
  00c9d	89 85 80 f6 ff
	ff		 mov	 DWORD PTR _Temp$[ebp+1176], eax
  00ca3	66 8b 0d 04 00
	00 00		 mov	 cx, WORD PTR ??_C@_05BAHDBLKA@SysRq?$AA@+4
  00caa	66 89 8d 84 f6
	ff ff		 mov	 WORD PTR _Temp$[ebp+1180], cx
  00cb1	33 c0		 xor	 eax, eax
  00cb3	89 85 86 f6 ff
	ff		 mov	 DWORD PTR _Temp$[ebp+1182], eax
  00cb9	89 85 8a f6 ff
	ff		 mov	 DWORD PTR _Temp$[ebp+1186], eax
  00cbf	a0 00 00 00 00	 mov	 al, BYTE PTR ??_C@_00CNPNBAHC@?$AA@
  00cc4	88 85 8e f6 ff
	ff		 mov	 BYTE PTR _Temp$[ebp+1190], al
  00cca	33 c0		 xor	 eax, eax
  00ccc	89 85 8f f6 ff
	ff		 mov	 DWORD PTR _Temp$[ebp+1191], eax
  00cd2	89 85 93 f6 ff
	ff		 mov	 DWORD PTR _Temp$[ebp+1195], eax
  00cd8	89 85 97 f6 ff
	ff		 mov	 DWORD PTR _Temp$[ebp+1199], eax
  00cde	88 85 9b f6 ff
	ff		 mov	 BYTE PTR _Temp$[ebp+1203], al
  00ce4	a0 00 00 00 00	 mov	 al, BYTE PTR ??_C@_00CNPNBAHC@?$AA@
  00ce9	88 85 9c f6 ff
	ff		 mov	 BYTE PTR _Temp$[ebp+1204], al
  00cef	33 c0		 xor	 eax, eax
  00cf1	89 85 9d f6 ff
	ff		 mov	 DWORD PTR _Temp$[ebp+1205], eax
  00cf7	89 85 a1 f6 ff
	ff		 mov	 DWORD PTR _Temp$[ebp+1209], eax
  00cfd	89 85 a5 f6 ff
	ff		 mov	 DWORD PTR _Temp$[ebp+1213], eax
  00d03	88 85 a9 f6 ff
	ff		 mov	 BYTE PTR _Temp$[ebp+1217], al
  00d09	a1 00 00 00 00	 mov	 eax, DWORD PTR ??_C@_03IDDAKPBH@F11?$AA@
  00d0e	89 85 aa f6 ff
	ff		 mov	 DWORD PTR _Temp$[ebp+1218], eax
  00d14	33 c0		 xor	 eax, eax
  00d16	89 85 ae f6 ff
	ff		 mov	 DWORD PTR _Temp$[ebp+1222], eax
  00d1c	89 85 b2 f6 ff
	ff		 mov	 DWORD PTR _Temp$[ebp+1226], eax
  00d22	66 89 85 b6 f6
	ff ff		 mov	 WORD PTR _Temp$[ebp+1230], ax
  00d29	a1 00 00 00 00	 mov	 eax, DWORD PTR ??_C@_03KIBNPMNE@F12?$AA@
  00d2e	89 85 b8 f6 ff
	ff		 mov	 DWORD PTR _Temp$[ebp+1232], eax
  00d34	33 c0		 xor	 eax, eax
  00d36	89 85 bc f6 ff
	ff		 mov	 DWORD PTR _Temp$[ebp+1236], eax
  00d3c	89 85 c0 f6 ff
	ff		 mov	 DWORD PTR _Temp$[ebp+1240], eax
  00d42	66 89 85 c4 f6
	ff ff		 mov	 WORD PTR _Temp$[ebp+1244], ax
  00d49	a0 00 00 00 00	 mov	 al, BYTE PTR ??_C@_00CNPNBAHC@?$AA@
  00d4e	88 85 c6 f6 ff
	ff		 mov	 BYTE PTR _Temp$[ebp+1246], al
  00d54	33 c0		 xor	 eax, eax
  00d56	89 85 c7 f6 ff
	ff		 mov	 DWORD PTR _Temp$[ebp+1247], eax
  00d5c	89 85 cb f6 ff
	ff		 mov	 DWORD PTR _Temp$[ebp+1251], eax
  00d62	89 85 cf f6 ff
	ff		 mov	 DWORD PTR _Temp$[ebp+1255], eax
  00d68	88 85 d3 f6 ff
	ff		 mov	 BYTE PTR _Temp$[ebp+1259], al
  00d6e	a0 00 00 00 00	 mov	 al, BYTE PTR ??_C@_00CNPNBAHC@?$AA@
  00d73	88 85 d4 f6 ff
	ff		 mov	 BYTE PTR _Temp$[ebp+1260], al
  00d79	33 c0		 xor	 eax, eax
  00d7b	89 85 d5 f6 ff
	ff		 mov	 DWORD PTR _Temp$[ebp+1261], eax
  00d81	89 85 d9 f6 ff
	ff		 mov	 DWORD PTR _Temp$[ebp+1265], eax
  00d87	89 85 dd f6 ff
	ff		 mov	 DWORD PTR _Temp$[ebp+1269], eax
  00d8d	88 85 e1 f6 ff
	ff		 mov	 BYTE PTR _Temp$[ebp+1273], al
  00d93	a0 00 00 00 00	 mov	 al, BYTE PTR ??_C@_00CNPNBAHC@?$AA@
  00d98	88 85 e2 f6 ff
	ff		 mov	 BYTE PTR _Temp$[ebp+1274], al
  00d9e	33 c0		 xor	 eax, eax
  00da0	89 85 e3 f6 ff
	ff		 mov	 DWORD PTR _Temp$[ebp+1275], eax
  00da6	89 85 e7 f6 ff
	ff		 mov	 DWORD PTR _Temp$[ebp+1279], eax
  00dac	89 85 eb f6 ff
	ff		 mov	 DWORD PTR _Temp$[ebp+1283], eax
  00db2	88 85 ef f6 ff
	ff		 mov	 BYTE PTR _Temp$[ebp+1287], al
  00db8	a0 00 00 00 00	 mov	 al, BYTE PTR ??_C@_00CNPNBAHC@?$AA@
  00dbd	88 85 f0 f6 ff
	ff		 mov	 BYTE PTR _Temp$[ebp+1288], al
  00dc3	33 c0		 xor	 eax, eax
  00dc5	89 85 f1 f6 ff
	ff		 mov	 DWORD PTR _Temp$[ebp+1289], eax
  00dcb	89 85 f5 f6 ff
	ff		 mov	 DWORD PTR _Temp$[ebp+1293], eax
  00dd1	89 85 f9 f6 ff
	ff		 mov	 DWORD PTR _Temp$[ebp+1297], eax
  00dd7	88 85 fd f6 ff
	ff		 mov	 BYTE PTR _Temp$[ebp+1301], al
  00ddd	a0 00 00 00 00	 mov	 al, BYTE PTR ??_C@_00CNPNBAHC@?$AA@
  00de2	88 85 fe f6 ff
	ff		 mov	 BYTE PTR _Temp$[ebp+1302], al
  00de8	33 c0		 xor	 eax, eax
  00dea	89 85 ff f6 ff
	ff		 mov	 DWORD PTR _Temp$[ebp+1303], eax
  00df0	89 85 03 f7 ff
	ff		 mov	 DWORD PTR _Temp$[ebp+1307], eax
  00df6	89 85 07 f7 ff
	ff		 mov	 DWORD PTR _Temp$[ebp+1311], eax
  00dfc	88 85 0b f7 ff
	ff		 mov	 BYTE PTR _Temp$[ebp+1315], al
  00e02	a0 00 00 00 00	 mov	 al, BYTE PTR ??_C@_00CNPNBAHC@?$AA@
  00e07	88 85 0c f7 ff
	ff		 mov	 BYTE PTR _Temp$[ebp+1316], al
  00e0d	33 c0		 xor	 eax, eax
  00e0f	89 85 0d f7 ff
	ff		 mov	 DWORD PTR _Temp$[ebp+1317], eax
  00e15	89 85 11 f7 ff
	ff		 mov	 DWORD PTR _Temp$[ebp+1321], eax
  00e1b	89 85 15 f7 ff
	ff		 mov	 DWORD PTR _Temp$[ebp+1325], eax
  00e21	88 85 19 f7 ff
	ff		 mov	 BYTE PTR _Temp$[ebp+1329], al
  00e27	a0 00 00 00 00	 mov	 al, BYTE PTR ??_C@_00CNPNBAHC@?$AA@
  00e2c	88 85 1a f7 ff
	ff		 mov	 BYTE PTR _Temp$[ebp+1330], al
  00e32	33 c0		 xor	 eax, eax
  00e34	89 85 1b f7 ff
	ff		 mov	 DWORD PTR _Temp$[ebp+1331], eax
  00e3a	89 85 1f f7 ff
	ff		 mov	 DWORD PTR _Temp$[ebp+1335], eax
  00e40	89 85 23 f7 ff
	ff		 mov	 DWORD PTR _Temp$[ebp+1339], eax
  00e46	88 85 27 f7 ff
	ff		 mov	 BYTE PTR _Temp$[ebp+1343], al
  00e4c	a0 00 00 00 00	 mov	 al, BYTE PTR ??_C@_00CNPNBAHC@?$AA@
  00e51	88 85 28 f7 ff
	ff		 mov	 BYTE PTR _Temp$[ebp+1344], al
  00e57	33 c0		 xor	 eax, eax
  00e59	89 85 29 f7 ff
	ff		 mov	 DWORD PTR _Temp$[ebp+1345], eax
  00e5f	89 85 2d f7 ff
	ff		 mov	 DWORD PTR _Temp$[ebp+1349], eax
  00e65	89 85 31 f7 ff
	ff		 mov	 DWORD PTR _Temp$[ebp+1353], eax
  00e6b	88 85 35 f7 ff
	ff		 mov	 BYTE PTR _Temp$[ebp+1357], al

; 546  : 				  "","","","","","","","","","","","","","","","",

  00e71	a0 00 00 00 00	 mov	 al, BYTE PTR ??_C@_00CNPNBAHC@?$AA@
  00e76	88 85 36 f7 ff
	ff		 mov	 BYTE PTR _Temp$[ebp+1358], al
  00e7c	33 c0		 xor	 eax, eax
  00e7e	89 85 37 f7 ff
	ff		 mov	 DWORD PTR _Temp$[ebp+1359], eax
  00e84	89 85 3b f7 ff
	ff		 mov	 DWORD PTR _Temp$[ebp+1363], eax
  00e8a	89 85 3f f7 ff
	ff		 mov	 DWORD PTR _Temp$[ebp+1367], eax
  00e90	88 85 43 f7 ff
	ff		 mov	 BYTE PTR _Temp$[ebp+1371], al
  00e96	a0 00 00 00 00	 mov	 al, BYTE PTR ??_C@_00CNPNBAHC@?$AA@
  00e9b	88 85 44 f7 ff
	ff		 mov	 BYTE PTR _Temp$[ebp+1372], al
  00ea1	33 c0		 xor	 eax, eax
  00ea3	89 85 45 f7 ff
	ff		 mov	 DWORD PTR _Temp$[ebp+1373], eax
  00ea9	89 85 49 f7 ff
	ff		 mov	 DWORD PTR _Temp$[ebp+1377], eax
  00eaf	89 85 4d f7 ff
	ff		 mov	 DWORD PTR _Temp$[ebp+1381], eax
  00eb5	88 85 51 f7 ff
	ff		 mov	 BYTE PTR _Temp$[ebp+1385], al
  00ebb	a0 00 00 00 00	 mov	 al, BYTE PTR ??_C@_00CNPNBAHC@?$AA@
  00ec0	88 85 52 f7 ff
	ff		 mov	 BYTE PTR _Temp$[ebp+1386], al
  00ec6	33 c0		 xor	 eax, eax
  00ec8	89 85 53 f7 ff
	ff		 mov	 DWORD PTR _Temp$[ebp+1387], eax
  00ece	89 85 57 f7 ff
	ff		 mov	 DWORD PTR _Temp$[ebp+1391], eax
  00ed4	89 85 5b f7 ff
	ff		 mov	 DWORD PTR _Temp$[ebp+1395], eax
  00eda	88 85 5f f7 ff
	ff		 mov	 BYTE PTR _Temp$[ebp+1399], al
  00ee0	a0 00 00 00 00	 mov	 al, BYTE PTR ??_C@_00CNPNBAHC@?$AA@
  00ee5	88 85 60 f7 ff
	ff		 mov	 BYTE PTR _Temp$[ebp+1400], al
  00eeb	33 c0		 xor	 eax, eax
  00eed	89 85 61 f7 ff
	ff		 mov	 DWORD PTR _Temp$[ebp+1401], eax
  00ef3	89 85 65 f7 ff
	ff		 mov	 DWORD PTR _Temp$[ebp+1405], eax
  00ef9	89 85 69 f7 ff
	ff		 mov	 DWORD PTR _Temp$[ebp+1409], eax
  00eff	88 85 6d f7 ff
	ff		 mov	 BYTE PTR _Temp$[ebp+1413], al
  00f05	a0 00 00 00 00	 mov	 al, BYTE PTR ??_C@_00CNPNBAHC@?$AA@
  00f0a	88 85 6e f7 ff
	ff		 mov	 BYTE PTR _Temp$[ebp+1414], al
  00f10	33 c0		 xor	 eax, eax
  00f12	89 85 6f f7 ff
	ff		 mov	 DWORD PTR _Temp$[ebp+1415], eax
  00f18	89 85 73 f7 ff
	ff		 mov	 DWORD PTR _Temp$[ebp+1419], eax
  00f1e	89 85 77 f7 ff
	ff		 mov	 DWORD PTR _Temp$[ebp+1423], eax
  00f24	88 85 7b f7 ff
	ff		 mov	 BYTE PTR _Temp$[ebp+1427], al
  00f2a	a0 00 00 00 00	 mov	 al, BYTE PTR ??_C@_00CNPNBAHC@?$AA@
  00f2f	88 85 7c f7 ff
	ff		 mov	 BYTE PTR _Temp$[ebp+1428], al
  00f35	33 c0		 xor	 eax, eax
  00f37	89 85 7d f7 ff
	ff		 mov	 DWORD PTR _Temp$[ebp+1429], eax
  00f3d	89 85 81 f7 ff
	ff		 mov	 DWORD PTR _Temp$[ebp+1433], eax
  00f43	89 85 85 f7 ff
	ff		 mov	 DWORD PTR _Temp$[ebp+1437], eax
  00f49	88 85 89 f7 ff
	ff		 mov	 BYTE PTR _Temp$[ebp+1441], al
  00f4f	a0 00 00 00 00	 mov	 al, BYTE PTR ??_C@_00CNPNBAHC@?$AA@
  00f54	88 85 8a f7 ff
	ff		 mov	 BYTE PTR _Temp$[ebp+1442], al
  00f5a	33 c0		 xor	 eax, eax
  00f5c	89 85 8b f7 ff
	ff		 mov	 DWORD PTR _Temp$[ebp+1443], eax
  00f62	89 85 8f f7 ff
	ff		 mov	 DWORD PTR _Temp$[ebp+1447], eax
  00f68	89 85 93 f7 ff
	ff		 mov	 DWORD PTR _Temp$[ebp+1451], eax
  00f6e	88 85 97 f7 ff
	ff		 mov	 BYTE PTR _Temp$[ebp+1455], al
  00f74	a0 00 00 00 00	 mov	 al, BYTE PTR ??_C@_00CNPNBAHC@?$AA@
  00f79	88 85 98 f7 ff
	ff		 mov	 BYTE PTR _Temp$[ebp+1456], al
  00f7f	33 c0		 xor	 eax, eax
  00f81	89 85 99 f7 ff
	ff		 mov	 DWORD PTR _Temp$[ebp+1457], eax
  00f87	89 85 9d f7 ff
	ff		 mov	 DWORD PTR _Temp$[ebp+1461], eax
  00f8d	89 85 a1 f7 ff
	ff		 mov	 DWORD PTR _Temp$[ebp+1465], eax
  00f93	88 85 a5 f7 ff
	ff		 mov	 BYTE PTR _Temp$[ebp+1469], al
  00f99	a0 00 00 00 00	 mov	 al, BYTE PTR ??_C@_00CNPNBAHC@?$AA@
  00f9e	88 85 a6 f7 ff
	ff		 mov	 BYTE PTR _Temp$[ebp+1470], al
  00fa4	33 c0		 xor	 eax, eax
  00fa6	89 85 a7 f7 ff
	ff		 mov	 DWORD PTR _Temp$[ebp+1471], eax
  00fac	89 85 ab f7 ff
	ff		 mov	 DWORD PTR _Temp$[ebp+1475], eax
  00fb2	89 85 af f7 ff
	ff		 mov	 DWORD PTR _Temp$[ebp+1479], eax
  00fb8	88 85 b3 f7 ff
	ff		 mov	 BYTE PTR _Temp$[ebp+1483], al
  00fbe	a0 00 00 00 00	 mov	 al, BYTE PTR ??_C@_00CNPNBAHC@?$AA@
  00fc3	88 85 b4 f7 ff
	ff		 mov	 BYTE PTR _Temp$[ebp+1484], al
  00fc9	33 c0		 xor	 eax, eax
  00fcb	89 85 b5 f7 ff
	ff		 mov	 DWORD PTR _Temp$[ebp+1485], eax
  00fd1	89 85 b9 f7 ff
	ff		 mov	 DWORD PTR _Temp$[ebp+1489], eax
  00fd7	89 85 bd f7 ff
	ff		 mov	 DWORD PTR _Temp$[ebp+1493], eax
  00fdd	88 85 c1 f7 ff
	ff		 mov	 BYTE PTR _Temp$[ebp+1497], al
  00fe3	a0 00 00 00 00	 mov	 al, BYTE PTR ??_C@_00CNPNBAHC@?$AA@
  00fe8	88 85 c2 f7 ff
	ff		 mov	 BYTE PTR _Temp$[ebp+1498], al
  00fee	33 c0		 xor	 eax, eax
  00ff0	89 85 c3 f7 ff
	ff		 mov	 DWORD PTR _Temp$[ebp+1499], eax
  00ff6	89 85 c7 f7 ff
	ff		 mov	 DWORD PTR _Temp$[ebp+1503], eax
  00ffc	89 85 cb f7 ff
	ff		 mov	 DWORD PTR _Temp$[ebp+1507], eax
  01002	88 85 cf f7 ff
	ff		 mov	 BYTE PTR _Temp$[ebp+1511], al
  01008	a0 00 00 00 00	 mov	 al, BYTE PTR ??_C@_00CNPNBAHC@?$AA@
  0100d	88 85 d0 f7 ff
	ff		 mov	 BYTE PTR _Temp$[ebp+1512], al
  01013	33 c0		 xor	 eax, eax
  01015	89 85 d1 f7 ff
	ff		 mov	 DWORD PTR _Temp$[ebp+1513], eax
  0101b	89 85 d5 f7 ff
	ff		 mov	 DWORD PTR _Temp$[ebp+1517], eax
  01021	89 85 d9 f7 ff
	ff		 mov	 DWORD PTR _Temp$[ebp+1521], eax
  01027	88 85 dd f7 ff
	ff		 mov	 BYTE PTR _Temp$[ebp+1525], al
  0102d	a0 00 00 00 00	 mov	 al, BYTE PTR ??_C@_00CNPNBAHC@?$AA@
  01032	88 85 de f7 ff
	ff		 mov	 BYTE PTR _Temp$[ebp+1526], al
  01038	33 c0		 xor	 eax, eax
  0103a	89 85 df f7 ff
	ff		 mov	 DWORD PTR _Temp$[ebp+1527], eax
  01040	89 85 e3 f7 ff
	ff		 mov	 DWORD PTR _Temp$[ebp+1531], eax
  01046	89 85 e7 f7 ff
	ff		 mov	 DWORD PTR _Temp$[ebp+1535], eax
  0104c	88 85 eb f7 ff
	ff		 mov	 BYTE PTR _Temp$[ebp+1539], al
  01052	a0 00 00 00 00	 mov	 al, BYTE PTR ??_C@_00CNPNBAHC@?$AA@
  01057	88 85 ec f7 ff
	ff		 mov	 BYTE PTR _Temp$[ebp+1540], al
  0105d	33 c0		 xor	 eax, eax
  0105f	89 85 ed f7 ff
	ff		 mov	 DWORD PTR _Temp$[ebp+1541], eax
  01065	89 85 f1 f7 ff
	ff		 mov	 DWORD PTR _Temp$[ebp+1545], eax
  0106b	89 85 f5 f7 ff
	ff		 mov	 DWORD PTR _Temp$[ebp+1549], eax
  01071	88 85 f9 f7 ff
	ff		 mov	 BYTE PTR _Temp$[ebp+1553], al
  01077	a0 00 00 00 00	 mov	 al, BYTE PTR ??_C@_00CNPNBAHC@?$AA@
  0107c	88 85 fa f7 ff
	ff		 mov	 BYTE PTR _Temp$[ebp+1554], al
  01082	33 c0		 xor	 eax, eax
  01084	89 85 fb f7 ff
	ff		 mov	 DWORD PTR _Temp$[ebp+1555], eax
  0108a	89 85 ff f7 ff
	ff		 mov	 DWORD PTR _Temp$[ebp+1559], eax
  01090	89 85 03 f8 ff
	ff		 mov	 DWORD PTR _Temp$[ebp+1563], eax
  01096	88 85 07 f8 ff
	ff		 mov	 BYTE PTR _Temp$[ebp+1567], al
  0109c	a0 00 00 00 00	 mov	 al, BYTE PTR ??_C@_00CNPNBAHC@?$AA@
  010a1	88 85 08 f8 ff
	ff		 mov	 BYTE PTR _Temp$[ebp+1568], al
  010a7	33 c0		 xor	 eax, eax
  010a9	89 85 09 f8 ff
	ff		 mov	 DWORD PTR _Temp$[ebp+1569], eax
  010af	89 85 0d f8 ff
	ff		 mov	 DWORD PTR _Temp$[ebp+1573], eax
  010b5	89 85 11 f8 ff
	ff		 mov	 DWORD PTR _Temp$[ebp+1577], eax
  010bb	88 85 15 f8 ff
	ff		 mov	 BYTE PTR _Temp$[ebp+1581], al

; 547  : 				  "","","","","","","","","","","","","","","","",

  010c1	a0 00 00 00 00	 mov	 al, BYTE PTR ??_C@_00CNPNBAHC@?$AA@
  010c6	88 85 16 f8 ff
	ff		 mov	 BYTE PTR _Temp$[ebp+1582], al
  010cc	33 c0		 xor	 eax, eax
  010ce	89 85 17 f8 ff
	ff		 mov	 DWORD PTR _Temp$[ebp+1583], eax
  010d4	89 85 1b f8 ff
	ff		 mov	 DWORD PTR _Temp$[ebp+1587], eax
  010da	89 85 1f f8 ff
	ff		 mov	 DWORD PTR _Temp$[ebp+1591], eax
  010e0	88 85 23 f8 ff
	ff		 mov	 BYTE PTR _Temp$[ebp+1595], al
  010e6	a0 00 00 00 00	 mov	 al, BYTE PTR ??_C@_00CNPNBAHC@?$AA@
  010eb	88 85 24 f8 ff
	ff		 mov	 BYTE PTR _Temp$[ebp+1596], al
  010f1	33 c0		 xor	 eax, eax
  010f3	89 85 25 f8 ff
	ff		 mov	 DWORD PTR _Temp$[ebp+1597], eax
  010f9	89 85 29 f8 ff
	ff		 mov	 DWORD PTR _Temp$[ebp+1601], eax
  010ff	89 85 2d f8 ff
	ff		 mov	 DWORD PTR _Temp$[ebp+1605], eax
  01105	88 85 31 f8 ff
	ff		 mov	 BYTE PTR _Temp$[ebp+1609], al
  0110b	a0 00 00 00 00	 mov	 al, BYTE PTR ??_C@_00CNPNBAHC@?$AA@
  01110	88 85 32 f8 ff
	ff		 mov	 BYTE PTR _Temp$[ebp+1610], al
  01116	33 c0		 xor	 eax, eax
  01118	89 85 33 f8 ff
	ff		 mov	 DWORD PTR _Temp$[ebp+1611], eax
  0111e	89 85 37 f8 ff
	ff		 mov	 DWORD PTR _Temp$[ebp+1615], eax
  01124	89 85 3b f8 ff
	ff		 mov	 DWORD PTR _Temp$[ebp+1619], eax
  0112a	88 85 3f f8 ff
	ff		 mov	 BYTE PTR _Temp$[ebp+1623], al
  01130	a0 00 00 00 00	 mov	 al, BYTE PTR ??_C@_00CNPNBAHC@?$AA@
  01135	88 85 40 f8 ff
	ff		 mov	 BYTE PTR _Temp$[ebp+1624], al
  0113b	33 c0		 xor	 eax, eax
  0113d	89 85 41 f8 ff
	ff		 mov	 DWORD PTR _Temp$[ebp+1625], eax
  01143	89 85 45 f8 ff
	ff		 mov	 DWORD PTR _Temp$[ebp+1629], eax
  01149	89 85 49 f8 ff
	ff		 mov	 DWORD PTR _Temp$[ebp+1633], eax
  0114f	88 85 4d f8 ff
	ff		 mov	 BYTE PTR _Temp$[ebp+1637], al
  01155	a0 00 00 00 00	 mov	 al, BYTE PTR ??_C@_00CNPNBAHC@?$AA@
  0115a	88 85 4e f8 ff
	ff		 mov	 BYTE PTR _Temp$[ebp+1638], al
  01160	33 c0		 xor	 eax, eax
  01162	89 85 4f f8 ff
	ff		 mov	 DWORD PTR _Temp$[ebp+1639], eax
  01168	89 85 53 f8 ff
	ff		 mov	 DWORD PTR _Temp$[ebp+1643], eax
  0116e	89 85 57 f8 ff
	ff		 mov	 DWORD PTR _Temp$[ebp+1647], eax
  01174	88 85 5b f8 ff
	ff		 mov	 BYTE PTR _Temp$[ebp+1651], al
  0117a	a0 00 00 00 00	 mov	 al, BYTE PTR ??_C@_00CNPNBAHC@?$AA@
  0117f	88 85 5c f8 ff
	ff		 mov	 BYTE PTR _Temp$[ebp+1652], al
  01185	33 c0		 xor	 eax, eax
  01187	89 85 5d f8 ff
	ff		 mov	 DWORD PTR _Temp$[ebp+1653], eax
  0118d	89 85 61 f8 ff
	ff		 mov	 DWORD PTR _Temp$[ebp+1657], eax
  01193	89 85 65 f8 ff
	ff		 mov	 DWORD PTR _Temp$[ebp+1661], eax
  01199	88 85 69 f8 ff
	ff		 mov	 BYTE PTR _Temp$[ebp+1665], al
  0119f	a0 00 00 00 00	 mov	 al, BYTE PTR ??_C@_00CNPNBAHC@?$AA@
  011a4	88 85 6a f8 ff
	ff		 mov	 BYTE PTR _Temp$[ebp+1666], al
  011aa	33 c0		 xor	 eax, eax
  011ac	89 85 6b f8 ff
	ff		 mov	 DWORD PTR _Temp$[ebp+1667], eax
  011b2	89 85 6f f8 ff
	ff		 mov	 DWORD PTR _Temp$[ebp+1671], eax
  011b8	89 85 73 f8 ff
	ff		 mov	 DWORD PTR _Temp$[ebp+1675], eax
  011be	88 85 77 f8 ff
	ff		 mov	 BYTE PTR _Temp$[ebp+1679], al
  011c4	a0 00 00 00 00	 mov	 al, BYTE PTR ??_C@_00CNPNBAHC@?$AA@
  011c9	88 85 78 f8 ff
	ff		 mov	 BYTE PTR _Temp$[ebp+1680], al
  011cf	33 c0		 xor	 eax, eax
  011d1	89 85 79 f8 ff
	ff		 mov	 DWORD PTR _Temp$[ebp+1681], eax
  011d7	89 85 7d f8 ff
	ff		 mov	 DWORD PTR _Temp$[ebp+1685], eax
  011dd	89 85 81 f8 ff
	ff		 mov	 DWORD PTR _Temp$[ebp+1689], eax
  011e3	88 85 85 f8 ff
	ff		 mov	 BYTE PTR _Temp$[ebp+1693], al
  011e9	a0 00 00 00 00	 mov	 al, BYTE PTR ??_C@_00CNPNBAHC@?$AA@
  011ee	88 85 86 f8 ff
	ff		 mov	 BYTE PTR _Temp$[ebp+1694], al
  011f4	33 c0		 xor	 eax, eax
  011f6	89 85 87 f8 ff
	ff		 mov	 DWORD PTR _Temp$[ebp+1695], eax
  011fc	89 85 8b f8 ff
	ff		 mov	 DWORD PTR _Temp$[ebp+1699], eax
  01202	89 85 8f f8 ff
	ff		 mov	 DWORD PTR _Temp$[ebp+1703], eax
  01208	88 85 93 f8 ff
	ff		 mov	 BYTE PTR _Temp$[ebp+1707], al
  0120e	a0 00 00 00 00	 mov	 al, BYTE PTR ??_C@_00CNPNBAHC@?$AA@
  01213	88 85 94 f8 ff
	ff		 mov	 BYTE PTR _Temp$[ebp+1708], al
  01219	33 c0		 xor	 eax, eax
  0121b	89 85 95 f8 ff
	ff		 mov	 DWORD PTR _Temp$[ebp+1709], eax
  01221	89 85 99 f8 ff
	ff		 mov	 DWORD PTR _Temp$[ebp+1713], eax
  01227	89 85 9d f8 ff
	ff		 mov	 DWORD PTR _Temp$[ebp+1717], eax
  0122d	88 85 a1 f8 ff
	ff		 mov	 BYTE PTR _Temp$[ebp+1721], al
  01233	a0 00 00 00 00	 mov	 al, BYTE PTR ??_C@_00CNPNBAHC@?$AA@
  01238	88 85 a2 f8 ff
	ff		 mov	 BYTE PTR _Temp$[ebp+1722], al
  0123e	33 c0		 xor	 eax, eax
  01240	89 85 a3 f8 ff
	ff		 mov	 DWORD PTR _Temp$[ebp+1723], eax
  01246	89 85 a7 f8 ff
	ff		 mov	 DWORD PTR _Temp$[ebp+1727], eax
  0124c	89 85 ab f8 ff
	ff		 mov	 DWORD PTR _Temp$[ebp+1731], eax
  01252	88 85 af f8 ff
	ff		 mov	 BYTE PTR _Temp$[ebp+1735], al
  01258	a0 00 00 00 00	 mov	 al, BYTE PTR ??_C@_00CNPNBAHC@?$AA@
  0125d	88 85 b0 f8 ff
	ff		 mov	 BYTE PTR _Temp$[ebp+1736], al
  01263	33 c0		 xor	 eax, eax
  01265	89 85 b1 f8 ff
	ff		 mov	 DWORD PTR _Temp$[ebp+1737], eax
  0126b	89 85 b5 f8 ff
	ff		 mov	 DWORD PTR _Temp$[ebp+1741], eax
  01271	89 85 b9 f8 ff
	ff		 mov	 DWORD PTR _Temp$[ebp+1745], eax
  01277	88 85 bd f8 ff
	ff		 mov	 BYTE PTR _Temp$[ebp+1749], al
  0127d	a0 00 00 00 00	 mov	 al, BYTE PTR ??_C@_00CNPNBAHC@?$AA@
  01282	88 85 be f8 ff
	ff		 mov	 BYTE PTR _Temp$[ebp+1750], al
  01288	33 c0		 xor	 eax, eax
  0128a	89 85 bf f8 ff
	ff		 mov	 DWORD PTR _Temp$[ebp+1751], eax
  01290	89 85 c3 f8 ff
	ff		 mov	 DWORD PTR _Temp$[ebp+1755], eax
  01296	89 85 c7 f8 ff
	ff		 mov	 DWORD PTR _Temp$[ebp+1759], eax
  0129c	88 85 cb f8 ff
	ff		 mov	 BYTE PTR _Temp$[ebp+1763], al
  012a2	a0 00 00 00 00	 mov	 al, BYTE PTR ??_C@_00CNPNBAHC@?$AA@
  012a7	88 85 cc f8 ff
	ff		 mov	 BYTE PTR _Temp$[ebp+1764], al
  012ad	33 c0		 xor	 eax, eax
  012af	89 85 cd f8 ff
	ff		 mov	 DWORD PTR _Temp$[ebp+1765], eax
  012b5	89 85 d1 f8 ff
	ff		 mov	 DWORD PTR _Temp$[ebp+1769], eax
  012bb	89 85 d5 f8 ff
	ff		 mov	 DWORD PTR _Temp$[ebp+1773], eax
  012c1	88 85 d9 f8 ff
	ff		 mov	 BYTE PTR _Temp$[ebp+1777], al
  012c7	a0 00 00 00 00	 mov	 al, BYTE PTR ??_C@_00CNPNBAHC@?$AA@
  012cc	88 85 da f8 ff
	ff		 mov	 BYTE PTR _Temp$[ebp+1778], al
  012d2	33 c0		 xor	 eax, eax
  012d4	89 85 db f8 ff
	ff		 mov	 DWORD PTR _Temp$[ebp+1779], eax
  012da	89 85 df f8 ff
	ff		 mov	 DWORD PTR _Temp$[ebp+1783], eax
  012e0	89 85 e3 f8 ff
	ff		 mov	 DWORD PTR _Temp$[ebp+1787], eax
  012e6	88 85 e7 f8 ff
	ff		 mov	 BYTE PTR _Temp$[ebp+1791], al
  012ec	a0 00 00 00 00	 mov	 al, BYTE PTR ??_C@_00CNPNBAHC@?$AA@
  012f1	88 85 e8 f8 ff
	ff		 mov	 BYTE PTR _Temp$[ebp+1792], al
  012f7	33 c0		 xor	 eax, eax
  012f9	89 85 e9 f8 ff
	ff		 mov	 DWORD PTR _Temp$[ebp+1793], eax
  012ff	89 85 ed f8 ff
	ff		 mov	 DWORD PTR _Temp$[ebp+1797], eax
  01305	89 85 f1 f8 ff
	ff		 mov	 DWORD PTR _Temp$[ebp+1801], eax
  0130b	88 85 f5 f8 ff
	ff		 mov	 BYTE PTR _Temp$[ebp+1805], al

; 548  : 				  "","","","","","","","","","","","","","","","",

  01311	a0 00 00 00 00	 mov	 al, BYTE PTR ??_C@_00CNPNBAHC@?$AA@
  01316	88 85 f6 f8 ff
	ff		 mov	 BYTE PTR _Temp$[ebp+1806], al
  0131c	33 c0		 xor	 eax, eax
  0131e	89 85 f7 f8 ff
	ff		 mov	 DWORD PTR _Temp$[ebp+1807], eax
  01324	89 85 fb f8 ff
	ff		 mov	 DWORD PTR _Temp$[ebp+1811], eax
  0132a	89 85 ff f8 ff
	ff		 mov	 DWORD PTR _Temp$[ebp+1815], eax
  01330	88 85 03 f9 ff
	ff		 mov	 BYTE PTR _Temp$[ebp+1819], al
  01336	a0 00 00 00 00	 mov	 al, BYTE PTR ??_C@_00CNPNBAHC@?$AA@
  0133b	88 85 04 f9 ff
	ff		 mov	 BYTE PTR _Temp$[ebp+1820], al
  01341	33 c0		 xor	 eax, eax
  01343	89 85 05 f9 ff
	ff		 mov	 DWORD PTR _Temp$[ebp+1821], eax
  01349	89 85 09 f9 ff
	ff		 mov	 DWORD PTR _Temp$[ebp+1825], eax
  0134f	89 85 0d f9 ff
	ff		 mov	 DWORD PTR _Temp$[ebp+1829], eax
  01355	88 85 11 f9 ff
	ff		 mov	 BYTE PTR _Temp$[ebp+1833], al
  0135b	a0 00 00 00 00	 mov	 al, BYTE PTR ??_C@_00CNPNBAHC@?$AA@
  01360	88 85 12 f9 ff
	ff		 mov	 BYTE PTR _Temp$[ebp+1834], al
  01366	33 c0		 xor	 eax, eax
  01368	89 85 13 f9 ff
	ff		 mov	 DWORD PTR _Temp$[ebp+1835], eax
  0136e	89 85 17 f9 ff
	ff		 mov	 DWORD PTR _Temp$[ebp+1839], eax
  01374	89 85 1b f9 ff
	ff		 mov	 DWORD PTR _Temp$[ebp+1843], eax
  0137a	88 85 1f f9 ff
	ff		 mov	 BYTE PTR _Temp$[ebp+1847], al
  01380	a0 00 00 00 00	 mov	 al, BYTE PTR ??_C@_00CNPNBAHC@?$AA@
  01385	88 85 20 f9 ff
	ff		 mov	 BYTE PTR _Temp$[ebp+1848], al
  0138b	33 c0		 xor	 eax, eax
  0138d	89 85 21 f9 ff
	ff		 mov	 DWORD PTR _Temp$[ebp+1849], eax
  01393	89 85 25 f9 ff
	ff		 mov	 DWORD PTR _Temp$[ebp+1853], eax
  01399	89 85 29 f9 ff
	ff		 mov	 DWORD PTR _Temp$[ebp+1857], eax
  0139f	88 85 2d f9 ff
	ff		 mov	 BYTE PTR _Temp$[ebp+1861], al
  013a5	a0 00 00 00 00	 mov	 al, BYTE PTR ??_C@_00CNPNBAHC@?$AA@
  013aa	88 85 2e f9 ff
	ff		 mov	 BYTE PTR _Temp$[ebp+1862], al
  013b0	33 c0		 xor	 eax, eax
  013b2	89 85 2f f9 ff
	ff		 mov	 DWORD PTR _Temp$[ebp+1863], eax
  013b8	89 85 33 f9 ff
	ff		 mov	 DWORD PTR _Temp$[ebp+1867], eax
  013be	89 85 37 f9 ff
	ff		 mov	 DWORD PTR _Temp$[ebp+1871], eax
  013c4	88 85 3b f9 ff
	ff		 mov	 BYTE PTR _Temp$[ebp+1875], al
  013ca	a0 00 00 00 00	 mov	 al, BYTE PTR ??_C@_00CNPNBAHC@?$AA@
  013cf	88 85 3c f9 ff
	ff		 mov	 BYTE PTR _Temp$[ebp+1876], al
  013d5	33 c0		 xor	 eax, eax
  013d7	89 85 3d f9 ff
	ff		 mov	 DWORD PTR _Temp$[ebp+1877], eax
  013dd	89 85 41 f9 ff
	ff		 mov	 DWORD PTR _Temp$[ebp+1881], eax
  013e3	89 85 45 f9 ff
	ff		 mov	 DWORD PTR _Temp$[ebp+1885], eax
  013e9	88 85 49 f9 ff
	ff		 mov	 BYTE PTR _Temp$[ebp+1889], al
  013ef	a0 00 00 00 00	 mov	 al, BYTE PTR ??_C@_00CNPNBAHC@?$AA@
  013f4	88 85 4a f9 ff
	ff		 mov	 BYTE PTR _Temp$[ebp+1890], al
  013fa	33 c0		 xor	 eax, eax
  013fc	89 85 4b f9 ff
	ff		 mov	 DWORD PTR _Temp$[ebp+1891], eax
  01402	89 85 4f f9 ff
	ff		 mov	 DWORD PTR _Temp$[ebp+1895], eax
  01408	89 85 53 f9 ff
	ff		 mov	 DWORD PTR _Temp$[ebp+1899], eax
  0140e	88 85 57 f9 ff
	ff		 mov	 BYTE PTR _Temp$[ebp+1903], al
  01414	a0 00 00 00 00	 mov	 al, BYTE PTR ??_C@_00CNPNBAHC@?$AA@
  01419	88 85 58 f9 ff
	ff		 mov	 BYTE PTR _Temp$[ebp+1904], al
  0141f	33 c0		 xor	 eax, eax
  01421	89 85 59 f9 ff
	ff		 mov	 DWORD PTR _Temp$[ebp+1905], eax
  01427	89 85 5d f9 ff
	ff		 mov	 DWORD PTR _Temp$[ebp+1909], eax
  0142d	89 85 61 f9 ff
	ff		 mov	 DWORD PTR _Temp$[ebp+1913], eax
  01433	88 85 65 f9 ff
	ff		 mov	 BYTE PTR _Temp$[ebp+1917], al
  01439	a0 00 00 00 00	 mov	 al, BYTE PTR ??_C@_00CNPNBAHC@?$AA@
  0143e	88 85 66 f9 ff
	ff		 mov	 BYTE PTR _Temp$[ebp+1918], al
  01444	33 c0		 xor	 eax, eax
  01446	89 85 67 f9 ff
	ff		 mov	 DWORD PTR _Temp$[ebp+1919], eax
  0144c	89 85 6b f9 ff
	ff		 mov	 DWORD PTR _Temp$[ebp+1923], eax
  01452	89 85 6f f9 ff
	ff		 mov	 DWORD PTR _Temp$[ebp+1927], eax
  01458	88 85 73 f9 ff
	ff		 mov	 BYTE PTR _Temp$[ebp+1931], al
  0145e	a0 00 00 00 00	 mov	 al, BYTE PTR ??_C@_00CNPNBAHC@?$AA@
  01463	88 85 74 f9 ff
	ff		 mov	 BYTE PTR _Temp$[ebp+1932], al
  01469	33 c0		 xor	 eax, eax
  0146b	89 85 75 f9 ff
	ff		 mov	 DWORD PTR _Temp$[ebp+1933], eax
  01471	89 85 79 f9 ff
	ff		 mov	 DWORD PTR _Temp$[ebp+1937], eax
  01477	89 85 7d f9 ff
	ff		 mov	 DWORD PTR _Temp$[ebp+1941], eax
  0147d	88 85 81 f9 ff
	ff		 mov	 BYTE PTR _Temp$[ebp+1945], al
  01483	a0 00 00 00 00	 mov	 al, BYTE PTR ??_C@_00CNPNBAHC@?$AA@
  01488	88 85 82 f9 ff
	ff		 mov	 BYTE PTR _Temp$[ebp+1946], al
  0148e	33 c0		 xor	 eax, eax
  01490	89 85 83 f9 ff
	ff		 mov	 DWORD PTR _Temp$[ebp+1947], eax
  01496	89 85 87 f9 ff
	ff		 mov	 DWORD PTR _Temp$[ebp+1951], eax
  0149c	89 85 8b f9 ff
	ff		 mov	 DWORD PTR _Temp$[ebp+1955], eax
  014a2	88 85 8f f9 ff
	ff		 mov	 BYTE PTR _Temp$[ebp+1959], al
  014a8	a0 00 00 00 00	 mov	 al, BYTE PTR ??_C@_00CNPNBAHC@?$AA@
  014ad	88 85 90 f9 ff
	ff		 mov	 BYTE PTR _Temp$[ebp+1960], al
  014b3	33 c0		 xor	 eax, eax
  014b5	89 85 91 f9 ff
	ff		 mov	 DWORD PTR _Temp$[ebp+1961], eax
  014bb	89 85 95 f9 ff
	ff		 mov	 DWORD PTR _Temp$[ebp+1965], eax
  014c1	89 85 99 f9 ff
	ff		 mov	 DWORD PTR _Temp$[ebp+1969], eax
  014c7	88 85 9d f9 ff
	ff		 mov	 BYTE PTR _Temp$[ebp+1973], al
  014cd	a0 00 00 00 00	 mov	 al, BYTE PTR ??_C@_00CNPNBAHC@?$AA@
  014d2	88 85 9e f9 ff
	ff		 mov	 BYTE PTR _Temp$[ebp+1974], al
  014d8	33 c0		 xor	 eax, eax
  014da	89 85 9f f9 ff
	ff		 mov	 DWORD PTR _Temp$[ebp+1975], eax
  014e0	89 85 a3 f9 ff
	ff		 mov	 DWORD PTR _Temp$[ebp+1979], eax
  014e6	89 85 a7 f9 ff
	ff		 mov	 DWORD PTR _Temp$[ebp+1983], eax
  014ec	88 85 ab f9 ff
	ff		 mov	 BYTE PTR _Temp$[ebp+1987], al
  014f2	a0 00 00 00 00	 mov	 al, BYTE PTR ??_C@_00CNPNBAHC@?$AA@
  014f7	88 85 ac f9 ff
	ff		 mov	 BYTE PTR _Temp$[ebp+1988], al
  014fd	33 c0		 xor	 eax, eax
  014ff	89 85 ad f9 ff
	ff		 mov	 DWORD PTR _Temp$[ebp+1989], eax
  01505	89 85 b1 f9 ff
	ff		 mov	 DWORD PTR _Temp$[ebp+1993], eax
  0150b	89 85 b5 f9 ff
	ff		 mov	 DWORD PTR _Temp$[ebp+1997], eax
  01511	88 85 b9 f9 ff
	ff		 mov	 BYTE PTR _Temp$[ebp+2001], al
  01517	a0 00 00 00 00	 mov	 al, BYTE PTR ??_C@_00CNPNBAHC@?$AA@
  0151c	88 85 ba f9 ff
	ff		 mov	 BYTE PTR _Temp$[ebp+2002], al
  01522	33 c0		 xor	 eax, eax
  01524	89 85 bb f9 ff
	ff		 mov	 DWORD PTR _Temp$[ebp+2003], eax
  0152a	89 85 bf f9 ff
	ff		 mov	 DWORD PTR _Temp$[ebp+2007], eax
  01530	89 85 c3 f9 ff
	ff		 mov	 DWORD PTR _Temp$[ebp+2011], eax
  01536	88 85 c7 f9 ff
	ff		 mov	 BYTE PTR _Temp$[ebp+2015], al
  0153c	a0 00 00 00 00	 mov	 al, BYTE PTR ??_C@_00CNPNBAHC@?$AA@
  01541	88 85 c8 f9 ff
	ff		 mov	 BYTE PTR _Temp$[ebp+2016], al
  01547	33 c0		 xor	 eax, eax
  01549	89 85 c9 f9 ff
	ff		 mov	 DWORD PTR _Temp$[ebp+2017], eax
  0154f	89 85 cd f9 ff
	ff		 mov	 DWORD PTR _Temp$[ebp+2021], eax
  01555	89 85 d1 f9 ff
	ff		 mov	 DWORD PTR _Temp$[ebp+2025], eax
  0155b	88 85 d5 f9 ff
	ff		 mov	 BYTE PTR _Temp$[ebp+2029], al

; 549  : 				  "","","","","","","","","","","","Right Enter","Right Control","","","",

  01561	a0 00 00 00 00	 mov	 al, BYTE PTR ??_C@_00CNPNBAHC@?$AA@
  01566	88 85 d6 f9 ff
	ff		 mov	 BYTE PTR _Temp$[ebp+2030], al
  0156c	33 c0		 xor	 eax, eax
  0156e	89 85 d7 f9 ff
	ff		 mov	 DWORD PTR _Temp$[ebp+2031], eax
  01574	89 85 db f9 ff
	ff		 mov	 DWORD PTR _Temp$[ebp+2035], eax
  0157a	89 85 df f9 ff
	ff		 mov	 DWORD PTR _Temp$[ebp+2039], eax
  01580	88 85 e3 f9 ff
	ff		 mov	 BYTE PTR _Temp$[ebp+2043], al
  01586	a0 00 00 00 00	 mov	 al, BYTE PTR ??_C@_00CNPNBAHC@?$AA@
  0158b	88 85 e4 f9 ff
	ff		 mov	 BYTE PTR _Temp$[ebp+2044], al
  01591	33 c0		 xor	 eax, eax
  01593	89 85 e5 f9 ff
	ff		 mov	 DWORD PTR _Temp$[ebp+2045], eax
  01599	89 85 e9 f9 ff
	ff		 mov	 DWORD PTR _Temp$[ebp+2049], eax
  0159f	89 85 ed f9 ff
	ff		 mov	 DWORD PTR _Temp$[ebp+2053], eax
  015a5	88 85 f1 f9 ff
	ff		 mov	 BYTE PTR _Temp$[ebp+2057], al
  015ab	a0 00 00 00 00	 mov	 al, BYTE PTR ??_C@_00CNPNBAHC@?$AA@
  015b0	88 85 f2 f9 ff
	ff		 mov	 BYTE PTR _Temp$[ebp+2058], al
  015b6	33 c0		 xor	 eax, eax
  015b8	89 85 f3 f9 ff
	ff		 mov	 DWORD PTR _Temp$[ebp+2059], eax
  015be	89 85 f7 f9 ff
	ff		 mov	 DWORD PTR _Temp$[ebp+2063], eax
  015c4	89 85 fb f9 ff
	ff		 mov	 DWORD PTR _Temp$[ebp+2067], eax
  015ca	88 85 ff f9 ff
	ff		 mov	 BYTE PTR _Temp$[ebp+2071], al
  015d0	a0 00 00 00 00	 mov	 al, BYTE PTR ??_C@_00CNPNBAHC@?$AA@
  015d5	88 85 00 fa ff
	ff		 mov	 BYTE PTR _Temp$[ebp+2072], al
  015db	33 c0		 xor	 eax, eax
  015dd	89 85 01 fa ff
	ff		 mov	 DWORD PTR _Temp$[ebp+2073], eax
  015e3	89 85 05 fa ff
	ff		 mov	 DWORD PTR _Temp$[ebp+2077], eax
  015e9	89 85 09 fa ff
	ff		 mov	 DWORD PTR _Temp$[ebp+2081], eax
  015ef	88 85 0d fa ff
	ff		 mov	 BYTE PTR _Temp$[ebp+2085], al
  015f5	a0 00 00 00 00	 mov	 al, BYTE PTR ??_C@_00CNPNBAHC@?$AA@
  015fa	88 85 0e fa ff
	ff		 mov	 BYTE PTR _Temp$[ebp+2086], al
  01600	33 c0		 xor	 eax, eax
  01602	89 85 0f fa ff
	ff		 mov	 DWORD PTR _Temp$[ebp+2087], eax
  01608	89 85 13 fa ff
	ff		 mov	 DWORD PTR _Temp$[ebp+2091], eax
  0160e	89 85 17 fa ff
	ff		 mov	 DWORD PTR _Temp$[ebp+2095], eax
  01614	88 85 1b fa ff
	ff		 mov	 BYTE PTR _Temp$[ebp+2099], al
  0161a	a0 00 00 00 00	 mov	 al, BYTE PTR ??_C@_00CNPNBAHC@?$AA@
  0161f	88 85 1c fa ff
	ff		 mov	 BYTE PTR _Temp$[ebp+2100], al
  01625	33 c0		 xor	 eax, eax
  01627	89 85 1d fa ff
	ff		 mov	 DWORD PTR _Temp$[ebp+2101], eax
  0162d	89 85 21 fa ff
	ff		 mov	 DWORD PTR _Temp$[ebp+2105], eax
  01633	89 85 25 fa ff
	ff		 mov	 DWORD PTR _Temp$[ebp+2109], eax
  01639	88 85 29 fa ff
	ff		 mov	 BYTE PTR _Temp$[ebp+2113], al
  0163f	a0 00 00 00 00	 mov	 al, BYTE PTR ??_C@_00CNPNBAHC@?$AA@
  01644	88 85 2a fa ff
	ff		 mov	 BYTE PTR _Temp$[ebp+2114], al
  0164a	33 c0		 xor	 eax, eax
  0164c	89 85 2b fa ff
	ff		 mov	 DWORD PTR _Temp$[ebp+2115], eax
  01652	89 85 2f fa ff
	ff		 mov	 DWORD PTR _Temp$[ebp+2119], eax
  01658	89 85 33 fa ff
	ff		 mov	 DWORD PTR _Temp$[ebp+2123], eax
  0165e	88 85 37 fa ff
	ff		 mov	 BYTE PTR _Temp$[ebp+2127], al
  01664	a0 00 00 00 00	 mov	 al, BYTE PTR ??_C@_00CNPNBAHC@?$AA@
  01669	88 85 38 fa ff
	ff		 mov	 BYTE PTR _Temp$[ebp+2128], al
  0166f	33 c0		 xor	 eax, eax
  01671	89 85 39 fa ff
	ff		 mov	 DWORD PTR _Temp$[ebp+2129], eax
  01677	89 85 3d fa ff
	ff		 mov	 DWORD PTR _Temp$[ebp+2133], eax
  0167d	89 85 41 fa ff
	ff		 mov	 DWORD PTR _Temp$[ebp+2137], eax
  01683	88 85 45 fa ff
	ff		 mov	 BYTE PTR _Temp$[ebp+2141], al
  01689	a0 00 00 00 00	 mov	 al, BYTE PTR ??_C@_00CNPNBAHC@?$AA@
  0168e	88 85 46 fa ff
	ff		 mov	 BYTE PTR _Temp$[ebp+2142], al
  01694	33 c0		 xor	 eax, eax
  01696	89 85 47 fa ff
	ff		 mov	 DWORD PTR _Temp$[ebp+2143], eax
  0169c	89 85 4b fa ff
	ff		 mov	 DWORD PTR _Temp$[ebp+2147], eax
  016a2	89 85 4f fa ff
	ff		 mov	 DWORD PTR _Temp$[ebp+2151], eax
  016a8	88 85 53 fa ff
	ff		 mov	 BYTE PTR _Temp$[ebp+2155], al
  016ae	a0 00 00 00 00	 mov	 al, BYTE PTR ??_C@_00CNPNBAHC@?$AA@
  016b3	88 85 54 fa ff
	ff		 mov	 BYTE PTR _Temp$[ebp+2156], al
  016b9	33 c0		 xor	 eax, eax
  016bb	89 85 55 fa ff
	ff		 mov	 DWORD PTR _Temp$[ebp+2157], eax
  016c1	89 85 59 fa ff
	ff		 mov	 DWORD PTR _Temp$[ebp+2161], eax
  016c7	89 85 5d fa ff
	ff		 mov	 DWORD PTR _Temp$[ebp+2165], eax
  016cd	88 85 61 fa ff
	ff		 mov	 BYTE PTR _Temp$[ebp+2169], al
  016d3	a0 00 00 00 00	 mov	 al, BYTE PTR ??_C@_00CNPNBAHC@?$AA@
  016d8	88 85 62 fa ff
	ff		 mov	 BYTE PTR _Temp$[ebp+2170], al
  016de	33 c0		 xor	 eax, eax
  016e0	89 85 63 fa ff
	ff		 mov	 DWORD PTR _Temp$[ebp+2171], eax
  016e6	89 85 67 fa ff
	ff		 mov	 DWORD PTR _Temp$[ebp+2175], eax
  016ec	89 85 6b fa ff
	ff		 mov	 DWORD PTR _Temp$[ebp+2179], eax
  016f2	88 85 6f fa ff
	ff		 mov	 BYTE PTR _Temp$[ebp+2183], al
  016f8	a1 00 00 00 00	 mov	 eax, DWORD PTR ??_C@_0M@ICALLIHK@Right?5Enter?$AA@
  016fd	89 85 70 fa ff
	ff		 mov	 DWORD PTR _Temp$[ebp+2184], eax
  01703	8b 0d 04 00 00
	00		 mov	 ecx, DWORD PTR ??_C@_0M@ICALLIHK@Right?5Enter?$AA@+4
  01709	89 8d 74 fa ff
	ff		 mov	 DWORD PTR _Temp$[ebp+2188], ecx
  0170f	8b 15 08 00 00
	00		 mov	 edx, DWORD PTR ??_C@_0M@ICALLIHK@Right?5Enter?$AA@+8
  01715	89 95 78 fa ff
	ff		 mov	 DWORD PTR _Temp$[ebp+2192], edx
  0171b	33 c0		 xor	 eax, eax
  0171d	66 89 85 7c fa
	ff ff		 mov	 WORD PTR _Temp$[ebp+2196], ax
  01724	a1 00 00 00 00	 mov	 eax, DWORD PTR ??_C@_0O@FHMBNID@Right?5Control?$AA@
  01729	89 85 7e fa ff
	ff		 mov	 DWORD PTR _Temp$[ebp+2198], eax
  0172f	8b 0d 04 00 00
	00		 mov	 ecx, DWORD PTR ??_C@_0O@FHMBNID@Right?5Control?$AA@+4
  01735	89 8d 82 fa ff
	ff		 mov	 DWORD PTR _Temp$[ebp+2202], ecx
  0173b	8b 15 08 00 00
	00		 mov	 edx, DWORD PTR ??_C@_0O@FHMBNID@Right?5Control?$AA@+8
  01741	89 95 86 fa ff
	ff		 mov	 DWORD PTR _Temp$[ebp+2206], edx
  01747	66 a1 0c 00 00
	00		 mov	 ax, WORD PTR ??_C@_0O@FHMBNID@Right?5Control?$AA@+12
  0174d	66 89 85 8a fa
	ff ff		 mov	 WORD PTR _Temp$[ebp+2210], ax
  01754	a0 00 00 00 00	 mov	 al, BYTE PTR ??_C@_00CNPNBAHC@?$AA@
  01759	88 85 8c fa ff
	ff		 mov	 BYTE PTR _Temp$[ebp+2212], al
  0175f	33 c0		 xor	 eax, eax
  01761	89 85 8d fa ff
	ff		 mov	 DWORD PTR _Temp$[ebp+2213], eax
  01767	89 85 91 fa ff
	ff		 mov	 DWORD PTR _Temp$[ebp+2217], eax
  0176d	89 85 95 fa ff
	ff		 mov	 DWORD PTR _Temp$[ebp+2221], eax
  01773	88 85 99 fa ff
	ff		 mov	 BYTE PTR _Temp$[ebp+2225], al
  01779	a0 00 00 00 00	 mov	 al, BYTE PTR ??_C@_00CNPNBAHC@?$AA@
  0177e	88 85 9a fa ff
	ff		 mov	 BYTE PTR _Temp$[ebp+2226], al
  01784	33 c0		 xor	 eax, eax
  01786	89 85 9b fa ff
	ff		 mov	 DWORD PTR _Temp$[ebp+2227], eax
  0178c	89 85 9f fa ff
	ff		 mov	 DWORD PTR _Temp$[ebp+2231], eax
  01792	89 85 a3 fa ff
	ff		 mov	 DWORD PTR _Temp$[ebp+2235], eax
  01798	88 85 a7 fa ff
	ff		 mov	 BYTE PTR _Temp$[ebp+2239], al
  0179e	a0 00 00 00 00	 mov	 al, BYTE PTR ??_C@_00CNPNBAHC@?$AA@
  017a3	88 85 a8 fa ff
	ff		 mov	 BYTE PTR _Temp$[ebp+2240], al
  017a9	33 c0		 xor	 eax, eax
  017ab	89 85 a9 fa ff
	ff		 mov	 DWORD PTR _Temp$[ebp+2241], eax
  017b1	89 85 ad fa ff
	ff		 mov	 DWORD PTR _Temp$[ebp+2245], eax
  017b7	89 85 b1 fa ff
	ff		 mov	 DWORD PTR _Temp$[ebp+2249], eax
  017bd	88 85 b5 fa ff
	ff		 mov	 BYTE PTR _Temp$[ebp+2253], al

; 550  : 				  "","","","","","","","","","","","","","","","",

  017c3	a0 00 00 00 00	 mov	 al, BYTE PTR ??_C@_00CNPNBAHC@?$AA@
  017c8	88 85 b6 fa ff
	ff		 mov	 BYTE PTR _Temp$[ebp+2254], al
  017ce	33 c0		 xor	 eax, eax
  017d0	89 85 b7 fa ff
	ff		 mov	 DWORD PTR _Temp$[ebp+2255], eax
  017d6	89 85 bb fa ff
	ff		 mov	 DWORD PTR _Temp$[ebp+2259], eax
  017dc	89 85 bf fa ff
	ff		 mov	 DWORD PTR _Temp$[ebp+2263], eax
  017e2	88 85 c3 fa ff
	ff		 mov	 BYTE PTR _Temp$[ebp+2267], al
  017e8	a0 00 00 00 00	 mov	 al, BYTE PTR ??_C@_00CNPNBAHC@?$AA@
  017ed	88 85 c4 fa ff
	ff		 mov	 BYTE PTR _Temp$[ebp+2268], al
  017f3	33 c0		 xor	 eax, eax
  017f5	89 85 c5 fa ff
	ff		 mov	 DWORD PTR _Temp$[ebp+2269], eax
  017fb	89 85 c9 fa ff
	ff		 mov	 DWORD PTR _Temp$[ebp+2273], eax
  01801	89 85 cd fa ff
	ff		 mov	 DWORD PTR _Temp$[ebp+2277], eax
  01807	88 85 d1 fa ff
	ff		 mov	 BYTE PTR _Temp$[ebp+2281], al
  0180d	a0 00 00 00 00	 mov	 al, BYTE PTR ??_C@_00CNPNBAHC@?$AA@
  01812	88 85 d2 fa ff
	ff		 mov	 BYTE PTR _Temp$[ebp+2282], al
  01818	33 c0		 xor	 eax, eax
  0181a	89 85 d3 fa ff
	ff		 mov	 DWORD PTR _Temp$[ebp+2283], eax
  01820	89 85 d7 fa ff
	ff		 mov	 DWORD PTR _Temp$[ebp+2287], eax
  01826	89 85 db fa ff
	ff		 mov	 DWORD PTR _Temp$[ebp+2291], eax
  0182c	88 85 df fa ff
	ff		 mov	 BYTE PTR _Temp$[ebp+2295], al
  01832	a0 00 00 00 00	 mov	 al, BYTE PTR ??_C@_00CNPNBAHC@?$AA@
  01837	88 85 e0 fa ff
	ff		 mov	 BYTE PTR _Temp$[ebp+2296], al
  0183d	33 c0		 xor	 eax, eax
  0183f	89 85 e1 fa ff
	ff		 mov	 DWORD PTR _Temp$[ebp+2297], eax
  01845	89 85 e5 fa ff
	ff		 mov	 DWORD PTR _Temp$[ebp+2301], eax
  0184b	89 85 e9 fa ff
	ff		 mov	 DWORD PTR _Temp$[ebp+2305], eax
  01851	88 85 ed fa ff
	ff		 mov	 BYTE PTR _Temp$[ebp+2309], al
  01857	a0 00 00 00 00	 mov	 al, BYTE PTR ??_C@_00CNPNBAHC@?$AA@
  0185c	88 85 ee fa ff
	ff		 mov	 BYTE PTR _Temp$[ebp+2310], al
  01862	33 c0		 xor	 eax, eax
  01864	89 85 ef fa ff
	ff		 mov	 DWORD PTR _Temp$[ebp+2311], eax
  0186a	89 85 f3 fa ff
	ff		 mov	 DWORD PTR _Temp$[ebp+2315], eax
  01870	89 85 f7 fa ff
	ff		 mov	 DWORD PTR _Temp$[ebp+2319], eax
  01876	88 85 fb fa ff
	ff		 mov	 BYTE PTR _Temp$[ebp+2323], al
  0187c	a0 00 00 00 00	 mov	 al, BYTE PTR ??_C@_00CNPNBAHC@?$AA@
  01881	88 85 fc fa ff
	ff		 mov	 BYTE PTR _Temp$[ebp+2324], al
  01887	33 c0		 xor	 eax, eax
  01889	89 85 fd fa ff
	ff		 mov	 DWORD PTR _Temp$[ebp+2325], eax
  0188f	89 85 01 fb ff
	ff		 mov	 DWORD PTR _Temp$[ebp+2329], eax
  01895	89 85 05 fb ff
	ff		 mov	 DWORD PTR _Temp$[ebp+2333], eax
  0189b	88 85 09 fb ff
	ff		 mov	 BYTE PTR _Temp$[ebp+2337], al
  018a1	a0 00 00 00 00	 mov	 al, BYTE PTR ??_C@_00CNPNBAHC@?$AA@
  018a6	88 85 0a fb ff
	ff		 mov	 BYTE PTR _Temp$[ebp+2338], al
  018ac	33 c0		 xor	 eax, eax
  018ae	89 85 0b fb ff
	ff		 mov	 DWORD PTR _Temp$[ebp+2339], eax
  018b4	89 85 0f fb ff
	ff		 mov	 DWORD PTR _Temp$[ebp+2343], eax
  018ba	89 85 13 fb ff
	ff		 mov	 DWORD PTR _Temp$[ebp+2347], eax
  018c0	88 85 17 fb ff
	ff		 mov	 BYTE PTR _Temp$[ebp+2351], al
  018c6	a0 00 00 00 00	 mov	 al, BYTE PTR ??_C@_00CNPNBAHC@?$AA@
  018cb	88 85 18 fb ff
	ff		 mov	 BYTE PTR _Temp$[ebp+2352], al
  018d1	33 c0		 xor	 eax, eax
  018d3	89 85 19 fb ff
	ff		 mov	 DWORD PTR _Temp$[ebp+2353], eax
  018d9	89 85 1d fb ff
	ff		 mov	 DWORD PTR _Temp$[ebp+2357], eax
  018df	89 85 21 fb ff
	ff		 mov	 DWORD PTR _Temp$[ebp+2361], eax
  018e5	88 85 25 fb ff
	ff		 mov	 BYTE PTR _Temp$[ebp+2365], al
  018eb	a0 00 00 00 00	 mov	 al, BYTE PTR ??_C@_00CNPNBAHC@?$AA@
  018f0	88 85 26 fb ff
	ff		 mov	 BYTE PTR _Temp$[ebp+2366], al
  018f6	33 c0		 xor	 eax, eax
  018f8	89 85 27 fb ff
	ff		 mov	 DWORD PTR _Temp$[ebp+2367], eax
  018fe	89 85 2b fb ff
	ff		 mov	 DWORD PTR _Temp$[ebp+2371], eax
  01904	89 85 2f fb ff
	ff		 mov	 DWORD PTR _Temp$[ebp+2375], eax
  0190a	88 85 33 fb ff
	ff		 mov	 BYTE PTR _Temp$[ebp+2379], al
  01910	a0 00 00 00 00	 mov	 al, BYTE PTR ??_C@_00CNPNBAHC@?$AA@
  01915	88 85 34 fb ff
	ff		 mov	 BYTE PTR _Temp$[ebp+2380], al
  0191b	33 c0		 xor	 eax, eax
  0191d	89 85 35 fb ff
	ff		 mov	 DWORD PTR _Temp$[ebp+2381], eax
  01923	89 85 39 fb ff
	ff		 mov	 DWORD PTR _Temp$[ebp+2385], eax
  01929	89 85 3d fb ff
	ff		 mov	 DWORD PTR _Temp$[ebp+2389], eax
  0192f	88 85 41 fb ff
	ff		 mov	 BYTE PTR _Temp$[ebp+2393], al
  01935	a0 00 00 00 00	 mov	 al, BYTE PTR ??_C@_00CNPNBAHC@?$AA@
  0193a	88 85 42 fb ff
	ff		 mov	 BYTE PTR _Temp$[ebp+2394], al
  01940	33 c0		 xor	 eax, eax
  01942	89 85 43 fb ff
	ff		 mov	 DWORD PTR _Temp$[ebp+2395], eax
  01948	89 85 47 fb ff
	ff		 mov	 DWORD PTR _Temp$[ebp+2399], eax
  0194e	89 85 4b fb ff
	ff		 mov	 DWORD PTR _Temp$[ebp+2403], eax
  01954	88 85 4f fb ff
	ff		 mov	 BYTE PTR _Temp$[ebp+2407], al
  0195a	a0 00 00 00 00	 mov	 al, BYTE PTR ??_C@_00CNPNBAHC@?$AA@
  0195f	88 85 50 fb ff
	ff		 mov	 BYTE PTR _Temp$[ebp+2408], al
  01965	33 c0		 xor	 eax, eax
  01967	89 85 51 fb ff
	ff		 mov	 DWORD PTR _Temp$[ebp+2409], eax
  0196d	89 85 55 fb ff
	ff		 mov	 DWORD PTR _Temp$[ebp+2413], eax
  01973	89 85 59 fb ff
	ff		 mov	 DWORD PTR _Temp$[ebp+2417], eax
  01979	88 85 5d fb ff
	ff		 mov	 BYTE PTR _Temp$[ebp+2421], al
  0197f	a0 00 00 00 00	 mov	 al, BYTE PTR ??_C@_00CNPNBAHC@?$AA@
  01984	88 85 5e fb ff
	ff		 mov	 BYTE PTR _Temp$[ebp+2422], al
  0198a	33 c0		 xor	 eax, eax
  0198c	89 85 5f fb ff
	ff		 mov	 DWORD PTR _Temp$[ebp+2423], eax
  01992	89 85 63 fb ff
	ff		 mov	 DWORD PTR _Temp$[ebp+2427], eax
  01998	89 85 67 fb ff
	ff		 mov	 DWORD PTR _Temp$[ebp+2431], eax
  0199e	88 85 6b fb ff
	ff		 mov	 BYTE PTR _Temp$[ebp+2435], al
  019a4	a0 00 00 00 00	 mov	 al, BYTE PTR ??_C@_00CNPNBAHC@?$AA@
  019a9	88 85 6c fb ff
	ff		 mov	 BYTE PTR _Temp$[ebp+2436], al
  019af	33 c0		 xor	 eax, eax
  019b1	89 85 6d fb ff
	ff		 mov	 DWORD PTR _Temp$[ebp+2437], eax
  019b7	89 85 71 fb ff
	ff		 mov	 DWORD PTR _Temp$[ebp+2441], eax
  019bd	89 85 75 fb ff
	ff		 mov	 DWORD PTR _Temp$[ebp+2445], eax
  019c3	88 85 79 fb ff
	ff		 mov	 BYTE PTR _Temp$[ebp+2449], al
  019c9	a0 00 00 00 00	 mov	 al, BYTE PTR ??_C@_00CNPNBAHC@?$AA@
  019ce	88 85 7a fb ff
	ff		 mov	 BYTE PTR _Temp$[ebp+2450], al
  019d4	33 c0		 xor	 eax, eax
  019d6	89 85 7b fb ff
	ff		 mov	 DWORD PTR _Temp$[ebp+2451], eax
  019dc	89 85 7f fb ff
	ff		 mov	 DWORD PTR _Temp$[ebp+2455], eax
  019e2	89 85 83 fb ff
	ff		 mov	 DWORD PTR _Temp$[ebp+2459], eax
  019e8	88 85 87 fb ff
	ff		 mov	 BYTE PTR _Temp$[ebp+2463], al
  019ee	a0 00 00 00 00	 mov	 al, BYTE PTR ??_C@_00CNPNBAHC@?$AA@
  019f3	88 85 88 fb ff
	ff		 mov	 BYTE PTR _Temp$[ebp+2464], al
  019f9	33 c0		 xor	 eax, eax
  019fb	89 85 89 fb ff
	ff		 mov	 DWORD PTR _Temp$[ebp+2465], eax
  01a01	89 85 8d fb ff
	ff		 mov	 DWORD PTR _Temp$[ebp+2469], eax
  01a07	89 85 91 fb ff
	ff		 mov	 DWORD PTR _Temp$[ebp+2473], eax
  01a0d	88 85 95 fb ff
	ff		 mov	 BYTE PTR _Temp$[ebp+2477], al

; 551  : 				  "","Function F3","","","/ Num","","Print Screen","Right Alt","","","","","","","","",

  01a13	a0 00 00 00 00	 mov	 al, BYTE PTR ??_C@_00CNPNBAHC@?$AA@
  01a18	88 85 96 fb ff
	ff		 mov	 BYTE PTR _Temp$[ebp+2478], al
  01a1e	33 c0		 xor	 eax, eax
  01a20	89 85 97 fb ff
	ff		 mov	 DWORD PTR _Temp$[ebp+2479], eax
  01a26	89 85 9b fb ff
	ff		 mov	 DWORD PTR _Temp$[ebp+2483], eax
  01a2c	89 85 9f fb ff
	ff		 mov	 DWORD PTR _Temp$[ebp+2487], eax
  01a32	88 85 a3 fb ff
	ff		 mov	 BYTE PTR _Temp$[ebp+2491], al
  01a38	a1 00 00 00 00	 mov	 eax, DWORD PTR ??_C@_0M@LHBLIFBA@Function?5F3?$AA@
  01a3d	89 85 a4 fb ff
	ff		 mov	 DWORD PTR _Temp$[ebp+2492], eax
  01a43	8b 0d 04 00 00
	00		 mov	 ecx, DWORD PTR ??_C@_0M@LHBLIFBA@Function?5F3?$AA@+4
  01a49	89 8d a8 fb ff
	ff		 mov	 DWORD PTR _Temp$[ebp+2496], ecx
  01a4f	8b 15 08 00 00
	00		 mov	 edx, DWORD PTR ??_C@_0M@LHBLIFBA@Function?5F3?$AA@+8
  01a55	89 95 ac fb ff
	ff		 mov	 DWORD PTR _Temp$[ebp+2500], edx
  01a5b	33 c0		 xor	 eax, eax
  01a5d	66 89 85 b0 fb
	ff ff		 mov	 WORD PTR _Temp$[ebp+2504], ax
  01a64	a0 00 00 00 00	 mov	 al, BYTE PTR ??_C@_00CNPNBAHC@?$AA@
  01a69	88 85 b2 fb ff
	ff		 mov	 BYTE PTR _Temp$[ebp+2506], al
  01a6f	33 c0		 xor	 eax, eax
  01a71	89 85 b3 fb ff
	ff		 mov	 DWORD PTR _Temp$[ebp+2507], eax
  01a77	89 85 b7 fb ff
	ff		 mov	 DWORD PTR _Temp$[ebp+2511], eax
  01a7d	89 85 bb fb ff
	ff		 mov	 DWORD PTR _Temp$[ebp+2515], eax
  01a83	88 85 bf fb ff
	ff		 mov	 BYTE PTR _Temp$[ebp+2519], al
  01a89	a0 00 00 00 00	 mov	 al, BYTE PTR ??_C@_00CNPNBAHC@?$AA@
  01a8e	88 85 c0 fb ff
	ff		 mov	 BYTE PTR _Temp$[ebp+2520], al
  01a94	33 c0		 xor	 eax, eax
  01a96	89 85 c1 fb ff
	ff		 mov	 DWORD PTR _Temp$[ebp+2521], eax
  01a9c	89 85 c5 fb ff
	ff		 mov	 DWORD PTR _Temp$[ebp+2525], eax
  01aa2	89 85 c9 fb ff
	ff		 mov	 DWORD PTR _Temp$[ebp+2529], eax
  01aa8	88 85 cd fb ff
	ff		 mov	 BYTE PTR _Temp$[ebp+2533], al
  01aae	a1 00 00 00 00	 mov	 eax, DWORD PTR ??_C@_05IAKEFGOE@?1?5Num?$AA@
  01ab3	89 85 ce fb ff
	ff		 mov	 DWORD PTR _Temp$[ebp+2534], eax
  01ab9	66 8b 0d 04 00
	00 00		 mov	 cx, WORD PTR ??_C@_05IAKEFGOE@?1?5Num?$AA@+4
  01ac0	66 89 8d d2 fb
	ff ff		 mov	 WORD PTR _Temp$[ebp+2538], cx
  01ac7	33 c0		 xor	 eax, eax
  01ac9	89 85 d4 fb ff
	ff		 mov	 DWORD PTR _Temp$[ebp+2540], eax
  01acf	89 85 d8 fb ff
	ff		 mov	 DWORD PTR _Temp$[ebp+2544], eax
  01ad5	a0 00 00 00 00	 mov	 al, BYTE PTR ??_C@_00CNPNBAHC@?$AA@
  01ada	88 85 dc fb ff
	ff		 mov	 BYTE PTR _Temp$[ebp+2548], al
  01ae0	33 c0		 xor	 eax, eax
  01ae2	89 85 dd fb ff
	ff		 mov	 DWORD PTR _Temp$[ebp+2549], eax
  01ae8	89 85 e1 fb ff
	ff		 mov	 DWORD PTR _Temp$[ebp+2553], eax
  01aee	89 85 e5 fb ff
	ff		 mov	 DWORD PTR _Temp$[ebp+2557], eax
  01af4	88 85 e9 fb ff
	ff		 mov	 BYTE PTR _Temp$[ebp+2561], al
  01afa	a1 00 00 00 00	 mov	 eax, DWORD PTR ??_C@_0N@CHCLIIDE@Print?5Screen?$AA@
  01aff	89 85 ea fb ff
	ff		 mov	 DWORD PTR _Temp$[ebp+2562], eax
  01b05	8b 0d 04 00 00
	00		 mov	 ecx, DWORD PTR ??_C@_0N@CHCLIIDE@Print?5Screen?$AA@+4
  01b0b	89 8d ee fb ff
	ff		 mov	 DWORD PTR _Temp$[ebp+2566], ecx
  01b11	8b 15 08 00 00
	00		 mov	 edx, DWORD PTR ??_C@_0N@CHCLIIDE@Print?5Screen?$AA@+8
  01b17	89 95 f2 fb ff
	ff		 mov	 DWORD PTR _Temp$[ebp+2570], edx
  01b1d	a0 0c 00 00 00	 mov	 al, BYTE PTR ??_C@_0N@CHCLIIDE@Print?5Screen?$AA@+12
  01b22	88 85 f6 fb ff
	ff		 mov	 BYTE PTR _Temp$[ebp+2574], al
  01b28	33 c0		 xor	 eax, eax
  01b2a	88 85 f7 fb ff
	ff		 mov	 BYTE PTR _Temp$[ebp+2575], al
  01b30	a1 00 00 00 00	 mov	 eax, DWORD PTR ??_C@_09ELGHIMBO@Right?5Alt?$AA@
  01b35	89 85 f8 fb ff
	ff		 mov	 DWORD PTR _Temp$[ebp+2576], eax
  01b3b	8b 0d 04 00 00
	00		 mov	 ecx, DWORD PTR ??_C@_09ELGHIMBO@Right?5Alt?$AA@+4
  01b41	89 8d fc fb ff
	ff		 mov	 DWORD PTR _Temp$[ebp+2580], ecx
  01b47	66 8b 15 08 00
	00 00		 mov	 dx, WORD PTR ??_C@_09ELGHIMBO@Right?5Alt?$AA@+8
  01b4e	66 89 95 00 fc
	ff ff		 mov	 WORD PTR _Temp$[ebp+2584], dx
  01b55	33 c0		 xor	 eax, eax
  01b57	89 85 02 fc ff
	ff		 mov	 DWORD PTR _Temp$[ebp+2586], eax
  01b5d	a0 00 00 00 00	 mov	 al, BYTE PTR ??_C@_00CNPNBAHC@?$AA@
  01b62	88 85 06 fc ff
	ff		 mov	 BYTE PTR _Temp$[ebp+2590], al
  01b68	33 c0		 xor	 eax, eax
  01b6a	89 85 07 fc ff
	ff		 mov	 DWORD PTR _Temp$[ebp+2591], eax
  01b70	89 85 0b fc ff
	ff		 mov	 DWORD PTR _Temp$[ebp+2595], eax
  01b76	89 85 0f fc ff
	ff		 mov	 DWORD PTR _Temp$[ebp+2599], eax
  01b7c	88 85 13 fc ff
	ff		 mov	 BYTE PTR _Temp$[ebp+2603], al
  01b82	a0 00 00 00 00	 mov	 al, BYTE PTR ??_C@_00CNPNBAHC@?$AA@
  01b87	88 85 14 fc ff
	ff		 mov	 BYTE PTR _Temp$[ebp+2604], al
  01b8d	33 c0		 xor	 eax, eax
  01b8f	89 85 15 fc ff
	ff		 mov	 DWORD PTR _Temp$[ebp+2605], eax
  01b95	89 85 19 fc ff
	ff		 mov	 DWORD PTR _Temp$[ebp+2609], eax
  01b9b	89 85 1d fc ff
	ff		 mov	 DWORD PTR _Temp$[ebp+2613], eax
  01ba1	88 85 21 fc ff
	ff		 mov	 BYTE PTR _Temp$[ebp+2617], al
  01ba7	a0 00 00 00 00	 mov	 al, BYTE PTR ??_C@_00CNPNBAHC@?$AA@
  01bac	88 85 22 fc ff
	ff		 mov	 BYTE PTR _Temp$[ebp+2618], al
  01bb2	33 c0		 xor	 eax, eax
  01bb4	89 85 23 fc ff
	ff		 mov	 DWORD PTR _Temp$[ebp+2619], eax
  01bba	89 85 27 fc ff
	ff		 mov	 DWORD PTR _Temp$[ebp+2623], eax
  01bc0	89 85 2b fc ff
	ff		 mov	 DWORD PTR _Temp$[ebp+2627], eax
  01bc6	88 85 2f fc ff
	ff		 mov	 BYTE PTR _Temp$[ebp+2631], al
  01bcc	a0 00 00 00 00	 mov	 al, BYTE PTR ??_C@_00CNPNBAHC@?$AA@
  01bd1	88 85 30 fc ff
	ff		 mov	 BYTE PTR _Temp$[ebp+2632], al
  01bd7	33 c0		 xor	 eax, eax
  01bd9	89 85 31 fc ff
	ff		 mov	 DWORD PTR _Temp$[ebp+2633], eax
  01bdf	89 85 35 fc ff
	ff		 mov	 DWORD PTR _Temp$[ebp+2637], eax
  01be5	89 85 39 fc ff
	ff		 mov	 DWORD PTR _Temp$[ebp+2641], eax
  01beb	88 85 3d fc ff
	ff		 mov	 BYTE PTR _Temp$[ebp+2645], al
  01bf1	a0 00 00 00 00	 mov	 al, BYTE PTR ??_C@_00CNPNBAHC@?$AA@
  01bf6	88 85 3e fc ff
	ff		 mov	 BYTE PTR _Temp$[ebp+2646], al
  01bfc	33 c0		 xor	 eax, eax
  01bfe	89 85 3f fc ff
	ff		 mov	 DWORD PTR _Temp$[ebp+2647], eax
  01c04	89 85 43 fc ff
	ff		 mov	 DWORD PTR _Temp$[ebp+2651], eax
  01c0a	89 85 47 fc ff
	ff		 mov	 DWORD PTR _Temp$[ebp+2655], eax
  01c10	88 85 4b fc ff
	ff		 mov	 BYTE PTR _Temp$[ebp+2659], al
  01c16	a0 00 00 00 00	 mov	 al, BYTE PTR ??_C@_00CNPNBAHC@?$AA@
  01c1b	88 85 4c fc ff
	ff		 mov	 BYTE PTR _Temp$[ebp+2660], al
  01c21	33 c0		 xor	 eax, eax
  01c23	89 85 4d fc ff
	ff		 mov	 DWORD PTR _Temp$[ebp+2661], eax
  01c29	89 85 51 fc ff
	ff		 mov	 DWORD PTR _Temp$[ebp+2665], eax
  01c2f	89 85 55 fc ff
	ff		 mov	 DWORD PTR _Temp$[ebp+2669], eax
  01c35	88 85 59 fc ff
	ff		 mov	 BYTE PTR _Temp$[ebp+2673], al
  01c3b	a0 00 00 00 00	 mov	 al, BYTE PTR ??_C@_00CNPNBAHC@?$AA@
  01c40	88 85 5a fc ff
	ff		 mov	 BYTE PTR _Temp$[ebp+2674], al
  01c46	33 c0		 xor	 eax, eax
  01c48	89 85 5b fc ff
	ff		 mov	 DWORD PTR _Temp$[ebp+2675], eax
  01c4e	89 85 5f fc ff
	ff		 mov	 DWORD PTR _Temp$[ebp+2679], eax
  01c54	89 85 63 fc ff
	ff		 mov	 DWORD PTR _Temp$[ebp+2683], eax
  01c5a	88 85 67 fc ff
	ff		 mov	 BYTE PTR _Temp$[ebp+2687], al
  01c60	a0 00 00 00 00	 mov	 al, BYTE PTR ??_C@_00CNPNBAHC@?$AA@
  01c65	88 85 68 fc ff
	ff		 mov	 BYTE PTR _Temp$[ebp+2688], al
  01c6b	33 c0		 xor	 eax, eax
  01c6d	89 85 69 fc ff
	ff		 mov	 DWORD PTR _Temp$[ebp+2689], eax
  01c73	89 85 6d fc ff
	ff		 mov	 DWORD PTR _Temp$[ebp+2693], eax
  01c79	89 85 71 fc ff
	ff		 mov	 DWORD PTR _Temp$[ebp+2697], eax
  01c7f	88 85 75 fc ff
	ff		 mov	 BYTE PTR _Temp$[ebp+2701], al

; 552  : 				  "","","","","Pause","Break","Home","Up","Page Up","","Left","","Right","","End","Down",

  01c85	a0 00 00 00 00	 mov	 al, BYTE PTR ??_C@_00CNPNBAHC@?$AA@
  01c8a	88 85 76 fc ff
	ff		 mov	 BYTE PTR _Temp$[ebp+2702], al
  01c90	33 c0		 xor	 eax, eax
  01c92	89 85 77 fc ff
	ff		 mov	 DWORD PTR _Temp$[ebp+2703], eax
  01c98	89 85 7b fc ff
	ff		 mov	 DWORD PTR _Temp$[ebp+2707], eax
  01c9e	89 85 7f fc ff
	ff		 mov	 DWORD PTR _Temp$[ebp+2711], eax
  01ca4	88 85 83 fc ff
	ff		 mov	 BYTE PTR _Temp$[ebp+2715], al
  01caa	a0 00 00 00 00	 mov	 al, BYTE PTR ??_C@_00CNPNBAHC@?$AA@
  01caf	88 85 84 fc ff
	ff		 mov	 BYTE PTR _Temp$[ebp+2716], al
  01cb5	33 c0		 xor	 eax, eax
  01cb7	89 85 85 fc ff
	ff		 mov	 DWORD PTR _Temp$[ebp+2717], eax
  01cbd	89 85 89 fc ff
	ff		 mov	 DWORD PTR _Temp$[ebp+2721], eax
  01cc3	89 85 8d fc ff
	ff		 mov	 DWORD PTR _Temp$[ebp+2725], eax
  01cc9	88 85 91 fc ff
	ff		 mov	 BYTE PTR _Temp$[ebp+2729], al
  01ccf	a0 00 00 00 00	 mov	 al, BYTE PTR ??_C@_00CNPNBAHC@?$AA@
  01cd4	88 85 92 fc ff
	ff		 mov	 BYTE PTR _Temp$[ebp+2730], al
  01cda	33 c0		 xor	 eax, eax
  01cdc	89 85 93 fc ff
	ff		 mov	 DWORD PTR _Temp$[ebp+2731], eax
  01ce2	89 85 97 fc ff
	ff		 mov	 DWORD PTR _Temp$[ebp+2735], eax
  01ce8	89 85 9b fc ff
	ff		 mov	 DWORD PTR _Temp$[ebp+2739], eax
  01cee	88 85 9f fc ff
	ff		 mov	 BYTE PTR _Temp$[ebp+2743], al
  01cf4	a0 00 00 00 00	 mov	 al, BYTE PTR ??_C@_00CNPNBAHC@?$AA@
  01cf9	88 85 a0 fc ff
	ff		 mov	 BYTE PTR _Temp$[ebp+2744], al
  01cff	33 c0		 xor	 eax, eax
  01d01	89 85 a1 fc ff
	ff		 mov	 DWORD PTR _Temp$[ebp+2745], eax
  01d07	89 85 a5 fc ff
	ff		 mov	 DWORD PTR _Temp$[ebp+2749], eax
  01d0d	89 85 a9 fc ff
	ff		 mov	 DWORD PTR _Temp$[ebp+2753], eax
  01d13	88 85 ad fc ff
	ff		 mov	 BYTE PTR _Temp$[ebp+2757], al
  01d19	a1 00 00 00 00	 mov	 eax, DWORD PTR ??_C@_05PEDNBBBD@Pause?$AA@
  01d1e	89 85 ae fc ff
	ff		 mov	 DWORD PTR _Temp$[ebp+2758], eax
  01d24	66 8b 0d 04 00
	00 00		 mov	 cx, WORD PTR ??_C@_05PEDNBBBD@Pause?$AA@+4
  01d2b	66 89 8d b2 fc
	ff ff		 mov	 WORD PTR _Temp$[ebp+2762], cx
  01d32	33 c0		 xor	 eax, eax
  01d34	89 85 b4 fc ff
	ff		 mov	 DWORD PTR _Temp$[ebp+2764], eax
  01d3a	89 85 b8 fc ff
	ff		 mov	 DWORD PTR _Temp$[ebp+2768], eax
  01d40	a1 00 00 00 00	 mov	 eax, DWORD PTR ??_C@_05EMFLFCNO@Break?$AA@
  01d45	89 85 bc fc ff
	ff		 mov	 DWORD PTR _Temp$[ebp+2772], eax
  01d4b	66 8b 0d 04 00
	00 00		 mov	 cx, WORD PTR ??_C@_05EMFLFCNO@Break?$AA@+4
  01d52	66 89 8d c0 fc
	ff ff		 mov	 WORD PTR _Temp$[ebp+2776], cx
  01d59	33 c0		 xor	 eax, eax
  01d5b	89 85 c2 fc ff
	ff		 mov	 DWORD PTR _Temp$[ebp+2778], eax
  01d61	89 85 c6 fc ff
	ff		 mov	 DWORD PTR _Temp$[ebp+2782], eax
  01d67	a1 00 00 00 00	 mov	 eax, DWORD PTR ??_C@_04GKJODLKO@Home?$AA@
  01d6c	89 85 ca fc ff
	ff		 mov	 DWORD PTR _Temp$[ebp+2786], eax
  01d72	8a 0d 04 00 00
	00		 mov	 cl, BYTE PTR ??_C@_04GKJODLKO@Home?$AA@+4
  01d78	88 8d ce fc ff
	ff		 mov	 BYTE PTR _Temp$[ebp+2790], cl
  01d7e	33 c0		 xor	 eax, eax
  01d80	89 85 cf fc ff
	ff		 mov	 DWORD PTR _Temp$[ebp+2791], eax
  01d86	89 85 d3 fc ff
	ff		 mov	 DWORD PTR _Temp$[ebp+2795], eax
  01d8c	88 85 d7 fc ff
	ff		 mov	 BYTE PTR _Temp$[ebp+2799], al
  01d92	66 a1 00 00 00
	00		 mov	 ax, WORD PTR ??_C@_02EFPGLDEA@Up?$AA@
  01d98	66 89 85 d8 fc
	ff ff		 mov	 WORD PTR _Temp$[ebp+2800], ax
  01d9f	8a 0d 02 00 00
	00		 mov	 cl, BYTE PTR ??_C@_02EFPGLDEA@Up?$AA@+2
  01da5	88 8d da fc ff
	ff		 mov	 BYTE PTR _Temp$[ebp+2802], cl
  01dab	33 c0		 xor	 eax, eax
  01dad	89 85 db fc ff
	ff		 mov	 DWORD PTR _Temp$[ebp+2803], eax
  01db3	89 85 df fc ff
	ff		 mov	 DWORD PTR _Temp$[ebp+2807], eax
  01db9	66 89 85 e3 fc
	ff ff		 mov	 WORD PTR _Temp$[ebp+2811], ax
  01dc0	88 85 e5 fc ff
	ff		 mov	 BYTE PTR _Temp$[ebp+2813], al
  01dc6	a1 00 00 00 00	 mov	 eax, DWORD PTR ??_C@_07EDGDGJEN@Page?5Up?$AA@
  01dcb	89 85 e6 fc ff
	ff		 mov	 DWORD PTR _Temp$[ebp+2814], eax
  01dd1	8b 0d 04 00 00
	00		 mov	 ecx, DWORD PTR ??_C@_07EDGDGJEN@Page?5Up?$AA@+4
  01dd7	89 8d ea fc ff
	ff		 mov	 DWORD PTR _Temp$[ebp+2818], ecx
  01ddd	33 c0		 xor	 eax, eax
  01ddf	89 85 ee fc ff
	ff		 mov	 DWORD PTR _Temp$[ebp+2822], eax
  01de5	66 89 85 f2 fc
	ff ff		 mov	 WORD PTR _Temp$[ebp+2826], ax
  01dec	a0 00 00 00 00	 mov	 al, BYTE PTR ??_C@_00CNPNBAHC@?$AA@
  01df1	88 85 f4 fc ff
	ff		 mov	 BYTE PTR _Temp$[ebp+2828], al
  01df7	33 c0		 xor	 eax, eax
  01df9	89 85 f5 fc ff
	ff		 mov	 DWORD PTR _Temp$[ebp+2829], eax
  01dff	89 85 f9 fc ff
	ff		 mov	 DWORD PTR _Temp$[ebp+2833], eax
  01e05	89 85 fd fc ff
	ff		 mov	 DWORD PTR _Temp$[ebp+2837], eax
  01e0b	88 85 01 fd ff
	ff		 mov	 BYTE PTR _Temp$[ebp+2841], al
  01e11	a1 00 00 00 00	 mov	 eax, DWORD PTR ??_C@_04KPCPLBPL@Left?$AA@
  01e16	89 85 02 fd ff
	ff		 mov	 DWORD PTR _Temp$[ebp+2842], eax
  01e1c	8a 0d 04 00 00
	00		 mov	 cl, BYTE PTR ??_C@_04KPCPLBPL@Left?$AA@+4
  01e22	88 8d 06 fd ff
	ff		 mov	 BYTE PTR _Temp$[ebp+2846], cl
  01e28	33 c0		 xor	 eax, eax
  01e2a	89 85 07 fd ff
	ff		 mov	 DWORD PTR _Temp$[ebp+2847], eax
  01e30	89 85 0b fd ff
	ff		 mov	 DWORD PTR _Temp$[ebp+2851], eax
  01e36	88 85 0f fd ff
	ff		 mov	 BYTE PTR _Temp$[ebp+2855], al
  01e3c	a0 00 00 00 00	 mov	 al, BYTE PTR ??_C@_00CNPNBAHC@?$AA@
  01e41	88 85 10 fd ff
	ff		 mov	 BYTE PTR _Temp$[ebp+2856], al
  01e47	33 c0		 xor	 eax, eax
  01e49	89 85 11 fd ff
	ff		 mov	 DWORD PTR _Temp$[ebp+2857], eax
  01e4f	89 85 15 fd ff
	ff		 mov	 DWORD PTR _Temp$[ebp+2861], eax
  01e55	89 85 19 fd ff
	ff		 mov	 DWORD PTR _Temp$[ebp+2865], eax
  01e5b	88 85 1d fd ff
	ff		 mov	 BYTE PTR _Temp$[ebp+2869], al
  01e61	a1 00 00 00 00	 mov	 eax, DWORD PTR ??_C@_05DADPALEM@Right?$AA@
  01e66	89 85 1e fd ff
	ff		 mov	 DWORD PTR _Temp$[ebp+2870], eax
  01e6c	66 8b 0d 04 00
	00 00		 mov	 cx, WORD PTR ??_C@_05DADPALEM@Right?$AA@+4
  01e73	66 89 8d 22 fd
	ff ff		 mov	 WORD PTR _Temp$[ebp+2874], cx
  01e7a	33 c0		 xor	 eax, eax
  01e7c	89 85 24 fd ff
	ff		 mov	 DWORD PTR _Temp$[ebp+2876], eax
  01e82	89 85 28 fd ff
	ff		 mov	 DWORD PTR _Temp$[ebp+2880], eax
  01e88	a0 00 00 00 00	 mov	 al, BYTE PTR ??_C@_00CNPNBAHC@?$AA@
  01e8d	88 85 2c fd ff
	ff		 mov	 BYTE PTR _Temp$[ebp+2884], al
  01e93	33 c0		 xor	 eax, eax
  01e95	89 85 2d fd ff
	ff		 mov	 DWORD PTR _Temp$[ebp+2885], eax
  01e9b	89 85 31 fd ff
	ff		 mov	 DWORD PTR _Temp$[ebp+2889], eax
  01ea1	89 85 35 fd ff
	ff		 mov	 DWORD PTR _Temp$[ebp+2893], eax
  01ea7	88 85 39 fd ff
	ff		 mov	 BYTE PTR _Temp$[ebp+2897], al
  01ead	a1 00 00 00 00	 mov	 eax, DWORD PTR ??_C@_03DBKJMAGF@End?$AA@
  01eb2	89 85 3a fd ff
	ff		 mov	 DWORD PTR _Temp$[ebp+2898], eax
  01eb8	33 c0		 xor	 eax, eax
  01eba	89 85 3e fd ff
	ff		 mov	 DWORD PTR _Temp$[ebp+2902], eax
  01ec0	89 85 42 fd ff
	ff		 mov	 DWORD PTR _Temp$[ebp+2906], eax
  01ec6	66 89 85 46 fd
	ff ff		 mov	 WORD PTR _Temp$[ebp+2910], ax
  01ecd	a1 00 00 00 00	 mov	 eax, DWORD PTR ??_C@_04FNCLCJMC@Down?$AA@
  01ed2	89 85 48 fd ff
	ff		 mov	 DWORD PTR _Temp$[ebp+2912], eax
  01ed8	8a 0d 04 00 00
	00		 mov	 cl, BYTE PTR ??_C@_04FNCLCJMC@Down?$AA@+4
  01ede	88 8d 4c fd ff
	ff		 mov	 BYTE PTR _Temp$[ebp+2916], cl
  01ee4	33 c0		 xor	 eax, eax
  01ee6	89 85 4d fd ff
	ff		 mov	 DWORD PTR _Temp$[ebp+2917], eax
  01eec	89 85 51 fd ff
	ff		 mov	 DWORD PTR _Temp$[ebp+2921], eax
  01ef2	88 85 55 fd ff
	ff		 mov	 BYTE PTR _Temp$[ebp+2925], al

; 553  : 				  "Page Down","Insert","Delete","","","","","","","","Left Windows","Right Windows","Thing","","","",

  01ef8	a1 00 00 00 00	 mov	 eax, DWORD PTR ??_C@_09IOIDGKNA@Page?5Down?$AA@
  01efd	89 85 56 fd ff
	ff		 mov	 DWORD PTR _Temp$[ebp+2926], eax
  01f03	8b 0d 04 00 00
	00		 mov	 ecx, DWORD PTR ??_C@_09IOIDGKNA@Page?5Down?$AA@+4
  01f09	89 8d 5a fd ff
	ff		 mov	 DWORD PTR _Temp$[ebp+2930], ecx
  01f0f	66 8b 15 08 00
	00 00		 mov	 dx, WORD PTR ??_C@_09IOIDGKNA@Page?5Down?$AA@+8
  01f16	66 89 95 5e fd
	ff ff		 mov	 WORD PTR _Temp$[ebp+2934], dx
  01f1d	33 c0		 xor	 eax, eax
  01f1f	89 85 60 fd ff
	ff		 mov	 DWORD PTR _Temp$[ebp+2936], eax
  01f25	a1 00 00 00 00	 mov	 eax, DWORD PTR ??_C@_06CPFCODOD@Insert?$AA@
  01f2a	89 85 64 fd ff
	ff		 mov	 DWORD PTR _Temp$[ebp+2940], eax
  01f30	66 8b 0d 04 00
	00 00		 mov	 cx, WORD PTR ??_C@_06CPFCODOD@Insert?$AA@+4
  01f37	66 89 8d 68 fd
	ff ff		 mov	 WORD PTR _Temp$[ebp+2944], cx
  01f3e	8a 15 06 00 00
	00		 mov	 dl, BYTE PTR ??_C@_06CPFCODOD@Insert?$AA@+6
  01f44	88 95 6a fd ff
	ff		 mov	 BYTE PTR _Temp$[ebp+2946], dl
  01f4a	33 c0		 xor	 eax, eax
  01f4c	89 85 6b fd ff
	ff		 mov	 DWORD PTR _Temp$[ebp+2947], eax
  01f52	66 89 85 6f fd
	ff ff		 mov	 WORD PTR _Temp$[ebp+2951], ax
  01f59	88 85 71 fd ff
	ff		 mov	 BYTE PTR _Temp$[ebp+2953], al
  01f5f	a1 00 00 00 00	 mov	 eax, DWORD PTR ??_C@_06JBKGCNBB@Delete?$AA@
  01f64	89 85 72 fd ff
	ff		 mov	 DWORD PTR _Temp$[ebp+2954], eax
  01f6a	66 8b 0d 04 00
	00 00		 mov	 cx, WORD PTR ??_C@_06JBKGCNBB@Delete?$AA@+4
  01f71	66 89 8d 76 fd
	ff ff		 mov	 WORD PTR _Temp$[ebp+2958], cx
  01f78	8a 15 06 00 00
	00		 mov	 dl, BYTE PTR ??_C@_06JBKGCNBB@Delete?$AA@+6
  01f7e	88 95 78 fd ff
	ff		 mov	 BYTE PTR _Temp$[ebp+2960], dl
  01f84	33 c0		 xor	 eax, eax
  01f86	89 85 79 fd ff
	ff		 mov	 DWORD PTR _Temp$[ebp+2961], eax
  01f8c	66 89 85 7d fd
	ff ff		 mov	 WORD PTR _Temp$[ebp+2965], ax
  01f93	88 85 7f fd ff
	ff		 mov	 BYTE PTR _Temp$[ebp+2967], al
  01f99	a0 00 00 00 00	 mov	 al, BYTE PTR ??_C@_00CNPNBAHC@?$AA@
  01f9e	88 85 80 fd ff
	ff		 mov	 BYTE PTR _Temp$[ebp+2968], al
  01fa4	33 c0		 xor	 eax, eax
  01fa6	89 85 81 fd ff
	ff		 mov	 DWORD PTR _Temp$[ebp+2969], eax
  01fac	89 85 85 fd ff
	ff		 mov	 DWORD PTR _Temp$[ebp+2973], eax
  01fb2	89 85 89 fd ff
	ff		 mov	 DWORD PTR _Temp$[ebp+2977], eax
  01fb8	88 85 8d fd ff
	ff		 mov	 BYTE PTR _Temp$[ebp+2981], al
  01fbe	a0 00 00 00 00	 mov	 al, BYTE PTR ??_C@_00CNPNBAHC@?$AA@
  01fc3	88 85 8e fd ff
	ff		 mov	 BYTE PTR _Temp$[ebp+2982], al
  01fc9	33 c0		 xor	 eax, eax
  01fcb	89 85 8f fd ff
	ff		 mov	 DWORD PTR _Temp$[ebp+2983], eax
  01fd1	89 85 93 fd ff
	ff		 mov	 DWORD PTR _Temp$[ebp+2987], eax
  01fd7	89 85 97 fd ff
	ff		 mov	 DWORD PTR _Temp$[ebp+2991], eax
  01fdd	88 85 9b fd ff
	ff		 mov	 BYTE PTR _Temp$[ebp+2995], al
  01fe3	a0 00 00 00 00	 mov	 al, BYTE PTR ??_C@_00CNPNBAHC@?$AA@
  01fe8	88 85 9c fd ff
	ff		 mov	 BYTE PTR _Temp$[ebp+2996], al
  01fee	33 c0		 xor	 eax, eax
  01ff0	89 85 9d fd ff
	ff		 mov	 DWORD PTR _Temp$[ebp+2997], eax
  01ff6	89 85 a1 fd ff
	ff		 mov	 DWORD PTR _Temp$[ebp+3001], eax
  01ffc	89 85 a5 fd ff
	ff		 mov	 DWORD PTR _Temp$[ebp+3005], eax
  02002	88 85 a9 fd ff
	ff		 mov	 BYTE PTR _Temp$[ebp+3009], al
  02008	a0 00 00 00 00	 mov	 al, BYTE PTR ??_C@_00CNPNBAHC@?$AA@
  0200d	88 85 aa fd ff
	ff		 mov	 BYTE PTR _Temp$[ebp+3010], al
  02013	33 c0		 xor	 eax, eax
  02015	89 85 ab fd ff
	ff		 mov	 DWORD PTR _Temp$[ebp+3011], eax
  0201b	89 85 af fd ff
	ff		 mov	 DWORD PTR _Temp$[ebp+3015], eax
  02021	89 85 b3 fd ff
	ff		 mov	 DWORD PTR _Temp$[ebp+3019], eax
  02027	88 85 b7 fd ff
	ff		 mov	 BYTE PTR _Temp$[ebp+3023], al
  0202d	a0 00 00 00 00	 mov	 al, BYTE PTR ??_C@_00CNPNBAHC@?$AA@
  02032	88 85 b8 fd ff
	ff		 mov	 BYTE PTR _Temp$[ebp+3024], al
  02038	33 c0		 xor	 eax, eax
  0203a	89 85 b9 fd ff
	ff		 mov	 DWORD PTR _Temp$[ebp+3025], eax
  02040	89 85 bd fd ff
	ff		 mov	 DWORD PTR _Temp$[ebp+3029], eax
  02046	89 85 c1 fd ff
	ff		 mov	 DWORD PTR _Temp$[ebp+3033], eax
  0204c	88 85 c5 fd ff
	ff		 mov	 BYTE PTR _Temp$[ebp+3037], al
  02052	a0 00 00 00 00	 mov	 al, BYTE PTR ??_C@_00CNPNBAHC@?$AA@
  02057	88 85 c6 fd ff
	ff		 mov	 BYTE PTR _Temp$[ebp+3038], al
  0205d	33 c0		 xor	 eax, eax
  0205f	89 85 c7 fd ff
	ff		 mov	 DWORD PTR _Temp$[ebp+3039], eax
  02065	89 85 cb fd ff
	ff		 mov	 DWORD PTR _Temp$[ebp+3043], eax
  0206b	89 85 cf fd ff
	ff		 mov	 DWORD PTR _Temp$[ebp+3047], eax
  02071	88 85 d3 fd ff
	ff		 mov	 BYTE PTR _Temp$[ebp+3051], al
  02077	a0 00 00 00 00	 mov	 al, BYTE PTR ??_C@_00CNPNBAHC@?$AA@
  0207c	88 85 d4 fd ff
	ff		 mov	 BYTE PTR _Temp$[ebp+3052], al
  02082	33 c0		 xor	 eax, eax
  02084	89 85 d5 fd ff
	ff		 mov	 DWORD PTR _Temp$[ebp+3053], eax
  0208a	89 85 d9 fd ff
	ff		 mov	 DWORD PTR _Temp$[ebp+3057], eax
  02090	89 85 dd fd ff
	ff		 mov	 DWORD PTR _Temp$[ebp+3061], eax
  02096	88 85 e1 fd ff
	ff		 mov	 BYTE PTR _Temp$[ebp+3065], al
  0209c	a1 00 00 00 00	 mov	 eax, DWORD PTR ??_C@_0N@ILBHIOPE@Left?5Windows?$AA@
  020a1	89 85 e2 fd ff
	ff		 mov	 DWORD PTR _Temp$[ebp+3066], eax
  020a7	8b 0d 04 00 00
	00		 mov	 ecx, DWORD PTR ??_C@_0N@ILBHIOPE@Left?5Windows?$AA@+4
  020ad	89 8d e6 fd ff
	ff		 mov	 DWORD PTR _Temp$[ebp+3070], ecx
  020b3	8b 15 08 00 00
	00		 mov	 edx, DWORD PTR ??_C@_0N@ILBHIOPE@Left?5Windows?$AA@+8
  020b9	89 95 ea fd ff
	ff		 mov	 DWORD PTR _Temp$[ebp+3074], edx
  020bf	a0 0c 00 00 00	 mov	 al, BYTE PTR ??_C@_0N@ILBHIOPE@Left?5Windows?$AA@+12
  020c4	88 85 ee fd ff
	ff		 mov	 BYTE PTR _Temp$[ebp+3078], al
  020ca	33 c0		 xor	 eax, eax
  020cc	88 85 ef fd ff
	ff		 mov	 BYTE PTR _Temp$[ebp+3079], al
  020d2	a1 00 00 00 00	 mov	 eax, DWORD PTR ??_C@_0O@IDKBPDPO@Right?5Windows?$AA@
  020d7	89 85 f0 fd ff
	ff		 mov	 DWORD PTR _Temp$[ebp+3080], eax
  020dd	8b 0d 04 00 00
	00		 mov	 ecx, DWORD PTR ??_C@_0O@IDKBPDPO@Right?5Windows?$AA@+4
  020e3	89 8d f4 fd ff
	ff		 mov	 DWORD PTR _Temp$[ebp+3084], ecx
  020e9	8b 15 08 00 00
	00		 mov	 edx, DWORD PTR ??_C@_0O@IDKBPDPO@Right?5Windows?$AA@+8
  020ef	89 95 f8 fd ff
	ff		 mov	 DWORD PTR _Temp$[ebp+3088], edx
  020f5	66 a1 0c 00 00
	00		 mov	 ax, WORD PTR ??_C@_0O@IDKBPDPO@Right?5Windows?$AA@+12
  020fb	66 89 85 fc fd
	ff ff		 mov	 WORD PTR _Temp$[ebp+3092], ax
  02102	a1 00 00 00 00	 mov	 eax, DWORD PTR ??_C@_05FOLLILPC@Thing?$AA@
  02107	89 85 fe fd ff
	ff		 mov	 DWORD PTR _Temp$[ebp+3094], eax
  0210d	66 8b 0d 04 00
	00 00		 mov	 cx, WORD PTR ??_C@_05FOLLILPC@Thing?$AA@+4
  02114	66 89 8d 02 fe
	ff ff		 mov	 WORD PTR _Temp$[ebp+3098], cx
  0211b	33 c0		 xor	 eax, eax
  0211d	89 85 04 fe ff
	ff		 mov	 DWORD PTR _Temp$[ebp+3100], eax
  02123	89 85 08 fe ff
	ff		 mov	 DWORD PTR _Temp$[ebp+3104], eax
  02129	a0 00 00 00 00	 mov	 al, BYTE PTR ??_C@_00CNPNBAHC@?$AA@
  0212e	88 85 0c fe ff
	ff		 mov	 BYTE PTR _Temp$[ebp+3108], al
  02134	33 c0		 xor	 eax, eax
  02136	89 85 0d fe ff
	ff		 mov	 DWORD PTR _Temp$[ebp+3109], eax
  0213c	89 85 11 fe ff
	ff		 mov	 DWORD PTR _Temp$[ebp+3113], eax
  02142	89 85 15 fe ff
	ff		 mov	 DWORD PTR _Temp$[ebp+3117], eax
  02148	88 85 19 fe ff
	ff		 mov	 BYTE PTR _Temp$[ebp+3121], al
  0214e	a0 00 00 00 00	 mov	 al, BYTE PTR ??_C@_00CNPNBAHC@?$AA@
  02153	88 85 1a fe ff
	ff		 mov	 BYTE PTR _Temp$[ebp+3122], al
  02159	33 c0		 xor	 eax, eax
  0215b	89 85 1b fe ff
	ff		 mov	 DWORD PTR _Temp$[ebp+3123], eax
  02161	89 85 1f fe ff
	ff		 mov	 DWORD PTR _Temp$[ebp+3127], eax
  02167	89 85 23 fe ff
	ff		 mov	 DWORD PTR _Temp$[ebp+3131], eax
  0216d	88 85 27 fe ff
	ff		 mov	 BYTE PTR _Temp$[ebp+3135], al
  02173	a0 00 00 00 00	 mov	 al, BYTE PTR ??_C@_00CNPNBAHC@?$AA@
  02178	88 85 28 fe ff
	ff		 mov	 BYTE PTR _Temp$[ebp+3136], al
  0217e	33 c0		 xor	 eax, eax
  02180	89 85 29 fe ff
	ff		 mov	 DWORD PTR _Temp$[ebp+3137], eax
  02186	89 85 2d fe ff
	ff		 mov	 DWORD PTR _Temp$[ebp+3141], eax
  0218c	89 85 31 fe ff
	ff		 mov	 DWORD PTR _Temp$[ebp+3145], eax
  02192	88 85 35 fe ff
	ff		 mov	 BYTE PTR _Temp$[ebp+3149], al

; 554  : 				  "","","","","","","","","","","","","","","","",

  02198	a0 00 00 00 00	 mov	 al, BYTE PTR ??_C@_00CNPNBAHC@?$AA@
  0219d	88 85 36 fe ff
	ff		 mov	 BYTE PTR _Temp$[ebp+3150], al
  021a3	33 c0		 xor	 eax, eax
  021a5	89 85 37 fe ff
	ff		 mov	 DWORD PTR _Temp$[ebp+3151], eax
  021ab	89 85 3b fe ff
	ff		 mov	 DWORD PTR _Temp$[ebp+3155], eax
  021b1	89 85 3f fe ff
	ff		 mov	 DWORD PTR _Temp$[ebp+3159], eax
  021b7	88 85 43 fe ff
	ff		 mov	 BYTE PTR _Temp$[ebp+3163], al
  021bd	a0 00 00 00 00	 mov	 al, BYTE PTR ??_C@_00CNPNBAHC@?$AA@
  021c2	88 85 44 fe ff
	ff		 mov	 BYTE PTR _Temp$[ebp+3164], al
  021c8	33 c0		 xor	 eax, eax
  021ca	89 85 45 fe ff
	ff		 mov	 DWORD PTR _Temp$[ebp+3165], eax
  021d0	89 85 49 fe ff
	ff		 mov	 DWORD PTR _Temp$[ebp+3169], eax
  021d6	89 85 4d fe ff
	ff		 mov	 DWORD PTR _Temp$[ebp+3173], eax
  021dc	88 85 51 fe ff
	ff		 mov	 BYTE PTR _Temp$[ebp+3177], al
  021e2	a0 00 00 00 00	 mov	 al, BYTE PTR ??_C@_00CNPNBAHC@?$AA@
  021e7	88 85 52 fe ff
	ff		 mov	 BYTE PTR _Temp$[ebp+3178], al
  021ed	33 c0		 xor	 eax, eax
  021ef	89 85 53 fe ff
	ff		 mov	 DWORD PTR _Temp$[ebp+3179], eax
  021f5	89 85 57 fe ff
	ff		 mov	 DWORD PTR _Temp$[ebp+3183], eax
  021fb	89 85 5b fe ff
	ff		 mov	 DWORD PTR _Temp$[ebp+3187], eax
  02201	88 85 5f fe ff
	ff		 mov	 BYTE PTR _Temp$[ebp+3191], al
  02207	a0 00 00 00 00	 mov	 al, BYTE PTR ??_C@_00CNPNBAHC@?$AA@
  0220c	88 85 60 fe ff
	ff		 mov	 BYTE PTR _Temp$[ebp+3192], al
  02212	33 c0		 xor	 eax, eax
  02214	89 85 61 fe ff
	ff		 mov	 DWORD PTR _Temp$[ebp+3193], eax
  0221a	89 85 65 fe ff
	ff		 mov	 DWORD PTR _Temp$[ebp+3197], eax
  02220	89 85 69 fe ff
	ff		 mov	 DWORD PTR _Temp$[ebp+3201], eax
  02226	88 85 6d fe ff
	ff		 mov	 BYTE PTR _Temp$[ebp+3205], al
  0222c	a0 00 00 00 00	 mov	 al, BYTE PTR ??_C@_00CNPNBAHC@?$AA@
  02231	88 85 6e fe ff
	ff		 mov	 BYTE PTR _Temp$[ebp+3206], al
  02237	33 c0		 xor	 eax, eax
  02239	89 85 6f fe ff
	ff		 mov	 DWORD PTR _Temp$[ebp+3207], eax
  0223f	89 85 73 fe ff
	ff		 mov	 DWORD PTR _Temp$[ebp+3211], eax
  02245	89 85 77 fe ff
	ff		 mov	 DWORD PTR _Temp$[ebp+3215], eax
  0224b	88 85 7b fe ff
	ff		 mov	 BYTE PTR _Temp$[ebp+3219], al
  02251	a0 00 00 00 00	 mov	 al, BYTE PTR ??_C@_00CNPNBAHC@?$AA@
  02256	88 85 7c fe ff
	ff		 mov	 BYTE PTR _Temp$[ebp+3220], al
  0225c	33 c0		 xor	 eax, eax
  0225e	89 85 7d fe ff
	ff		 mov	 DWORD PTR _Temp$[ebp+3221], eax
  02264	89 85 81 fe ff
	ff		 mov	 DWORD PTR _Temp$[ebp+3225], eax
  0226a	89 85 85 fe ff
	ff		 mov	 DWORD PTR _Temp$[ebp+3229], eax
  02270	88 85 89 fe ff
	ff		 mov	 BYTE PTR _Temp$[ebp+3233], al
  02276	a0 00 00 00 00	 mov	 al, BYTE PTR ??_C@_00CNPNBAHC@?$AA@
  0227b	88 85 8a fe ff
	ff		 mov	 BYTE PTR _Temp$[ebp+3234], al
  02281	33 c0		 xor	 eax, eax
  02283	89 85 8b fe ff
	ff		 mov	 DWORD PTR _Temp$[ebp+3235], eax
  02289	89 85 8f fe ff
	ff		 mov	 DWORD PTR _Temp$[ebp+3239], eax
  0228f	89 85 93 fe ff
	ff		 mov	 DWORD PTR _Temp$[ebp+3243], eax
  02295	88 85 97 fe ff
	ff		 mov	 BYTE PTR _Temp$[ebp+3247], al
  0229b	a0 00 00 00 00	 mov	 al, BYTE PTR ??_C@_00CNPNBAHC@?$AA@
  022a0	88 85 98 fe ff
	ff		 mov	 BYTE PTR _Temp$[ebp+3248], al
  022a6	33 c0		 xor	 eax, eax
  022a8	89 85 99 fe ff
	ff		 mov	 DWORD PTR _Temp$[ebp+3249], eax
  022ae	89 85 9d fe ff
	ff		 mov	 DWORD PTR _Temp$[ebp+3253], eax
  022b4	89 85 a1 fe ff
	ff		 mov	 DWORD PTR _Temp$[ebp+3257], eax
  022ba	88 85 a5 fe ff
	ff		 mov	 BYTE PTR _Temp$[ebp+3261], al
  022c0	a0 00 00 00 00	 mov	 al, BYTE PTR ??_C@_00CNPNBAHC@?$AA@
  022c5	88 85 a6 fe ff
	ff		 mov	 BYTE PTR _Temp$[ebp+3262], al
  022cb	33 c0		 xor	 eax, eax
  022cd	89 85 a7 fe ff
	ff		 mov	 DWORD PTR _Temp$[ebp+3263], eax
  022d3	89 85 ab fe ff
	ff		 mov	 DWORD PTR _Temp$[ebp+3267], eax
  022d9	89 85 af fe ff
	ff		 mov	 DWORD PTR _Temp$[ebp+3271], eax
  022df	88 85 b3 fe ff
	ff		 mov	 BYTE PTR _Temp$[ebp+3275], al
  022e5	a0 00 00 00 00	 mov	 al, BYTE PTR ??_C@_00CNPNBAHC@?$AA@
  022ea	88 85 b4 fe ff
	ff		 mov	 BYTE PTR _Temp$[ebp+3276], al
  022f0	33 c0		 xor	 eax, eax
  022f2	89 85 b5 fe ff
	ff		 mov	 DWORD PTR _Temp$[ebp+3277], eax
  022f8	89 85 b9 fe ff
	ff		 mov	 DWORD PTR _Temp$[ebp+3281], eax
  022fe	89 85 bd fe ff
	ff		 mov	 DWORD PTR _Temp$[ebp+3285], eax
  02304	88 85 c1 fe ff
	ff		 mov	 BYTE PTR _Temp$[ebp+3289], al
  0230a	a0 00 00 00 00	 mov	 al, BYTE PTR ??_C@_00CNPNBAHC@?$AA@
  0230f	88 85 c2 fe ff
	ff		 mov	 BYTE PTR _Temp$[ebp+3290], al
  02315	33 c0		 xor	 eax, eax
  02317	89 85 c3 fe ff
	ff		 mov	 DWORD PTR _Temp$[ebp+3291], eax
  0231d	89 85 c7 fe ff
	ff		 mov	 DWORD PTR _Temp$[ebp+3295], eax
  02323	89 85 cb fe ff
	ff		 mov	 DWORD PTR _Temp$[ebp+3299], eax
  02329	88 85 cf fe ff
	ff		 mov	 BYTE PTR _Temp$[ebp+3303], al
  0232f	a0 00 00 00 00	 mov	 al, BYTE PTR ??_C@_00CNPNBAHC@?$AA@
  02334	88 85 d0 fe ff
	ff		 mov	 BYTE PTR _Temp$[ebp+3304], al
  0233a	33 c0		 xor	 eax, eax
  0233c	89 85 d1 fe ff
	ff		 mov	 DWORD PTR _Temp$[ebp+3305], eax
  02342	89 85 d5 fe ff
	ff		 mov	 DWORD PTR _Temp$[ebp+3309], eax
  02348	89 85 d9 fe ff
	ff		 mov	 DWORD PTR _Temp$[ebp+3313], eax
  0234e	88 85 dd fe ff
	ff		 mov	 BYTE PTR _Temp$[ebp+3317], al
  02354	a0 00 00 00 00	 mov	 al, BYTE PTR ??_C@_00CNPNBAHC@?$AA@
  02359	88 85 de fe ff
	ff		 mov	 BYTE PTR _Temp$[ebp+3318], al
  0235f	33 c0		 xor	 eax, eax
  02361	89 85 df fe ff
	ff		 mov	 DWORD PTR _Temp$[ebp+3319], eax
  02367	89 85 e3 fe ff
	ff		 mov	 DWORD PTR _Temp$[ebp+3323], eax
  0236d	89 85 e7 fe ff
	ff		 mov	 DWORD PTR _Temp$[ebp+3327], eax
  02373	88 85 eb fe ff
	ff		 mov	 BYTE PTR _Temp$[ebp+3331], al
  02379	a0 00 00 00 00	 mov	 al, BYTE PTR ??_C@_00CNPNBAHC@?$AA@
  0237e	88 85 ec fe ff
	ff		 mov	 BYTE PTR _Temp$[ebp+3332], al
  02384	33 c0		 xor	 eax, eax
  02386	89 85 ed fe ff
	ff		 mov	 DWORD PTR _Temp$[ebp+3333], eax
  0238c	89 85 f1 fe ff
	ff		 mov	 DWORD PTR _Temp$[ebp+3337], eax
  02392	89 85 f5 fe ff
	ff		 mov	 DWORD PTR _Temp$[ebp+3341], eax
  02398	88 85 f9 fe ff
	ff		 mov	 BYTE PTR _Temp$[ebp+3345], al
  0239e	a0 00 00 00 00	 mov	 al, BYTE PTR ??_C@_00CNPNBAHC@?$AA@
  023a3	88 85 fa fe ff
	ff		 mov	 BYTE PTR _Temp$[ebp+3346], al
  023a9	33 c0		 xor	 eax, eax
  023ab	89 85 fb fe ff
	ff		 mov	 DWORD PTR _Temp$[ebp+3347], eax
  023b1	89 85 ff fe ff
	ff		 mov	 DWORD PTR _Temp$[ebp+3351], eax
  023b7	89 85 03 ff ff
	ff		 mov	 DWORD PTR _Temp$[ebp+3355], eax
  023bd	88 85 07 ff ff
	ff		 mov	 BYTE PTR _Temp$[ebp+3359], al
  023c3	a0 00 00 00 00	 mov	 al, BYTE PTR ??_C@_00CNPNBAHC@?$AA@
  023c8	88 85 08 ff ff
	ff		 mov	 BYTE PTR _Temp$[ebp+3360], al
  023ce	33 c0		 xor	 eax, eax
  023d0	89 85 09 ff ff
	ff		 mov	 DWORD PTR _Temp$[ebp+3361], eax
  023d6	89 85 0d ff ff
	ff		 mov	 DWORD PTR _Temp$[ebp+3365], eax
  023dc	89 85 11 ff ff
	ff		 mov	 DWORD PTR _Temp$[ebp+3369], eax
  023e2	88 85 15 ff ff
	ff		 mov	 BYTE PTR _Temp$[ebp+3373], al

; 555  : 				  "","","","","","","","","","","","","","","",""};

  023e8	a0 00 00 00 00	 mov	 al, BYTE PTR ??_C@_00CNPNBAHC@?$AA@
  023ed	88 85 16 ff ff
	ff		 mov	 BYTE PTR _Temp$[ebp+3374], al
  023f3	33 c0		 xor	 eax, eax
  023f5	89 85 17 ff ff
	ff		 mov	 DWORD PTR _Temp$[ebp+3375], eax
  023fb	89 85 1b ff ff
	ff		 mov	 DWORD PTR _Temp$[ebp+3379], eax
  02401	89 85 1f ff ff
	ff		 mov	 DWORD PTR _Temp$[ebp+3383], eax
  02407	88 85 23 ff ff
	ff		 mov	 BYTE PTR _Temp$[ebp+3387], al
  0240d	a0 00 00 00 00	 mov	 al, BYTE PTR ??_C@_00CNPNBAHC@?$AA@
  02412	88 85 24 ff ff
	ff		 mov	 BYTE PTR _Temp$[ebp+3388], al
  02418	33 c0		 xor	 eax, eax
  0241a	89 85 25 ff ff
	ff		 mov	 DWORD PTR _Temp$[ebp+3389], eax
  02420	89 85 29 ff ff
	ff		 mov	 DWORD PTR _Temp$[ebp+3393], eax
  02426	89 85 2d ff ff
	ff		 mov	 DWORD PTR _Temp$[ebp+3397], eax
  0242c	88 85 31 ff ff
	ff		 mov	 BYTE PTR _Temp$[ebp+3401], al
  02432	a0 00 00 00 00	 mov	 al, BYTE PTR ??_C@_00CNPNBAHC@?$AA@
  02437	88 85 32 ff ff
	ff		 mov	 BYTE PTR _Temp$[ebp+3402], al
  0243d	33 c0		 xor	 eax, eax
  0243f	89 85 33 ff ff
	ff		 mov	 DWORD PTR _Temp$[ebp+3403], eax
  02445	89 85 37 ff ff
	ff		 mov	 DWORD PTR _Temp$[ebp+3407], eax
  0244b	89 85 3b ff ff
	ff		 mov	 DWORD PTR _Temp$[ebp+3411], eax
  02451	88 85 3f ff ff
	ff		 mov	 BYTE PTR _Temp$[ebp+3415], al
  02457	a0 00 00 00 00	 mov	 al, BYTE PTR ??_C@_00CNPNBAHC@?$AA@
  0245c	88 85 40 ff ff
	ff		 mov	 BYTE PTR _Temp$[ebp+3416], al
  02462	33 c0		 xor	 eax, eax
  02464	89 85 41 ff ff
	ff		 mov	 DWORD PTR _Temp$[ebp+3417], eax
  0246a	89 85 45 ff ff
	ff		 mov	 DWORD PTR _Temp$[ebp+3421], eax
  02470	89 85 49 ff ff
	ff		 mov	 DWORD PTR _Temp$[ebp+3425], eax
  02476	88 85 4d ff ff
	ff		 mov	 BYTE PTR _Temp$[ebp+3429], al
  0247c	a0 00 00 00 00	 mov	 al, BYTE PTR ??_C@_00CNPNBAHC@?$AA@
  02481	88 85 4e ff ff
	ff		 mov	 BYTE PTR _Temp$[ebp+3430], al
  02487	33 c0		 xor	 eax, eax
  02489	89 85 4f ff ff
	ff		 mov	 DWORD PTR _Temp$[ebp+3431], eax
  0248f	89 85 53 ff ff
	ff		 mov	 DWORD PTR _Temp$[ebp+3435], eax
  02495	89 85 57 ff ff
	ff		 mov	 DWORD PTR _Temp$[ebp+3439], eax
  0249b	88 85 5b ff ff
	ff		 mov	 BYTE PTR _Temp$[ebp+3443], al
  024a1	a0 00 00 00 00	 mov	 al, BYTE PTR ??_C@_00CNPNBAHC@?$AA@
  024a6	88 85 5c ff ff
	ff		 mov	 BYTE PTR _Temp$[ebp+3444], al
  024ac	33 c0		 xor	 eax, eax
  024ae	89 85 5d ff ff
	ff		 mov	 DWORD PTR _Temp$[ebp+3445], eax
  024b4	89 85 61 ff ff
	ff		 mov	 DWORD PTR _Temp$[ebp+3449], eax
  024ba	89 85 65 ff ff
	ff		 mov	 DWORD PTR _Temp$[ebp+3453], eax
  024c0	88 85 69 ff ff
	ff		 mov	 BYTE PTR _Temp$[ebp+3457], al
  024c6	a0 00 00 00 00	 mov	 al, BYTE PTR ??_C@_00CNPNBAHC@?$AA@
  024cb	88 85 6a ff ff
	ff		 mov	 BYTE PTR _Temp$[ebp+3458], al
  024d1	33 c0		 xor	 eax, eax
  024d3	89 85 6b ff ff
	ff		 mov	 DWORD PTR _Temp$[ebp+3459], eax
  024d9	89 85 6f ff ff
	ff		 mov	 DWORD PTR _Temp$[ebp+3463], eax
  024df	89 85 73 ff ff
	ff		 mov	 DWORD PTR _Temp$[ebp+3467], eax
  024e5	88 85 77 ff ff
	ff		 mov	 BYTE PTR _Temp$[ebp+3471], al
  024eb	a0 00 00 00 00	 mov	 al, BYTE PTR ??_C@_00CNPNBAHC@?$AA@
  024f0	88 85 78 ff ff
	ff		 mov	 BYTE PTR _Temp$[ebp+3472], al
  024f6	33 c0		 xor	 eax, eax
  024f8	89 85 79 ff ff
	ff		 mov	 DWORD PTR _Temp$[ebp+3473], eax
  024fe	89 85 7d ff ff
	ff		 mov	 DWORD PTR _Temp$[ebp+3477], eax
  02504	89 45 81	 mov	 DWORD PTR _Temp$[ebp+3481], eax
  02507	88 45 85	 mov	 BYTE PTR _Temp$[ebp+3485], al
  0250a	a0 00 00 00 00	 mov	 al, BYTE PTR ??_C@_00CNPNBAHC@?$AA@
  0250f	88 45 86	 mov	 BYTE PTR _Temp$[ebp+3486], al
  02512	33 c0		 xor	 eax, eax
  02514	89 45 87	 mov	 DWORD PTR _Temp$[ebp+3487], eax
  02517	89 45 8b	 mov	 DWORD PTR _Temp$[ebp+3491], eax
  0251a	89 45 8f	 mov	 DWORD PTR _Temp$[ebp+3495], eax
  0251d	88 45 93	 mov	 BYTE PTR _Temp$[ebp+3499], al
  02520	a0 00 00 00 00	 mov	 al, BYTE PTR ??_C@_00CNPNBAHC@?$AA@
  02525	88 45 94	 mov	 BYTE PTR _Temp$[ebp+3500], al
  02528	33 c0		 xor	 eax, eax
  0252a	89 45 95	 mov	 DWORD PTR _Temp$[ebp+3501], eax
  0252d	89 45 99	 mov	 DWORD PTR _Temp$[ebp+3505], eax
  02530	89 45 9d	 mov	 DWORD PTR _Temp$[ebp+3509], eax
  02533	88 45 a1	 mov	 BYTE PTR _Temp$[ebp+3513], al
  02536	a0 00 00 00 00	 mov	 al, BYTE PTR ??_C@_00CNPNBAHC@?$AA@
  0253b	88 45 a2	 mov	 BYTE PTR _Temp$[ebp+3514], al
  0253e	33 c0		 xor	 eax, eax
  02540	89 45 a3	 mov	 DWORD PTR _Temp$[ebp+3515], eax
  02543	89 45 a7	 mov	 DWORD PTR _Temp$[ebp+3519], eax
  02546	89 45 ab	 mov	 DWORD PTR _Temp$[ebp+3523], eax
  02549	88 45 af	 mov	 BYTE PTR _Temp$[ebp+3527], al
  0254c	a0 00 00 00 00	 mov	 al, BYTE PTR ??_C@_00CNPNBAHC@?$AA@
  02551	88 45 b0	 mov	 BYTE PTR _Temp$[ebp+3528], al
  02554	33 c0		 xor	 eax, eax
  02556	89 45 b1	 mov	 DWORD PTR _Temp$[ebp+3529], eax
  02559	89 45 b5	 mov	 DWORD PTR _Temp$[ebp+3533], eax
  0255c	89 45 b9	 mov	 DWORD PTR _Temp$[ebp+3537], eax
  0255f	88 45 bd	 mov	 BYTE PTR _Temp$[ebp+3541], al
  02562	a0 00 00 00 00	 mov	 al, BYTE PTR ??_C@_00CNPNBAHC@?$AA@
  02567	88 45 be	 mov	 BYTE PTR _Temp$[ebp+3542], al
  0256a	33 c0		 xor	 eax, eax
  0256c	89 45 bf	 mov	 DWORD PTR _Temp$[ebp+3543], eax
  0256f	89 45 c3	 mov	 DWORD PTR _Temp$[ebp+3547], eax
  02572	89 45 c7	 mov	 DWORD PTR _Temp$[ebp+3551], eax
  02575	88 45 cb	 mov	 BYTE PTR _Temp$[ebp+3555], al
  02578	a0 00 00 00 00	 mov	 al, BYTE PTR ??_C@_00CNPNBAHC@?$AA@
  0257d	88 45 cc	 mov	 BYTE PTR _Temp$[ebp+3556], al
  02580	33 c0		 xor	 eax, eax
  02582	89 45 cd	 mov	 DWORD PTR _Temp$[ebp+3557], eax
  02585	89 45 d1	 mov	 DWORD PTR _Temp$[ebp+3561], eax
  02588	89 45 d5	 mov	 DWORD PTR _Temp$[ebp+3565], eax
  0258b	88 45 d9	 mov	 BYTE PTR _Temp$[ebp+3569], al
  0258e	a0 00 00 00 00	 mov	 al, BYTE PTR ??_C@_00CNPNBAHC@?$AA@
  02593	88 45 da	 mov	 BYTE PTR _Temp$[ebp+3570], al
  02596	33 c0		 xor	 eax, eax
  02598	89 45 db	 mov	 DWORD PTR _Temp$[ebp+3571], eax
  0259b	89 45 df	 mov	 DWORD PTR _Temp$[ebp+3575], eax
  0259e	89 45 e3	 mov	 DWORD PTR _Temp$[ebp+3579], eax
  025a1	88 45 e7	 mov	 BYTE PTR _Temp$[ebp+3583], al
  025a4	a0 00 00 00 00	 mov	 al, BYTE PTR ??_C@_00CNPNBAHC@?$AA@
  025a9	88 45 e8	 mov	 BYTE PTR _Temp$[ebp+3584], al
  025ac	33 c0		 xor	 eax, eax
  025ae	89 45 e9	 mov	 DWORD PTR _Temp$[ebp+3585], eax
  025b1	89 45 ed	 mov	 DWORD PTR _Temp$[ebp+3589], eax
  025b4	89 45 f1	 mov	 DWORD PTR _Temp$[ebp+3593], eax
  025b7	88 45 f5	 mov	 BYTE PTR _Temp$[ebp+3597], al

; 556  : 	
; 557  : 	for(int i=0;i<257;i++)

  025ba	c7 85 e4 f1 ff
	ff 00 00 00 00	 mov	 DWORD PTR _i$91241[ebp], 0
  025c4	eb 0f		 jmp	 SHORT $LN9@KeyHandler
$LN8@KeyHandler:
  025c6	8b 85 e4 f1 ff
	ff		 mov	 eax, DWORD PTR _i$91241[ebp]
  025cc	83 c0 01	 add	 eax, 1
  025cf	89 85 e4 f1 ff
	ff		 mov	 DWORD PTR _i$91241[ebp], eax
$LN9@KeyHandler:
  025d5	81 bd e4 f1 ff
	ff 01 01 00 00	 cmp	 DWORD PTR _i$91241[ebp], 257 ; 00000101H
  025df	7d 5a		 jge	 SHORT $LN7@KeyHandler

; 558  : 		for(int j=0;j<14;j++)

  025e1	c7 85 e0 f1 ff
	ff 00 00 00 00	 mov	 DWORD PTR _j$91245[ebp], 0
  025eb	eb 0f		 jmp	 SHORT $LN6@KeyHandler
$LN5@KeyHandler:
  025ed	8b 85 e0 f1 ff
	ff		 mov	 eax, DWORD PTR _j$91245[ebp]
  025f3	83 c0 01	 add	 eax, 1
  025f6	89 85 e0 f1 ff
	ff		 mov	 DWORD PTR _j$91245[ebp], eax
$LN6@KeyHandler:
  025fc	83 bd e0 f1 ff
	ff 0e		 cmp	 DWORD PTR _j$91245[ebp], 14 ; 0000000eH
  02603	7d 34		 jge	 SHORT $LN4@KeyHandler

; 559  : 			this->Keys[i][j]=Temp[i][j];

  02605	8b 85 e4 f1 ff
	ff		 mov	 eax, DWORD PTR _i$91241[ebp]
  0260b	6b c0 0e	 imul	 eax, 14			; 0000000eH
  0260e	8d 8c 05 e8 f1
	ff ff		 lea	 ecx, DWORD PTR _Temp$[ebp+eax]
  02615	8b 95 e4 f1 ff
	ff		 mov	 edx, DWORD PTR _i$91241[ebp]
  0261b	6b d2 0e	 imul	 edx, 14			; 0000000eH
  0261e	03 95 e0 f1 ff
	ff		 add	 edx, DWORD PTR _j$91245[ebp]
  02624	8b 45 f8	 mov	 eax, DWORD PTR _this$[ebp]
  02627	8b b5 e0 f1 ff
	ff		 mov	 esi, DWORD PTR _j$91245[ebp]
  0262d	8a 0c 31	 mov	 cl, BYTE PTR [ecx+esi]
  02630	88 8c 10 01 05
	00 00		 mov	 BYTE PTR [eax+edx+1281], cl
  02637	eb b4		 jmp	 SHORT $LN5@KeyHandler
$LN4@KeyHandler:
  02639	eb 8b		 jmp	 SHORT $LN8@KeyHandler
$LN7@KeyHandler:

; 560  : 
; 561  : 	for(int i=0;i<256;i++)

  0263b	c7 85 dc f1 ff
	ff 00 00 00 00	 mov	 DWORD PTR _i$91249[ebp], 0
  02645	eb 0f		 jmp	 SHORT $LN3@KeyHandler
$LN2@KeyHandler:
  02647	8b 85 dc f1 ff
	ff		 mov	 eax, DWORD PTR _i$91249[ebp]
  0264d	83 c0 01	 add	 eax, 1
  02650	89 85 dc f1 ff
	ff		 mov	 DWORD PTR _i$91249[ebp], eax
$LN3@KeyHandler:
  02656	81 bd dc f1 ff
	ff 00 01 00 00	 cmp	 DWORD PTR _i$91249[ebp], 256 ; 00000100H
  02660	7d 4f		 jge	 SHORT $LN1@KeyHandler

; 562  : 	{
; 563  : 		KeyState1[i]=false;

  02662	8b 45 f8	 mov	 eax, DWORD PTR _this$[ebp]
  02665	03 85 dc f1 ff
	ff		 add	 eax, DWORD PTR _i$91249[ebp]
  0266b	c6 40 01 00	 mov	 BYTE PTR [eax+1], 0

; 564  : 		KeyState2[i]=false;

  0266f	8b 45 f8	 mov	 eax, DWORD PTR _this$[ebp]
  02672	03 85 dc f1 ff
	ff		 add	 eax, DWORD PTR _i$91249[ebp]
  02678	c6 80 01 01 00
	00 00		 mov	 BYTE PTR [eax+257], 0

; 565  : 		KeyState3[i]=false;

  0267f	8b 45 f8	 mov	 eax, DWORD PTR _this$[ebp]
  02682	03 85 dc f1 ff
	ff		 add	 eax, DWORD PTR _i$91249[ebp]
  02688	c6 80 01 02 00
	00 00		 mov	 BYTE PTR [eax+513], 0

; 566  : 		KeyState4[i]=false;

  0268f	8b 45 f8	 mov	 eax, DWORD PTR _this$[ebp]
  02692	03 85 dc f1 ff
	ff		 add	 eax, DWORD PTR _i$91249[ebp]
  02698	c6 80 01 03 00
	00 00		 mov	 BYTE PTR [eax+769], 0

; 567  : 		KeyState5[i]=false;

  0269f	8b 45 f8	 mov	 eax, DWORD PTR _this$[ebp]
  026a2	03 85 dc f1 ff
	ff		 add	 eax, DWORD PTR _i$91249[ebp]
  026a8	c6 80 01 04 00
	00 00		 mov	 BYTE PTR [eax+1025], 0

; 568  : 	}

  026af	eb 96		 jmp	 SHORT $LN2@KeyHandler
$LN1@KeyHandler:

; 569  : 
; 570  : 	this->Bound=false;

  026b1	8b 45 f8	 mov	 eax, DWORD PTR _this$[ebp]
  026b4	c6 00 00	 mov	 BYTE PTR [eax], 0

; 571  : 	this->MouseSyncX=0;

  026b7	8b 45 f8	 mov	 eax, DWORD PTR _this$[ebp]
  026ba	c7 80 1c 13 00
	00 00 00 00 00	 mov	 DWORD PTR [eax+4892], 0

; 572  : 	this->MouseSyncY=0;

  026c4	8b 45 f8	 mov	 eax, DWORD PTR _this$[ebp]
  026c7	c7 80 20 13 00
	00 00 00 00 00	 mov	 DWORD PTR [eax+4896], 0

; 573  : 	this->MouseLeft=-1;

  026d1	8b 45 f8	 mov	 eax, DWORD PTR _this$[ebp]
  026d4	c7 80 14 13 00
	00 ff ff ff ff	 mov	 DWORD PTR [eax+4884], -1

; 574  : 	this->MouseRight=-1;

  026de	8b 45 f8	 mov	 eax, DWORD PTR _this$[ebp]
  026e1	c7 80 18 13 00
	00 ff ff ff ff	 mov	 DWORD PTR [eax+4888], -1

; 575  : 	this->MouseDown=-1;

  026eb	8b 45 f8	 mov	 eax, DWORD PTR _this$[ebp]
  026ee	c7 80 10 13 00
	00 ff ff ff ff	 mov	 DWORD PTR [eax+4880], -1

; 576  : 	this->MouseUp=-1;

  026f8	8b 45 f8	 mov	 eax, DWORD PTR _this$[ebp]
  026fb	c7 80 24 13 00
	00 ff ff ff ff	 mov	 DWORD PTR [eax+4900], -1

; 577  : 
; 578  : 	return;
; 579  : }

  02705	8b 45 f8	 mov	 eax, DWORD PTR _this$[ebp]
  02708	5f		 pop	 edi
  02709	5e		 pop	 esi
  0270a	5b		 pop	 ebx
  0270b	8b 4d fc	 mov	 ecx, DWORD PTR __$ArrayPad$[ebp]
  0270e	33 cd		 xor	 ecx, ebp
  02710	e8 00 00 00 00	 call	 @__security_check_cookie@4
  02715	8b e5		 mov	 esp, ebp
  02717	5d		 pop	 ebp
  02718	c3		 ret	 0
??0KeyHandler@@QAE@XZ ENDP				; KeyHandler::KeyHandler
_TEXT	ENDS
PUBLIC	__$ArrayPad$
PUBLIC	??0KeyHandler@@QAE@PAVMouseHandler@@HHHHHH@Z	; KeyHandler::KeyHandler
; Function compile flags: /Odtp /ZI
;	COMDAT ??0KeyHandler@@QAE@PAVMouseHandler@@HHHHHH@Z
_TEXT	SEGMENT
_i$91272 = -3620					; size = 4
_j$91268 = -3616					; size = 4
_i$91264 = -3612					; size = 4
_Temp$ = -3608						; size = 3598
_this$ = -8						; size = 4
__$ArrayPad$ = -4					; size = 4
_Mouse$ = 8						; size = 4
_XSpeed$ = 12						; size = 4
_YSpeed$ = 16						; size = 4
_BindMouseXLeft$ = 20					; size = 4
_BindMouseXRight$ = 24					; size = 4
_BindMouseYUp$ = 28					; size = 4
_BindMouseYDown$ = 32					; size = 4
??0KeyHandler@@QAE@PAVMouseHandler@@HHHHHH@Z PROC	; KeyHandler::KeyHandler, COMDAT
; _this$ = ecx

; 581  : {

  00000	55		 push	 ebp
  00001	8b ec		 mov	 ebp, esp
  00003	81 ec 64 0e 00
	00		 sub	 esp, 3684		; 00000e64H
  00009	a1 00 00 00 00	 mov	 eax, DWORD PTR ___security_cookie
  0000e	33 c5		 xor	 eax, ebp
  00010	89 45 fc	 mov	 DWORD PTR __$ArrayPad$[ebp], eax
  00013	53		 push	 ebx
  00014	56		 push	 esi
  00015	57		 push	 edi
  00016	89 4d f8	 mov	 DWORD PTR _this$[ebp], ecx

; 582  : 	char Temp[257][14]={"Null Key","Escape","1 Key","2 Key","3 Key","4 Key","5 Key","6 Key","7 Key","8 Key","9 Key","0 Key","- Key","= Key","Backspace","Tab","Q",

  00019	a1 00 00 00 00	 mov	 eax, DWORD PTR ??_C@_08OFADHOMM@Null?5Key?$AA@
  0001e	89 85 e8 f1 ff
	ff		 mov	 DWORD PTR _Temp$[ebp], eax
  00024	8b 0d 04 00 00
	00		 mov	 ecx, DWORD PTR ??_C@_08OFADHOMM@Null?5Key?$AA@+4
  0002a	89 8d ec f1 ff
	ff		 mov	 DWORD PTR _Temp$[ebp+4], ecx
  00030	8a 15 08 00 00
	00		 mov	 dl, BYTE PTR ??_C@_08OFADHOMM@Null?5Key?$AA@+8
  00036	88 95 f0 f1 ff
	ff		 mov	 BYTE PTR _Temp$[ebp+8], dl
  0003c	33 c0		 xor	 eax, eax
  0003e	89 85 f1 f1 ff
	ff		 mov	 DWORD PTR _Temp$[ebp+9], eax
  00044	88 85 f5 f1 ff
	ff		 mov	 BYTE PTR _Temp$[ebp+13], al
  0004a	a1 00 00 00 00	 mov	 eax, DWORD PTR ??_C@_06OIGFGPHJ@Escape?$AA@
  0004f	89 85 f6 f1 ff
	ff		 mov	 DWORD PTR _Temp$[ebp+14], eax
  00055	66 8b 0d 04 00
	00 00		 mov	 cx, WORD PTR ??_C@_06OIGFGPHJ@Escape?$AA@+4
  0005c	66 89 8d fa f1
	ff ff		 mov	 WORD PTR _Temp$[ebp+18], cx
  00063	8a 15 06 00 00
	00		 mov	 dl, BYTE PTR ??_C@_06OIGFGPHJ@Escape?$AA@+6
  00069	88 95 fc f1 ff
	ff		 mov	 BYTE PTR _Temp$[ebp+20], dl
  0006f	33 c0		 xor	 eax, eax
  00071	89 85 fd f1 ff
	ff		 mov	 DWORD PTR _Temp$[ebp+21], eax
  00077	66 89 85 01 f2
	ff ff		 mov	 WORD PTR _Temp$[ebp+25], ax
  0007e	88 85 03 f2 ff
	ff		 mov	 BYTE PTR _Temp$[ebp+27], al
  00084	a1 00 00 00 00	 mov	 eax, DWORD PTR ??_C@_05LMCOLBBI@1?5Key?$AA@
  00089	89 85 04 f2 ff
	ff		 mov	 DWORD PTR _Temp$[ebp+28], eax
  0008f	66 8b 0d 04 00
	00 00		 mov	 cx, WORD PTR ??_C@_05LMCOLBBI@1?5Key?$AA@+4
  00096	66 89 8d 08 f2
	ff ff		 mov	 WORD PTR _Temp$[ebp+32], cx
  0009d	33 c0		 xor	 eax, eax
  0009f	89 85 0a f2 ff
	ff		 mov	 DWORD PTR _Temp$[ebp+34], eax
  000a5	89 85 0e f2 ff
	ff		 mov	 DWORD PTR _Temp$[ebp+38], eax
  000ab	a1 00 00 00 00	 mov	 eax, DWORD PTR ??_C@_05DKLKMDLG@2?5Key?$AA@
  000b0	89 85 12 f2 ff
	ff		 mov	 DWORD PTR _Temp$[ebp+42], eax
  000b6	66 8b 0d 04 00
	00 00		 mov	 cx, WORD PTR ??_C@_05DKLKMDLG@2?5Key?$AA@+4
  000bd	66 89 8d 16 f2
	ff ff		 mov	 WORD PTR _Temp$[ebp+46], cx
  000c4	33 c0		 xor	 eax, eax
  000c6	89 85 18 f2 ff
	ff		 mov	 DWORD PTR _Temp$[ebp+48], eax
  000cc	89 85 1c f2 ff
	ff		 mov	 DWORD PTR _Temp$[ebp+52], eax
  000d2	a1 00 00 00 00	 mov	 eax, DWORD PTR ??_C@_05PBOGBABD@3?5Key?$AA@
  000d7	89 85 20 f2 ff
	ff		 mov	 DWORD PTR _Temp$[ebp+56], eax
  000dd	66 8b 0d 04 00
	00 00		 mov	 cx, WORD PTR ??_C@_05PBOGBABD@3?5Key?$AA@+4
  000e4	66 89 8d 24 f2
	ff ff		 mov	 WORD PTR _Temp$[ebp+60], cx
  000eb	33 c0		 xor	 eax, eax
  000ed	89 85 26 f2 ff
	ff		 mov	 DWORD PTR _Temp$[ebp+62], eax
  000f3	89 85 2a f2 ff
	ff		 mov	 DWORD PTR _Temp$[ebp+66], eax
  000f9	a1 00 00 00 00	 mov	 eax, DWORD PTR ??_C@_05OMODCAKL@4?5Key?$AA@
  000fe	89 85 2e f2 ff
	ff		 mov	 DWORD PTR _Temp$[ebp+70], eax
  00104	66 8b 0d 04 00
	00 00		 mov	 cx, WORD PTR ??_C@_05OMODCAKL@4?5Key?$AA@+4
  0010b	66 89 8d 32 f2
	ff ff		 mov	 WORD PTR _Temp$[ebp+74], cx
  00112	33 c0		 xor	 eax, eax
  00114	89 85 34 f2 ff
	ff		 mov	 DWORD PTR _Temp$[ebp+76], eax
  0011a	89 85 38 f2 ff
	ff		 mov	 DWORD PTR _Temp$[ebp+80], eax
  00120	a1 00 00 00 00	 mov	 eax, DWORD PTR ??_C@_05CHLPPDAO@5?5Key?$AA@
  00125	89 85 3c f2 ff
	ff		 mov	 DWORD PTR _Temp$[ebp+84], eax
  0012b	66 8b 0d 04 00
	00 00		 mov	 cx, WORD PTR ??_C@_05CHLPPDAO@5?5Key?$AA@+4
  00132	66 89 8d 40 f2
	ff ff		 mov	 WORD PTR _Temp$[ebp+88], cx
  00139	33 c0		 xor	 eax, eax
  0013b	89 85 42 f2 ff
	ff		 mov	 DWORD PTR _Temp$[ebp+90], eax
  00141	89 85 46 f2 ff
	ff		 mov	 DWORD PTR _Temp$[ebp+94], eax
  00147	a1 00 00 00 00	 mov	 eax, DWORD PTR ??_C@_05KBCLIBKA@6?5Key?$AA@
  0014c	89 85 4a f2 ff
	ff		 mov	 DWORD PTR _Temp$[ebp+98], eax
  00152	66 8b 0d 04 00
	00 00		 mov	 cx, WORD PTR ??_C@_05KBCLIBKA@6?5Key?$AA@+4
  00159	66 89 8d 4e f2
	ff ff		 mov	 WORD PTR _Temp$[ebp+102], cx
  00160	33 c0		 xor	 eax, eax
  00162	89 85 50 f2 ff
	ff		 mov	 DWORD PTR _Temp$[ebp+104], eax
  00168	89 85 54 f2 ff
	ff		 mov	 DWORD PTR _Temp$[ebp+108], eax
  0016e	a1 00 00 00 00	 mov	 eax, DWORD PTR ??_C@_05GKHHFCAF@7?5Key?$AA@
  00173	89 85 58 f2 ff
	ff		 mov	 DWORD PTR _Temp$[ebp+112], eax
  00179	66 8b 0d 04 00
	00 00		 mov	 cx, WORD PTR ??_C@_05GKHHFCAF@7?5Key?$AA@+4
  00180	66 89 8d 5c f2
	ff ff		 mov	 WORD PTR _Temp$[ebp+116], cx
  00187	33 c0		 xor	 eax, eax
  00189	89 85 5e f2 ff
	ff		 mov	 DWORD PTR _Temp$[ebp+118], eax
  0018f	89 85 62 f2 ff
	ff		 mov	 DWORD PTR _Temp$[ebp+122], eax
  00195	a1 00 00 00 00	 mov	 eax, DWORD PTR ??_C@_05JLCBOANA@8?5Key?$AA@
  0019a	89 85 66 f2 ff
	ff		 mov	 DWORD PTR _Temp$[ebp+126], eax
  001a0	66 8b 0d 04 00
	00 00		 mov	 cx, WORD PTR ??_C@_05JLCBOANA@8?5Key?$AA@+4
  001a7	66 89 8d 6a f2
	ff ff		 mov	 WORD PTR _Temp$[ebp+130], cx
  001ae	33 c0		 xor	 eax, eax
  001b0	89 85 6c f2 ff
	ff		 mov	 DWORD PTR _Temp$[ebp+132], eax
  001b6	89 85 70 f2 ff
	ff		 mov	 DWORD PTR _Temp$[ebp+136], eax
  001bc	a1 00 00 00 00	 mov	 eax, DWORD PTR ??_C@_05FAHNDDHF@9?5Key?$AA@
  001c1	89 85 74 f2 ff
	ff		 mov	 DWORD PTR _Temp$[ebp+140], eax
  001c7	66 8b 0d 04 00
	00 00		 mov	 cx, WORD PTR ??_C@_05FAHNDDHF@9?5Key?$AA@+4
  001ce	66 89 8d 78 f2
	ff ff		 mov	 WORD PTR _Temp$[ebp+144], cx
  001d5	33 c0		 xor	 eax, eax
  001d7	89 85 7a f2 ff
	ff		 mov	 DWORD PTR _Temp$[ebp+146], eax
  001dd	89 85 7e f2 ff
	ff		 mov	 DWORD PTR _Temp$[ebp+150], eax
  001e3	a1 00 00 00 00	 mov	 eax, DWORD PTR ??_C@_05HHHCGCLN@0?5Key?$AA@
  001e8	89 85 82 f2 ff
	ff		 mov	 DWORD PTR _Temp$[ebp+154], eax
  001ee	66 8b 0d 04 00
	00 00		 mov	 cx, WORD PTR ??_C@_05HHHCGCLN@0?5Key?$AA@+4
  001f5	66 89 8d 86 f2
	ff ff		 mov	 WORD PTR _Temp$[ebp+158], cx
  001fc	33 c0		 xor	 eax, eax
  001fe	89 85 88 f2 ff
	ff		 mov	 DWORD PTR _Temp$[ebp+160], eax
  00204	89 85 8c f2 ff
	ff		 mov	 DWORD PTR _Temp$[ebp+164], eax
  0020a	a1 00 00 00 00	 mov	 eax, DWORD PTR ??_C@_05MIDKHDPI@?9?5Key?$AA@
  0020f	89 85 90 f2 ff
	ff		 mov	 DWORD PTR _Temp$[ebp+168], eax
  00215	66 8b 0d 04 00
	00 00		 mov	 cx, WORD PTR ??_C@_05MIDKHDPI@?9?5Key?$AA@+4
  0021c	66 89 8d 94 f2
	ff ff		 mov	 WORD PTR _Temp$[ebp+172], cx
  00223	33 c0		 xor	 eax, eax
  00225	89 85 96 f2 ff
	ff		 mov	 DWORD PTR _Temp$[ebp+174], eax
  0022b	89 85 9a f2 ff
	ff		 mov	 DWORD PTR _Temp$[ebp+178], eax
  00231	a1 00 00 00 00	 mov	 eax, DWORD PTR ??_C@_05MLOMHBGD@?$DN?5Key?$AA@
  00236	89 85 9e f2 ff
	ff		 mov	 DWORD PTR _Temp$[ebp+182], eax
  0023c	66 8b 0d 04 00
	00 00		 mov	 cx, WORD PTR ??_C@_05MLOMHBGD@?$DN?5Key?$AA@+4
  00243	66 89 8d a2 f2
	ff ff		 mov	 WORD PTR _Temp$[ebp+186], cx
  0024a	33 c0		 xor	 eax, eax
  0024c	89 85 a4 f2 ff
	ff		 mov	 DWORD PTR _Temp$[ebp+188], eax
  00252	89 85 a8 f2 ff
	ff		 mov	 DWORD PTR _Temp$[ebp+192], eax
  00258	a1 00 00 00 00	 mov	 eax, DWORD PTR ??_C@_09LPBCIPOJ@Backspace?$AA@
  0025d	89 85 ac f2 ff
	ff		 mov	 DWORD PTR _Temp$[ebp+196], eax
  00263	8b 0d 04 00 00
	00		 mov	 ecx, DWORD PTR ??_C@_09LPBCIPOJ@Backspace?$AA@+4
  00269	89 8d b0 f2 ff
	ff		 mov	 DWORD PTR _Temp$[ebp+200], ecx
  0026f	66 8b 15 08 00
	00 00		 mov	 dx, WORD PTR ??_C@_09LPBCIPOJ@Backspace?$AA@+8
  00276	66 89 95 b4 f2
	ff ff		 mov	 WORD PTR _Temp$[ebp+204], dx
  0027d	33 c0		 xor	 eax, eax
  0027f	89 85 b6 f2 ff
	ff		 mov	 DWORD PTR _Temp$[ebp+206], eax
  00285	a1 00 00 00 00	 mov	 eax, DWORD PTR ??_C@_03IEAKBACE@Tab?$AA@
  0028a	89 85 ba f2 ff
	ff		 mov	 DWORD PTR _Temp$[ebp+210], eax
  00290	33 c0		 xor	 eax, eax
  00292	89 85 be f2 ff
	ff		 mov	 DWORD PTR _Temp$[ebp+214], eax
  00298	89 85 c2 f2 ff
	ff		 mov	 DWORD PTR _Temp$[ebp+218], eax
  0029e	66 89 85 c6 f2
	ff ff		 mov	 WORD PTR _Temp$[ebp+222], ax
  002a5	66 a1 00 00 00
	00		 mov	 ax, WORD PTR ??_C@_01BNIGIBBF@Q?$AA@
  002ab	66 89 85 c8 f2
	ff ff		 mov	 WORD PTR _Temp$[ebp+224], ax
  002b2	33 c0		 xor	 eax, eax
  002b4	89 85 ca f2 ff
	ff		 mov	 DWORD PTR _Temp$[ebp+226], eax
  002ba	89 85 ce f2 ff
	ff		 mov	 DWORD PTR _Temp$[ebp+230], eax
  002c0	89 85 d2 f2 ff
	ff		 mov	 DWORD PTR _Temp$[ebp+234], eax

; 583  : 				  "W","E","R","T","Y","U","I","O","P","[","]","Right Enter","Left Control","A","S","D",

  002c6	66 a1 00 00 00
	00		 mov	 ax, WORD PTR ??_C@_01ELNMCGJD@W?$AA@
  002cc	66 89 85 d6 f2
	ff ff		 mov	 WORD PTR _Temp$[ebp+238], ax
  002d3	33 c0		 xor	 eax, eax
  002d5	89 85 d8 f2 ff
	ff		 mov	 DWORD PTR _Temp$[ebp+240], eax
  002db	89 85 dc f2 ff
	ff		 mov	 DWORD PTR _Temp$[ebp+244], eax
  002e1	89 85 e0 f2 ff
	ff		 mov	 DWORD PTR _Temp$[ebp+248], eax
  002e7	66 a1 00 00 00
	00		 mov	 ax, WORD PTR ??_C@_01DDCIFGEA@E?$AA@
  002ed	66 89 85 e4 f2
	ff ff		 mov	 WORD PTR _Temp$[ebp+252], ax
  002f4	33 c0		 xor	 eax, eax
  002f6	89 85 e6 f2 ff
	ff		 mov	 DWORD PTR _Temp$[ebp+254], eax
  002fc	89 85 ea f2 ff
	ff		 mov	 DWORD PTR _Temp$[ebp+258], eax
  00302	89 85 ee f2 ff
	ff		 mov	 DWORD PTR _Temp$[ebp+262], eax
  00308	66 a1 00 00 00
	00		 mov	 ax, WORD PTR ??_C@_01DGKLNCNG@R?$AA@
  0030e	66 89 85 f2 f2
	ff ff		 mov	 WORD PTR _Temp$[ebp+266], ax
  00315	33 c0		 xor	 eax, eax
  00317	89 85 f4 f2 ff
	ff		 mov	 DWORD PTR _Temp$[ebp+268], eax
  0031d	89 85 f8 f2 ff
	ff		 mov	 DWORD PTR _Temp$[ebp+272], eax
  00323	89 85 fc f2 ff
	ff		 mov	 DWORD PTR _Temp$[ebp+276], eax
  00329	66 a1 00 00 00
	00		 mov	 ax, WORD PTR ??_C@_01GAPBHFFA@T?$AA@
  0032f	66 89 85 00 f3
	ff ff		 mov	 WORD PTR _Temp$[ebp+280], ax
  00336	33 c0		 xor	 eax, eax
  00338	89 85 02 f3 ff
	ff		 mov	 DWORD PTR _Temp$[ebp+282], eax
  0033e	89 85 06 f3 ff
	ff		 mov	 DWORD PTR _Temp$[ebp+286], eax
  00344	89 85 0a f3 ff
	ff		 mov	 DWORD PTR _Temp$[ebp+290], eax
  0034a	66 a1 00 00 00
	00		 mov	 ax, WORD PTR ??_C@_01NFFPALBN@Y?$AA@
  00350	66 89 85 0e f3
	ff ff		 mov	 WORD PTR _Temp$[ebp+294], ax
  00357	33 c0		 xor	 eax, eax
  00359	89 85 10 f3 ff
	ff		 mov	 DWORD PTR _Temp$[ebp+296], eax
  0035f	89 85 14 f3 ff
	ff		 mov	 DWORD PTR _Temp$[ebp+300], eax
  00365	89 85 18 f3 ff
	ff		 mov	 DWORD PTR _Temp$[ebp+304], eax
  0036b	66 a1 00 00 00
	00		 mov	 ax, WORD PTR ??_C@_01HJOKEEBB@U?$AA@
  00371	66 89 85 1c f3
