; Listing generated by Microsoft (R) Optimizing Compiler Version 15.00.21022.08 

	TITLE	c:\Users\FireEmblem16\Documents\Visual Studio 2008\Projects\Chronicles\Chronicles\Source\Main.cpp
	.686P
	.XMM
	include listing.inc
	.model	flat

INCLUDELIB LIBCMTD
INCLUDELIB OLDNAMES

PUBLIC	??_C@_0P@GHFPNOJB@bad?5allocation?$AA@		; `string'
_DATA	SEGMENT
__bad_alloc_Message DD FLAT:??_C@_0P@GHFPNOJB@bad?5allocation?$AA@
_DATA	ENDS
;	COMDAT ??_C@_0P@GHFPNOJB@bad?5allocation?$AA@
CONST	SEGMENT
??_C@_0P@GHFPNOJB@bad?5allocation?$AA@ DB 'bad allocation', 00H ; `string'
CONST	ENDS
PUBLIC	?CompareStrings@@YA_NPAD0@Z			; CompareStrings
EXTRN	_strlen:PROC
; Function compile flags: /Odtp /ZI
; File c:\users\fireemblem16\documents\visual studio 2008\projects\chronicles\chronicles\headers\functions.h
;	COMDAT ?CompareStrings@@YA_NPAD0@Z
_TEXT	SEGMENT
_i$90295 = -4						; size = 4
_a$ = 8							; size = 4
_b$ = 12						; size = 4
?CompareStrings@@YA_NPAD0@Z PROC			; CompareStrings, COMDAT

; 28   : {

  00000	55		 push	 ebp
  00001	8b ec		 mov	 ebp, esp
  00003	83 ec 44	 sub	 esp, 68			; 00000044H
  00006	53		 push	 ebx
  00007	56		 push	 esi
  00008	57		 push	 edi

; 29   : 	if(strlen(a)!=strlen(b))

  00009	8b 45 08	 mov	 eax, DWORD PTR _a$[ebp]
  0000c	50		 push	 eax
  0000d	e8 00 00 00 00	 call	 _strlen
  00012	83 c4 04	 add	 esp, 4
  00015	8b f0		 mov	 esi, eax
  00017	8b 4d 0c	 mov	 ecx, DWORD PTR _b$[ebp]
  0001a	51		 push	 ecx
  0001b	e8 00 00 00 00	 call	 _strlen
  00020	83 c4 04	 add	 esp, 4
  00023	3b f0		 cmp	 esi, eax
  00025	74 04		 je	 SHORT $LN5@CompareStr

; 30   : 		return false;

  00027	32 c0		 xor	 al, al
  00029	eb 44		 jmp	 SHORT $LN6@CompareStr
$LN5@CompareStr:

; 31   : 
; 32   : 	for(int i=0;a[i]==b[i];i++)

  0002b	c7 45 fc 00 00
	00 00		 mov	 DWORD PTR _i$90295[ebp], 0
  00032	eb 09		 jmp	 SHORT $LN4@CompareStr
$LN3@CompareStr:
  00034	8b 45 fc	 mov	 eax, DWORD PTR _i$90295[ebp]
  00037	83 c0 01	 add	 eax, 1
  0003a	89 45 fc	 mov	 DWORD PTR _i$90295[ebp], eax
$LN4@CompareStr:
  0003d	8b 45 08	 mov	 eax, DWORD PTR _a$[ebp]
  00040	03 45 fc	 add	 eax, DWORD PTR _i$90295[ebp]
  00043	0f be 08	 movsx	 ecx, BYTE PTR [eax]
  00046	8b 55 0c	 mov	 edx, DWORD PTR _b$[ebp]
  00049	03 55 fc	 add	 edx, DWORD PTR _i$90295[ebp]
  0004c	0f be 02	 movsx	 eax, BYTE PTR [edx]
  0004f	3b c8		 cmp	 ecx, eax
  00051	75 1a		 jne	 SHORT $LN2@CompareStr

; 33   : 		if(i==strlen(a)-1)

  00053	8b 45 08	 mov	 eax, DWORD PTR _a$[ebp]
  00056	50		 push	 eax
  00057	e8 00 00 00 00	 call	 _strlen
  0005c	83 c4 04	 add	 esp, 4
  0005f	83 e8 01	 sub	 eax, 1
  00062	39 45 fc	 cmp	 DWORD PTR _i$90295[ebp], eax
  00065	75 04		 jne	 SHORT $LN1@CompareStr

; 34   : 			return true;

  00067	b0 01		 mov	 al, 1
  00069	eb 04		 jmp	 SHORT $LN6@CompareStr
$LN1@CompareStr:

; 35   : 
; 36   : 	return false;

  0006b	eb c7		 jmp	 SHORT $LN3@CompareStr
$LN2@CompareStr:
  0006d	32 c0		 xor	 al, al
$LN6@CompareStr:

; 37   : }

  0006f	5f		 pop	 edi
  00070	5e		 pop	 esi
  00071	5b		 pop	 ebx
  00072	8b e5		 mov	 esp, ebp
  00074	5d		 pop	 ebp
  00075	c3		 ret	 0
?CompareStrings@@YA_NPAD0@Z ENDP			; CompareStrings
_TEXT	ENDS
PUBLIC	??_C@_0N@FICAGCGB@Data?5?$DN?5false?$AA@	; `string'
PUBLIC	??_C@_0M@CCBFPEFB@Data?5?$DN?5true?$AA@		; `string'
PUBLIC	?ShowSomeData@@YAX_NH@Z				; ShowSomeData
EXTRN	??3@YAXPAX@Z:PROC				; operator delete
EXTRN	?dbText@@YAXHHPAD@Z:PROC			; dbText
EXTRN	?dbTextWidth@@YAHPAD@Z:PROC			; dbTextWidth
EXTRN	?dbScreenWidth@@YAHXZ:PROC			; dbScreenWidth
EXTRN	?dbTextHeight@@YAHPAD@Z:PROC			; dbTextHeight
EXTRN	?dbScreenHeight@@YAHXZ:PROC			; dbScreenHeight
;	COMDAT ??_C@_0N@FICAGCGB@Data?5?$DN?5false?$AA@
CONST	SEGMENT
??_C@_0N@FICAGCGB@Data?5?$DN?5false?$AA@ DB 'Data = false', 00H ; `string'
CONST	ENDS
;	COMDAT ??_C@_0M@CCBFPEFB@Data?5?$DN?5true?$AA@
CONST	SEGMENT
??_C@_0M@CCBFPEFB@Data?5?$DN?5true?$AA@ DB 'Data = true', 00H ; `string'
; Function compile flags: /Odtp /ZI
CONST	ENDS
;	COMDAT ?ShowSomeData@@YAX_NH@Z
_TEXT	SEGMENT
$T91892 = -72						; size = 4
_data$ = -4						; size = 4
_rawdata$ = 8						; size = 1
_num$ = 12						; size = 4
?ShowSomeData@@YAX_NH@Z PROC				; ShowSomeData, COMDAT

; 40   : {

  00000	55		 push	 ebp
  00001	8b ec		 mov	 ebp, esp
  00003	83 ec 48	 sub	 esp, 72			; 00000048H
  00006	53		 push	 ebx
  00007	56		 push	 esi
  00008	57		 push	 edi

; 41   : 	char* data;
; 42   : 
; 43   : 	if(rawdata)

  00009	0f b6 45 08	 movzx	 eax, BYTE PTR _rawdata$[ebp]
  0000d	85 c0		 test	 eax, eax
  0000f	74 09		 je	 SHORT $LN2@ShowSomeDa

; 44   : 		data="Data = true";

  00011	c7 45 fc 00 00
	00 00		 mov	 DWORD PTR _data$[ebp], OFFSET ??_C@_0M@CCBFPEFB@Data?5?$DN?5true?$AA@

; 45   : 	else

  00018	eb 07		 jmp	 SHORT $LN1@ShowSomeDa
$LN2@ShowSomeDa:

; 46   : 		data="Data = false";

  0001a	c7 45 fc 00 00
	00 00		 mov	 DWORD PTR _data$[ebp], OFFSET ??_C@_0N@FICAGCGB@Data?5?$DN?5false?$AA@
$LN1@ShowSomeDa:

; 47   : 
; 48   : 	dbText(dbScreenWidth()-20-dbTextWidth(data),dbScreenHeight()-40-dbTextHeight(data)*num,data);

  00021	8b 45 fc	 mov	 eax, DWORD PTR _data$[ebp]
  00024	50		 push	 eax
  00025	e8 00 00 00 00	 call	 ?dbScreenHeight@@YAHXZ	; dbScreenHeight
  0002a	8b f0		 mov	 esi, eax
  0002c	83 ee 28	 sub	 esi, 40			; 00000028H
  0002f	8b 4d fc	 mov	 ecx, DWORD PTR _data$[ebp]
  00032	51		 push	 ecx
  00033	e8 00 00 00 00	 call	 ?dbTextHeight@@YAHPAD@Z	; dbTextHeight
  00038	83 c4 04	 add	 esp, 4
  0003b	0f af 45 0c	 imul	 eax, DWORD PTR _num$[ebp]
  0003f	2b f0		 sub	 esi, eax
  00041	56		 push	 esi
  00042	e8 00 00 00 00	 call	 ?dbScreenWidth@@YAHXZ	; dbScreenWidth
  00047	8b f0		 mov	 esi, eax
  00049	83 ee 14	 sub	 esi, 20			; 00000014H
  0004c	8b 55 fc	 mov	 edx, DWORD PTR _data$[ebp]
  0004f	52		 push	 edx
  00050	e8 00 00 00 00	 call	 ?dbTextWidth@@YAHPAD@Z	; dbTextWidth
  00055	83 c4 04	 add	 esp, 4
  00058	2b f0		 sub	 esi, eax
  0005a	56		 push	 esi
  0005b	e8 00 00 00 00	 call	 ?dbText@@YAXHHPAD@Z	; dbText
  00060	83 c4 0c	 add	 esp, 12			; 0000000cH

; 49   : 	
; 50   : 	delete data;

  00063	8b 45 fc	 mov	 eax, DWORD PTR _data$[ebp]
  00066	89 45 b8	 mov	 DWORD PTR $T91892[ebp], eax
  00069	8b 4d b8	 mov	 ecx, DWORD PTR $T91892[ebp]
  0006c	51		 push	 ecx
  0006d	e8 00 00 00 00	 call	 ??3@YAXPAX@Z		; operator delete
  00072	83 c4 04	 add	 esp, 4

; 51   : 
; 52   : 	return;
; 53   : }

  00075	5f		 pop	 edi
  00076	5e		 pop	 esi
  00077	5b		 pop	 ebx
  00078	8b e5		 mov	 esp, ebp
  0007a	5d		 pop	 ebp
  0007b	c3		 ret	 0
?ShowSomeData@@YAX_NH@Z ENDP				; ShowSomeData
_TEXT	ENDS
PUBLIC	?ShowSomeData@@YAXPADH@Z			; ShowSomeData
; Function compile flags: /Odtp /ZI
;	COMDAT ?ShowSomeData@@YAXPADH@Z
_TEXT	SEGMENT
_data$ = 8						; size = 4
_num$ = 12						; size = 4
?ShowSomeData@@YAXPADH@Z PROC				; ShowSomeData, COMDAT

; 56   : {

  00000	55		 push	 ebp
  00001	8b ec		 mov	 ebp, esp
  00003	83 ec 40	 sub	 esp, 64			; 00000040H
  00006	53		 push	 ebx
  00007	56		 push	 esi
  00008	57		 push	 edi

; 57   : 	dbText(dbScreenWidth()-20-dbTextWidth(data),dbScreenHeight()-40-dbTextHeight(data)*num,data);

  00009	8b 45 08	 mov	 eax, DWORD PTR _data$[ebp]
  0000c	50		 push	 eax
  0000d	e8 00 00 00 00	 call	 ?dbScreenHeight@@YAHXZ	; dbScreenHeight
  00012	8b f0		 mov	 esi, eax
  00014	83 ee 28	 sub	 esi, 40			; 00000028H
  00017	8b 4d 08	 mov	 ecx, DWORD PTR _data$[ebp]
  0001a	51		 push	 ecx
  0001b	e8 00 00 00 00	 call	 ?dbTextHeight@@YAHPAD@Z	; dbTextHeight
  00020	83 c4 04	 add	 esp, 4
  00023	0f af 45 0c	 imul	 eax, DWORD PTR _num$[ebp]
  00027	2b f0		 sub	 esi, eax
  00029	56		 push	 esi
  0002a	e8 00 00 00 00	 call	 ?dbScreenWidth@@YAHXZ	; dbScreenWidth
  0002f	8b f0		 mov	 esi, eax
  00031	83 ee 14	 sub	 esi, 20			; 00000014H
  00034	8b 55 08	 mov	 edx, DWORD PTR _data$[ebp]
  00037	52		 push	 edx
  00038	e8 00 00 00 00	 call	 ?dbTextWidth@@YAHPAD@Z	; dbTextWidth
  0003d	83 c4 04	 add	 esp, 4
  00040	2b f0		 sub	 esi, eax
  00042	56		 push	 esi
  00043	e8 00 00 00 00	 call	 ?dbText@@YAXHHPAD@Z	; dbText
  00048	83 c4 0c	 add	 esp, 12			; 0000000cH

; 58   : 	
; 59   : 	return;
; 60   : }

  0004b	5f		 pop	 edi
  0004c	5e		 pop	 esi
  0004d	5b		 pop	 ebx
  0004e	8b e5		 mov	 esp, ebp
  00050	5d		 pop	 ebp
  00051	c3		 ret	 0
?ShowSomeData@@YAXPADH@Z ENDP				; ShowSomeData
_TEXT	ENDS
PUBLIC	??_C@_07DHCPEHKF@Data?5?$DN?5?$AA@		; `string'
PUBLIC	??_C@_00CNPNBAHC@?$AA@				; `string'
PUBLIC	__$ArrayPad$
PUBLIC	?ShowSomeData@@YAXMH@Z				; ShowSomeData
EXTRN	_strcat:PROC
EXTRN	?dbStr@@YAPADM@Z:PROC				; dbStr
EXTRN	_strcpy:PROC
EXTRN	___security_cookie:DWORD
EXTRN	__fltused:DWORD
EXTRN	@__security_check_cookie@4:PROC
EXTRN	_memset:PROC
;	COMDAT ??_C@_07DHCPEHKF@Data?5?$DN?5?$AA@
CONST	SEGMENT
??_C@_07DHCPEHKF@Data?5?$DN?5?$AA@ DB 'Data = ', 00H	; `string'
CONST	ENDS
;	COMDAT ??_C@_00CNPNBAHC@?$AA@
CONST	SEGMENT
??_C@_00CNPNBAHC@?$AA@ DB 00H				; `string'
; Function compile flags: /Odtp /ZI
CONST	ENDS
;	COMDAT ?ShowSomeData@@YAXMH@Z
_TEXT	SEGMENT
_szFPS$ = -260						; size = 256
__$ArrayPad$ = -4					; size = 4
_data$ = 8						; size = 4
_num$ = 12						; size = 4
?ShowSomeData@@YAXMH@Z PROC				; ShowSomeData, COMDAT

; 63   : {

  00000	55		 push	 ebp
  00001	8b ec		 mov	 ebp, esp
  00003	81 ec 44 01 00
	00		 sub	 esp, 324		; 00000144H
  00009	a1 00 00 00 00	 mov	 eax, DWORD PTR ___security_cookie
  0000e	33 c5		 xor	 eax, ebp
  00010	89 45 fc	 mov	 DWORD PTR __$ArrayPad$[ebp], eax
  00013	53		 push	 ebx
  00014	56		 push	 esi
  00015	57		 push	 edi

; 64   : 	char szFPS[256]="";

  00016	a0 00 00 00 00	 mov	 al, BYTE PTR ??_C@_00CNPNBAHC@?$AA@
  0001b	88 85 fc fe ff
	ff		 mov	 BYTE PTR _szFPS$[ebp], al
  00021	68 ff 00 00 00	 push	 255			; 000000ffH
  00026	6a 00		 push	 0
  00028	8d 85 fd fe ff
	ff		 lea	 eax, DWORD PTR _szFPS$[ebp+1]
  0002e	50		 push	 eax
  0002f	e8 00 00 00 00	 call	 _memset
  00034	83 c4 0c	 add	 esp, 12			; 0000000cH

; 65   : 	strcpy(szFPS,"Data = ");

  00037	68 00 00 00 00	 push	 OFFSET ??_C@_07DHCPEHKF@Data?5?$DN?5?$AA@
  0003c	8d 85 fc fe ff
	ff		 lea	 eax, DWORD PTR _szFPS$[ebp]
  00042	50		 push	 eax
  00043	e8 00 00 00 00	 call	 _strcpy
  00048	83 c4 08	 add	 esp, 8

; 66   : 	strcat(szFPS,dbStr(data));

  0004b	51		 push	 ecx
  0004c	d9 45 08	 fld	 DWORD PTR _data$[ebp]
  0004f	d9 1c 24	 fstp	 DWORD PTR [esp]
  00052	e8 00 00 00 00	 call	 ?dbStr@@YAPADM@Z	; dbStr
  00057	83 c4 04	 add	 esp, 4
  0005a	50		 push	 eax
  0005b	8d 85 fc fe ff
	ff		 lea	 eax, DWORD PTR _szFPS$[ebp]
  00061	50		 push	 eax
  00062	e8 00 00 00 00	 call	 _strcat
  00067	83 c4 08	 add	 esp, 8

; 67   : 	dbText(dbScreenWidth()-20-dbTextWidth(szFPS),dbScreenHeight()-40-dbTextHeight(szFPS)*num,szFPS);

  0006a	8d 85 fc fe ff
	ff		 lea	 eax, DWORD PTR _szFPS$[ebp]
  00070	50		 push	 eax
  00071	e8 00 00 00 00	 call	 ?dbScreenHeight@@YAHXZ	; dbScreenHeight
  00076	8b f0		 mov	 esi, eax
  00078	83 ee 28	 sub	 esi, 40			; 00000028H
  0007b	8d 8d fc fe ff
	ff		 lea	 ecx, DWORD PTR _szFPS$[ebp]
  00081	51		 push	 ecx
  00082	e8 00 00 00 00	 call	 ?dbTextHeight@@YAHPAD@Z	; dbTextHeight
  00087	83 c4 04	 add	 esp, 4
  0008a	0f af 45 0c	 imul	 eax, DWORD PTR _num$[ebp]
  0008e	2b f0		 sub	 esi, eax
  00090	56		 push	 esi
  00091	e8 00 00 00 00	 call	 ?dbScreenWidth@@YAHXZ	; dbScreenWidth
  00096	8b f0		 mov	 esi, eax
  00098	83 ee 14	 sub	 esi, 20			; 00000014H
  0009b	8d 95 fc fe ff
	ff		 lea	 edx, DWORD PTR _szFPS$[ebp]
  000a1	52		 push	 edx
  000a2	e8 00 00 00 00	 call	 ?dbTextWidth@@YAHPAD@Z	; dbTextWidth
  000a7	83 c4 04	 add	 esp, 4
  000aa	2b f0		 sub	 esi, eax
  000ac	56		 push	 esi
  000ad	e8 00 00 00 00	 call	 ?dbText@@YAXHHPAD@Z	; dbText
  000b2	83 c4 0c	 add	 esp, 12			; 0000000cH

; 68   : 	
; 69   : 	return;
; 70   : }

  000b5	5f		 pop	 edi
  000b6	5e		 pop	 esi
  000b7	5b		 pop	 ebx
  000b8	8b 4d fc	 mov	 ecx, DWORD PTR __$ArrayPad$[ebp]
  000bb	33 cd		 xor	 ecx, ebp
  000bd	e8 00 00 00 00	 call	 @__security_check_cookie@4
  000c2	8b e5		 mov	 esp, ebp
  000c4	5d		 pop	 ebp
  000c5	c3		 ret	 0
?ShowSomeData@@YAXMH@Z ENDP				; ShowSomeData
_TEXT	ENDS
PUBLIC	__$ArrayPad$
PUBLIC	?ShowSomeData@@YAXHH@Z				; ShowSomeData
EXTRN	?dbStr@@YAPADH@Z:PROC				; dbStr
; Function compile flags: /Odtp /ZI
;	COMDAT ?ShowSomeData@@YAXHH@Z
_TEXT	SEGMENT
_szFPS$ = -260						; size = 256
__$ArrayPad$ = -4					; size = 4
_data$ = 8						; size = 4
_num$ = 12						; size = 4
?ShowSomeData@@YAXHH@Z PROC				; ShowSomeData, COMDAT

; 73   : {

  00000	55		 push	 ebp
  00001	8b ec		 mov	 ebp, esp
  00003	81 ec 44 01 00
	00		 sub	 esp, 324		; 00000144H
  00009	a1 00 00 00 00	 mov	 eax, DWORD PTR ___security_cookie
  0000e	33 c5		 xor	 eax, ebp
  00010	89 45 fc	 mov	 DWORD PTR __$ArrayPad$[ebp], eax
  00013	53		 push	 ebx
  00014	56		 push	 esi
  00015	57		 push	 edi

; 74   : 	char szFPS[256]="";

  00016	a0 00 00 00 00	 mov	 al, BYTE PTR ??_C@_00CNPNBAHC@?$AA@
  0001b	88 85 fc fe ff
	ff		 mov	 BYTE PTR _szFPS$[ebp], al
  00021	68 ff 00 00 00	 push	 255			; 000000ffH
  00026	6a 00		 push	 0
  00028	8d 85 fd fe ff
	ff		 lea	 eax, DWORD PTR _szFPS$[ebp+1]
  0002e	50		 push	 eax
  0002f	e8 00 00 00 00	 call	 _memset
  00034	83 c4 0c	 add	 esp, 12			; 0000000cH

; 75   : 	strcpy(szFPS,"Data = ");

  00037	68 00 00 00 00	 push	 OFFSET ??_C@_07DHCPEHKF@Data?5?$DN?5?$AA@
  0003c	8d 85 fc fe ff
	ff		 lea	 eax, DWORD PTR _szFPS$[ebp]
  00042	50		 push	 eax
  00043	e8 00 00 00 00	 call	 _strcpy
  00048	83 c4 08	 add	 esp, 8

; 76   : 	strcat(szFPS,dbStr(data));

  0004b	8b 45 08	 mov	 eax, DWORD PTR _data$[ebp]
  0004e	50		 push	 eax
  0004f	e8 00 00 00 00	 call	 ?dbStr@@YAPADH@Z	; dbStr
  00054	83 c4 04	 add	 esp, 4
  00057	50		 push	 eax
  00058	8d 8d fc fe ff
	ff		 lea	 ecx, DWORD PTR _szFPS$[ebp]
  0005e	51		 push	 ecx
  0005f	e8 00 00 00 00	 call	 _strcat
  00064	83 c4 08	 add	 esp, 8

; 77   : 	dbText(dbScreenWidth()-20-dbTextWidth(szFPS),dbScreenHeight()-40-dbTextHeight(szFPS)*num,szFPS);

  00067	8d 85 fc fe ff
	ff		 lea	 eax, DWORD PTR _szFPS$[ebp]
  0006d	50		 push	 eax
  0006e	e8 00 00 00 00	 call	 ?dbScreenHeight@@YAHXZ	; dbScreenHeight
  00073	8b f0		 mov	 esi, eax
  00075	83 ee 28	 sub	 esi, 40			; 00000028H
  00078	8d 8d fc fe ff
	ff		 lea	 ecx, DWORD PTR _szFPS$[ebp]
  0007e	51		 push	 ecx
  0007f	e8 00 00 00 00	 call	 ?dbTextHeight@@YAHPAD@Z	; dbTextHeight
  00084	83 c4 04	 add	 esp, 4
  00087	0f af 45 0c	 imul	 eax, DWORD PTR _num$[ebp]
  0008b	2b f0		 sub	 esi, eax
  0008d	56		 push	 esi
  0008e	e8 00 00 00 00	 call	 ?dbScreenWidth@@YAHXZ	; dbScreenWidth
  00093	8b f0		 mov	 esi, eax
  00095	83 ee 14	 sub	 esi, 20			; 00000014H
  00098	8d 95 fc fe ff
	ff		 lea	 edx, DWORD PTR _szFPS$[ebp]
  0009e	52		 push	 edx
  0009f	e8 00 00 00 00	 call	 ?dbTextWidth@@YAHPAD@Z	; dbTextWidth
  000a4	83 c4 04	 add	 esp, 4
  000a7	2b f0		 sub	 esi, eax
  000a9	56		 push	 esi
  000aa	e8 00 00 00 00	 call	 ?dbText@@YAXHHPAD@Z	; dbText
  000af	83 c4 0c	 add	 esp, 12			; 0000000cH

; 78   : 	
; 79   : 	return;
; 80   : }

  000b2	5f		 pop	 edi
  000b3	5e		 pop	 esi
  000b4	5b		 pop	 ebx
  000b5	8b 4d fc	 mov	 ecx, DWORD PTR __$ArrayPad$[ebp]
  000b8	33 cd		 xor	 ecx, ebp
  000ba	e8 00 00 00 00	 call	 @__security_check_cookie@4
  000bf	8b e5		 mov	 esp, ebp
  000c1	5d		 pop	 ebp
  000c2	c3		 ret	 0
?ShowSomeData@@YAXHH@Z ENDP				; ShowSomeData
_TEXT	ENDS
PUBLIC	??_C@_08KCCGPEHE@Button?50?$AA@			; `string'
PUBLIC	__real@4000000000000000
PUBLIC	__real@3ff0000000000000
PUBLIC	__real@4008000000000000
PUBLIC	__real@be800000
PUBLIC	__real@40000000
PUBLIC	__real@00000000
PUBLIC	??_C@_0BF@DJCACNOP@Objects?2Box?2Object?4X?$AA@	; `string'
PUBLIC	__real@3f000000
PUBLIC	??_C@_0O@DJIMKNBB@JoyStickY?5Max?$AA@		; `string'
PUBLIC	??_C@_0O@OAFLJKNL@JoyStickX?5Min?$AA@		; `string'
PUBLIC	??_C@_0O@PCNAHOLE@JoyStickX?5Max?$AA@		; `string'
PUBLIC	??_C@_0O@CLAHEJHO@JoyStickY?5Min?$AA@		; `string'
PUBLIC	??_C@_01FHEEJDEE@A?$AA@				; `string'
PUBLIC	??_C@_01CKDDGHAB@D?$AA@				; `string'
PUBLIC	??_C@_01ELNMCGJD@W?$AA@				; `string'
PUBLIC	??_C@_01CPLAODJH@S?$AA@				; `string'
PUBLIC	??_C@_0N@JFFAAPEI@Images?21?4jpg?$AA@		; `string'
PUBLIC	__real@3f8ccccd
PUBLIC	??_C@_0L@CJOIDFHO@Resources?2?$AA@		; `string'
PUBLIC	??_C@_0BN@IEPDBBDH@Chronicles?5of?5Mu?5Alpha?5Theta?$AA@ ; `string'
PUBLIC	?DarkGDK@@YAXXZ					; DarkGDK
EXTRN	?Sync@Window@@QAEXXZ:PROC			; Window::Sync
EXTRN	?Update@DeviceHandler@@QAEXXZ:PROC		; DeviceHandler::Update
EXTRN	?Update@KeyHandler@@QAEXXZ:PROC			; KeyHandler::Update
EXTRN	?Update@MouseHandler@@QAEXXZ:PROC		; MouseHandler::Update
EXTRN	?GetIsGenericInput@DeviceHandler@@QAE_NPADM@Z:PROC ; DeviceHandler::GetIsGenericInput
EXTRN	?IsPressed@KeyHandler@@QAE_NH@Z:PROC		; KeyHandler::IsPressed
EXTRN	?dbRotateObject@@YAXHMMM@Z:PROC			; dbRotateObject
EXTRN	?dbObjectAngleX@@YAMH@Z:PROC			; dbObjectAngleX
EXTRN	?dbObjectAngleY@@YAMH@Z:PROC			; dbObjectAngleY
EXTRN	?dbWrapValue@@YAMM@Z:PROC			; dbWrapValue
EXTRN	?dbObjectAngleZ@@YAMH@Z:PROC			; dbObjectAngleZ
EXTRN	?LoopGDK@@YA_NXZ:PROC				; LoopGDK
EXTRN	?dbPositionObject@@YAXHMMM@Z:PROC		; dbPositionObject
EXTRN	?dbPositionCamera@@YAXMMM@Z:PROC		; dbPositionCamera
EXTRN	?dbLoadObject@@YAXPADH@Z:PROC			; dbLoadObject
EXTRN	?dbFileExist@@YAHPAD@Z:PROC			; dbFileExist
EXTRN	?SetMouseBoundToCursor@MouseHandler@@QAEX_N@Z:PROC ; MouseHandler::SetMouseBoundToCursor
EXTRN	??0DeviceHandler@@QAE@PAVMouseHandler@@HHMMPAD111@Z:PROC ; DeviceHandler::DeviceHandler
EXTRN	??0KeyHandler@@QAE@PAVMouseHandler@@HHPAD111@Z:PROC ; KeyHandler::KeyHandler
EXTRN	??0MouseHandler@@QAE@_NPADPAVWindow@@M@Z:PROC	; MouseHandler::MouseHandler
EXTRN	??0Window@@QAE@H_N00HHPAD1@Z:PROC		; Window::Window
EXTRN	??2@YAPAXI@Z:PROC				; operator new
EXTRN	___CxxFrameHandler3:PROC
;	COMDAT ??_C@_08KCCGPEHE@Button?50?$AA@
; File c:\users\fireemblem16\documents\visual studio 2008\projects\chronicles\chronicles\source\main.cpp
CONST	SEGMENT
??_C@_08KCCGPEHE@Button?50?$AA@ DB 'Button 0', 00H	; `string'
CONST	ENDS
;	COMDAT __real@4000000000000000
CONST	SEGMENT
__real@4000000000000000 DQ 04000000000000000r	; 2
CONST	ENDS
;	COMDAT __real@3ff0000000000000
CONST	SEGMENT
__real@3ff0000000000000 DQ 03ff0000000000000r	; 1
CONST	ENDS
;	COMDAT __real@4008000000000000
CONST	SEGMENT
__real@4008000000000000 DQ 04008000000000000r	; 3
CONST	ENDS
;	COMDAT __real@be800000
CONST	SEGMENT
__real@be800000 DD 0be800000r			; -0.25
CONST	ENDS
;	COMDAT __real@40000000
CONST	SEGMENT
__real@40000000 DD 040000000r			; 2
CONST	ENDS
;	COMDAT __real@00000000
CONST	SEGMENT
__real@00000000 DD 000000000r			; 0
CONST	ENDS
;	COMDAT ??_C@_0BF@DJCACNOP@Objects?2Box?2Object?4X?$AA@
CONST	SEGMENT
??_C@_0BF@DJCACNOP@Objects?2Box?2Object?4X?$AA@ DB 'Objects\Box\Object.X', 00H ; `string'
CONST	ENDS
;	COMDAT __real@3f000000
CONST	SEGMENT
__real@3f000000 DD 03f000000r			; 0.5
CONST	ENDS
;	COMDAT ??_C@_0O@DJIMKNBB@JoyStickY?5Max?$AA@
CONST	SEGMENT
??_C@_0O@DJIMKNBB@JoyStickY?5Max?$AA@ DB 'JoyStickY Max', 00H ; `string'
CONST	ENDS
;	COMDAT ??_C@_0O@OAFLJKNL@JoyStickX?5Min?$AA@
CONST	SEGMENT
??_C@_0O@OAFLJKNL@JoyStickX?5Min?$AA@ DB 'JoyStickX Min', 00H ; `string'
CONST	ENDS
;	COMDAT ??_C@_0O@PCNAHOLE@JoyStickX?5Max?$AA@
CONST	SEGMENT
??_C@_0O@PCNAHOLE@JoyStickX?5Max?$AA@ DB 'JoyStickX Max', 00H ; `string'
CONST	ENDS
;	COMDAT ??_C@_0O@CLAHEJHO@JoyStickY?5Min?$AA@
CONST	SEGMENT
??_C@_0O@CLAHEJHO@JoyStickY?5Min?$AA@ DB 'JoyStickY Min', 00H ; `string'
CONST	ENDS
;	COMDAT ??_C@_01FHEEJDEE@A?$AA@
CONST	SEGMENT
??_C@_01FHEEJDEE@A?$AA@ DB 'A', 00H			; `string'
CONST	ENDS
;	COMDAT ??_C@_01CKDDGHAB@D?$AA@
CONST	SEGMENT
??_C@_01CKDDGHAB@D?$AA@ DB 'D', 00H			; `string'
CONST	ENDS
;	COMDAT ??_C@_01ELNMCGJD@W?$AA@
CONST	SEGMENT
??_C@_01ELNMCGJD@W?$AA@ DB 'W', 00H			; `string'
CONST	ENDS
;	COMDAT ??_C@_01CPLAODJH@S?$AA@
CONST	SEGMENT
??_C@_01CPLAODJH@S?$AA@ DB 'S', 00H			; `string'
CONST	ENDS
;	COMDAT ??_C@_0N@JFFAAPEI@Images?21?4jpg?$AA@
CONST	SEGMENT
??_C@_0N@JFFAAPEI@Images?21?4jpg?$AA@ DB 'Images\1.jpg', 00H ; `string'
CONST	ENDS
;	COMDAT __real@3f8ccccd
CONST	SEGMENT
__real@3f8ccccd DD 03f8ccccdr			; 1.1
CONST	ENDS
;	COMDAT ??_C@_0L@CJOIDFHO@Resources?2?$AA@
CONST	SEGMENT
??_C@_0L@CJOIDFHO@Resources?2?$AA@ DB 'Resources\', 00H	; `string'
CONST	ENDS
;	COMDAT ??_C@_0BN@IEPDBBDH@Chronicles?5of?5Mu?5Alpha?5Theta?$AA@
CONST	SEGMENT
??_C@_0BN@IEPDBBDH@Chronicles?5of?5Mu?5Alpha?5Theta?$AA@ DB 'Chronicles o'
	DB	'f Mu Alpha Theta', 00H			; `string'
CONST	ENDS
;	COMDAT xdata$x
xdata$x	SEGMENT
__unwindtable$?DarkGDK@@YAXXZ DD 0ffffffffH
	DD	FLAT:__unwindfunclet$?DarkGDK@@YAXXZ$0
	DD	0ffffffffH
	DD	FLAT:__unwindfunclet$?DarkGDK@@YAXXZ$1
	DD	0ffffffffH
	DD	FLAT:__unwindfunclet$?DarkGDK@@YAXXZ$2
	DD	0ffffffffH
	DD	FLAT:__unwindfunclet$?DarkGDK@@YAXXZ$3
__ehfuncinfo$?DarkGDK@@YAXXZ DD 019930522H
	DD	04H
	DD	FLAT:__unwindtable$?DarkGDK@@YAXXZ
	DD	2 DUP(00H)
	DD	2 DUP(00H)
	DD	00H
	DD	01H
; Function compile flags: /Odtp /ZI
xdata$x	ENDS
;	COMDAT ?DarkGDK@@YAXXZ
_TEXT	SEGMENT
tv277 = -140						; size = 4
tv269 = -136						; size = 4
tv261 = -132						; size = 4
tv152 = -132						; size = 4
tv136 = -132						; size = 4
tv90 = -132						; size = 4
tv79 = -132						; size = 4
$T91907 = -128						; size = 4
$T91908 = -124						; size = 4
$T91911 = -120						; size = 4
$T91912 = -116						; size = 4
$T91915 = -112						; size = 4
$T91916 = -108						; size = 4
$T91919 = -104						; size = 4
$T91920 = -100						; size = 4
_Controller$ = -32					; size = 4
_KeyBoard$ = -28					; size = 4
_Mouse$ = -24						; size = 4
_GameWindow$ = -20					; size = 4
_a$ = -14						; size = 1
_gameplay$ = -13					; size = 1
__$EHRec$ = -12						; size = 12
?DarkGDK@@YAXXZ PROC					; DarkGDK, COMDAT

; 30   : {

  00000	55		 push	 ebp
  00001	8b ec		 mov	 ebp, esp
  00003	6a ff		 push	 -1
  00005	68 00 00 00 00	 push	 __ehhandler$?DarkGDK@@YAXXZ
  0000a	64 a1 00 00 00
	00		 mov	 eax, DWORD PTR fs:0
  00010	50		 push	 eax
  00011	81 ec 80 00 00
	00		 sub	 esp, 128		; 00000080H
  00017	53		 push	 ebx
  00018	56		 push	 esi
  00019	57		 push	 edi
  0001a	a1 00 00 00 00	 mov	 eax, DWORD PTR ___security_cookie
  0001f	33 c5		 xor	 eax, ebp
  00021	50		 push	 eax
  00022	8d 45 f4	 lea	 eax, DWORD PTR __$EHRec$[ebp]
  00025	64 a3 00 00 00
	00		 mov	 DWORD PTR fs:0, eax

; 31   : 	bool gameplay=true;

  0002b	c6 45 f3 01	 mov	 BYTE PTR _gameplay$[ebp], 1

; 32   : 	bool a=true;

  0002f	c6 45 f2 01	 mov	 BYTE PTR _a$[ebp], 1

; 33   : 	Window* GameWindow=new Window(0,false,true,false,0,0,"Resources\\","Chronicles of Mu Alpha Theta");

  00033	6a 44		 push	 68			; 00000044H
  00035	e8 00 00 00 00	 call	 ??2@YAPAXI@Z		; operator new
  0003a	83 c4 04	 add	 esp, 4
  0003d	89 45 84	 mov	 DWORD PTR $T91908[ebp], eax
  00040	c7 45 fc 00 00
	00 00		 mov	 DWORD PTR __$EHRec$[ebp+8], 0
  00047	83 7d 84 00	 cmp	 DWORD PTR $T91908[ebp], 0
  0004b	74 26		 je	 SHORT $LN8@DarkGDK
  0004d	68 00 00 00 00	 push	 OFFSET ??_C@_0BN@IEPDBBDH@Chronicles?5of?5Mu?5Alpha?5Theta?$AA@
  00052	68 00 00 00 00	 push	 OFFSET ??_C@_0L@CJOIDFHO@Resources?2?$AA@
  00057	6a 00		 push	 0
  00059	6a 00		 push	 0
  0005b	6a 00		 push	 0
  0005d	6a 01		 push	 1
  0005f	6a 00		 push	 0
  00061	6a 00		 push	 0
  00063	8b 4d 84	 mov	 ecx, DWORD PTR $T91908[ebp]
  00066	e8 00 00 00 00	 call	 ??0Window@@QAE@H_N00HHPAD1@Z ; Window::Window
  0006b	89 85 7c ff ff
	ff		 mov	 DWORD PTR tv79[ebp], eax
  00071	eb 0a		 jmp	 SHORT $LN9@DarkGDK
$LN8@DarkGDK:
  00073	c7 85 7c ff ff
	ff 00 00 00 00	 mov	 DWORD PTR tv79[ebp], 0
$LN9@DarkGDK:
  0007d	8b 85 7c ff ff
	ff		 mov	 eax, DWORD PTR tv79[ebp]
  00083	89 45 80	 mov	 DWORD PTR $T91907[ebp], eax
  00086	c7 45 fc ff ff
	ff ff		 mov	 DWORD PTR __$EHRec$[ebp+8], -1
  0008d	8b 4d 80	 mov	 ecx, DWORD PTR $T91907[ebp]
  00090	89 4d ec	 mov	 DWORD PTR _GameWindow$[ebp], ecx

; 34   : 	MouseHandler* Mouse=new MouseHandler(true,"Images\\1.jpg",GameWindow,1.1f);

  00093	68 24 02 00 00	 push	 548			; 00000224H
  00098	e8 00 00 00 00	 call	 ??2@YAPAXI@Z		; operator new
  0009d	83 c4 04	 add	 esp, 4
  000a0	89 45 8c	 mov	 DWORD PTR $T91912[ebp], eax
  000a3	c7 45 fc 01 00
	00 00		 mov	 DWORD PTR __$EHRec$[ebp+8], 1
  000aa	83 7d 8c 00	 cmp	 DWORD PTR $T91912[ebp], 0
  000ae	74 25		 je	 SHORT $LN10@DarkGDK
  000b0	51		 push	 ecx
  000b1	d9 05 00 00 00
	00		 fld	 DWORD PTR __real@3f8ccccd
  000b7	d9 1c 24	 fstp	 DWORD PTR [esp]
  000ba	8b 45 ec	 mov	 eax, DWORD PTR _GameWindow$[ebp]
  000bd	50		 push	 eax
  000be	68 00 00 00 00	 push	 OFFSET ??_C@_0N@JFFAAPEI@Images?21?4jpg?$AA@
  000c3	6a 01		 push	 1
  000c5	8b 4d 8c	 mov	 ecx, DWORD PTR $T91912[ebp]
  000c8	e8 00 00 00 00	 call	 ??0MouseHandler@@QAE@_NPADPAVWindow@@M@Z ; MouseHandler::MouseHandler
  000cd	89 85 7c ff ff
	ff		 mov	 DWORD PTR tv90[ebp], eax
  000d3	eb 0a		 jmp	 SHORT $LN11@DarkGDK
$LN10@DarkGDK:
  000d5	c7 85 7c ff ff
	ff 00 00 00 00	 mov	 DWORD PTR tv90[ebp], 0
$LN11@DarkGDK:
  000df	8b 8d 7c ff ff
	ff		 mov	 ecx, DWORD PTR tv90[ebp]
  000e5	89 4d 88	 mov	 DWORD PTR $T91911[ebp], ecx
  000e8	c7 45 fc ff ff
	ff ff		 mov	 DWORD PTR __$EHRec$[ebp+8], -1
  000ef	8b 55 88	 mov	 edx, DWORD PTR $T91911[ebp]
  000f2	89 55 e8	 mov	 DWORD PTR _Mouse$[ebp], edx

; 35   : 	KeyHandler* KeyBoard=new KeyHandler(Mouse,5,5,"A","D","W","S");

  000f5	68 2c 13 00 00	 push	 4908			; 0000132cH
  000fa	e8 00 00 00 00	 call	 ??2@YAPAXI@Z		; operator new
  000ff	83 c4 04	 add	 esp, 4
  00102	89 45 94	 mov	 DWORD PTR $T91916[ebp], eax
  00105	c7 45 fc 02 00
	00 00		 mov	 DWORD PTR __$EHRec$[ebp+8], 2
  0010c	83 7d 94 00	 cmp	 DWORD PTR $T91916[ebp], 0
  00110	74 2c		 je	 SHORT $LN12@DarkGDK
  00112	68 00 00 00 00	 push	 OFFSET ??_C@_01CPLAODJH@S?$AA@
  00117	68 00 00 00 00	 push	 OFFSET ??_C@_01ELNMCGJD@W?$AA@
  0011c	68 00 00 00 00	 push	 OFFSET ??_C@_01CKDDGHAB@D?$AA@
  00121	68 00 00 00 00	 push	 OFFSET ??_C@_01FHEEJDEE@A?$AA@
  00126	6a 05		 push	 5
  00128	6a 05		 push	 5
  0012a	8b 45 e8	 mov	 eax, DWORD PTR _Mouse$[ebp]
  0012d	50		 push	 eax
  0012e	8b 4d 94	 mov	 ecx, DWORD PTR $T91916[ebp]
  00131	e8 00 00 00 00	 call	 ??0KeyHandler@@QAE@PAVMouseHandler@@HHPAD111@Z ; KeyHandler::KeyHandler
  00136	89 85 7c ff ff
	ff		 mov	 DWORD PTR tv136[ebp], eax
  0013c	eb 0a		 jmp	 SHORT $LN13@DarkGDK
$LN12@DarkGDK:
  0013e	c7 85 7c ff ff
	ff 00 00 00 00	 mov	 DWORD PTR tv136[ebp], 0
$LN13@DarkGDK:
  00148	8b 8d 7c ff ff
	ff		 mov	 ecx, DWORD PTR tv136[ebp]
  0014e	89 4d 90	 mov	 DWORD PTR $T91915[ebp], ecx
  00151	c7 45 fc ff ff
	ff ff		 mov	 DWORD PTR __$EHRec$[ebp+8], -1
  00158	8b 55 90	 mov	 edx, DWORD PTR $T91915[ebp]
  0015b	89 55 e4	 mov	 DWORD PTR _KeyBoard$[ebp], edx

; 36   : 	DeviceHandler* Controller=new DeviceHandler(Mouse,5,5,0.5f,0.5f,"JoyStickY Max","JoyStickX Min","JoyStickX Max","JoyStickY Min");

  0015e	68 90 22 00 00	 push	 8848			; 00002290H
  00163	e8 00 00 00 00	 call	 ??2@YAPAXI@Z		; operator new
  00168	83 c4 04	 add	 esp, 4
  0016b	89 45 9c	 mov	 DWORD PTR $T91920[ebp], eax
  0016e	c7 45 fc 03 00
	00 00		 mov	 DWORD PTR __$EHRec$[ebp+8], 3
  00175	83 7d 9c 00	 cmp	 DWORD PTR $T91920[ebp], 0
  00179	74 40		 je	 SHORT $LN14@DarkGDK
  0017b	68 00 00 00 00	 push	 OFFSET ??_C@_0O@CLAHEJHO@JoyStickY?5Min?$AA@
  00180	68 00 00 00 00	 push	 OFFSET ??_C@_0O@PCNAHOLE@JoyStickX?5Max?$AA@
  00185	68 00 00 00 00	 push	 OFFSET ??_C@_0O@OAFLJKNL@JoyStickX?5Min?$AA@
  0018a	68 00 00 00 00	 push	 OFFSET ??_C@_0O@DJIMKNBB@JoyStickY?5Max?$AA@
  0018f	51		 push	 ecx
  00190	d9 05 00 00 00
	00		 fld	 DWORD PTR __real@3f000000
  00196	d9 1c 24	 fstp	 DWORD PTR [esp]
  00199	51		 push	 ecx
  0019a	d9 05 00 00 00
	00		 fld	 DWORD PTR __real@3f000000
  001a0	d9 1c 24	 fstp	 DWORD PTR [esp]
  001a3	6a 05		 push	 5
  001a5	6a 05		 push	 5
  001a7	8b 45 e8	 mov	 eax, DWORD PTR _Mouse$[ebp]
  001aa	50		 push	 eax
  001ab	8b 4d 9c	 mov	 ecx, DWORD PTR $T91920[ebp]
  001ae	e8 00 00 00 00	 call	 ??0DeviceHandler@@QAE@PAVMouseHandler@@HHMMPAD111@Z ; DeviceHandler::DeviceHandler
  001b3	89 85 7c ff ff
	ff		 mov	 DWORD PTR tv152[ebp], eax
  001b9	eb 0a		 jmp	 SHORT $LN15@DarkGDK
$LN14@DarkGDK:
  001bb	c7 85 7c ff ff
	ff 00 00 00 00	 mov	 DWORD PTR tv152[ebp], 0
$LN15@DarkGDK:
  001c5	8b 8d 7c ff ff
	ff		 mov	 ecx, DWORD PTR tv152[ebp]
  001cb	89 4d 98	 mov	 DWORD PTR $T91919[ebp], ecx
  001ce	c7 45 fc ff ff
	ff ff		 mov	 DWORD PTR __$EHRec$[ebp+8], -1
  001d5	8b 55 98	 mov	 edx, DWORD PTR $T91919[ebp]
  001d8	89 55 e0	 mov	 DWORD PTR _Controller$[ebp], edx

; 37   : 	//SaveFile* Save=new SaveFile(0xE2);
; 38   : 	Mouse->SetMouseBoundToCursor(false);

  001db	6a 00		 push	 0
  001dd	8b 4d e8	 mov	 ecx, DWORD PTR _Mouse$[ebp]
  001e0	e8 00 00 00 00	 call	 ?SetMouseBoundToCursor@MouseHandler@@QAEX_N@Z ; MouseHandler::SetMouseBoundToCursor

; 39   : 
; 40   : 	if(dbFileExist("Objects\\Box\\Object.X")==1)

  001e5	68 00 00 00 00	 push	 OFFSET ??_C@_0BF@DJCACNOP@Objects?2Box?2Object?4X?$AA@
  001ea	e8 00 00 00 00	 call	 ?dbFileExist@@YAHPAD@Z	; dbFileExist
  001ef	83 c4 04	 add	 esp, 4
  001f2	83 f8 01	 cmp	 eax, 1
  001f5	75 0f		 jne	 SHORT $LN5@DarkGDK

; 41   : 		dbLoadObject("Objects\\Box\\Object.X",1);

  001f7	6a 01		 push	 1
  001f9	68 00 00 00 00	 push	 OFFSET ??_C@_0BF@DJCACNOP@Objects?2Box?2Object?4X?$AA@
  001fe	e8 00 00 00 00	 call	 ?dbLoadObject@@YAXPADH@Z ; dbLoadObject
  00203	83 c4 08	 add	 esp, 8
$LN5@DarkGDK:

; 42   : 	dbPositionCamera(0.0f,0.0f,0.0f);

  00206	51		 push	 ecx
  00207	d9 ee		 fldz
  00209	d9 1c 24	 fstp	 DWORD PTR [esp]
  0020c	51		 push	 ecx
  0020d	d9 ee		 fldz
  0020f	d9 1c 24	 fstp	 DWORD PTR [esp]
  00212	51		 push	 ecx
  00213	d9 ee		 fldz
  00215	d9 1c 24	 fstp	 DWORD PTR [esp]
  00218	e8 00 00 00 00	 call	 ?dbPositionCamera@@YAXMMM@Z ; dbPositionCamera
  0021d	83 c4 0c	 add	 esp, 12			; 0000000cH

; 43   : 	dbPositionObject(1,-0.25f,0.0f,2.0f);

  00220	51		 push	 ecx
  00221	d9 05 00 00 00
	00		 fld	 DWORD PTR __real@40000000
  00227	d9 1c 24	 fstp	 DWORD PTR [esp]
  0022a	51		 push	 ecx
  0022b	d9 ee		 fldz
  0022d	d9 1c 24	 fstp	 DWORD PTR [esp]
  00230	51		 push	 ecx
  00231	d9 05 00 00 00
	00		 fld	 DWORD PTR __real@be800000
  00237	d9 1c 24	 fstp	 DWORD PTR [esp]
  0023a	6a 01		 push	 1
  0023c	e8 00 00 00 00	 call	 ?dbPositionObject@@YAXHMMM@Z ; dbPositionObject
  00241	83 c4 10	 add	 esp, 16			; 00000010H
$LN4@DarkGDK:

; 44   : 
; 45   : 	while(LoopGDK()&&gameplay)

  00244	e8 00 00 00 00	 call	 ?LoopGDK@@YA_NXZ	; LoopGDK
  00249	0f b6 c0	 movzx	 eax, al
  0024c	85 c0		 test	 eax, eax
  0024e	0f 84 e6 00 00
	00		 je	 $LN3@DarkGDK
  00254	0f b6 45 f3	 movzx	 eax, BYTE PTR _gameplay$[ebp]
  00258	85 c0		 test	 eax, eax
  0025a	0f 84 da 00 00
	00		 je	 $LN3@DarkGDK

; 46   : 	{
; 47   : 		dbRotateObject(1,dbWrapValue(dbObjectAngleX(1)+2.0f),dbWrapValue(dbObjectAngleY(1)+1.0f),dbWrapValue(dbObjectAngleZ(1)+3.0f));

  00260	6a 01		 push	 1
  00262	e8 00 00 00 00	 call	 ?dbObjectAngleZ@@YAMH@Z	; dbObjectAngleZ
  00267	83 c4 04	 add	 esp, 4
  0026a	dc 05 00 00 00
	00		 fadd	 QWORD PTR __real@4008000000000000
  00270	d9 9d 7c ff ff
	ff		 fstp	 DWORD PTR tv261[ebp]
  00276	d9 85 7c ff ff
	ff		 fld	 DWORD PTR tv261[ebp]
  0027c	51		 push	 ecx
  0027d	d9 1c 24	 fstp	 DWORD PTR [esp]
  00280	e8 00 00 00 00	 call	 ?dbWrapValue@@YAMM@Z	; dbWrapValue
  00285	d9 1c 24	 fstp	 DWORD PTR [esp]
  00288	6a 01		 push	 1
  0028a	e8 00 00 00 00	 call	 ?dbObjectAngleY@@YAMH@Z	; dbObjectAngleY
  0028f	83 c4 04	 add	 esp, 4
  00292	dc 05 00 00 00
	00		 fadd	 QWORD PTR __real@3ff0000000000000
  00298	d9 9d 78 ff ff
	ff		 fstp	 DWORD PTR tv269[ebp]
  0029e	d9 85 78 ff ff
	ff		 fld	 DWORD PTR tv269[ebp]
  002a4	51		 push	 ecx
  002a5	d9 1c 24	 fstp	 DWORD PTR [esp]
  002a8	e8 00 00 00 00	 call	 ?dbWrapValue@@YAMM@Z	; dbWrapValue
  002ad	d9 1c 24	 fstp	 DWORD PTR [esp]
  002b0	6a 01		 push	 1
  002b2	e8 00 00 00 00	 call	 ?dbObjectAngleX@@YAMH@Z	; dbObjectAngleX
  002b7	83 c4 04	 add	 esp, 4
  002ba	dc 05 00 00 00
	00		 fadd	 QWORD PTR __real@4000000000000000
  002c0	d9 9d 74 ff ff
	ff		 fstp	 DWORD PTR tv277[ebp]
  002c6	d9 85 74 ff ff
	ff		 fld	 DWORD PTR tv277[ebp]
  002cc	51		 push	 ecx
  002cd	d9 1c 24	 fstp	 DWORD PTR [esp]
  002d0	e8 00 00 00 00	 call	 ?dbWrapValue@@YAMM@Z	; dbWrapValue
  002d5	d9 1c 24	 fstp	 DWORD PTR [esp]
  002d8	6a 01		 push	 1
  002da	e8 00 00 00 00	 call	 ?dbRotateObject@@YAXHMMM@Z ; dbRotateObject
  002df	83 c4 10	 add	 esp, 16			; 00000010H

; 48   : 
; 49   : 		if(KeyBoard->IsPressed(0)||Controller->GetIsGenericInput("Button 0",0.5f))

  002e2	6a 00		 push	 0
  002e4	8b 4d e4	 mov	 ecx, DWORD PTR _KeyBoard$[ebp]
  002e7	e8 00 00 00 00	 call	 ?IsPressed@KeyHandler@@QAE_NH@Z ; KeyHandler::IsPressed
  002ec	0f b6 c0	 movzx	 eax, al
  002ef	85 c0		 test	 eax, eax
  002f1	75 1e		 jne	 SHORT $LN1@DarkGDK
  002f3	51		 push	 ecx
  002f4	d9 05 00 00 00
	00		 fld	 DWORD PTR __real@3f000000
  002fa	d9 1c 24	 fstp	 DWORD PTR [esp]
  002fd	68 00 00 00 00	 push	 OFFSET ??_C@_08KCCGPEHE@Button?50?$AA@
  00302	8b 4d e0	 mov	 ecx, DWORD PTR _Controller$[ebp]
  00305	e8 00 00 00 00	 call	 ?GetIsGenericInput@DeviceHandler@@QAE_NPADM@Z ; DeviceHandler::GetIsGenericInput
  0030a	0f b6 c0	 movzx	 eax, al
  0030d	85 c0		 test	 eax, eax
  0030f	74 04		 je	 SHORT $LN2@DarkGDK
$LN1@DarkGDK:

; 50   : 			gameplay=false;

  00311	c6 45 f3 00	 mov	 BYTE PTR _gameplay$[ebp], 0
$LN2@DarkGDK:

; 51   : 
; 52   : 		Mouse->Update();

  00315	8b 4d e8	 mov	 ecx, DWORD PTR _Mouse$[ebp]
  00318	e8 00 00 00 00	 call	 ?Update@MouseHandler@@QAEXXZ ; MouseHandler::Update

; 53   : 		KeyBoard->Update();

  0031d	8b 4d e4	 mov	 ecx, DWORD PTR _KeyBoard$[ebp]
  00320	e8 00 00 00 00	 call	 ?Update@KeyHandler@@QAEXXZ ; KeyHandler::Update

; 54   : 		Controller->Update();

  00325	8b 4d e0	 mov	 ecx, DWORD PTR _Controller$[ebp]
  00328	e8 00 00 00 00	 call	 ?Update@DeviceHandler@@QAEXXZ ; DeviceHandler::Update

; 55   : 		GameWindow->Sync();

  0032d	8b 4d ec	 mov	 ecx, DWORD PTR _GameWindow$[ebp]
  00330	e8 00 00 00 00	 call	 ?Sync@Window@@QAEXXZ	; Window::Sync

; 56   : 	}

  00335	e9 0a ff ff ff	 jmp	 $LN4@DarkGDK
$LN3@DarkGDK:

; 57   : 
; 58   : 	return;
; 59   : }

  0033a	8b 4d f4	 mov	 ecx, DWORD PTR __$EHRec$[ebp]
  0033d	64 89 0d 00 00
	00 00		 mov	 DWORD PTR fs:0, ecx
  00344	59		 pop	 ecx
  00345	5f		 pop	 edi
  00346	5e		 pop	 esi
  00347	5b		 pop	 ebx
  00348	8b e5		 mov	 esp, ebp
  0034a	5d		 pop	 ebp
  0034b	c3		 ret	 0
_TEXT	ENDS
;	COMDAT text$x
text$x	SEGMENT
__unwindfunclet$?DarkGDK@@YAXXZ$0:
  00000	8b 45 84	 mov	 eax, DWORD PTR $T91908[ebp]
  00003	50		 push	 eax
  00004	e8 00 00 00 00	 call	 ??3@YAXPAX@Z		; operator delete
  00009	59		 pop	 ecx
  0000a	c3		 ret	 0
__unwindfunclet$?DarkGDK@@YAXXZ$1:
  0000b	8b 45 8c	 mov	 eax, DWORD PTR $T91912[ebp]
  0000e	50		 push	 eax
  0000f	e8 00 00 00 00	 call	 ??3@YAXPAX@Z		; operator delete
  00014	59		 pop	 ecx
  00015	c3		 ret	 0
__unwindfunclet$?DarkGDK@@YAXXZ$2:
  00016	8b 45 94	 mov	 eax, DWORD PTR $T91916[ebp]
  00019	50		 push	 eax
  0001a	e8 00 00 00 00	 call	 ??3@YAXPAX@Z		; operator delete
  0001f	59		 pop	 ecx
  00020	c3		 ret	 0
__unwindfunclet$?DarkGDK@@YAXXZ$3:
  00021	8b 45 9c	 mov	 eax, DWORD PTR $T91920[ebp]
  00024	50		 push	 eax
  00025	e8 00 00 00 00	 call	 ??3@YAXPAX@Z		; operator delete
  0002a	59		 pop	 ecx
  0002b	c3		 ret	 0
__ehhandler$?DarkGDK@@YAXXZ:
  0002c	8b 54 24 08	 mov	 edx, DWORD PTR [esp+8]
  00030	8d 42 0c	 lea	 eax, DWORD PTR [edx+12]
  00033	8b 8a 70 ff ff
	ff		 mov	 ecx, DWORD PTR [edx-144]
  00039	33 c8		 xor	 ecx, eax
  0003b	e8 00 00 00 00	 call	 @__security_check_cookie@4
  00040	b8 00 00 00 00	 mov	 eax, OFFSET __ehfuncinfo$?DarkGDK@@YAXXZ
  00045	e9 00 00 00 00	 jmp	 ___CxxFrameHandler3
text$x	ENDS
?DarkGDK@@YAXXZ ENDP					; DarkGDK
END
